opt subtitle "Microchip Technology Omniscient Code Generator (Lite mode) build 58300"

opt pagewidth 120

	opt lm

	processor	16F876A
clrc	macro
	bcf	3,0
	endm
clrz	macro
	bcf	3,2
	endm
setc	macro
	bsf	3,0
	endm
setz	macro
	bsf	3,2
	endm
skipc	macro
	btfss	3,0
	endm
skipz	macro
	btfss	3,2
	endm
skipnc	macro
	btfsc	3,0
	endm
skipnz	macro
	btfsc	3,2
	endm
indf	equ	0
indf0	equ	0
pc	equ	2
pcl	equ	2
status	equ	3
fsr	equ	4
fsr0	equ	4
c	equ	1
z	equ	0
pclath	equ	10
# 49 "C:\Program Files (x86)\Microchip\xc8\v1.32\include\pic16f876a.h"
INDF equ 00h ;# 
# 55 "C:\Program Files (x86)\Microchip\xc8\v1.32\include\pic16f876a.h"
TMR0 equ 01h ;# 
# 61 "C:\Program Files (x86)\Microchip\xc8\v1.32\include\pic16f876a.h"
PCL equ 02h ;# 
# 67 "C:\Program Files (x86)\Microchip\xc8\v1.32\include\pic16f876a.h"
STATUS equ 03h ;# 
# 154 "C:\Program Files (x86)\Microchip\xc8\v1.32\include\pic16f876a.h"
FSR equ 04h ;# 
# 160 "C:\Program Files (x86)\Microchip\xc8\v1.32\include\pic16f876a.h"
PORTA equ 05h ;# 
# 209 "C:\Program Files (x86)\Microchip\xc8\v1.32\include\pic16f876a.h"
PORTB equ 06h ;# 
# 270 "C:\Program Files (x86)\Microchip\xc8\v1.32\include\pic16f876a.h"
PORTC equ 07h ;# 
# 331 "C:\Program Files (x86)\Microchip\xc8\v1.32\include\pic16f876a.h"
PCLATH equ 0Ah ;# 
# 350 "C:\Program Files (x86)\Microchip\xc8\v1.32\include\pic16f876a.h"
INTCON equ 0Bh ;# 
# 427 "C:\Program Files (x86)\Microchip\xc8\v1.32\include\pic16f876a.h"
PIR1 equ 0Ch ;# 
# 482 "C:\Program Files (x86)\Microchip\xc8\v1.32\include\pic16f876a.h"
PIR2 equ 0Dh ;# 
# 521 "C:\Program Files (x86)\Microchip\xc8\v1.32\include\pic16f876a.h"
TMR1 equ 0Eh ;# 
# 527 "C:\Program Files (x86)\Microchip\xc8\v1.32\include\pic16f876a.h"
TMR1L equ 0Eh ;# 
# 533 "C:\Program Files (x86)\Microchip\xc8\v1.32\include\pic16f876a.h"
TMR1H equ 0Fh ;# 
# 539 "C:\Program Files (x86)\Microchip\xc8\v1.32\include\pic16f876a.h"
T1CON equ 010h ;# 
# 613 "C:\Program Files (x86)\Microchip\xc8\v1.32\include\pic16f876a.h"
TMR2 equ 011h ;# 
# 619 "C:\Program Files (x86)\Microchip\xc8\v1.32\include\pic16f876a.h"
T2CON equ 012h ;# 
# 689 "C:\Program Files (x86)\Microchip\xc8\v1.32\include\pic16f876a.h"
SSPBUF equ 013h ;# 
# 695 "C:\Program Files (x86)\Microchip\xc8\v1.32\include\pic16f876a.h"
SSPCON equ 014h ;# 
# 764 "C:\Program Files (x86)\Microchip\xc8\v1.32\include\pic16f876a.h"
CCPR1 equ 015h ;# 
# 770 "C:\Program Files (x86)\Microchip\xc8\v1.32\include\pic16f876a.h"
CCPR1L equ 015h ;# 
# 776 "C:\Program Files (x86)\Microchip\xc8\v1.32\include\pic16f876a.h"
CCPR1H equ 016h ;# 
# 782 "C:\Program Files (x86)\Microchip\xc8\v1.32\include\pic16f876a.h"
CCP1CON equ 017h ;# 
# 839 "C:\Program Files (x86)\Microchip\xc8\v1.32\include\pic16f876a.h"
RCSTA equ 018h ;# 
# 933 "C:\Program Files (x86)\Microchip\xc8\v1.32\include\pic16f876a.h"
TXREG equ 019h ;# 
# 939 "C:\Program Files (x86)\Microchip\xc8\v1.32\include\pic16f876a.h"
RCREG equ 01Ah ;# 
# 945 "C:\Program Files (x86)\Microchip\xc8\v1.32\include\pic16f876a.h"
CCPR2 equ 01Bh ;# 
# 951 "C:\Program Files (x86)\Microchip\xc8\v1.32\include\pic16f876a.h"
CCPR2L equ 01Bh ;# 
# 957 "C:\Program Files (x86)\Microchip\xc8\v1.32\include\pic16f876a.h"
CCPR2H equ 01Ch ;# 
# 963 "C:\Program Files (x86)\Microchip\xc8\v1.32\include\pic16f876a.h"
CCP2CON equ 01Dh ;# 
# 1020 "C:\Program Files (x86)\Microchip\xc8\v1.32\include\pic16f876a.h"
ADRESH equ 01Eh ;# 
# 1026 "C:\Program Files (x86)\Microchip\xc8\v1.32\include\pic16f876a.h"
ADCON0 equ 01Fh ;# 
# 1121 "C:\Program Files (x86)\Microchip\xc8\v1.32\include\pic16f876a.h"
OPTION_REG equ 081h ;# 
# 1190 "C:\Program Files (x86)\Microchip\xc8\v1.32\include\pic16f876a.h"
TRISA equ 085h ;# 
# 1239 "C:\Program Files (x86)\Microchip\xc8\v1.32\include\pic16f876a.h"
TRISB equ 086h ;# 
# 1300 "C:\Program Files (x86)\Microchip\xc8\v1.32\include\pic16f876a.h"
TRISC equ 087h ;# 
# 1361 "C:\Program Files (x86)\Microchip\xc8\v1.32\include\pic16f876a.h"
PIE1 equ 08Ch ;# 
# 1416 "C:\Program Files (x86)\Microchip\xc8\v1.32\include\pic16f876a.h"
PIE2 equ 08Dh ;# 
# 1455 "C:\Program Files (x86)\Microchip\xc8\v1.32\include\pic16f876a.h"
PCON equ 08Eh ;# 
# 1488 "C:\Program Files (x86)\Microchip\xc8\v1.32\include\pic16f876a.h"
SSPCON2 equ 091h ;# 
# 1549 "C:\Program Files (x86)\Microchip\xc8\v1.32\include\pic16f876a.h"
PR2 equ 092h ;# 
# 1555 "C:\Program Files (x86)\Microchip\xc8\v1.32\include\pic16f876a.h"
SSPADD equ 093h ;# 
# 1561 "C:\Program Files (x86)\Microchip\xc8\v1.32\include\pic16f876a.h"
SSPSTAT equ 094h ;# 
# 1729 "C:\Program Files (x86)\Microchip\xc8\v1.32\include\pic16f876a.h"
TXSTA equ 098h ;# 
# 1809 "C:\Program Files (x86)\Microchip\xc8\v1.32\include\pic16f876a.h"
SPBRG equ 099h ;# 
# 1815 "C:\Program Files (x86)\Microchip\xc8\v1.32\include\pic16f876a.h"
CMCON equ 09Ch ;# 
# 1884 "C:\Program Files (x86)\Microchip\xc8\v1.32\include\pic16f876a.h"
CVRCON equ 09Dh ;# 
# 1948 "C:\Program Files (x86)\Microchip\xc8\v1.32\include\pic16f876a.h"
ADRESL equ 09Eh ;# 
# 1954 "C:\Program Files (x86)\Microchip\xc8\v1.32\include\pic16f876a.h"
ADCON1 equ 09Fh ;# 
# 2012 "C:\Program Files (x86)\Microchip\xc8\v1.32\include\pic16f876a.h"
EEDATA equ 010Ch ;# 
# 2018 "C:\Program Files (x86)\Microchip\xc8\v1.32\include\pic16f876a.h"
EEADR equ 010Dh ;# 
# 2024 "C:\Program Files (x86)\Microchip\xc8\v1.32\include\pic16f876a.h"
EEDATH equ 010Eh ;# 
# 2030 "C:\Program Files (x86)\Microchip\xc8\v1.32\include\pic16f876a.h"
EEADRH equ 010Fh ;# 
# 2036 "C:\Program Files (x86)\Microchip\xc8\v1.32\include\pic16f876a.h"
EECON1 equ 018Ch ;# 
# 2080 "C:\Program Files (x86)\Microchip\xc8\v1.32\include\pic16f876a.h"
EECON2 equ 018Dh ;# 
# 49 "C:\Program Files (x86)\Microchip\xc8\v1.32\include\pic16f876a.h"
INDF equ 00h ;# 
# 55 "C:\Program Files (x86)\Microchip\xc8\v1.32\include\pic16f876a.h"
TMR0 equ 01h ;# 
# 61 "C:\Program Files (x86)\Microchip\xc8\v1.32\include\pic16f876a.h"
PCL equ 02h ;# 
# 67 "C:\Program Files (x86)\Microchip\xc8\v1.32\include\pic16f876a.h"
STATUS equ 03h ;# 
# 154 "C:\Program Files (x86)\Microchip\xc8\v1.32\include\pic16f876a.h"
FSR equ 04h ;# 
# 160 "C:\Program Files (x86)\Microchip\xc8\v1.32\include\pic16f876a.h"
PORTA equ 05h ;# 
# 209 "C:\Program Files (x86)\Microchip\xc8\v1.32\include\pic16f876a.h"
PORTB equ 06h ;# 
# 270 "C:\Program Files (x86)\Microchip\xc8\v1.32\include\pic16f876a.h"
PORTC equ 07h ;# 
# 331 "C:\Program Files (x86)\Microchip\xc8\v1.32\include\pic16f876a.h"
PCLATH equ 0Ah ;# 
# 350 "C:\Program Files (x86)\Microchip\xc8\v1.32\include\pic16f876a.h"
INTCON equ 0Bh ;# 
# 427 "C:\Program Files (x86)\Microchip\xc8\v1.32\include\pic16f876a.h"
PIR1 equ 0Ch ;# 
# 482 "C:\Program Files (x86)\Microchip\xc8\v1.32\include\pic16f876a.h"
PIR2 equ 0Dh ;# 
# 521 "C:\Program Files (x86)\Microchip\xc8\v1.32\include\pic16f876a.h"
TMR1 equ 0Eh ;# 
# 527 "C:\Program Files (x86)\Microchip\xc8\v1.32\include\pic16f876a.h"
TMR1L equ 0Eh ;# 
# 533 "C:\Program Files (x86)\Microchip\xc8\v1.32\include\pic16f876a.h"
TMR1H equ 0Fh ;# 
# 539 "C:\Program Files (x86)\Microchip\xc8\v1.32\include\pic16f876a.h"
T1CON equ 010h ;# 
# 613 "C:\Program Files (x86)\Microchip\xc8\v1.32\include\pic16f876a.h"
TMR2 equ 011h ;# 
# 619 "C:\Program Files (x86)\Microchip\xc8\v1.32\include\pic16f876a.h"
T2CON equ 012h ;# 
# 689 "C:\Program Files (x86)\Microchip\xc8\v1.32\include\pic16f876a.h"
SSPBUF equ 013h ;# 
# 695 "C:\Program Files (x86)\Microchip\xc8\v1.32\include\pic16f876a.h"
SSPCON equ 014h ;# 
# 764 "C:\Program Files (x86)\Microchip\xc8\v1.32\include\pic16f876a.h"
CCPR1 equ 015h ;# 
# 770 "C:\Program Files (x86)\Microchip\xc8\v1.32\include\pic16f876a.h"
CCPR1L equ 015h ;# 
# 776 "C:\Program Files (x86)\Microchip\xc8\v1.32\include\pic16f876a.h"
CCPR1H equ 016h ;# 
# 782 "C:\Program Files (x86)\Microchip\xc8\v1.32\include\pic16f876a.h"
CCP1CON equ 017h ;# 
# 839 "C:\Program Files (x86)\Microchip\xc8\v1.32\include\pic16f876a.h"
RCSTA equ 018h ;# 
# 933 "C:\Program Files (x86)\Microchip\xc8\v1.32\include\pic16f876a.h"
TXREG equ 019h ;# 
# 939 "C:\Program Files (x86)\Microchip\xc8\v1.32\include\pic16f876a.h"
RCREG equ 01Ah ;# 
# 945 "C:\Program Files (x86)\Microchip\xc8\v1.32\include\pic16f876a.h"
CCPR2 equ 01Bh ;# 
# 951 "C:\Program Files (x86)\Microchip\xc8\v1.32\include\pic16f876a.h"
CCPR2L equ 01Bh ;# 
# 957 "C:\Program Files (x86)\Microchip\xc8\v1.32\include\pic16f876a.h"
CCPR2H equ 01Ch ;# 
# 963 "C:\Program Files (x86)\Microchip\xc8\v1.32\include\pic16f876a.h"
CCP2CON equ 01Dh ;# 
# 1020 "C:\Program Files (x86)\Microchip\xc8\v1.32\include\pic16f876a.h"
ADRESH equ 01Eh ;# 
# 1026 "C:\Program Files (x86)\Microchip\xc8\v1.32\include\pic16f876a.h"
ADCON0 equ 01Fh ;# 
# 1121 "C:\Program Files (x86)\Microchip\xc8\v1.32\include\pic16f876a.h"
OPTION_REG equ 081h ;# 
# 1190 "C:\Program Files (x86)\Microchip\xc8\v1.32\include\pic16f876a.h"
TRISA equ 085h ;# 
# 1239 "C:\Program Files (x86)\Microchip\xc8\v1.32\include\pic16f876a.h"
TRISB equ 086h ;# 
# 1300 "C:\Program Files (x86)\Microchip\xc8\v1.32\include\pic16f876a.h"
TRISC equ 087h ;# 
# 1361 "C:\Program Files (x86)\Microchip\xc8\v1.32\include\pic16f876a.h"
PIE1 equ 08Ch ;# 
# 1416 "C:\Program Files (x86)\Microchip\xc8\v1.32\include\pic16f876a.h"
PIE2 equ 08Dh ;# 
# 1455 "C:\Program Files (x86)\Microchip\xc8\v1.32\include\pic16f876a.h"
PCON equ 08Eh ;# 
# 1488 "C:\Program Files (x86)\Microchip\xc8\v1.32\include\pic16f876a.h"
SSPCON2 equ 091h ;# 
# 1549 "C:\Program Files (x86)\Microchip\xc8\v1.32\include\pic16f876a.h"
PR2 equ 092h ;# 
# 1555 "C:\Program Files (x86)\Microchip\xc8\v1.32\include\pic16f876a.h"
SSPADD equ 093h ;# 
# 1561 "C:\Program Files (x86)\Microchip\xc8\v1.32\include\pic16f876a.h"
SSPSTAT equ 094h ;# 
# 1729 "C:\Program Files (x86)\Microchip\xc8\v1.32\include\pic16f876a.h"
TXSTA equ 098h ;# 
# 1809 "C:\Program Files (x86)\Microchip\xc8\v1.32\include\pic16f876a.h"
SPBRG equ 099h ;# 
# 1815 "C:\Program Files (x86)\Microchip\xc8\v1.32\include\pic16f876a.h"
CMCON equ 09Ch ;# 
# 1884 "C:\Program Files (x86)\Microchip\xc8\v1.32\include\pic16f876a.h"
CVRCON equ 09Dh ;# 
# 1948 "C:\Program Files (x86)\Microchip\xc8\v1.32\include\pic16f876a.h"
ADRESL equ 09Eh ;# 
# 1954 "C:\Program Files (x86)\Microchip\xc8\v1.32\include\pic16f876a.h"
ADCON1 equ 09Fh ;# 
# 2012 "C:\Program Files (x86)\Microchip\xc8\v1.32\include\pic16f876a.h"
EEDATA equ 010Ch ;# 
# 2018 "C:\Program Files (x86)\Microchip\xc8\v1.32\include\pic16f876a.h"
EEADR equ 010Dh ;# 
# 2024 "C:\Program Files (x86)\Microchip\xc8\v1.32\include\pic16f876a.h"
EEDATH equ 010Eh ;# 
# 2030 "C:\Program Files (x86)\Microchip\xc8\v1.32\include\pic16f876a.h"
EEADRH equ 010Fh ;# 
# 2036 "C:\Program Files (x86)\Microchip\xc8\v1.32\include\pic16f876a.h"
EECON1 equ 018Ch ;# 
# 2080 "C:\Program Files (x86)\Microchip\xc8\v1.32\include\pic16f876a.h"
EECON2 equ 018Dh ;# 
# 49 "C:\Program Files (x86)\Microchip\xc8\v1.32\include\pic16f876a.h"
INDF equ 00h ;# 
# 55 "C:\Program Files (x86)\Microchip\xc8\v1.32\include\pic16f876a.h"
TMR0 equ 01h ;# 
# 61 "C:\Program Files (x86)\Microchip\xc8\v1.32\include\pic16f876a.h"
PCL equ 02h ;# 
# 67 "C:\Program Files (x86)\Microchip\xc8\v1.32\include\pic16f876a.h"
STATUS equ 03h ;# 
# 154 "C:\Program Files (x86)\Microchip\xc8\v1.32\include\pic16f876a.h"
FSR equ 04h ;# 
# 160 "C:\Program Files (x86)\Microchip\xc8\v1.32\include\pic16f876a.h"
PORTA equ 05h ;# 
# 209 "C:\Program Files (x86)\Microchip\xc8\v1.32\include\pic16f876a.h"
PORTB equ 06h ;# 
# 270 "C:\Program Files (x86)\Microchip\xc8\v1.32\include\pic16f876a.h"
PORTC equ 07h ;# 
# 331 "C:\Program Files (x86)\Microchip\xc8\v1.32\include\pic16f876a.h"
PCLATH equ 0Ah ;# 
# 350 "C:\Program Files (x86)\Microchip\xc8\v1.32\include\pic16f876a.h"
INTCON equ 0Bh ;# 
# 427 "C:\Program Files (x86)\Microchip\xc8\v1.32\include\pic16f876a.h"
PIR1 equ 0Ch ;# 
# 482 "C:\Program Files (x86)\Microchip\xc8\v1.32\include\pic16f876a.h"
PIR2 equ 0Dh ;# 
# 521 "C:\Program Files (x86)\Microchip\xc8\v1.32\include\pic16f876a.h"
TMR1 equ 0Eh ;# 
# 527 "C:\Program Files (x86)\Microchip\xc8\v1.32\include\pic16f876a.h"
TMR1L equ 0Eh ;# 
# 533 "C:\Program Files (x86)\Microchip\xc8\v1.32\include\pic16f876a.h"
TMR1H equ 0Fh ;# 
# 539 "C:\Program Files (x86)\Microchip\xc8\v1.32\include\pic16f876a.h"
T1CON equ 010h ;# 
# 613 "C:\Program Files (x86)\Microchip\xc8\v1.32\include\pic16f876a.h"
TMR2 equ 011h ;# 
# 619 "C:\Program Files (x86)\Microchip\xc8\v1.32\include\pic16f876a.h"
T2CON equ 012h ;# 
# 689 "C:\Program Files (x86)\Microchip\xc8\v1.32\include\pic16f876a.h"
SSPBUF equ 013h ;# 
# 695 "C:\Program Files (x86)\Microchip\xc8\v1.32\include\pic16f876a.h"
SSPCON equ 014h ;# 
# 764 "C:\Program Files (x86)\Microchip\xc8\v1.32\include\pic16f876a.h"
CCPR1 equ 015h ;# 
# 770 "C:\Program Files (x86)\Microchip\xc8\v1.32\include\pic16f876a.h"
CCPR1L equ 015h ;# 
# 776 "C:\Program Files (x86)\Microchip\xc8\v1.32\include\pic16f876a.h"
CCPR1H equ 016h ;# 
# 782 "C:\Program Files (x86)\Microchip\xc8\v1.32\include\pic16f876a.h"
CCP1CON equ 017h ;# 
# 839 "C:\Program Files (x86)\Microchip\xc8\v1.32\include\pic16f876a.h"
RCSTA equ 018h ;# 
# 933 "C:\Program Files (x86)\Microchip\xc8\v1.32\include\pic16f876a.h"
TXREG equ 019h ;# 
# 939 "C:\Program Files (x86)\Microchip\xc8\v1.32\include\pic16f876a.h"
RCREG equ 01Ah ;# 
# 945 "C:\Program Files (x86)\Microchip\xc8\v1.32\include\pic16f876a.h"
CCPR2 equ 01Bh ;# 
# 951 "C:\Program Files (x86)\Microchip\xc8\v1.32\include\pic16f876a.h"
CCPR2L equ 01Bh ;# 
# 957 "C:\Program Files (x86)\Microchip\xc8\v1.32\include\pic16f876a.h"
CCPR2H equ 01Ch ;# 
# 963 "C:\Program Files (x86)\Microchip\xc8\v1.32\include\pic16f876a.h"
CCP2CON equ 01Dh ;# 
# 1020 "C:\Program Files (x86)\Microchip\xc8\v1.32\include\pic16f876a.h"
ADRESH equ 01Eh ;# 
# 1026 "C:\Program Files (x86)\Microchip\xc8\v1.32\include\pic16f876a.h"
ADCON0 equ 01Fh ;# 
# 1121 "C:\Program Files (x86)\Microchip\xc8\v1.32\include\pic16f876a.h"
OPTION_REG equ 081h ;# 
# 1190 "C:\Program Files (x86)\Microchip\xc8\v1.32\include\pic16f876a.h"
TRISA equ 085h ;# 
# 1239 "C:\Program Files (x86)\Microchip\xc8\v1.32\include\pic16f876a.h"
TRISB equ 086h ;# 
# 1300 "C:\Program Files (x86)\Microchip\xc8\v1.32\include\pic16f876a.h"
TRISC equ 087h ;# 
# 1361 "C:\Program Files (x86)\Microchip\xc8\v1.32\include\pic16f876a.h"
PIE1 equ 08Ch ;# 
# 1416 "C:\Program Files (x86)\Microchip\xc8\v1.32\include\pic16f876a.h"
PIE2 equ 08Dh ;# 
# 1455 "C:\Program Files (x86)\Microchip\xc8\v1.32\include\pic16f876a.h"
PCON equ 08Eh ;# 
# 1488 "C:\Program Files (x86)\Microchip\xc8\v1.32\include\pic16f876a.h"
SSPCON2 equ 091h ;# 
# 1549 "C:\Program Files (x86)\Microchip\xc8\v1.32\include\pic16f876a.h"
PR2 equ 092h ;# 
# 1555 "C:\Program Files (x86)\Microchip\xc8\v1.32\include\pic16f876a.h"
SSPADD equ 093h ;# 
# 1561 "C:\Program Files (x86)\Microchip\xc8\v1.32\include\pic16f876a.h"
SSPSTAT equ 094h ;# 
# 1729 "C:\Program Files (x86)\Microchip\xc8\v1.32\include\pic16f876a.h"
TXSTA equ 098h ;# 
# 1809 "C:\Program Files (x86)\Microchip\xc8\v1.32\include\pic16f876a.h"
SPBRG equ 099h ;# 
# 1815 "C:\Program Files (x86)\Microchip\xc8\v1.32\include\pic16f876a.h"
CMCON equ 09Ch ;# 
# 1884 "C:\Program Files (x86)\Microchip\xc8\v1.32\include\pic16f876a.h"
CVRCON equ 09Dh ;# 
# 1948 "C:\Program Files (x86)\Microchip\xc8\v1.32\include\pic16f876a.h"
ADRESL equ 09Eh ;# 
# 1954 "C:\Program Files (x86)\Microchip\xc8\v1.32\include\pic16f876a.h"
ADCON1 equ 09Fh ;# 
# 2012 "C:\Program Files (x86)\Microchip\xc8\v1.32\include\pic16f876a.h"
EEDATA equ 010Ch ;# 
# 2018 "C:\Program Files (x86)\Microchip\xc8\v1.32\include\pic16f876a.h"
EEADR equ 010Dh ;# 
# 2024 "C:\Program Files (x86)\Microchip\xc8\v1.32\include\pic16f876a.h"
EEDATH equ 010Eh ;# 
# 2030 "C:\Program Files (x86)\Microchip\xc8\v1.32\include\pic16f876a.h"
EEADRH equ 010Fh ;# 
# 2036 "C:\Program Files (x86)\Microchip\xc8\v1.32\include\pic16f876a.h"
EECON1 equ 018Ch ;# 
# 2080 "C:\Program Files (x86)\Microchip\xc8\v1.32\include\pic16f876a.h"
EECON2 equ 018Dh ;# 
# 49 "C:\Program Files (x86)\Microchip\xc8\v1.32\include\pic16f876a.h"
INDF equ 00h ;# 
# 55 "C:\Program Files (x86)\Microchip\xc8\v1.32\include\pic16f876a.h"
TMR0 equ 01h ;# 
# 61 "C:\Program Files (x86)\Microchip\xc8\v1.32\include\pic16f876a.h"
PCL equ 02h ;# 
# 67 "C:\Program Files (x86)\Microchip\xc8\v1.32\include\pic16f876a.h"
STATUS equ 03h ;# 
# 154 "C:\Program Files (x86)\Microchip\xc8\v1.32\include\pic16f876a.h"
FSR equ 04h ;# 
# 160 "C:\Program Files (x86)\Microchip\xc8\v1.32\include\pic16f876a.h"
PORTA equ 05h ;# 
# 209 "C:\Program Files (x86)\Microchip\xc8\v1.32\include\pic16f876a.h"
PORTB equ 06h ;# 
# 270 "C:\Program Files (x86)\Microchip\xc8\v1.32\include\pic16f876a.h"
PORTC equ 07h ;# 
# 331 "C:\Program Files (x86)\Microchip\xc8\v1.32\include\pic16f876a.h"
PCLATH equ 0Ah ;# 
# 350 "C:\Program Files (x86)\Microchip\xc8\v1.32\include\pic16f876a.h"
INTCON equ 0Bh ;# 
# 427 "C:\Program Files (x86)\Microchip\xc8\v1.32\include\pic16f876a.h"
PIR1 equ 0Ch ;# 
# 482 "C:\Program Files (x86)\Microchip\xc8\v1.32\include\pic16f876a.h"
PIR2 equ 0Dh ;# 
# 521 "C:\Program Files (x86)\Microchip\xc8\v1.32\include\pic16f876a.h"
TMR1 equ 0Eh ;# 
# 527 "C:\Program Files (x86)\Microchip\xc8\v1.32\include\pic16f876a.h"
TMR1L equ 0Eh ;# 
# 533 "C:\Program Files (x86)\Microchip\xc8\v1.32\include\pic16f876a.h"
TMR1H equ 0Fh ;# 
# 539 "C:\Program Files (x86)\Microchip\xc8\v1.32\include\pic16f876a.h"
T1CON equ 010h ;# 
# 613 "C:\Program Files (x86)\Microchip\xc8\v1.32\include\pic16f876a.h"
TMR2 equ 011h ;# 
# 619 "C:\Program Files (x86)\Microchip\xc8\v1.32\include\pic16f876a.h"
T2CON equ 012h ;# 
# 689 "C:\Program Files (x86)\Microchip\xc8\v1.32\include\pic16f876a.h"
SSPBUF equ 013h ;# 
# 695 "C:\Program Files (x86)\Microchip\xc8\v1.32\include\pic16f876a.h"
SSPCON equ 014h ;# 
# 764 "C:\Program Files (x86)\Microchip\xc8\v1.32\include\pic16f876a.h"
CCPR1 equ 015h ;# 
# 770 "C:\Program Files (x86)\Microchip\xc8\v1.32\include\pic16f876a.h"
CCPR1L equ 015h ;# 
# 776 "C:\Program Files (x86)\Microchip\xc8\v1.32\include\pic16f876a.h"
CCPR1H equ 016h ;# 
# 782 "C:\Program Files (x86)\Microchip\xc8\v1.32\include\pic16f876a.h"
CCP1CON equ 017h ;# 
# 839 "C:\Program Files (x86)\Microchip\xc8\v1.32\include\pic16f876a.h"
RCSTA equ 018h ;# 
# 933 "C:\Program Files (x86)\Microchip\xc8\v1.32\include\pic16f876a.h"
TXREG equ 019h ;# 
# 939 "C:\Program Files (x86)\Microchip\xc8\v1.32\include\pic16f876a.h"
RCREG equ 01Ah ;# 
# 945 "C:\Program Files (x86)\Microchip\xc8\v1.32\include\pic16f876a.h"
CCPR2 equ 01Bh ;# 
# 951 "C:\Program Files (x86)\Microchip\xc8\v1.32\include\pic16f876a.h"
CCPR2L equ 01Bh ;# 
# 957 "C:\Program Files (x86)\Microchip\xc8\v1.32\include\pic16f876a.h"
CCPR2H equ 01Ch ;# 
# 963 "C:\Program Files (x86)\Microchip\xc8\v1.32\include\pic16f876a.h"
CCP2CON equ 01Dh ;# 
# 1020 "C:\Program Files (x86)\Microchip\xc8\v1.32\include\pic16f876a.h"
ADRESH equ 01Eh ;# 
# 1026 "C:\Program Files (x86)\Microchip\xc8\v1.32\include\pic16f876a.h"
ADCON0 equ 01Fh ;# 
# 1121 "C:\Program Files (x86)\Microchip\xc8\v1.32\include\pic16f876a.h"
OPTION_REG equ 081h ;# 
# 1190 "C:\Program Files (x86)\Microchip\xc8\v1.32\include\pic16f876a.h"
TRISA equ 085h ;# 
# 1239 "C:\Program Files (x86)\Microchip\xc8\v1.32\include\pic16f876a.h"
TRISB equ 086h ;# 
# 1300 "C:\Program Files (x86)\Microchip\xc8\v1.32\include\pic16f876a.h"
TRISC equ 087h ;# 
# 1361 "C:\Program Files (x86)\Microchip\xc8\v1.32\include\pic16f876a.h"
PIE1 equ 08Ch ;# 
# 1416 "C:\Program Files (x86)\Microchip\xc8\v1.32\include\pic16f876a.h"
PIE2 equ 08Dh ;# 
# 1455 "C:\Program Files (x86)\Microchip\xc8\v1.32\include\pic16f876a.h"
PCON equ 08Eh ;# 
# 1488 "C:\Program Files (x86)\Microchip\xc8\v1.32\include\pic16f876a.h"
SSPCON2 equ 091h ;# 
# 1549 "C:\Program Files (x86)\Microchip\xc8\v1.32\include\pic16f876a.h"
PR2 equ 092h ;# 
# 1555 "C:\Program Files (x86)\Microchip\xc8\v1.32\include\pic16f876a.h"
SSPADD equ 093h ;# 
# 1561 "C:\Program Files (x86)\Microchip\xc8\v1.32\include\pic16f876a.h"
SSPSTAT equ 094h ;# 
# 1729 "C:\Program Files (x86)\Microchip\xc8\v1.32\include\pic16f876a.h"
TXSTA equ 098h ;# 
# 1809 "C:\Program Files (x86)\Microchip\xc8\v1.32\include\pic16f876a.h"
SPBRG equ 099h ;# 
# 1815 "C:\Program Files (x86)\Microchip\xc8\v1.32\include\pic16f876a.h"
CMCON equ 09Ch ;# 
# 1884 "C:\Program Files (x86)\Microchip\xc8\v1.32\include\pic16f876a.h"
CVRCON equ 09Dh ;# 
# 1948 "C:\Program Files (x86)\Microchip\xc8\v1.32\include\pic16f876a.h"
ADRESL equ 09Eh ;# 
# 1954 "C:\Program Files (x86)\Microchip\xc8\v1.32\include\pic16f876a.h"
ADCON1 equ 09Fh ;# 
# 2012 "C:\Program Files (x86)\Microchip\xc8\v1.32\include\pic16f876a.h"
EEDATA equ 010Ch ;# 
# 2018 "C:\Program Files (x86)\Microchip\xc8\v1.32\include\pic16f876a.h"
EEADR equ 010Dh ;# 
# 2024 "C:\Program Files (x86)\Microchip\xc8\v1.32\include\pic16f876a.h"
EEDATH equ 010Eh ;# 
# 2030 "C:\Program Files (x86)\Microchip\xc8\v1.32\include\pic16f876a.h"
EEADRH equ 010Fh ;# 
# 2036 "C:\Program Files (x86)\Microchip\xc8\v1.32\include\pic16f876a.h"
EECON1 equ 018Ch ;# 
# 2080 "C:\Program Files (x86)\Microchip\xc8\v1.32\include\pic16f876a.h"
EECON2 equ 018Dh ;# 
	FNCALL	_main,_SIM300Cmd
	FNCALL	_main,_SIM300Init
	FNCALL	_main,_SIM300SendMsg
	FNCALL	_main,_USARTFlushBuffer
	FNCALL	_SIM300SendMsg,_SIM300Cmd
	FNCALL	_SIM300SendMsg,_SIM300DeleteMsg
	FNCALL	_SIM300SendMsg,_SIM300WaitForResponse
	FNCALL	_SIM300SendMsg,_USARTDataAvailable
	FNCALL	_SIM300SendMsg,_USARTFlushBuffer
	FNCALL	_SIM300SendMsg,_USARTReadBuffer
	FNCALL	_SIM300SendMsg,_USARTWriteChar
	FNCALL	_SIM300SendMsg,_USARTWriteString
	FNCALL	_SIM300SendMsg,_atoi
	FNCALL	_SIM300SendMsg,_sprintf
	FNCALL	_SIM300SendMsg,_strlen
	FNCALL	_SIM300SendMsg,_strnicmp
	FNCALL	_atoi,___wmul
	FNCALL	_atoi,_isdigit
	FNCALL	_SIM300DeleteMsg,_SIM300Cmd
	FNCALL	_SIM300DeleteMsg,_SIM300WaitForResponse
	FNCALL	_SIM300DeleteMsg,_USARTFlushBuffer
	FNCALL	_SIM300DeleteMsg,_sprintf
	FNCALL	_SIM300DeleteMsg,_strnicmp
	FNCALL	_strnicmp,_toupper
	FNCALL	_sprintf,___lwdiv
	FNCALL	_sprintf,___lwmod
	FNCALL	_SIM300WaitForResponse,_USARTDataAvailable
	FNCALL	_SIM300WaitForResponse,_USARTFlushBuffer
	FNCALL	_SIM300WaitForResponse,_USARTReadData
	FNCALL	_USARTFlushBuffer,_USARTDataAvailable
	FNCALL	_USARTFlushBuffer,_USARTReadData
	FNCALL	_SIM300Init,_SIM300CheckResponse
	FNCALL	_SIM300Init,_SIM300Cmd
	FNCALL	_SIM300Init,_USARTDataAvailable
	FNCALL	_SIM300Init,_USARTInit
	FNCALL	_SIM300Init,_USARTReadBuffer
	FNCALL	_SIM300Cmd,_USARTDataAvailable
	FNCALL	_SIM300Cmd,_USARTReadBuffer
	FNCALL	_SIM300Cmd,_USARTWriteChar
	FNCALL	_SIM300Cmd,_USARTWriteString
	FNCALL	_SIM300Cmd,___wmul
	FNCALL	_SIM300Cmd,_strlen
	FNCALL	_USARTWriteString,_USARTWriteChar
	FNCALL	_USARTReadBuffer,_USARTReadData
	FNROOT	_main
	FNCALL	_ISR,_USARTHandleRxInt
	FNCALL	intlevel1,_ISR
	global	intlevel1
	FNROOT	intlevel1
	global	_dpowers
psect	strings,class=STRING,delta=2,noexec
global __pstrings
__pstrings:
stringtab:
	global    __stringtab
__stringtab:
;	String table - string pointers are 1 byte each
	btfsc	(btemp+1),7
	ljmp	stringcode
	bcf	status,7
	btfsc	(btemp+1),0
	bsf	status,7
	movf	indf,w
	incf fsr
skipnz
incf btemp+1
	return
stringcode:stringdir:
movlw high(stringdir)
movwf pclath
movf fsr,w
incf fsr
	addwf pc
	global __stringbase
__stringbase:
	retlw	0
psect	strings
	global    __end_of__stringtab
__end_of__stringtab:
	file	"C:\Program Files (x86)\Microchip\xc8\v1.32\sources\common\doprnt.c"
	line	354
_dpowers:
	retlw	01h
	retlw	0

	retlw	0Ah
	retlw	0

	retlw	064h
	retlw	0

	retlw	0E8h
	retlw	03h

	retlw	010h
	retlw	027h

	global __end_of_dpowers
__end_of_dpowers:
	global	_dpowers
	global	_UQEnd
	global	_UQFront
	global	USARTWriteInt@F1040
	global	_MSG_number
	global	_URBuff
	global	_sim300_buffer
	global	_PIR1bits
_PIR1bits	set	0xC
	global	_RCREG
_RCREG	set	0x1A
	global	_RCSTAbits
_RCSTAbits	set	0x18
	global	_TXREG
_TXREG	set	0x19
	global	_GIE
_GIE	set	0x5F
	global	_PEIE
_PEIE	set	0x5E
	global	_RB0
_RB0	set	0x30
	global	_RB1
_RB1	set	0x31
	global	_RC5
_RC5	set	0x3D
	global	_RCIF
_RCIF	set	0x65
	global	_SPBRG
_SPBRG	set	0x99
	global	_TRISB
_TRISB	set	0x86
	global	_TRISC
_TRISC	set	0x87
	global	_TXSTAbits
_TXSTAbits	set	0x98
	global	_RCIE
_RCIE	set	0x465
	global __stringdata
__stringdata:
	
STR_15:	
	retlw	83	;'S'
	retlw	79	;'O'
	retlw	77	;'M'
	retlw	69	;'E'
	retlw	66	;'B'
	retlw	79	;'O'
	retlw	68	;'D'
	retlw	89	;'Y'
	retlw	32	;' '
	retlw	72	;'H'
	retlw	65	;'A'
	retlw	83	;'S'
	retlw	32	;' '
	retlw	69	;'E'
	retlw	78	;'N'
	retlw	84	;'T'
	retlw	69	;'E'
	retlw	82	;'R'
	retlw	69	;'E'
	retlw	68	;'D'
	retlw	32	;' '
	retlw	73	;'I'
	retlw	78	;'N'
	retlw	84	;'T'
	retlw	79	;'O'
	retlw	32	;' '
	retlw	72	;'H'
	retlw	79	;'O'
	retlw	85	;'U'
	retlw	83	;'S'
	retlw	69	;'E'
	retlw	33	;'!'
	retlw	0
psect	strings
	
STR_12:	
	retlw	65	;'A'
	retlw	84	;'T'
	retlw	68	;'D'
	retlw	57	;'9'
	retlw	52	;'4'
	retlw	48	;'0'
	retlw	51	;'3'
	retlw	53	;'5'
	retlw	56	;'8'
	retlw	53	;'5'
	retlw	52	;'4'
	retlw	51	;'3'
	retlw	54	;'6'
	retlw	59	;';'
	retlw	0
psect	strings
	
STR_8:	
	retlw	65	;'A'
	retlw	84	;'T'
	retlw	43	;'+'
	retlw	67	;'C'
	retlw	77	;'M'
	retlw	71	;'G'
	retlw	83	;'S'
	retlw	61	;'='
	retlw	32	;' '
	retlw	37	;'%'
	retlw	115	;'s'
	retlw	0
psect	strings
	
STR_14:	
	retlw	57	;'9'
	retlw	52	;'4'
	retlw	48	;'0'
	retlw	51	;'3'
	retlw	53	;'5'
	retlw	56	;'8'
	retlw	53	;'5'
	retlw	52	;'4'
	retlw	51	;'3'
	retlw	54	;'6'
	retlw	0
psect	strings
	
STR_3:	
	retlw	65	;'A'
	retlw	84	;'T'
	retlw	43	;'+'
	retlw	67	;'C'
	retlw	77	;'M'
	retlw	71	;'G'
	retlw	68	;'D'
	retlw	61	;'='
	retlw	37	;'%'
	retlw	100	;'d'
	retlw	0
psect	strings
	
STR_6:	
	retlw	65	;'A'
	retlw	84	;'T'
	retlw	43	;'+'
	retlw	67	;'C'
	retlw	77	;'M'
	retlw	71	;'G'
	retlw	82	;'R'
	retlw	61	;'='
	retlw	37	;'%'
	retlw	100	;'d'
	retlw	0
psect	strings
	
STR_11:	
	retlw	65	;'A'
	retlw	84	;'T'
	retlw	43	;'+'
	retlw	67	;'C'
	retlw	77	;'M'
	retlw	71	;'G'
	retlw	68	;'D'
	retlw	61	;'='
	retlw	49	;'1'
	retlw	0
psect	strings
	
STR_10:	
	retlw	65	;'A'
	retlw	84	;'T'
	retlw	43	;'+'
	retlw	67	;'C'
	retlw	77	;'M'
	retlw	71	;'G'
	retlw	70	;'F'
	retlw	61	;'='
	retlw	49	;'1'
	retlw	0
psect	strings
	
STR_16:	
	retlw	40	;'('
	retlw	110	;'n'
	retlw	117	;'u'
	retlw	108	;'l'
	retlw	108	;'l'
	retlw	41	;')'
	retlw	0
psect	strings
	
STR_5:	
	retlw	43	;'+'
	retlw	67	;'C'
	retlw	77	;'M'
	retlw	84	;'T'
	retlw	73	;'I'
	retlw	58	;':'
	retlw	0
psect	strings
	
STR_9:	
	retlw	67	;'C'
	retlw	77	;'M'
	retlw	71	;'G'
	retlw	83	;'S'
	retlw	58	;':'
	retlw	0
psect	strings
	
STR_13:	
	retlw	65	;'A'
	retlw	84	;'T'
	retlw	72	;'H'
	retlw	0
psect	strings
	
STR_7:	
	retlw	69	;'E'
	retlw	71	;'G'
	retlw	76	;'L'
	retlw	0
psect	strings
	
STR_2:	
	retlw	79	;'O'
	retlw	75	;'K'
	retlw	0
psect	strings
	
STR_1:	
	retlw	65	;'A'
	retlw	84	;'T'
	retlw	0
psect	strings
STR_4	equ	STR_2+0
	global __end_of__stringdata
__end_of__stringdata:
; #config settings
	file	"Security.as"
	line	#
psect cinit,class=CODE,delta=2
global start_initialization
start_initialization:

global __initialization
__initialization:
psect	bssCOMMON,class=COMMON,space=1,noexec
global __pbssCOMMON
__pbssCOMMON:
_UQEnd:
       ds      1

_UQFront:
       ds      1

psect	bssBANK0,class=BANK0,space=1,noexec
global __pbssBANK0
__pbssBANK0:
USARTWriteInt@F1040:
       ds      5

psect	bssBANK1,class=BANK1,space=1,noexec
global __pbssBANK1
__pbssBANK1:
_MSG_number:
       ds      15

psect	bssBANK3,class=BANK3,space=1,noexec
global __pbssBANK3
__pbssBANK3:
_sim300_buffer:
       ds      70

psect	bssBANK2,class=BANK2,space=1,noexec
global __pbssBANK2
__pbssBANK2:
_URBuff:
       ds      64

	line	#
psect clrtext,class=CODE,delta=2
global clear_ram0
;	Called with FSR containing the base address, and
;	W with the last address+1
clear_ram0:
	clrwdt			;clear the watchdog before getting into this loop
clrloop0:
	clrf	indf		;clear RAM location pointed to by FSR
	incf	fsr,f		;increment pointer
	xorwf	fsr,w		;XOR with final address
	btfsc	status,2	;have we reached the end yet?
	retlw	0		;all done for this memory range, return
	xorwf	fsr,w		;XOR again to restore value
	goto	clrloop0		;do the next byte

; Clear objects allocated to COMMON
psect cinit,class=CODE,delta=2,merge=1
	clrf	((__pbssCOMMON)+0)&07Fh
	clrf	((__pbssCOMMON)+1)&07Fh
; Clear objects allocated to BANK0
psect cinit,class=CODE,delta=2,merge=1
	clrf	((__pbssBANK0)+0)&07Fh
	clrf	((__pbssBANK0)+1)&07Fh
	clrf	((__pbssBANK0)+2)&07Fh
	clrf	((__pbssBANK0)+3)&07Fh
	clrf	((__pbssBANK0)+4)&07Fh
; Clear objects allocated to BANK1
psect cinit,class=CODE,delta=2,merge=1
	bcf	status, 7	;select IRP bank0
	movlw	low(__pbssBANK1)
	movwf	fsr
	movlw	low((__pbssBANK1)+0Fh)
	fcall	clear_ram0
; Clear objects allocated to BANK3
psect cinit,class=CODE,delta=2,merge=1
	bsf	status, 7	;select IRP bank2
	movlw	low(__pbssBANK3)
	movwf	fsr
	movlw	low((__pbssBANK3)+046h)
	fcall	clear_ram0
; Clear objects allocated to BANK2
psect cinit,class=CODE,delta=2,merge=1
	movlw	low(__pbssBANK2)
	movwf	fsr
	movlw	low((__pbssBANK2)+040h)
	fcall	clear_ram0
psect cinit,class=CODE,delta=2,merge=1
global end_of_initialization,__end_of__initialization

;End of C runtime variable initialization code

end_of_initialization:
__end_of__initialization:clrf status
ljmp _main	;jump to C main() function
psect	cstackBANK1,class=BANK1,space=1,noexec
global __pcstackBANK1
__pcstackBANK1:
	global	SIM300SendMsg@cmd
SIM300SendMsg@cmd:	; 25 bytes @ 0x0
	ds	25
	global	SIM300SendMsg@num
SIM300SendMsg@num:	; 1 bytes @ 0x19
	ds	1
	global	SIM300SendMsg@len
SIM300SendMsg@len:	; 1 bytes @ 0x1A
	ds	1
	global	SIM300SendMsg@n
SIM300SendMsg@n:	; 1 bytes @ 0x1B
	ds	1
psect	cstackCOMMON,class=COMMON,space=1,noexec
global __pcstackCOMMON
__pcstackCOMMON:
?_USARTHandleRxInt:	; 0 bytes @ 0x0
??_USARTHandleRxInt:	; 0 bytes @ 0x0
?_USARTWriteChar:	; 0 bytes @ 0x0
?_USARTFlushBuffer:	; 0 bytes @ 0x0
?_isdigit:	; 1 bit 
?_ISR:	; 0 bytes @ 0x0
?_main:	; 0 bytes @ 0x0
?_USARTDataAvailable:	; 1 bytes @ 0x0
?_USARTReadData:	; 1 bytes @ 0x0
?_toupper:	; 1 bytes @ 0x0
?_SIM300Init:	; 1 bytes @ 0x0
?_SIM300DeleteMsg:	; 1 bytes @ 0x0
	ds	4
	global	USARTHandleRxInt@data
USARTHandleRxInt@data:	; 1 bytes @ 0x4
	ds	1
??_ISR:	; 0 bytes @ 0x5
	ds	4
psect	cstackBANK0,class=BANK0,space=1,noexec
global __pcstackBANK0
__pcstackBANK0:
?_USARTInit:	; 0 bytes @ 0x0
??_USARTDataAvailable:	; 0 bytes @ 0x0
??_USARTWriteChar:	; 0 bytes @ 0x0
??_USARTReadData:	; 0 bytes @ 0x0
??_isdigit:	; 0 bytes @ 0x0
??_toupper:	; 0 bytes @ 0x0
?_SIM300CheckResponse:	; 1 bytes @ 0x0
	global	?_strlen
?_strlen:	; 2 bytes @ 0x0
	global	?___wmul
?___wmul:	; 2 bytes @ 0x0
	global	?___lwdiv
?___lwdiv:	; 2 bytes @ 0x0
	global	SIM300CheckResponse@check
SIM300CheckResponse@check:	; 1 bytes @ 0x0
	global	USARTWriteChar@ch
USARTWriteChar@ch:	; 1 bytes @ 0x0
	global	_isdigit$594
_isdigit$594:	; 1 bytes @ 0x0
	global	USARTInit@baud_rate
USARTInit@baud_rate:	; 2 bytes @ 0x0
	global	___wmul@multiplier
___wmul@multiplier:	; 2 bytes @ 0x0
	global	___lwdiv@divisor
___lwdiv@divisor:	; 2 bytes @ 0x0
	global	strlen@s
strlen@s:	; 2 bytes @ 0x0
	ds	1
?_USARTWriteString:	; 0 bytes @ 0x1
	global	SIM300CheckResponse@len
SIM300CheckResponse@len:	; 1 bytes @ 0x1
	global	USARTReadData@data
USARTReadData@data:	; 1 bytes @ 0x1
	global	isdigit@c
isdigit@c:	; 1 bytes @ 0x1
	global	toupper@c
toupper@c:	; 1 bytes @ 0x1
	global	USARTWriteString@str
USARTWriteString@str:	; 2 bytes @ 0x1
	ds	1
??_USARTInit:	; 0 bytes @ 0x2
??_SIM300CheckResponse:	; 0 bytes @ 0x2
??_strlen:	; 0 bytes @ 0x2
??_USARTFlushBuffer:	; 0 bytes @ 0x2
?_SIM300WaitForResponse:	; 1 bytes @ 0x2
	global	?_strnicmp
?_strnicmp:	; 2 bytes @ 0x2
	global	strnicmp@s2
strnicmp@s2:	; 1 bytes @ 0x2
	global	SIM300WaitForResponse@timeout
SIM300WaitForResponse@timeout:	; 2 bytes @ 0x2
	global	___wmul@multiplicand
___wmul@multiplicand:	; 2 bytes @ 0x2
	global	___lwdiv@dividend
___lwdiv@dividend:	; 2 bytes @ 0x2
	ds	1
??_USARTWriteString:	; 0 bytes @ 0x3
	global	strnicmp@len
strnicmp@len:	; 2 bytes @ 0x3
	ds	1
??_SIM300WaitForResponse:	; 0 bytes @ 0x4
??___wmul:	; 0 bytes @ 0x4
??___lwdiv:	; 0 bytes @ 0x4
	global	SIM300CheckResponse@i
SIM300CheckResponse@i:	; 1 bytes @ 0x4
	global	___wmul@product
___wmul@product:	; 2 bytes @ 0x4
	global	strlen@cp
strlen@cp:	; 2 bytes @ 0x4
	ds	1
??_strnicmp:	; 0 bytes @ 0x5
	global	SIM300CheckResponse@response
SIM300CheckResponse@response:	; 1 bytes @ 0x5
	global	SIM300WaitForResponse@n
SIM300WaitForResponse@n:	; 2 bytes @ 0x5
	global	___lwdiv@quotient
___lwdiv@quotient:	; 2 bytes @ 0x5
	ds	1
?_USARTReadBuffer:	; 0 bytes @ 0x6
	global	?_atoi
?_atoi:	; 2 bytes @ 0x6
	global	USARTReadBuffer@len
USARTReadBuffer@len:	; 2 bytes @ 0x6
	ds	1
	global	SIM300WaitForResponse@i
SIM300WaitForResponse@i:	; 1 bytes @ 0x7
	global	___lwdiv@counter
___lwdiv@counter:	; 1 bytes @ 0x7
	global	strnicmp@r
strnicmp@r:	; 1 bytes @ 0x7
	ds	1
??_USARTReadBuffer:	; 0 bytes @ 0x8
??_atoi:	; 0 bytes @ 0x8
	global	?___lwmod
?___lwmod:	; 2 bytes @ 0x8
	global	strnicmp@s1
strnicmp@s1:	; 1 bytes @ 0x8
	global	___lwmod@divisor
___lwmod@divisor:	; 2 bytes @ 0x8
	ds	2
	global	USARTReadBuffer@buff
USARTReadBuffer@buff:	; 1 bytes @ 0xA
	global	atoi@sign
atoi@sign:	; 1 bytes @ 0xA
	global	___lwmod@dividend
___lwmod@dividend:	; 2 bytes @ 0xA
	ds	1
	global	USARTReadBuffer@i
USARTReadBuffer@i:	; 2 bytes @ 0xB
	global	atoi@a
atoi@a:	; 2 bytes @ 0xB
	ds	1
??___lwmod:	; 0 bytes @ 0xC
	ds	1
?_SIM300Cmd:	; 1 bytes @ 0xD
	global	atoi@s
atoi@s:	; 1 bytes @ 0xD
	global	___lwmod@counter
___lwmod@counter:	; 1 bytes @ 0xD
	global	SIM300Cmd@cmd
SIM300Cmd@cmd:	; 2 bytes @ 0xD
	ds	1
	global	?_sprintf
?_sprintf:	; 2 bytes @ 0xE
	global	sprintf@f
sprintf@f:	; 1 bytes @ 0xE
	ds	1
??_SIM300Cmd:	; 0 bytes @ 0xF
	ds	2
??_sprintf:	; 0 bytes @ 0x11
	global	SIM300Cmd@i
SIM300Cmd@i:	; 2 bytes @ 0x11
	ds	2
	global	SIM300Cmd@len
SIM300Cmd@len:	; 1 bytes @ 0x13
	ds	1
??_SIM300Init:	; 0 bytes @ 0x14
	global	sprintf@flag
sprintf@flag:	; 1 bytes @ 0x14
	ds	1
	global	sprintf@prec
sprintf@prec:	; 1 bytes @ 0x15
	ds	1
	global	sprintf@ap
sprintf@ap:	; 1 bytes @ 0x16
	global	SIM300Init@i
SIM300Init@i:	; 2 bytes @ 0x16
	ds	1
	global	sprintf@sp
sprintf@sp:	; 1 bytes @ 0x17
	ds	1
	global	sprintf@_val
sprintf@_val:	; 3 bytes @ 0x18
	ds	3
	global	sprintf@c
sprintf@c:	; 1 bytes @ 0x1B
	ds	1
??_SIM300DeleteMsg:	; 0 bytes @ 0x1C
	ds	3
	global	SIM300DeleteMsg@cmd
SIM300DeleteMsg@cmd:	; 16 bytes @ 0x1F
	ds	16
	global	SIM300DeleteMsg@i
SIM300DeleteMsg@i:	; 1 bytes @ 0x2F
	ds	1
	global	SIM300DeleteMsg@len
SIM300DeleteMsg@len:	; 1 bytes @ 0x30
	ds	1
?_SIM300SendMsg:	; 1 bytes @ 0x31
	global	SIM300SendMsg@msg
SIM300SendMsg@msg:	; 1 bytes @ 0x31
	ds	1
	global	SIM300SendMsg@msg_ref
SIM300SendMsg@msg_ref:	; 1 bytes @ 0x32
	ds	1
??_SIM300SendMsg:	; 0 bytes @ 0x33
	ds	4
??_main:	; 0 bytes @ 0x37
	ds	3
	global	main@result
main@result:	; 1 bytes @ 0x3A
	ds	1
	global	main@r
main@r:	; 1 bytes @ 0x3B
	ds	1
	global	main@ref
main@ref:	; 1 bytes @ 0x3C
	ds	1
	global	main@SMS_Sent
main@SMS_Sent:	; 1 bytes @ 0x3D
	ds	1
	global	main@count
main@count:	; 1 bytes @ 0x3E
	ds	1
;!
;!Data Sizes:
;!    Strings     147
;!    Constant    10
;!    Data        0
;!    BSS         156
;!    Persistent  0
;!    Stack       0
;!
;!Auto Spaces:
;!    Space          Size  Autos    Used
;!    COMMON           14      9      11
;!    BANK0            80     63      68
;!    BANK1            80     28      43
;!    BANK3            96      0      70
;!    BANK2            96      0      64

;!
;!Pointer List with Targets:
;!
;!    sp__strchr	PTR unsigned char  size(1) Largest target is 70
;!		 -> NULL(NULL[0]), sim300_buffer(BANK3[70]), 
;!
;!    strnicmp@s2	PTR const unsigned char  size(1) Largest target is 7
;!		 -> STR_9(CODE[6]), STR_5(CODE[7]), STR_4(CODE[3]), 
;!
;!    strnicmp@s1	PTR const unsigned char  size(1) Largest target is 70
;!		 -> sim300_buffer(BANK3[70]), 
;!
;!    strlen@s	PTR const unsigned char  size(2) Largest target is 33
;!		 -> STR_15(CODE[33]), STR_13(CODE[4]), STR_12(CODE[15]), STR_11(CODE[10]), 
;!		 -> STR_10(CODE[10]), SIM300SendMsg@cmd(BANK1[25]), STR_7(CODE[4]), SIM300ReadValidMsg@cmd(BANK0[16]), 
;!		 -> SIM300DeleteMsg@cmd(BANK0[16]), STR_1(CODE[3]), 
;!
;!    strlen@cp	PTR const unsigned char  size(2) Largest target is 33
;!		 -> STR_15(CODE[33]), STR_13(CODE[4]), STR_12(CODE[15]), STR_11(CODE[10]), 
;!		 -> STR_10(CODE[10]), SIM300SendMsg@cmd(BANK1[25]), STR_7(CODE[4]), SIM300ReadValidMsg@cmd(BANK0[16]), 
;!		 -> SIM300DeleteMsg@cmd(BANK0[16]), STR_1(CODE[3]), 
;!
;!    atoi@s	PTR const unsigned char  size(1) Largest target is 70
;!		 -> sim300_buffer(BANK3[70]), 
;!
;!    sprintf@f	PTR const unsigned char  size(1) Largest target is 12
;!		 -> STR_8(CODE[12]), STR_6(CODE[11]), STR_3(CODE[11]), 
;!
;!    sprintf@_val._cp	PTR const unsigned char  size(1) Largest target is 11
;!		 -> STR_16(CODE[7]), STR_14(CODE[11]), 
;!
;!    sprintf@sp	PTR unsigned char  size(1) Largest target is 25
;!		 -> SIM300SendMsg@cmd(BANK1[25]), SIM300ReadValidMsg@cmd(BANK0[16]), SIM300DeleteMsg@cmd(BANK0[16]), 
;!
;!    sprintf@ap	PTR void [1] size(1) Largest target is 2
;!		 -> ?_sprintf(BANK0[2]), 
;!
;!    S385$_cp	PTR const unsigned char  size(1) Largest target is 11
;!		 -> STR_16(CODE[7]), STR_14(CODE[11]), 
;!
;!    _val._str._cp	PTR const unsigned char  size(1) Largest target is 11
;!		 -> STR_16(CODE[7]), STR_14(CODE[11]), 
;!
;!    USARTReadBuffer@buff	PTR unsigned char  size(1) Largest target is 70
;!		 -> sim300_buffer(BANK3[70]), 
;!
;!    USARTWriteString@str	PTR const unsigned char  size(2) Largest target is 33
;!		 -> STR_15(CODE[33]), STR_13(CODE[4]), STR_12(CODE[15]), STR_11(CODE[10]), 
;!		 -> STR_10(CODE[10]), SIM300SendMsg@cmd(BANK1[25]), SIM300ReadValidMsg@cmd(BANK0[16]), SIM300DeleteMsg@cmd(BANK0[16]), 
;!		 -> STR_1(CODE[3]), 
;!
;!    SIM300SendMsg@msg_ref	PTR unsigned char  size(1) Largest target is 1
;!		 -> main@ref(BANK0[1]), 
;!
;!    SIM300SendMsg@msg	PTR const unsigned char  size(1) Largest target is 33
;!		 -> STR_15(CODE[33]), 
;!
;!    SIM300SendMsg@num	PTR const unsigned char  size(1) Largest target is 11
;!		 -> STR_14(CODE[11]), 
;!
;!    sp__strstr	PTR unsigned char  size(1) Largest target is 70
;!		 -> NULL(NULL[0]), sim300_buffer(BANK3[70]), 
;!
;!    sp__strichr	PTR unsigned char  size(1) Largest target is 70
;!		 -> NULL(NULL[0]), sim300_buffer(BANK3[70]), 
;!
;!    sp__strrichr	PTR unsigned char  size(1) Largest target is 70
;!		 -> NULL(NULL[0]), sim300_buffer(BANK3[70]), 
;!
;!    SIM300CheckResponse@check	PTR const unsigned char  size(1) Largest target is 3
;!		 -> STR_2(CODE[3]), 
;!
;!    SIM300CheckResponse@response	PTR const unsigned char  size(1) Largest target is 70
;!		 -> sim300_buffer(BANK3[70]), 
;!
;!    SIM300Cmd@cmd	PTR const unsigned char  size(2) Largest target is 25
;!		 -> STR_13(CODE[4]), STR_12(CODE[15]), STR_11(CODE[10]), STR_10(CODE[10]), 
;!		 -> SIM300SendMsg@cmd(BANK1[25]), SIM300ReadValidMsg@cmd(BANK0[16]), SIM300DeleteMsg@cmd(BANK0[16]), STR_1(CODE[3]), 
;!


;!
;!Critical Paths under _main in COMMON
;!
;!    None.
;!
;!Critical Paths under _ISR in COMMON
;!
;!    _ISR->_USARTHandleRxInt
;!
;!Critical Paths under _main in BANK0
;!
;!    _main->_SIM300SendMsg
;!    _SIM300SendMsg->_SIM300DeleteMsg
;!    _atoi->___wmul
;!    _SIM300DeleteMsg->_sprintf
;!    _strnicmp->_toupper
;!    _sprintf->___lwmod
;!    ___lwmod->___lwdiv
;!    _SIM300WaitForResponse->_USARTReadData
;!    _USARTFlushBuffer->_USARTReadData
;!    _SIM300Init->_SIM300Cmd
;!    _SIM300Cmd->_USARTReadBuffer
;!    _USARTWriteString->_USARTWriteChar
;!    _USARTReadBuffer->_strlen
;!
;!Critical Paths under _ISR in BANK0
;!
;!    None.
;!
;!Critical Paths under _main in BANK1
;!
;!    _main->_SIM300SendMsg
;!
;!Critical Paths under _ISR in BANK1
;!
;!    None.
;!
;!Critical Paths under _main in BANK3
;!
;!    None.
;!
;!Critical Paths under _ISR in BANK3
;!
;!    None.
;!
;!Critical Paths under _main in BANK2
;!
;!    None.
;!
;!Critical Paths under _ISR in BANK2
;!
;!    None.

;;
;;Main: autosize = 0, tempsize = 3, incstack = 0, save=0
;;

;!
;!Call Graph Tables:
;!
;! ---------------------------------------------------------------------------------
;! (Depth) Function   	        Calls       Base Space   Used Autos Params    Refs
;! ---------------------------------------------------------------------------------
;! (0) _main                                                 8     8      0   15263
;!                                             55 BANK0      8     8      0
;!                          _SIM300Cmd
;!                         _SIM300Init
;!                      _SIM300SendMsg
;!                   _USARTFlushBuffer
;! ---------------------------------------------------------------------------------
;! (1) _SIM300SendMsg                                       34    32      2   10652
;!                                             49 BANK0      6     4      2
;!                                              0 BANK1     28    28      0
;!                          _SIM300Cmd
;!                    _SIM300DeleteMsg
;!              _SIM300WaitForResponse
;!                 _USARTDataAvailable
;!                   _USARTFlushBuffer
;!                    _USARTReadBuffer
;!                     _USARTWriteChar
;!                   _USARTWriteString
;!                               _atoi
;!                            _sprintf
;!                             _strlen
;!                           _strnicmp
;! ---------------------------------------------------------------------------------
;! (2) _atoi                                                 8     6      2     627
;!                                              6 BANK0      8     6      2
;!                             ___wmul
;!                            _isdigit
;! ---------------------------------------------------------------------------------
;! (3) _isdigit                                              2     2      0      68
;!                                              0 BANK0      2     2      0
;! ---------------------------------------------------------------------------------
;! (2) _SIM300DeleteMsg                                     21    21      0    4337
;!                                             28 BANK0     21    21      0
;!                          _SIM300Cmd
;!              _SIM300WaitForResponse
;!                   _USARTFlushBuffer
;!                            _sprintf
;!                           _strnicmp
;! ---------------------------------------------------------------------------------
;! (2) _strnicmp                                             7     4      3     579
;!                                              2 BANK0      7     4      3
;!                            _toupper
;! ---------------------------------------------------------------------------------
;! (3) _toupper                                              2     2      0      67
;!                                              0 BANK0      2     2      0
;! ---------------------------------------------------------------------------------
;! (2) _sprintf                                             14    11      3    1365
;!                                             14 BANK0     14    11      3
;!                            ___lwdiv
;!                            ___lwmod
;! ---------------------------------------------------------------------------------
;! (3) ___lwmod                                              6     2      4     265
;!                                              8 BANK0      6     2      4
;!                            ___lwdiv (ARG)
;! ---------------------------------------------------------------------------------
;! (3) ___lwdiv                                              8     4      4     268
;!                                              0 BANK0      8     4      4
;! ---------------------------------------------------------------------------------
;! (2) _SIM300WaitForResponse                                6     4      2     438
;!                                              2 BANK0      6     4      2
;!                 _USARTDataAvailable
;!                   _USARTFlushBuffer
;!                      _USARTReadData
;! ---------------------------------------------------------------------------------
;! (1) _USARTFlushBuffer                                     0     0      0      23
;!                 _USARTDataAvailable
;!                      _USARTReadData
;! ---------------------------------------------------------------------------------
;! (1) _SIM300Init                                           4     4      0    2660
;!                                             20 BANK0      4     4      0
;!                _SIM300CheckResponse
;!                          _SIM300Cmd
;!                 _USARTDataAvailable
;!                          _USARTInit
;!                    _USARTReadBuffer
;! ---------------------------------------------------------------------------------
;! (2) _USARTInit                                            3     1      2      75
;!                                              0 BANK0      3     1      2
;! ---------------------------------------------------------------------------------
;! (3) _SIM300Cmd                                            7     5      2    1808
;!                                             13 BANK0      7     5      2
;!                 _USARTDataAvailable
;!                    _USARTReadBuffer
;!                     _USARTWriteChar
;!                   _USARTWriteString
;!                             ___wmul
;!                             _strlen
;! ---------------------------------------------------------------------------------
;! (2) _strlen                                               6     4      2     343
;!                                              0 BANK0      6     4      2
;! ---------------------------------------------------------------------------------
;! (3) ___wmul                                               6     2      4     304
;!                                              0 BANK0      6     2      4
;! ---------------------------------------------------------------------------------
;! (2) _USARTWriteString                                     2     0      2     226
;!                                              1 BANK0      2     0      2
;!                     _USARTWriteChar
;! ---------------------------------------------------------------------------------
;! (3) _USARTWriteChar                                       1     1      0      22
;!                                              0 BANK0      1     1      0
;! ---------------------------------------------------------------------------------
;! (2) _USARTReadBuffer                                      7     5      2     353
;!                                              6 BANK0      7     5      2
;!                      _USARTReadData
;!                             _strlen (ARG)
;! ---------------------------------------------------------------------------------
;! (2) _USARTReadData                                        2     2      0      23
;!                                              0 BANK0      2     2      0
;! ---------------------------------------------------------------------------------
;! (2) _USARTDataAvailable                                   1     1      0       0
;!                                              0 BANK0      1     1      0
;! ---------------------------------------------------------------------------------
;! (2) _SIM300CheckResponse                                  6     4      2     400
;!                                              0 BANK0      6     4      2
;! ---------------------------------------------------------------------------------
;! Estimated maximum stack depth 3
;! ---------------------------------------------------------------------------------
;! (Depth) Function   	        Calls       Base Space   Used Autos Params    Refs
;! ---------------------------------------------------------------------------------
;! (6) _ISR                                                  4     4      0      23
;!                                              5 COMMON     4     4      0
;!                   _USARTHandleRxInt
;! ---------------------------------------------------------------------------------
;! (7) _USARTHandleRxInt                                     5     5      0      23
;!                                              0 COMMON     5     5      0
;! ---------------------------------------------------------------------------------
;! Estimated maximum stack depth 7
;! ---------------------------------------------------------------------------------
;!
;! Call Graph Graphs:
;!
;! _main (ROOT)
;!   _SIM300Cmd
;!     _USARTDataAvailable
;!     _USARTReadBuffer
;!       _USARTReadData
;!       _strlen (ARG)
;!     _USARTWriteChar
;!     _USARTWriteString
;!       _USARTWriteChar
;!     ___wmul
;!     _strlen
;!   _SIM300Init
;!     _SIM300CheckResponse
;!     _SIM300Cmd
;!       _USARTDataAvailable
;!       _USARTReadBuffer
;!         _USARTReadData
;!         _strlen (ARG)
;!       _USARTWriteChar
;!       _USARTWriteString
;!         _USARTWriteChar
;!       ___wmul
;!       _strlen
;!     _USARTDataAvailable
;!     _USARTInit
;!     _USARTReadBuffer
;!       _USARTReadData
;!       _strlen (ARG)
;!   _SIM300SendMsg
;!     _SIM300Cmd
;!       _USARTDataAvailable
;!       _USARTReadBuffer
;!         _USARTReadData
;!         _strlen (ARG)
;!       _USARTWriteChar
;!       _USARTWriteString
;!         _USARTWriteChar
;!       ___wmul
;!       _strlen
;!     _SIM300DeleteMsg
;!       _SIM300Cmd
;!         _USARTDataAvailable
;!         _USARTReadBuffer
;!           _USARTReadData
;!           _strlen (ARG)
;!         _USARTWriteChar
;!         _USARTWriteString
;!           _USARTWriteChar
;!         ___wmul
;!         _strlen
;!       _SIM300WaitForResponse
;!         _USARTDataAvailable
;!         _USARTFlushBuffer
;!           _USARTDataAvailable
;!           _USARTReadData
;!         _USARTReadData
;!       _USARTFlushBuffer
;!         _USARTDataAvailable
;!         _USARTReadData
;!       _sprintf
;!         ___lwdiv
;!         ___lwmod
;!           ___lwdiv (ARG)
;!       _strnicmp
;!         _toupper
;!     _SIM300WaitForResponse
;!       _USARTDataAvailable
;!       _USARTFlushBuffer
;!         _USARTDataAvailable
;!         _USARTReadData
;!       _USARTReadData
;!     _USARTDataAvailable
;!     _USARTFlushBuffer
;!       _USARTDataAvailable
;!       _USARTReadData
;!     _USARTReadBuffer
;!       _USARTReadData
;!       _strlen (ARG)
;!     _USARTWriteChar
;!     _USARTWriteString
;!       _USARTWriteChar
;!     _atoi
;!       ___wmul
;!       _isdigit
;!     _sprintf
;!       ___lwdiv
;!       ___lwmod
;!         ___lwdiv (ARG)
;!     _strlen
;!     _strnicmp
;!       _toupper
;!   _USARTFlushBuffer
;!     _USARTDataAvailable
;!     _USARTReadData
;!
;! _ISR (ROOT)
;!   _USARTHandleRxInt
;!

;! Address spaces:

;!Name               Size   Autos  Total    Cost      Usage
;!BITCOMMON            E      0       0       0        0.0%
;!EEDATA             100      0       0       0        0.0%
;!NULL                 0      0       0       0        0.0%
;!CODE                 0      0       0       0        0.0%
;!COMMON               E      9       B       1       78.6%
;!BITSFR0              0      0       0       1        0.0%
;!SFR0                 0      0       0       1        0.0%
;!BITSFR1              0      0       0       2        0.0%
;!SFR1                 0      0       0       2        0.0%
;!STACK                0      0       0       2        0.0%
;!ABS                  0      0     100       3        0.0%
;!BITBANK0            50      0       0       4        0.0%
;!BITSFR3              0      0       0       4        0.0%
;!SFR3                 0      0       0       4        0.0%
;!BANK0               50     3F      44       5       85.0%
;!BITSFR2              0      0       0       5        0.0%
;!SFR2                 0      0       0       5        0.0%
;!BITBANK1            50      0       0       6        0.0%
;!BANK1               50     1C      2B       7       53.8%
;!BITBANK3            60      0       0       8        0.0%
;!BANK3               60      0      46       9       72.9%
;!BITBANK2            60      0       0      10        0.0%
;!BANK2               60      0      40      11       66.7%
;!DATA                 0      0     100      12        0.0%

	global	_main

;; *************** function _main *****************
;; Defined at:
;;		line 12 in file "E:\Study Material\XC8 PROJECTS\Security Alarm\Security.c"
;; Parameters:    Size  Location     Type
;;		None
;; Auto vars:     Size  Location     Type
;;  count           1   62[BANK0 ] unsigned char 
;;  SMS_Sent        1   61[BANK0 ] unsigned char 
;;  ref             1   60[BANK0 ] unsigned char 
;;  r               1   59[BANK0 ] char 
;;  result          1   58[BANK0 ] unsigned char 
;; Return value:  Size  Location     Type
;;		None               void
;; Registers used:
;;		wreg, fsr0l, fsr0h, status,2, status,0, btemp+1, pclath, cstack
;; Tracked objects:
;;		On entry : 17F/0
;;		On exit  : 0/0
;;		Unchanged: 0/0
;; Data sizes:     COMMON   BANK0   BANK1   BANK3   BANK2
;;      Params:         0       0       0       0       0
;;      Locals:         0       5       0       0       0
;;      Temps:          0       3       0       0       0
;;      Totals:         0       8       0       0       0
;;Total ram usage:        8 bytes
;; Hardware stack levels required when called:    7
;; This function calls:
;;		_SIM300Cmd
;;		_SIM300Init
;;		_SIM300SendMsg
;;		_USARTFlushBuffer
;; This function is called by:
;;		Startup code after reset
;; This function uses a non-reentrant model
;;
psect	maintext,global,class=CODE,delta=2,split=1
	file	"E:\Study Material\XC8 PROJECTS\Security Alarm\Security.c"
	line	12
global __pmaintext
__pmaintext:	;psect for function _main
psect	maintext
	file	"E:\Study Material\XC8 PROJECTS\Security Alarm\Security.c"
	line	12
	global	__size_of_main
	__size_of_main	equ	__end_of_main-_main
	
_main:	
;incstack = 0
	opt	stack 1
; Regs used in _main: [wreg-fsr0h+status,2+status,0+btemp+1+pclath+cstack]
	line	14
	
l2528:	
;Security.c: 14: TRISB = 0xFF;
	movlw	(0FFh)
	bsf	status, 5	;RP0=1, select bank1
	bcf	status, 6	;RP1=0, select bank1
	movwf	(134)^080h	;volatile
	line	15
	
l2530:	
;Security.c: 15: TRISC = 0x00;
	clrf	(135)^080h	;volatile
	line	16
	
l2532:	
;Security.c: 16: char count = 0;
	bcf	status, 5	;RP0=0, select bank0
	bcf	status, 6	;RP1=0, select bank0
	clrf	(main@count)
	line	17
	
l2534:	
;Security.c: 17: char SMS_Sent = 0;
	clrf	(main@SMS_Sent)
	line	20
	
l2536:	
;Security.c: 18: uint8_t ref,result;
;Security.c: 20: for(count = 0; count < 5; count ++)
	clrf	(main@count)
	movlw	(05h)
	subwf	(main@count),w
	skipc
	goto	u2181
	goto	u2180
u2181:
	goto	l292
u2180:
	goto	l2548
	
l2538:	
	goto	l2548
	line	21
	
l292:	
	line	22
;Security.c: 21: {
;Security.c: 22: RC5 = 1;
	bsf	(61/8),(61)&7	;volatile
	line	23
	
l2540:	
;Security.c: 23: _delay((unsigned long)((1000)*(4000000/4000.0)));
	opt asmopt_off
movlw  6
movwf	((??_main+0)+0+2),f
movlw	19
movwf	((??_main+0)+0+1),f
	movlw	177
movwf	((??_main+0)+0),f
u2477:
	decfsz	((??_main+0)+0),f
	goto	u2477
	decfsz	((??_main+0)+0+1),f
	goto	u2477
	decfsz	((??_main+0)+0+2),f
	goto	u2477
	nop2
opt asmopt_on

	line	24
	
l2542:	
;Security.c: 24: RC5 = 0;
	bcf	status, 5	;RP0=0, select bank0
	bcf	status, 6	;RP1=0, select bank0
	bcf	(61/8),(61)&7	;volatile
	line	25
;Security.c: 25: _delay((unsigned long)((1000)*(4000000/4000.0)));
	opt asmopt_off
movlw  6
movwf	((??_main+0)+0+2),f
movlw	19
movwf	((??_main+0)+0+1),f
	movlw	177
movwf	((??_main+0)+0),f
u2487:
	decfsz	((??_main+0)+0),f
	goto	u2487
	decfsz	((??_main+0)+0+1),f
	goto	u2487
	decfsz	((??_main+0)+0+2),f
	goto	u2487
	nop2
opt asmopt_on

	line	20
	
l2544:	
	movlw	(01h)
	bcf	status, 5	;RP0=0, select bank0
	bcf	status, 6	;RP1=0, select bank0
	movwf	(??_main+0)+0
	movf	(??_main+0)+0,w
	addwf	(main@count),f
	
l2546:	
	movlw	(05h)
	subwf	(main@count),w
	skipc
	goto	u2191
	goto	u2190
u2191:
	goto	l292
u2190:
	goto	l2548
	
l293:	
	line	28
	
l2548:	
;Security.c: 26: }
;Security.c: 28: int8_t r= SIM300Init();
	fcall	_SIM300Init
	bcf	status, 5	;RP0=0, select bank0
	bcf	status, 6	;RP1=0, select bank0
	movwf	(??_main+0)+0
	movf	(??_main+0)+0,w
	movwf	(main@r)
	line	29
	
l2550:	
;Security.c: 29: _delay(1000000);
	opt asmopt_off
movlw  6
movwf	((??_main+0)+0+2),f
movlw	19
movwf	((??_main+0)+0+1),f
	movlw	177
movwf	((??_main+0)+0),f
u2497:
	decfsz	((??_main+0)+0),f
	goto	u2497
	decfsz	((??_main+0)+0+1),f
	goto	u2497
	decfsz	((??_main+0)+0+2),f
	goto	u2497
	nop2
opt asmopt_on

	line	31
	
l2552:	
;Security.c: 31: if(r == 1)
	bcf	status, 5	;RP0=0, select bank0
	bcf	status, 6	;RP1=0, select bank0
	movf	(main@r),w
	xorlw	01h
	skipz
	goto	u2201
	goto	u2200
u2201:
	goto	l296
u2200:
	line	34
	
l2554:	
;Security.c: 32: {
;Security.c: 34: SIM300Cmd("AT+CMGF=1");
	movlw	low((STR_10)-__stringbase)
	movwf	(SIM300Cmd@cmd)
	movlw	80h
	movwf	(SIM300Cmd@cmd+1)
	fcall	_SIM300Cmd
	line	35
	
l2556:	
;Security.c: 35: _delay(1000000);
	opt asmopt_off
movlw  6
	bcf	status, 5	;RP0=0, select bank0
	bcf	status, 6	;RP1=0, select bank0
movwf	((??_main+0)+0+2),f
movlw	19
movwf	((??_main+0)+0+1),f
	movlw	177
movwf	((??_main+0)+0),f
u2507:
	decfsz	((??_main+0)+0),f
	goto	u2507
	decfsz	((??_main+0)+0+1),f
	goto	u2507
	decfsz	((??_main+0)+0+2),f
	goto	u2507
	nop2
opt asmopt_on

	line	37
	
l2558:	
;Security.c: 37: SIM300Cmd("AT+CMGD=1");
	movlw	low((STR_11)-__stringbase)
	bcf	status, 5	;RP0=0, select bank0
	bcf	status, 6	;RP1=0, select bank0
	movwf	(SIM300Cmd@cmd)
	movlw	80h
	movwf	(SIM300Cmd@cmd+1)
	fcall	_SIM300Cmd
	line	38
;Security.c: 38: _delay(1000000);
	opt asmopt_off
movlw  6
	bcf	status, 5	;RP0=0, select bank0
	bcf	status, 6	;RP1=0, select bank0
movwf	((??_main+0)+0+2),f
movlw	19
movwf	((??_main+0)+0+1),f
	movlw	177
movwf	((??_main+0)+0),f
u2517:
	decfsz	((??_main+0)+0),f
	goto	u2517
	decfsz	((??_main+0)+0+1),f
	goto	u2517
	decfsz	((??_main+0)+0+2),f
	goto	u2517
	nop2
opt asmopt_on

	line	40
	
l2560:	
;Security.c: 40: USARTFlushBuffer();
	fcall	_USARTFlushBuffer
	line	42
	
l2562:	
;Security.c: 42: RC5 = 1;
	bcf	status, 5	;RP0=0, select bank0
	bcf	status, 6	;RP1=0, select bank0
	bsf	(61/8),(61)&7	;volatile
	line	43
	
l2564:	
;Security.c: 43: _delay(1000000);
	opt asmopt_off
movlw  6
movwf	((??_main+0)+0+2),f
movlw	19
movwf	((??_main+0)+0+1),f
	movlw	177
movwf	((??_main+0)+0),f
u2527:
	decfsz	((??_main+0)+0),f
	goto	u2527
	decfsz	((??_main+0)+0+1),f
	goto	u2527
	decfsz	((??_main+0)+0+2),f
	goto	u2527
	nop2
opt asmopt_on

	line	44
;Security.c: 44: }
	goto	l2584
	line	45
	
l294:	
	line	48
;Security.c: 45: else
;Security.c: 46: {
;Security.c: 48: while(1)
	
l296:	
	line	50
;Security.c: 49: {
;Security.c: 50: RC5 = 1;
	bcf	status, 5	;RP0=0, select bank0
	bcf	status, 6	;RP1=0, select bank0
	bsf	(61/8),(61)&7	;volatile
	line	51
	
l2566:	
;Security.c: 51: _delay(100000);
	opt asmopt_off
movlw	130
movwf	((??_main+0)+0+1),f
	movlw	221
movwf	((??_main+0)+0),f
u2537:
	decfsz	((??_main+0)+0),f
	goto	u2537
	decfsz	((??_main+0)+0+1),f
	goto	u2537
	nop2
opt asmopt_on

	line	52
	
l2568:	
;Security.c: 52: RC5 = 0;
	bcf	status, 5	;RP0=0, select bank0
	bcf	status, 6	;RP1=0, select bank0
	bcf	(61/8),(61)&7	;volatile
	line	53
;Security.c: 53: _delay(100000);
	opt asmopt_off
movlw	130
movwf	((??_main+0)+0+1),f
	movlw	221
movwf	((??_main+0)+0),f
u2547:
	decfsz	((??_main+0)+0),f
	goto	u2547
	decfsz	((??_main+0)+0+1),f
	goto	u2547
	nop2
opt asmopt_on

	goto	l296
	line	54
	
l297:	
	line	48
	goto	l296
	
l298:	
	goto	l2584
	line	55
	
l295:	
	goto	l2584
	line	57
;Security.c: 54: }
;Security.c: 55: }
;Security.c: 57: while(1)
	
l299:	
	line	59
;Security.c: 58: {
;Security.c: 59: while(RB0 == 1)
	goto	l2584
	
l301:	
	line	62
	
l2570:	
;Security.c: 60: {
;Security.c: 62: SIM300Cmd("ATD9403585436;");
	movlw	low((STR_12)-__stringbase)
	bcf	status, 5	;RP0=0, select bank0
	bcf	status, 6	;RP1=0, select bank0
	movwf	(SIM300Cmd@cmd)
	movlw	80h
	movwf	(SIM300Cmd@cmd+1)
	fcall	_SIM300Cmd
	line	63
	
l2572:	
;Security.c: 63: _delay((unsigned long)((30000)*(4000000/4000.0)));
	opt asmopt_off
movlw  153
	bcf	status, 5	;RP0=0, select bank0
	bcf	status, 6	;RP1=0, select bank0
movwf	((??_main+0)+0+2),f
movlw	50
movwf	((??_main+0)+0+1),f
	movlw	56
movwf	((??_main+0)+0),f
u2557:
	decfsz	((??_main+0)+0),f
	goto	u2557
	decfsz	((??_main+0)+0+1),f
	goto	u2557
	decfsz	((??_main+0)+0+2),f
	goto	u2557
	nop2
opt asmopt_on

	line	65
	
l2574:	
;Security.c: 65: SIM300Cmd("ATH");
	movlw	low((STR_13)-__stringbase)
	bcf	status, 5	;RP0=0, select bank0
	bcf	status, 6	;RP1=0, select bank0
	movwf	(SIM300Cmd@cmd)
	movlw	80h
	movwf	(SIM300Cmd@cmd+1)
	fcall	_SIM300Cmd
	line	66
;Security.c: 66: _delay((unsigned long)((1000)*(4000000/4000.0)));
	opt asmopt_off
movlw  6
	bcf	status, 5	;RP0=0, select bank0
	bcf	status, 6	;RP1=0, select bank0
movwf	((??_main+0)+0+2),f
movlw	19
movwf	((??_main+0)+0+1),f
	movlw	177
movwf	((??_main+0)+0),f
u2567:
	decfsz	((??_main+0)+0),f
	goto	u2567
	decfsz	((??_main+0)+0+1),f
	goto	u2567
	decfsz	((??_main+0)+0+2),f
	goto	u2567
	nop2
opt asmopt_on

	line	67
	
l2576:	
;Security.c: 67: if(SMS_Sent == 0)
	bcf	status, 5	;RP0=0, select bank0
	bcf	status, 6	;RP1=0, select bank0
	movf	(main@SMS_Sent),f
	skipz
	goto	u2211
	goto	u2210
u2211:
	goto	l2584
u2210:
	line	71
	
l2578:	
;Security.c: 68: {
;Security.c: 71: result=SIM300SendMsg("9403585436","SOMEBODY HAS ENTERED INTO HOUSE!",&ref);
	movlw	((STR_15)-__stringbase)&0ffh
	movwf	(??_main+0)+0
	movf	(??_main+0)+0,w
	movwf	(SIM300SendMsg@msg)
	movlw	(main@ref)&0ffh
	movwf	(??_main+1)+0
	movf	(??_main+1)+0,w
	movwf	(SIM300SendMsg@msg_ref)
	movlw	((STR_14)-__stringbase)&0ffh
	fcall	_SIM300SendMsg
	bcf	status, 5	;RP0=0, select bank0
	bcf	status, 6	;RP1=0, select bank0
	movwf	(??_main+2)+0
	movf	(??_main+2)+0,w
	movwf	(main@result)
	line	72
	
l2580:	
;Security.c: 72: _delay((unsigned long)((5000)*(4000000/4000.0)));
	opt asmopt_off
movlw  26
movwf	((??_main+0)+0+2),f
movlw	94
movwf	((??_main+0)+0+1),f
	movlw	134
movwf	((??_main+0)+0),f
u2577:
	decfsz	((??_main+0)+0),f
	goto	u2577
	decfsz	((??_main+0)+0+1),f
	goto	u2577
	decfsz	((??_main+0)+0+2),f
	goto	u2577
	nop
opt asmopt_on

	line	73
	
l2582:	
;Security.c: 73: SMS_Sent = 1;
	bcf	status, 5	;RP0=0, select bank0
	bcf	status, 6	;RP1=0, select bank0
	clrf	(main@SMS_Sent)
	incf	(main@SMS_Sent),f
	goto	l2584
	line	74
	
l302:	
	goto	l2584
	line	75
	
l300:	
	line	59
	
l2584:	
	bcf	status, 5	;RP0=0, select bank0
	bcf	status, 6	;RP1=0, select bank0
	btfsc	(48/8),(48)&7	;volatile
	goto	u2221
	goto	u2220
u2221:
	goto	l2570
u2220:
	goto	l2586
	
l303:	
	line	76
	
l2586:	
;Security.c: 74: }
;Security.c: 75: }
;Security.c: 76: SMS_Sent = 0;
	clrf	(main@SMS_Sent)
	goto	l2584
	line	77
	
l304:	
	line	57
	goto	l2584
	
l305:	
	line	78
	
l306:	
	global	start
	ljmp	start
	opt stack 0
GLOBAL	__end_of_main
	__end_of_main:
	signat	_main,88
	global	_SIM300SendMsg

;; *************** function _SIM300SendMsg *****************
;; Defined at:
;;		line 375 in file "E:\Study Material\XC8 PROJECTS\Security Alarm\sim300.c"
;; Parameters:    Size  Location     Type
;;  num             1    wreg     PTR const unsigned char 
;;		 -> STR_14(11), 
;;  msg             1   49[BANK0 ] PTR const unsigned char 
;;		 -> STR_15(33), 
;;  msg_ref         1   50[BANK0 ] PTR unsigned char 
;;		 -> main@ref(1), 
;; Auto vars:     Size  Location     Type
;;  num             1   25[BANK1 ] PTR const unsigned char 
;;		 -> STR_14(11), 
;;  cmd            25    0[BANK1 ] unsigned char [25]
;;  n               1   27[BANK1 ] unsigned char 
;;  len             1   26[BANK1 ] unsigned char 
;; Return value:  Size  Location     Type
;;                  1    wreg      char 
;; Registers used:
;;		wreg, fsr0l, fsr0h, status,2, status,0, btemp+1, pclath, cstack
;; Tracked objects:
;;		On entry : 0/0
;;		On exit  : 0/0
;;		Unchanged: 0/0
;; Data sizes:     COMMON   BANK0   BANK1   BANK3   BANK2
;;      Params:         0       2       0       0       0
;;      Locals:         0       0      28       0       0
;;      Temps:          0       4       0       0       0
;;      Totals:         0       6      28       0       0
;;Total ram usage:       34 bytes
;; Hardware stack levels used:    1
;; Hardware stack levels required when called:    6
;; This function calls:
;;		_SIM300Cmd
;;		_SIM300DeleteMsg
;;		_SIM300WaitForResponse
;;		_USARTDataAvailable
;;		_USARTFlushBuffer
;;		_USARTReadBuffer
;;		_USARTWriteChar
;;		_USARTWriteString
;;		_atoi
;;		_sprintf
;;		_strlen
;;		_strnicmp
;; This function is called by:
;;		_main
;; This function uses a non-reentrant model
;;
psect	text1,local,class=CODE,delta=2,merge=1
	file	"E:\Study Material\XC8 PROJECTS\Security Alarm\sim300.c"
	line	375
global __ptext1
__ptext1:	;psect for function _SIM300SendMsg
psect	text1
	file	"E:\Study Material\XC8 PROJECTS\Security Alarm\sim300.c"
	line	375
	global	__size_of_SIM300SendMsg
	__size_of_SIM300SendMsg	equ	__end_of_SIM300SendMsg-_SIM300SendMsg
	
_SIM300SendMsg:	
;incstack = 0
	opt	stack 1
; Regs used in _SIM300SendMsg: [wreg-fsr0h+status,2+status,0+btemp+1+pclath+cstack]
;SIM300SendMsg@num stored from wreg
	bsf	status, 5	;RP0=1, select bank1
	bcf	status, 6	;RP1=0, select bank1
	movwf	(SIM300SendMsg@num)^080h
	line	377
	
l2236:	
;sim300.c: 377: USARTFlushBuffer();
	fcall	_USARTFlushBuffer
	line	381
	
l2238:	
;sim300.c: 379: char cmd[25];
;sim300.c: 381: sprintf(cmd,"AT+CMGS= %s",num);
	movlw	((STR_8)-__stringbase)&0ffh
	bcf	status, 5	;RP0=0, select bank0
	bcf	status, 6	;RP1=0, select bank0
	movwf	(??_SIM300SendMsg+0)+0
	movf	(??_SIM300SendMsg+0)+0,w
	movwf	(sprintf@f)
	bsf	status, 5	;RP0=1, select bank1
	bcf	status, 6	;RP1=0, select bank1
	movf	(SIM300SendMsg@num)^080h,w
	bcf	status, 5	;RP0=0, select bank0
	bcf	status, 6	;RP1=0, select bank0
	movwf	(??_SIM300SendMsg+1)+0
	movf	(??_SIM300SendMsg+1)+0,w
	movwf	(0+?_sprintf+01h)
	movlw	(SIM300SendMsg@cmd)&0ffh
	fcall	_sprintf
	line	383
	
l2240:	
;sim300.c: 383: cmd[8]=0x22;
	movlw	(022h)
	bcf	status, 5	;RP0=0, select bank0
	bcf	status, 6	;RP1=0, select bank0
	movwf	(??_SIM300SendMsg+0)+0
	movf	(??_SIM300SendMsg+0)+0,w
	bsf	status, 5	;RP0=1, select bank1
	bcf	status, 6	;RP1=0, select bank1
	movwf	0+(SIM300SendMsg@cmd)^080h+08h
	line	385
	
l2242:	
;sim300.c: 385: uint8_t n=strlen(cmd);
	movlw	(SIM300SendMsg@cmd&0ffh)
	bcf	status, 5	;RP0=0, select bank0
	bcf	status, 6	;RP1=0, select bank0
	movwf	(strlen@s)
	movlw	(0x0)
	movwf	(strlen@s+1)
	fcall	_strlen
	bcf	status, 5	;RP0=0, select bank0
	bcf	status, 6	;RP1=0, select bank0
	movf	(0+(?_strlen)),w
	movwf	(??_SIM300SendMsg+0)+0
	movf	(??_SIM300SendMsg+0)+0,w
	bsf	status, 5	;RP0=1, select bank1
	bcf	status, 6	;RP1=0, select bank1
	movwf	(SIM300SendMsg@n)^080h
	line	387
	
l2244:	
;sim300.c: 387: cmd[n]=0x22;
	movlw	(022h)
	bcf	status, 5	;RP0=0, select bank0
	bcf	status, 6	;RP1=0, select bank0
	movwf	(??_SIM300SendMsg+0)+0
	bsf	status, 5	;RP0=1, select bank1
	bcf	status, 6	;RP1=0, select bank1
	movf	(SIM300SendMsg@n)^080h,w
	addlw	SIM300SendMsg@cmd&0ffh
	movwf	fsr0
	bcf	status, 5	;RP0=0, select bank0
	bcf	status, 6	;RP1=0, select bank0
	movf	(??_SIM300SendMsg+0)+0,w
	bcf	status, 7	;select IRP bank1
	movwf	indf
	line	388
	
l2246:	
;sim300.c: 388: cmd[n+1]='\0';
	bsf	status, 5	;RP0=1, select bank1
	bcf	status, 6	;RP1=0, select bank1
	movf	(SIM300SendMsg@n)^080h,w
	addlw	01h
	addlw	SIM300SendMsg@cmd&0ffh
	movwf	fsr0
	clrf	indf
	line	391
	
l2248:	
;sim300.c: 391: SIM300Cmd(cmd);
	movlw	(SIM300SendMsg@cmd&0ffh)
	bcf	status, 5	;RP0=0, select bank0
	bcf	status, 6	;RP1=0, select bank0
	movwf	(SIM300Cmd@cmd)
	movlw	(0x0)
	movwf	(SIM300Cmd@cmd+1)
	fcall	_SIM300Cmd
	line	393
	
l2250:	
;sim300.c: 393: _delay((unsigned long)((100)*(4000000/4000.0)));
	opt asmopt_off
movlw	130
	bcf	status, 5	;RP0=0, select bank0
	bcf	status, 6	;RP1=0, select bank0
movwf	((??_SIM300SendMsg+0)+0+1),f
	movlw	221
movwf	((??_SIM300SendMsg+0)+0),f
u2587:
	decfsz	((??_SIM300SendMsg+0)+0),f
	goto	u2587
	decfsz	((??_SIM300SendMsg+0)+0+1),f
	goto	u2587
	nop2
opt asmopt_on

	line	395
	
l2252:	
;sim300.c: 395: USARTWriteString(msg);
	bcf	status, 5	;RP0=0, select bank0
	bcf	status, 6	;RP1=0, select bank0
	movf	(SIM300SendMsg@msg),w
	movwf	(USARTWriteString@str)
	movlw	80h
	movwf	(USARTWriteString@str+1)
	fcall	_USARTWriteString
	line	397
	
l2254:	
;sim300.c: 397: USARTWriteChar(0x1A);
	movlw	(01Ah)
	fcall	_USARTWriteChar
	line	399
;sim300.c: 399: while( USARTDataAvailable()<(strlen(msg)+5) );
	goto	l2256
	
l150:	
	goto	l2256
	
l149:	
	
l2256:	
	bcf	status, 5	;RP0=0, select bank0
	bcf	status, 6	;RP1=0, select bank0
	movf	(SIM300SendMsg@msg),w
	movwf	(strlen@s)
	movlw	80h
	movwf	(strlen@s+1)
	fcall	_strlen
	bcf	status, 5	;RP0=0, select bank0
	bcf	status, 6	;RP1=0, select bank0
	movf	(0+(?_strlen)),w
	addlw	low(05h)
	movwf	(??_SIM300SendMsg+0)+0
	movf	(1+(?_strlen)),w
	skipnc
	addlw	1
	addlw	high(05h)
	movwf	1+(??_SIM300SendMsg+0)+0
	fcall	_USARTDataAvailable
	bcf	status, 5	;RP0=0, select bank0
	bcf	status, 6	;RP1=0, select bank0
	movwf	(??_SIM300SendMsg+2)+0
	clrf	(??_SIM300SendMsg+2)+0+1
	movf	1+(??_SIM300SendMsg+0)+0,w
	subwf	1+(??_SIM300SendMsg+2)+0,w
	skipz
	goto	u1845
	movf	0+(??_SIM300SendMsg+0)+0,w
	subwf	0+(??_SIM300SendMsg+2)+0,w
u1845:
	skipc
	goto	u1841
	goto	u1840
u1841:
	goto	l2256
u1840:
	goto	l2258
	
l151:	
	line	402
	
l2258:	
;sim300.c: 402: USARTReadBuffer(sim300_buffer,strlen(msg)+5);
	movf	(SIM300SendMsg@msg),w
	movwf	(strlen@s)
	movlw	80h
	movwf	(strlen@s+1)
	fcall	_strlen
	bcf	status, 5	;RP0=0, select bank0
	bcf	status, 6	;RP1=0, select bank0
	movf	(0+(?_strlen)),w
	addlw	low(05h)
	movwf	(USARTReadBuffer@len)
	movf	(1+(?_strlen)),w
	skipnc
	addlw	1
	addlw	high(05h)
	movwf	1+(USARTReadBuffer@len)
	movlw	(_sim300_buffer)&0ffh
	fcall	_USARTReadBuffer
	line	404
	
l2260:	
;sim300.c: 404: uint8_t len=SIM300WaitForResponse(6000);
	movlw	low(01770h)
	bcf	status, 5	;RP0=0, select bank0
	bcf	status, 6	;RP1=0, select bank0
	movwf	(SIM300WaitForResponse@timeout)
	movlw	high(01770h)
	movwf	((SIM300WaitForResponse@timeout))+1
	fcall	_SIM300WaitForResponse
	bcf	status, 5	;RP0=0, select bank0
	bcf	status, 6	;RP1=0, select bank0
	movwf	(??_SIM300SendMsg+0)+0
	movf	(??_SIM300SendMsg+0)+0,w
	bsf	status, 5	;RP0=1, select bank1
	bcf	status, 6	;RP1=0, select bank1
	movwf	(SIM300SendMsg@len)^080h
	line	406
	
l2262:	
;sim300.c: 406: if(len==0)
	movf	(SIM300SendMsg@len)^080h,f
	skipz
	goto	u1851
	goto	u1850
u1851:
	goto	l2268
u1850:
	line	407
	
l2264:	
;sim300.c: 407: return -3;
	movlw	(-3)
	goto	l153
	
l2266:	
	goto	l153
	
l152:	
	line	409
	
l2268:	
;sim300.c: 409: sim300_buffer[len-1]='\0';
	movf	(SIM300SendMsg@len)^080h,w
	addlw	0FFh
	addlw	_sim300_buffer&0ffh
	movwf	fsr0
	bsf	status, 7	;select IRP bank3
	clrf	indf
	line	410
	
l2270:	
;sim300.c: 410: n = 1;
	clrf	(SIM300SendMsg@n)^080h
	incf	(SIM300SendMsg@n)^080h,f
	line	412
	
l2272:	
;sim300.c: 412: if(strnicmp(sim300_buffer+2,"CMGS:",5)==0)
	movlw	((STR_9)-__stringbase)&0ffh
	bcf	status, 5	;RP0=0, select bank0
	bcf	status, 6	;RP1=0, select bank0
	movwf	(??_SIM300SendMsg+0)+0
	movf	(??_SIM300SendMsg+0)+0,w
	movwf	(strnicmp@s2)
	movlw	low(05h)
	movwf	(strnicmp@len)
	movlw	high(05h)
	movwf	((strnicmp@len))+1
	movlw	(_sim300_buffer+02h)&0ffh
	fcall	_strnicmp
	bcf	status, 5	;RP0=0, select bank0
	bcf	status, 6	;RP1=0, select bank0
	movf	((1+(?_strnicmp))),w
	iorwf	((0+(?_strnicmp))),w
	skipz
	goto	u1861
	goto	u1860
u1861:
	goto	l2286
u1860:
	line	415
	
l2274:	
;sim300.c: 413: {
;sim300.c: 415: *msg_ref=atoi(sim300_buffer+8);
	movlw	(_sim300_buffer+08h)&0ffh
	fcall	_atoi
	bcf	status, 5	;RP0=0, select bank0
	bcf	status, 6	;RP1=0, select bank0
	movf	(0+(?_atoi)),w
	movwf	(??_SIM300SendMsg+0)+0
	movf	(SIM300SendMsg@msg_ref),w
	movwf	fsr0
	movf	(??_SIM300SendMsg+0)+0,w
	bcf	status, 7	;select IRP bank0
	movwf	indf
	line	417
	
l2276:	
;sim300.c: 417: len = SIM300DeleteMsg(n);
	bsf	status, 5	;RP0=1, select bank1
	bcf	status, 6	;RP1=0, select bank1
	movf	(SIM300SendMsg@n)^080h,w
	fcall	_SIM300DeleteMsg
	bcf	status, 5	;RP0=0, select bank0
	bcf	status, 6	;RP1=0, select bank0
	movwf	(??_SIM300SendMsg+0)+0
	movf	(??_SIM300SendMsg+0)+0,w
	bsf	status, 5	;RP0=1, select bank1
	bcf	status, 6	;RP1=0, select bank1
	movwf	(SIM300SendMsg@len)^080h
	line	419
	
l2278:	
;sim300.c: 419: USARTFlushBuffer();
	fcall	_USARTFlushBuffer
	line	421
	
l2280:	
;sim300.c: 421: return 1;
	movlw	(01h)
	goto	l153
	
l2282:	
	goto	l153
	line	422
	
l2284:	
;sim300.c: 422: }
	goto	l153
	line	423
	
l154:	
	line	425
	
l2286:	
;sim300.c: 423: else
;sim300.c: 424: {
;sim300.c: 425: len = SIM300DeleteMsg(n);
	bsf	status, 5	;RP0=1, select bank1
	bcf	status, 6	;RP1=0, select bank1
	movf	(SIM300SendMsg@n)^080h,w
	fcall	_SIM300DeleteMsg
	bcf	status, 5	;RP0=0, select bank0
	bcf	status, 6	;RP1=0, select bank0
	movwf	(??_SIM300SendMsg+0)+0
	movf	(??_SIM300SendMsg+0)+0,w
	bsf	status, 5	;RP0=1, select bank1
	bcf	status, 6	;RP1=0, select bank1
	movwf	(SIM300SendMsg@len)^080h
	line	426
	
l2288:	
;sim300.c: 426: USARTFlushBuffer();
	fcall	_USARTFlushBuffer
	line	427
	
l2290:	
;sim300.c: 427: return -2;
	movlw	(-2)
	goto	l153
	
l2292:	
	goto	l153
	line	428
	
l155:	
	line	429
	
l153:	
	return
	opt stack 0
GLOBAL	__end_of_SIM300SendMsg
	__end_of_SIM300SendMsg:
	signat	_SIM300SendMsg,12409
	global	_atoi

;; *************** function _atoi *****************
;; Defined at:
;;		line 5 in file "C:\Program Files (x86)\Microchip\xc8\v1.32\sources\common\atoi.c"
;; Parameters:    Size  Location     Type
;;  s               1    wreg     PTR const unsigned char 
;;		 -> sim300_buffer(70), 
;; Auto vars:     Size  Location     Type
;;  s               1   13[BANK0 ] PTR const unsigned char 
;;		 -> sim300_buffer(70), 
;;  a               2   11[BANK0 ] int 
;;  sign            1   10[BANK0 ] unsigned char 
;; Return value:  Size  Location     Type
;;                  2    6[BANK0 ] int 
;; Registers used:
;;		wreg, fsr0l, fsr0h, status,2, status,0, pclath, cstack
;; Tracked objects:
;;		On entry : 0/0
;;		On exit  : 0/0
;;		Unchanged: 0/0
;; Data sizes:     COMMON   BANK0   BANK1   BANK3   BANK2
;;      Params:         0       2       0       0       0
;;      Locals:         0       4       0       0       0
;;      Temps:          0       2       0       0       0
;;      Totals:         0       8       0       0       0
;;Total ram usage:        8 bytes
;; Hardware stack levels used:    1
;; Hardware stack levels required when called:    3
;; This function calls:
;;		___wmul
;;		_isdigit
;; This function is called by:
;;		_SIM300SendMsg
;; This function uses a non-reentrant model
;;
psect	text2,local,class=CODE,delta=2,merge=1
	file	"C:\Program Files (x86)\Microchip\xc8\v1.32\sources\common\atoi.c"
	line	5
global __ptext2
__ptext2:	;psect for function _atoi
psect	text2
	file	"C:\Program Files (x86)\Microchip\xc8\v1.32\sources\common\atoi.c"
	line	5
	global	__size_of_atoi
	__size_of_atoi	equ	__end_of_atoi-_atoi
	
_atoi:	
;incstack = 0
	opt	stack 3
; Regs used in _atoi: [wreg-fsr0h+status,2+status,0+pclath+cstack]
;atoi@s stored from wreg
	bcf	status, 5	;RP0=0, select bank0
	bcf	status, 6	;RP1=0, select bank0
	movwf	(atoi@s)
	line	10
	
l2152:	
	goto	l2156
	
l542:	
	line	11
	
l2154:	
	movlw	(01h)
	movwf	(??_atoi+0)+0
	movf	(??_atoi+0)+0,w
	addwf	(atoi@s),f
	goto	l2156
	
l541:	
	line	10
	
l2156:	
	movf	(atoi@s),w
	movwf	fsr0
	bsf	status, 7	;select IRP bank2
	movf	indf,w
	xorlw	020h
	skipnz
	goto	u1681
	goto	u1680
u1681:
	goto	l2154
u1680:
	
l2158:	
	movf	(atoi@s),w
	movwf	fsr0
	movf	indf,w
	xorlw	09h
	skipnz
	goto	u1691
	goto	u1690
u1691:
	goto	l2154
u1690:
	goto	l2160
	
l543:	
	line	12
	
l2160:	
	clrf	(atoi@a)
	clrf	(atoi@a+1)
	line	13
	clrf	(atoi@sign)
	line	14
	
l2162:	
	movf	(atoi@s),w
	movwf	fsr0
	movf	indf,w
	xorlw	02Dh
	skipz
	goto	u1701
	goto	u1700
u1701:
	goto	l2166
u1700:
	line	15
	
l2164:	
	movlw	(01h)
	movwf	(??_atoi+0)+0
	movf	(??_atoi+0)+0,w
	addwf	(atoi@sign),f
	line	16
	movlw	(01h)
	movwf	(??_atoi+0)+0
	movf	(??_atoi+0)+0,w
	addwf	(atoi@s),f
	line	17
	goto	l2174
	
l544:	
	
l2166:	
	movf	(atoi@s),w
	movwf	fsr0
	movf	indf,w
	xorlw	02Bh
	skipz
	goto	u1711
	goto	u1710
u1711:
	goto	l2174
u1710:
	line	18
	
l2168:	
	movlw	(01h)
	movwf	(??_atoi+0)+0
	movf	(??_atoi+0)+0,w
	addwf	(atoi@s),f
	goto	l2174
	
l546:	
	goto	l2174
	line	19
	
l545:	
	goto	l2174
	
l548:	
	line	20
	
l2170:	
	bcf	status, 5	;RP0=0, select bank0
	bcf	status, 6	;RP1=0, select bank0
	movf	(atoi@a+1),w
	clrf	(___wmul@multiplier+1)
	addwf	(___wmul@multiplier+1)
	movf	(atoi@a),w
	clrf	(___wmul@multiplier)
	addwf	(___wmul@multiplier)

	movlw	low(0Ah)
	movwf	(___wmul@multiplicand)
	movlw	high(0Ah)
	movwf	((___wmul@multiplicand))+1
	fcall	___wmul
	bcf	status, 5	;RP0=0, select bank0
	bcf	status, 6	;RP1=0, select bank0
	movf	(atoi@s),w
	movwf	fsr0
	bsf	status, 7	;select IRP bank2
	movf	indf,w
	addwf	(0+(?___wmul)),w
	movwf	(??_atoi+0)+0
	movf	(1+(?___wmul)),w
	skipnc
	incf	(1+(?___wmul)),w
	movwf	((??_atoi+0)+0)+1
	movf	0+(??_atoi+0)+0,w
	addlw	low(0FFD0h)
	movwf	(atoi@a)
	movf	1+(??_atoi+0)+0,w
	skipnc
	addlw	1
	addlw	high(0FFD0h)
	movwf	1+(atoi@a)
	
l2172:	
	movlw	(01h)
	movwf	(??_atoi+0)+0
	movf	(??_atoi+0)+0,w
	addwf	(atoi@s),f
	goto	l2174
	
l547:	
	line	19
	
l2174:	
	movf	(atoi@s),w
	movwf	fsr0
	movf	indf,w
	fcall	_isdigit
	btfsc	status,0
	goto	u1721
	goto	u1720
u1721:
	goto	l2170
u1720:
	goto	l2176
	
l549:	
	line	21
	
l2176:	
	bcf	status, 5	;RP0=0, select bank0
	bcf	status, 6	;RP1=0, select bank0
	movf	(atoi@sign),w
	skipz
	goto	u1730
	goto	l2182
u1730:
	line	22
	
l2178:	
	comf	(atoi@a),w
	movwf	(??_atoi+0)+0
	comf	(atoi@a+1),w
	movwf	((??_atoi+0)+0+1)
	incf	(??_atoi+0)+0,f
	skipnz
	incf	((??_atoi+0)+0+1),f
	movf	0+(??_atoi+0)+0,w
	movwf	(?_atoi)
	movf	1+(??_atoi+0)+0,w
	movwf	(?_atoi+1)
	goto	l551
	
l2180:	
	goto	l551
	
l550:	
	line	23
	
l2182:	
	movf	(atoi@a+1),w
	clrf	(?_atoi+1)
	addwf	(?_atoi+1)
	movf	(atoi@a),w
	clrf	(?_atoi)
	addwf	(?_atoi)

	goto	l551
	
l2184:	
	line	24
	
l551:	
	return
	opt stack 0
GLOBAL	__end_of_atoi
	__end_of_atoi:
	signat	_atoi,4218
	global	_isdigit

;; *************** function _isdigit *****************
;; Defined at:
;;		line 8 in file "C:\Program Files (x86)\Microchip\xc8\v1.32\sources\common\isdigit.c"
;; Parameters:    Size  Location     Type
;;  c               1    wreg     unsigned char 
;; Auto vars:     Size  Location     Type
;;  c               1    1[BANK0 ] unsigned char 
;; Return value:  Size  Location     Type
;;		None               void
;; Registers used:
;;		wreg, status,2, status,0
;; Tracked objects:
;;		On entry : 0/0
;;		On exit  : 0/0
;;		Unchanged: 0/0
;; Data sizes:     COMMON   BANK0   BANK1   BANK3   BANK2
;;      Params:         0       0       0       0       0
;;      Locals:         0       2       0       0       0
;;      Temps:          0       0       0       0       0
;;      Totals:         0       2       0       0       0
;;Total ram usage:        2 bytes
;; Hardware stack levels used:    1
;; Hardware stack levels required when called:    2
;; This function calls:
;;		Nothing
;; This function is called by:
;;		_atoi
;; This function uses a non-reentrant model
;;
psect	text3,local,class=CODE,delta=2,merge=1
	file	"C:\Program Files (x86)\Microchip\xc8\v1.32\sources\common\isdigit.c"
	line	8
global __ptext3
__ptext3:	;psect for function _isdigit
psect	text3
	file	"C:\Program Files (x86)\Microchip\xc8\v1.32\sources\common\isdigit.c"
	line	8
	global	__size_of_isdigit
	__size_of_isdigit	equ	__end_of_isdigit-_isdigit
	
_isdigit:	
;incstack = 0
	opt	stack 3
; Regs used in _isdigit: [wreg+status,2+status,0]
;isdigit@c stored from wreg
	bcf	status, 5	;RP0=0, select bank0
	bcf	status, 6	;RP1=0, select bank0
	movwf	(isdigit@c)
	line	14
	
l2046:	
	clrf	(_isdigit$594)
	
l2048:	
	movlw	(03Ah)
	subwf	(isdigit@c),w
	skipnc
	goto	u1581
	goto	u1580
u1581:
	goto	l2054
u1580:
	
l2050:	
	movlw	(030h)
	subwf	(isdigit@c),w
	skipc
	goto	u1591
	goto	u1590
u1591:
	goto	l2054
u1590:
	
l2052:	
	clrf	(_isdigit$594)
	incf	(_isdigit$594),f
	goto	l2054
	
l694:	
	
l2054:	
	rrf	(_isdigit$594),w
	
	goto	l695
	
l2056:	
	line	15
	
l695:	
	return
	opt stack 0
GLOBAL	__end_of_isdigit
	__end_of_isdigit:
	signat	_isdigit,4216
	global	_SIM300DeleteMsg

;; *************** function _SIM300DeleteMsg *****************
;; Defined at:
;;		line 227 in file "E:\Study Material\XC8 PROJECTS\Security Alarm\sim300.c"
;; Parameters:    Size  Location     Type
;;  i               1    wreg     unsigned char 
;; Auto vars:     Size  Location     Type
;;  i               1   47[BANK0 ] unsigned char 
;;  cmd            16   31[BANK0 ] unsigned char [16]
;;  len             1   48[BANK0 ] unsigned char 
;; Return value:  Size  Location     Type
;;                  1    wreg      char 
;; Registers used:
;;		wreg, fsr0l, fsr0h, status,2, status,0, btemp+1, pclath, cstack
;; Tracked objects:
;;		On entry : 0/0
;;		On exit  : 0/0
;;		Unchanged: 0/0
;; Data sizes:     COMMON   BANK0   BANK1   BANK3   BANK2
;;      Params:         0       0       0       0       0
;;      Locals:         0      18       0       0       0
;;      Temps:          0       3       0       0       0
;;      Totals:         0      21       0       0       0
;;Total ram usage:       21 bytes
;; Hardware stack levels used:    1
;; Hardware stack levels required when called:    5
;; This function calls:
;;		_SIM300Cmd
;;		_SIM300WaitForResponse
;;		_USARTFlushBuffer
;;		_sprintf
;;		_strnicmp
;; This function is called by:
;;		_SIM300SendMsg
;;		_SIM300WaitForValidMsg
;; This function uses a non-reentrant model
;;
psect	text4,local,class=CODE,delta=2,merge=1
	file	"E:\Study Material\XC8 PROJECTS\Security Alarm\sim300.c"
	line	227
global __ptext4
__ptext4:	;psect for function _SIM300DeleteMsg
psect	text4
	file	"E:\Study Material\XC8 PROJECTS\Security Alarm\sim300.c"
	line	227
	global	__size_of_SIM300DeleteMsg
	__size_of_SIM300DeleteMsg	equ	__end_of_SIM300DeleteMsg-_SIM300DeleteMsg
	
_SIM300DeleteMsg:	
;incstack = 0
	opt	stack 1
; Regs used in _SIM300DeleteMsg: [wreg-fsr0h+status,2+status,0+btemp+1+pclath+cstack]
;SIM300DeleteMsg@i stored from wreg
	bcf	status, 5	;RP0=0, select bank0
	bcf	status, 6	;RP1=0, select bank0
	movwf	(SIM300DeleteMsg@i)
	line	229
	
l2122:	
;sim300.c: 229: USARTFlushBuffer();
	fcall	_USARTFlushBuffer
	line	235
	
l2124:	
;sim300.c: 232: char cmd[16];
;sim300.c: 235: sprintf(cmd,"AT+CMGD=%d",i);
	movlw	((STR_3)-__stringbase)&0ffh
	bcf	status, 5	;RP0=0, select bank0
	bcf	status, 6	;RP1=0, select bank0
	movwf	(??_SIM300DeleteMsg+0)+0
	movf	(??_SIM300DeleteMsg+0)+0,w
	movwf	(sprintf@f)
	movf	(SIM300DeleteMsg@i),w
	movwf	(??_SIM300DeleteMsg+1)+0
	clrf	(??_SIM300DeleteMsg+1)+0+1
	movf	0+(??_SIM300DeleteMsg+1)+0,w
	movwf	0+(?_sprintf)+01h
	movf	1+(??_SIM300DeleteMsg+1)+0,w
	movwf	1+(?_sprintf)+01h
	movlw	(SIM300DeleteMsg@cmd)&0ffh
	fcall	_sprintf
	line	238
	
l2126:	
;sim300.c: 238: SIM300Cmd(cmd);
	movlw	(SIM300DeleteMsg@cmd&0ffh)
	bcf	status, 5	;RP0=0, select bank0
	bcf	status, 6	;RP1=0, select bank0
	movwf	(SIM300Cmd@cmd)
	movlw	(0x0)
	movwf	(SIM300Cmd@cmd+1)
	fcall	_SIM300Cmd
	line	240
;sim300.c: 240: uint8_t len=SIM300WaitForResponse(1000);
	movlw	low(03E8h)
	bcf	status, 5	;RP0=0, select bank0
	bcf	status, 6	;RP1=0, select bank0
	movwf	(SIM300WaitForResponse@timeout)
	movlw	high(03E8h)
	movwf	((SIM300WaitForResponse@timeout))+1
	fcall	_SIM300WaitForResponse
	bcf	status, 5	;RP0=0, select bank0
	bcf	status, 6	;RP1=0, select bank0
	movwf	(??_SIM300DeleteMsg+0)+0
	movf	(??_SIM300DeleteMsg+0)+0,w
	movwf	(SIM300DeleteMsg@len)
	line	242
	
l2128:	
;sim300.c: 242: if(len==0)
	movf	(SIM300DeleteMsg@len),f
	skipz
	goto	u1661
	goto	u1660
u1661:
	goto	l2134
u1660:
	line	243
	
l2130:	
;sim300.c: 243: return -3;
	movlw	(-3)
	goto	l125
	
l2132:	
	goto	l125
	
l124:	
	line	245
	
l2134:	
;sim300.c: 245: sim300_buffer[len-1]='\0';
	movf	(SIM300DeleteMsg@len),w
	addlw	0FFh
	addlw	_sim300_buffer&0ffh
	movwf	fsr0
	bsf	status, 7	;select IRP bank3
	clrf	indf
	line	248
	
l2136:	
;sim300.c: 248: if(strnicmp(sim300_buffer+2,"OK",2)==0)
	movlw	((STR_4)-__stringbase)&0ffh
	movwf	(??_SIM300DeleteMsg+0)+0
	movf	(??_SIM300DeleteMsg+0)+0,w
	movwf	(strnicmp@s2)
	movlw	low(02h)
	movwf	(strnicmp@len)
	movlw	high(02h)
	movwf	((strnicmp@len))+1
	movlw	(_sim300_buffer+02h)&0ffh
	fcall	_strnicmp
	bcf	status, 5	;RP0=0, select bank0
	bcf	status, 6	;RP1=0, select bank0
	movf	((1+(?_strnicmp))),w
	iorwf	((0+(?_strnicmp))),w
	skipz
	goto	u1671
	goto	u1670
u1671:
	goto	l2146
u1670:
	line	250
	
l2138:	
;sim300.c: 249: {
;sim300.c: 250: USARTFlushBuffer();
	fcall	_USARTFlushBuffer
	line	251
	
l2140:	
;sim300.c: 251: return 1;
	movlw	(01h)
	goto	l125
	
l2142:	
	goto	l125
	line	252
	
l2144:	
;sim300.c: 252: }
	goto	l125
	line	253
	
l126:	
	line	255
	
l2146:	
;sim300.c: 253: else
;sim300.c: 254: {
;sim300.c: 255: USARTFlushBuffer();
	fcall	_USARTFlushBuffer
	line	256
	
l2148:	
;sim300.c: 256: return -2;
	movlw	(-2)
	goto	l125
	
l2150:	
	goto	l125
	line	257
	
l127:	
	line	258
	
l125:	
	return
	opt stack 0
GLOBAL	__end_of_SIM300DeleteMsg
	__end_of_SIM300DeleteMsg:
	signat	_SIM300DeleteMsg,4217
	global	_strnicmp

;; *************** function _strnicmp *****************
;; Defined at:
;;		line 5 in file "C:\Program Files (x86)\Microchip\xc8\v1.32\sources\common\strnicmp.c"
;; Parameters:    Size  Location     Type
;;  s1              1    wreg     PTR const unsigned char 
;;		 -> sim300_buffer(70), 
;;  s2              1    2[BANK0 ] PTR const unsigned char 
;;		 -> STR_9(6), STR_5(7), STR_4(3), 
;;  len             2    3[BANK0 ] unsigned int 
;; Auto vars:     Size  Location     Type
;;  s1              1    8[BANK0 ] PTR const unsigned char 
;;		 -> sim300_buffer(70), 
;;  r               1    7[BANK0 ] char 
;; Return value:  Size  Location     Type
;;                  2    2[BANK0 ] int 
;; Registers used:
;;		wreg, fsr0l, fsr0h, status,2, status,0, pclath, cstack
;; Tracked objects:
;;		On entry : 0/0
;;		On exit  : 0/0
;;		Unchanged: 0/0
;; Data sizes:     COMMON   BANK0   BANK1   BANK3   BANK2
;;      Params:         0       3       0       0       0
;;      Locals:         0       2       0       0       0
;;      Temps:          0       2       0       0       0
;;      Totals:         0       7       0       0       0
;;Total ram usage:        7 bytes
;; Hardware stack levels used:    1
;; Hardware stack levels required when called:    3
;; This function calls:
;;		_toupper
;; This function is called by:
;;		_SIM300DeleteMsg
;;		_SIM300SendMsg
;;		_SIM300WaitForValidMsg
;; This function uses a non-reentrant model
;;
psect	text5,local,class=CODE,delta=2,merge=1
	file	"C:\Program Files (x86)\Microchip\xc8\v1.32\sources\common\strnicmp.c"
	line	5
global __ptext5
__ptext5:	;psect for function _strnicmp
psect	text5
	file	"C:\Program Files (x86)\Microchip\xc8\v1.32\sources\common\strnicmp.c"
	line	5
	global	__size_of_strnicmp
	__size_of_strnicmp	equ	__end_of_strnicmp-_strnicmp
	
_strnicmp:	
;incstack = 0
	opt	stack 3
; Regs used in _strnicmp: [wreg-fsr0h+status,2+status,0+pclath+cstack]
;strnicmp@s1 stored from wreg
	bcf	status, 5	;RP0=0, select bank0
	bcf	status, 6	;RP1=0, select bank0
	movwf	(strnicmp@s1)
	line	9
	
l2028:	
	goto	l2040
	
l815:	
	line	10
	
l2030:	
	movf	(strnicmp@s2),w
	movwf	fsr0
	fcall	stringdir
	fcall	_toupper
	xorlw	0ffh
	addlw	1
	bcf	status, 5	;RP0=0, select bank0
	bcf	status, 6	;RP1=0, select bank0
	movwf	(??_strnicmp+0)+0
	movf	(strnicmp@s1),w
	movwf	fsr0
	bsf	status, 7	;select IRP bank2
	movf	indf,w
	fcall	_toupper
	bcf	status, 5	;RP0=0, select bank0
	bcf	status, 6	;RP1=0, select bank0
	addwf	(??_strnicmp+0)+0,w
	movwf	(??_strnicmp+1)+0
	movf	(??_strnicmp+1)+0,w
	movwf	(strnicmp@r)
	movf	((strnicmp@r)),f
	skipz
	goto	u1551
	goto	u1550
u1551:
	goto	l2034
u1550:
	
l2032:	
	movf	(strnicmp@s1),w
	movwf	fsr0
	bsf	status, 7	;select IRP bank2
	movf	indf,f
	skipz
	goto	u1561
	goto	u1560
u1561:
	goto	l2038
u1560:
	goto	l2034
	
l818:	
	line	11
	
l2034:	
	movf	(strnicmp@r),w
	movwf	(?_strnicmp)
	clrf	(?_strnicmp+1)
	btfsc	(?_strnicmp),7
	decf	(?_strnicmp+1),f
	goto	l819
	
l2036:	
	goto	l819
	
l816:	
	line	12
	
l2038:	
	movlw	(01h)
	movwf	(??_strnicmp+0)+0
	movf	(??_strnicmp+0)+0,w
	addwf	(strnicmp@s1),f
	line	13
	movlw	(01h)
	movwf	(??_strnicmp+0)+0
	movf	(??_strnicmp+0)+0,w
	addwf	(strnicmp@s2),f
	goto	l2040
	line	14
	
l814:	
	line	9
	
l2040:	
	movlw	low(01h)
	subwf	(strnicmp@len),f
	movlw	high(01h)
	skipc
	decf	(strnicmp@len+1),f
	subwf	(strnicmp@len+1),f
	movlw	high(0FFFFh)
	xorwf	((strnicmp@len+1)),w
	skipz
	goto	u1575
	movlw	low(0FFFFh)
	xorwf	((strnicmp@len)),w
u1575:

	skipz
	goto	u1571
	goto	u1570
u1571:
	goto	l2030
u1570:
	goto	l2042
	
l820:	
	line	15
	
l2042:	
	clrf	(?_strnicmp)
	clrf	(?_strnicmp+1)
	goto	l819
	
l2044:	
	line	16
	
l819:	
	return
	opt stack 0
GLOBAL	__end_of_strnicmp
	__end_of_strnicmp:
	signat	_strnicmp,12410
	global	_toupper

;; *************** function _toupper *****************
;; Defined at:
;;		line 5 in file "C:\Program Files (x86)\Microchip\xc8\v1.32\sources\common\toupper.c"
;; Parameters:    Size  Location     Type
;;  c               1    wreg     unsigned char 
;; Auto vars:     Size  Location     Type
;;  c               1    1[BANK0 ] unsigned char 
;; Return value:  Size  Location     Type
;;                  1    wreg      unsigned char 
;; Registers used:
;;		wreg, status,2, status,0
;; Tracked objects:
;;		On entry : 0/0
;;		On exit  : 0/0
;;		Unchanged: 0/0
;; Data sizes:     COMMON   BANK0   BANK1   BANK3   BANK2
;;      Params:         0       0       0       0       0
;;      Locals:         0       1       0       0       0
;;      Temps:          0       1       0       0       0
;;      Totals:         0       2       0       0       0
;;Total ram usage:        2 bytes
;; Hardware stack levels used:    1
;; Hardware stack levels required when called:    2
;; This function calls:
;;		Nothing
;; This function is called by:
;;		_strnicmp
;;		_strrichr
;;		_strichr
;; This function uses a non-reentrant model
;;
psect	text6,local,class=CODE,delta=2,merge=1
	file	"C:\Program Files (x86)\Microchip\xc8\v1.32\sources\common\toupper.c"
	line	5
global __ptext6
__ptext6:	;psect for function _toupper
psect	text6
	file	"C:\Program Files (x86)\Microchip\xc8\v1.32\sources\common\toupper.c"
	line	5
	global	__size_of_toupper
	__size_of_toupper	equ	__end_of_toupper-_toupper
	
_toupper:	
;incstack = 0
	opt	stack 3
; Regs used in _toupper: [wreg+status,2+status,0]
;toupper@c stored from wreg
	bcf	status, 5	;RP0=0, select bank0
	bcf	status, 6	;RP1=0, select bank0
	movwf	(toupper@c)
	line	10
	
l1892:	
	movlw	(07Bh)
	subwf	(toupper@c),w
	skipnc
	goto	u1361
	goto	u1360
u1361:
	goto	l1898
u1360:
	
l1894:	
	movlw	(061h)
	subwf	(toupper@c),w
	skipc
	goto	u1371
	goto	u1370
u1371:
	goto	l1898
u1370:
	line	11
	
l1896:	
	movlw	(0DFh)
	movwf	(??_toupper+0)+0
	movf	(??_toupper+0)+0,w
	andwf	(toupper@c),f
	goto	l1898
	
l850:	
	line	12
	
l1898:	
	movf	(toupper@c),w
	goto	l851
	
l1900:	
	line	13
	
l851:	
	return
	opt stack 0
GLOBAL	__end_of_toupper
	__end_of_toupper:
	signat	_toupper,4217
	global	_sprintf

;; *************** function _sprintf *****************
;; Defined at:
;;		line 492 in file "C:\Program Files (x86)\Microchip\xc8\v1.32\sources\common\doprnt.c"
;; Parameters:    Size  Location     Type
;;  sp              1    wreg     PTR unsigned char 
;;		 -> SIM300SendMsg@cmd(25), SIM300ReadValidMsg@cmd(16), SIM300DeleteMsg@cmd(16), 
;;  f               1   14[BANK0 ] PTR const unsigned char 
;;		 -> STR_8(12), STR_6(11), STR_3(11), 
;; Auto vars:     Size  Location     Type
;;  sp              1   23[BANK0 ] PTR unsigned char 
;;		 -> SIM300SendMsg@cmd(25), SIM300ReadValidMsg@cmd(16), SIM300DeleteMsg@cmd(16), 
;;  _val            3   24[BANK0 ] struct .
;;  c               1   27[BANK0 ] char 
;;  ap              1   22[BANK0 ] PTR void [1]
;;		 -> ?_sprintf(2), 
;;  prec            1   21[BANK0 ] char 
;;  flag            1   20[BANK0 ] unsigned char 
;; Return value:  Size  Location     Type
;;                  2   14[BANK0 ] int 
;; Registers used:
;;		wreg, fsr0l, fsr0h, status,2, status,0, btemp+1, pclath, cstack
;; Tracked objects:
;;		On entry : 0/0
;;		On exit  : 0/0
;;		Unchanged: 0/0
;; Data sizes:     COMMON   BANK0   BANK1   BANK3   BANK2
;;      Params:         0       3       0       0       0
;;      Locals:         0       8       0       0       0
;;      Temps:          0       3       0       0       0
;;      Totals:         0      14       0       0       0
;;Total ram usage:       14 bytes
;; Hardware stack levels used:    1
;; Hardware stack levels required when called:    3
;; This function calls:
;;		___lwdiv
;;		___lwmod
;; This function is called by:
;;		_SIM300DeleteMsg
;;		_SIM300SendMsg
;;		_SIM300ReadValidMsg
;; This function uses a non-reentrant model
;;
psect	text7,local,class=CODE,delta=2,merge=1
	file	"C:\Program Files (x86)\Microchip\xc8\v1.32\sources\common\doprnt.c"
	line	492
global __ptext7
__ptext7:	;psect for function _sprintf
psect	text7
	file	"C:\Program Files (x86)\Microchip\xc8\v1.32\sources\common\doprnt.c"
	line	492
	global	__size_of_sprintf
	__size_of_sprintf	equ	__end_of_sprintf-_sprintf
	
_sprintf:	
;incstack = 0
	opt	stack 3
; Regs used in _sprintf: [wreg-fsr0h+status,2+status,0+btemp+1+pclath+cstack]
;sprintf@sp stored from wreg
	bcf	status, 5	;RP0=0, select bank0
	bcf	status, 6	;RP1=0, select bank0
	movwf	(sprintf@sp)
	line	542
	
l1956:	
;doprnt.c: 494: va_list ap;
;doprnt.c: 499: signed char c;
;doprnt.c: 506: signed char prec;
;doprnt.c: 508: unsigned char flag;
;doprnt.c: 527: union {
;doprnt.c: 528: unsigned int _val;
;doprnt.c: 529: struct {
;doprnt.c: 530: const char * _cp;
;doprnt.c: 531: unsigned _len;
;doprnt.c: 532: } _str;
;doprnt.c: 533: } _val;
;doprnt.c: 542: *ap = __va_start();
	movlw	(?_sprintf+01h)&0ffh
	movwf	(??_sprintf+0)+0
	movf	(??_sprintf+0)+0,w
	movwf	(sprintf@ap)
	line	545
;doprnt.c: 545: while(c = *f++) {
	goto	l2022
	
l316:	
	line	547
	
l1958:	
;doprnt.c: 547: if(c != '%')
	movf	(sprintf@c),w
	xorlw	025h
	skipnz
	goto	u1451
	goto	u1450
u1451:
	goto	l1964
u1450:
	line	550
	
l1960:	
;doprnt.c: 549: {
;doprnt.c: 550: ((*sp++ = (c)));
	movf	(sprintf@c),w
	movwf	(??_sprintf+0)+0
	movf	(sprintf@sp),w
	movwf	fsr0
	movf	(??_sprintf+0)+0,w
	bcf	status, 7	;select IRP bank0
	movwf	indf
	
l1962:	
	movlw	(01h)
	movwf	(??_sprintf+0)+0
	movf	(??_sprintf+0)+0,w
	addwf	(sprintf@sp),f
	line	551
;doprnt.c: 551: continue;
	goto	l2022
	line	552
	
l317:	
	line	557
	
l1964:	
;doprnt.c: 552: }
;doprnt.c: 557: flag = 0;
	clrf	(sprintf@flag)
	line	644
;doprnt.c: 644: switch(c = *f++) {
	goto	l1982
	line	646
;doprnt.c: 646: case 0:
	
l319:	
	line	647
;doprnt.c: 647: goto alldone;
	goto	l2024
	line	706
;doprnt.c: 706: case 'd':
	
l321:	
	goto	l1984
	line	707
	
l322:	
	line	708
;doprnt.c: 707: case 'i':
;doprnt.c: 708: break;
	goto	l1984
	line	737
;doprnt.c: 737: case 's':
	
l324:	
	line	743
	
l1966:	
;doprnt.c: 743: _val._str._cp = (*(const char * *)__va_arg((*(const char * **)ap), (const char *)0));
	movf	(sprintf@ap),w
	movwf	fsr0
	bcf	status, 7	;select IRP bank0
	movf	indf,w
	movwf	(??_sprintf+0)+0
	movf	(??_sprintf+0)+0,w
	movwf	(sprintf@_val)
	
l1968:	
	movlw	(01h)
	movwf	(??_sprintf+0)+0
	movf	(??_sprintf+0)+0,w
	addwf	(sprintf@ap),f
	line	749
	
l1970:	
;doprnt.c: 749: if(!_val._str._cp)
	movf	(sprintf@_val),f
	skipz
	goto	u1461
	goto	u1460
u1461:
	goto	l326
u1460:
	line	750
	
l1972:	
;doprnt.c: 750: _val._str._cp = "(null)";
	movlw	((STR_16)-__stringbase)&0ffh
	movwf	(??_sprintf+0)+0
	movf	(??_sprintf+0)+0,w
	movwf	(sprintf@_val)
	goto	l326
	
l325:	
	line	786
;doprnt.c: 786: while(*_val._str._cp)
	goto	l326
	
l327:	
	line	787
	
l1974:	
;doprnt.c: 787: ((*sp++ = (*_val._str._cp++)));
	movf	(sprintf@_val),w
	movwf	fsr0
	fcall	stringdir
	movwf	(??_sprintf+0)+0
	movf	(sprintf@sp),w
	movwf	fsr0
	movf	(??_sprintf+0)+0,w
	movwf	indf
	
l1976:	
	movlw	(01h)
	movwf	(??_sprintf+0)+0
	movf	(??_sprintf+0)+0,w
	addwf	(sprintf@_val),f
	
l1978:	
	movlw	(01h)
	movwf	(??_sprintf+0)+0
	movf	(??_sprintf+0)+0,w
	addwf	(sprintf@sp),f
	
l326:	
	line	786
	movf	(sprintf@_val),w
	movwf	fsr0
	fcall	stringdir
	iorlw	0
	skipz
	goto	u1471
	goto	u1470
u1471:
	goto	l1974
u1470:
	goto	l2022
	
l328:	
	line	788
;doprnt.c: 788: continue;
	goto	l2022
	line	811
;doprnt.c: 811: default:
	
l329:	
	line	822
;doprnt.c: 822: continue;
	goto	l2022
	line	831
	
l1980:	
;doprnt.c: 831: }
	goto	l1984
	line	644
	
l318:	
	
l1982:	
	movlw	01h
	addwf	(sprintf@f),f
	movlw	-01h
	addwf	(sprintf@f),w
	movwf	fsr0
	fcall	stringdir
	movwf	(sprintf@c)
	; Switch size 1, requested type "space"
; Number of cases is 4, Range of values is 0 to 115
; switch strategies available:
; Name         Instructions Cycles
; simple_byte           13     7 (average)
; jumptable            260     6 (fixed)
;	Chosen strategy is simple_byte

	opt asmopt_off
	xorlw	0^0	; case 0
	skipnz
	goto	l2024
	xorlw	100^0	; case 100
	skipnz
	goto	l1984
	xorlw	105^100	; case 105
	skipnz
	goto	l1984
	xorlw	115^105	; case 115
	skipnz
	goto	l1966
	goto	l2022
	opt asmopt_on

	line	831
	
l323:	
	line	1268
	
l1984:	
;doprnt.c: 1262: {
;doprnt.c: 1268: _val._val = (int)(*(int *)__va_arg((*(int **)ap), (int)0));
	movf	(sprintf@ap),w
	movwf	fsr0
	bcf	status, 7	;select IRP bank0
	movf	indf,w
	movwf	(sprintf@_val)
	incf	fsr0,f
	movf	indf,w
	movwf	(sprintf@_val+1)
	
l1986:	
	movlw	(02h)
	movwf	(??_sprintf+0)+0
	movf	(??_sprintf+0)+0,w
	addwf	(sprintf@ap),f
	line	1270
	
l1988:	
;doprnt.c: 1270: if((int)_val._val < 0) {
	btfss	(sprintf@_val+1),7
	goto	u1481
	goto	u1480
u1481:
	goto	l1994
u1480:
	line	1271
	
l1990:	
;doprnt.c: 1271: flag |= 0x03;
	movlw	(03h)
	movwf	(??_sprintf+0)+0
	movf	(??_sprintf+0)+0,w
	iorwf	(sprintf@flag),f
	line	1272
	
l1992:	
;doprnt.c: 1272: _val._val = -_val._val;
	comf	(sprintf@_val),f
	comf	(sprintf@_val+1),f
	incf	(sprintf@_val),f
	skipnz
	incf	(sprintf@_val+1),f
	goto	l1994
	line	1273
	
l330:	
	line	1314
	
l1994:	
;doprnt.c: 1273: }
;doprnt.c: 1275: }
;doprnt.c: 1314: for(c = 1 ; c != sizeof dpowers/sizeof dpowers[0] ; c++)
	clrf	(sprintf@c)
	incf	(sprintf@c),f
	movf	(sprintf@c),w
	xorlw	05h
	skipz
	goto	u1491
	goto	u1490
u1491:
	goto	l1998
u1490:
	goto	l2006
	
l1996:	
	goto	l2006
	line	1315
	
l331:	
	
l1998:	
;doprnt.c: 1315: if(_val._val < dpowers[c])
	movf	(sprintf@c),w
	movwf	(??_sprintf+0)+0
	addwf	(??_sprintf+0)+0,w
	addlw	low((_dpowers)-__stringbase)
	movwf	fsr0
	fcall	stringdir
	movwf	(??_sprintf+1)+0
	fcall	stringdir
	movwf	(??_sprintf+1)+0+1
	movf	1+(??_sprintf+1)+0,w
	subwf	(sprintf@_val+1),w
	skipz
	goto	u1505
	movf	0+(??_sprintf+1)+0,w
	subwf	(sprintf@_val),w
u1505:
	skipnc
	goto	u1501
	goto	u1500
u1501:
	goto	l2002
u1500:
	goto	l2006
	line	1316
	
l2000:	
;doprnt.c: 1316: break;
	goto	l2006
	
l333:	
	line	1314
	
l2002:	
	movlw	(01h)
	movwf	(??_sprintf+0)+0
	movf	(??_sprintf+0)+0,w
	addwf	(sprintf@c),f
	
l2004:	
	movf	(sprintf@c),w
	xorlw	05h
	skipz
	goto	u1511
	goto	u1510
u1511:
	goto	l1998
u1510:
	goto	l2006
	
l332:	
	line	1447
	
l2006:	
;doprnt.c: 1431: {
;doprnt.c: 1447: if(flag & 0x03)
	movf	(sprintf@flag),w
	andlw	03h
	btfsc	status,2
	goto	u1521
	goto	u1520
u1521:
	goto	l2012
u1520:
	line	1448
	
l2008:	
;doprnt.c: 1448: ((*sp++ = ('-')));
	movlw	(02Dh)
	movwf	(??_sprintf+0)+0
	movf	(sprintf@sp),w
	movwf	fsr0
	movf	(??_sprintf+0)+0,w
	bcf	status, 7	;select IRP bank0
	movwf	indf
	
l2010:	
	movlw	(01h)
	movwf	(??_sprintf+0)+0
	movf	(??_sprintf+0)+0,w
	addwf	(sprintf@sp),f
	goto	l2012
	
l334:	
	line	1481
	
l2012:	
;doprnt.c: 1478: }
;doprnt.c: 1481: prec = c;
	movf	(sprintf@c),w
	movwf	(??_sprintf+0)+0
	movf	(??_sprintf+0)+0,w
	movwf	(sprintf@prec)
	line	1483
;doprnt.c: 1483: while(prec--) {
	goto	l2020
	
l336:	
	line	1498
	
l2014:	
;doprnt.c: 1487: {
;doprnt.c: 1498: c = (_val._val / dpowers[prec]) % 10 + '0';
	movlw	low(0Ah)
	movwf	(___lwmod@divisor)
	movlw	high(0Ah)
	movwf	((___lwmod@divisor))+1
	movf	(sprintf@prec),w
	movwf	(??_sprintf+0)+0
	addwf	(??_sprintf+0)+0,w
	addlw	low((_dpowers)-__stringbase)
	movwf	fsr0
	fcall	stringdir
	movwf	(___lwdiv@divisor)
	fcall	stringdir
	movwf	(___lwdiv@divisor+1)
	movf	(sprintf@_val+1),w
	clrf	(___lwdiv@dividend+1)
	addwf	(___lwdiv@dividend+1)
	movf	(sprintf@_val),w
	clrf	(___lwdiv@dividend)
	addwf	(___lwdiv@dividend)

	fcall	___lwdiv
	bcf	status, 5	;RP0=0, select bank0
	bcf	status, 6	;RP1=0, select bank0
	movf	(1+(?___lwdiv)),w
	clrf	(___lwmod@dividend+1)
	addwf	(___lwmod@dividend+1)
	movf	(0+(?___lwdiv)),w
	clrf	(___lwmod@dividend)
	addwf	(___lwmod@dividend)

	fcall	___lwmod
	bcf	status, 5	;RP0=0, select bank0
	bcf	status, 6	;RP1=0, select bank0
	movf	(0+(?___lwmod)),w
	addlw	030h
	movwf	(??_sprintf+1)+0
	movf	(??_sprintf+1)+0,w
	movwf	(sprintf@c)
	line	1533
	
l2016:	
;doprnt.c: 1532: }
;doprnt.c: 1533: ((*sp++ = (c)));
	movf	(sprintf@c),w
	movwf	(??_sprintf+0)+0
	movf	(sprintf@sp),w
	movwf	fsr0
	movf	(??_sprintf+0)+0,w
	bcf	status, 7	;select IRP bank0
	movwf	indf
	
l2018:	
	movlw	(01h)
	movwf	(??_sprintf+0)+0
	movf	(??_sprintf+0)+0,w
	addwf	(sprintf@sp),f
	goto	l2020
	line	1534
	
l335:	
	line	1483
	
l2020:	
	movlw	(-1)
	movwf	(??_sprintf+0)+0
	movf	(??_sprintf+0)+0,w
	addwf	(sprintf@prec),f
	movf	((sprintf@prec)),w
	xorlw	-1
	skipz
	goto	u1531
	goto	u1530
u1531:
	goto	l2014
u1530:
	goto	l2022
	
l337:	
	goto	l2022
	line	1542
	
l315:	
	line	545
	
l2022:	
	movlw	01h
	addwf	(sprintf@f),f
	movlw	-01h
	addwf	(sprintf@f),w
	movwf	fsr0
	fcall	stringdir
	movwf	(??_sprintf+0)+0
	movf	(??_sprintf+0)+0,w
	movwf	(sprintf@c)
	movf	((sprintf@c)),f
	skipz
	goto	u1541
	goto	u1540
u1541:
	goto	l1958
u1540:
	goto	l2024
	
l338:	
	goto	l2024
	line	1544
;doprnt.c: 1534: }
;doprnt.c: 1542: }
;doprnt.c: 1544: alldone:
	
l320:	
	line	1547
	
l2024:	
;doprnt.c: 1547: *sp = 0;
	movf	(sprintf@sp),w
	movwf	fsr0
	bcf	status, 7	;select IRP bank0
	clrf	indf
	goto	l339
	line	1549
	
l2026:	
	line	1550
;doprnt.c: 1549: return 0;
;	Return value of _sprintf is never used
	
l339:	
	return
	opt stack 0
GLOBAL	__end_of_sprintf
	__end_of_sprintf:
	signat	_sprintf,4698
	global	___lwmod

;; *************** function ___lwmod *****************
;; Defined at:
;;		line 6 in file "C:\Program Files (x86)\Microchip\xc8\v1.32\sources\common\lwmod.c"
;; Parameters:    Size  Location     Type
;;  divisor         2    8[BANK0 ] unsigned int 
;;  dividend        2   10[BANK0 ] unsigned int 
;; Auto vars:     Size  Location     Type
;;  counter         1   13[BANK0 ] unsigned char 
;; Return value:  Size  Location     Type
;;                  2    8[BANK0 ] unsigned int 
;; Registers used:
;;		wreg, status,2, status,0
;; Tracked objects:
;;		On entry : 0/0
;;		On exit  : 0/0
;;		Unchanged: 0/0
;; Data sizes:     COMMON   BANK0   BANK1   BANK3   BANK2
;;      Params:         0       4       0       0       0
;;      Locals:         0       1       0       0       0
;;      Temps:          0       1       0       0       0
;;      Totals:         0       6       0       0       0
;;Total ram usage:        6 bytes
;; Hardware stack levels used:    1
;; Hardware stack levels required when called:    2
;; This function calls:
;;		Nothing
;; This function is called by:
;;		_sprintf
;; This function uses a non-reentrant model
;;
psect	text8,local,class=CODE,delta=2,merge=1
	file	"C:\Program Files (x86)\Microchip\xc8\v1.32\sources\common\lwmod.c"
	line	6
global __ptext8
__ptext8:	;psect for function ___lwmod
psect	text8
	file	"C:\Program Files (x86)\Microchip\xc8\v1.32\sources\common\lwmod.c"
	line	6
	global	__size_of___lwmod
	__size_of___lwmod	equ	__end_of___lwmod-___lwmod
	
___lwmod:	
;incstack = 0
	opt	stack 3
; Regs used in ___lwmod: [wreg+status,2+status,0]
	line	13
	
l1870:	
	bcf	status, 5	;RP0=0, select bank0
	bcf	status, 6	;RP1=0, select bank0
	movf	(___lwmod@divisor+1),w
	iorwf	(___lwmod@divisor),w
	skipnz
	goto	u1301
	goto	u1300
u1301:
	goto	l1888
u1300:
	line	14
	
l1872:	
	clrf	(___lwmod@counter)
	incf	(___lwmod@counter),f
	line	15
	goto	l1878
	
l784:	
	line	16
	
l1874:	
	movlw	01h
	
u1315:
	clrc
	rlf	(___lwmod@divisor),f
	rlf	(___lwmod@divisor+1),f
	addlw	-1
	skipz
	goto	u1315
	line	17
	
l1876:	
	movlw	(01h)
	movwf	(??___lwmod+0)+0
	movf	(??___lwmod+0)+0,w
	addwf	(___lwmod@counter),f
	goto	l1878
	line	18
	
l783:	
	line	15
	
l1878:	
	btfss	(___lwmod@divisor+1),(15)&7
	goto	u1321
	goto	u1320
u1321:
	goto	l1874
u1320:
	goto	l1880
	
l785:	
	goto	l1880
	line	19
	
l786:	
	line	20
	
l1880:	
	movf	(___lwmod@divisor+1),w
	subwf	(___lwmod@dividend+1),w
	skipz
	goto	u1335
	movf	(___lwmod@divisor),w
	subwf	(___lwmod@dividend),w
u1335:
	skipc
	goto	u1331
	goto	u1330
u1331:
	goto	l1884
u1330:
	line	21
	
l1882:	
	movf	(___lwmod@divisor),w
	subwf	(___lwmod@dividend),f
	movf	(___lwmod@divisor+1),w
	skipc
	decf	(___lwmod@dividend+1),f
	subwf	(___lwmod@dividend+1),f
	goto	l1884
	
l787:	
	line	22
	
l1884:	
	movlw	01h
	
u1345:
	clrc
	rrf	(___lwmod@divisor+1),f
	rrf	(___lwmod@divisor),f
	addlw	-1
	skipz
	goto	u1345
	line	23
	
l1886:	
	movlw	low(01h)
	subwf	(___lwmod@counter),f
	btfss	status,2
	goto	u1351
	goto	u1350
u1351:
	goto	l1880
u1350:
	goto	l1888
	
l788:	
	goto	l1888
	line	24
	
l782:	
	line	25
	
l1888:	
	movf	(___lwmod@dividend+1),w
	clrf	(?___lwmod+1)
	addwf	(?___lwmod+1)
	movf	(___lwmod@dividend),w
	clrf	(?___lwmod)
	addwf	(?___lwmod)

	goto	l789
	
l1890:	
	line	26
	
l789:	
	return
	opt stack 0
GLOBAL	__end_of___lwmod
	__end_of___lwmod:
	signat	___lwmod,8314
	global	___lwdiv

;; *************** function ___lwdiv *****************
;; Defined at:
;;		line 6 in file "C:\Program Files (x86)\Microchip\xc8\v1.32\sources\common\lwdiv.c"
;; Parameters:    Size  Location     Type
;;  divisor         2    0[BANK0 ] unsigned int 
;;  dividend        2    2[BANK0 ] unsigned int 
;; Auto vars:     Size  Location     Type
;;  quotient        2    5[BANK0 ] unsigned int 
;;  counter         1    7[BANK0 ] unsigned char 
;; Return value:  Size  Location     Type
;;                  2    0[BANK0 ] unsigned int 
;; Registers used:
;;		wreg, status,2, status,0
;; Tracked objects:
;;		On entry : 0/0
;;		On exit  : 0/0
;;		Unchanged: 0/0
;; Data sizes:     COMMON   BANK0   BANK1   BANK3   BANK2
;;      Params:         0       4       0       0       0
;;      Locals:         0       3       0       0       0
;;      Temps:          0       1       0       0       0
;;      Totals:         0       8       0       0       0
;;Total ram usage:        8 bytes
;; Hardware stack levels used:    1
;; Hardware stack levels required when called:    2
;; This function calls:
;;		Nothing
;; This function is called by:
;;		_sprintf
;; This function uses a non-reentrant model
;;
psect	text9,local,class=CODE,delta=2,merge=1
	file	"C:\Program Files (x86)\Microchip\xc8\v1.32\sources\common\lwdiv.c"
	line	6
global __ptext9
__ptext9:	;psect for function ___lwdiv
psect	text9
	file	"C:\Program Files (x86)\Microchip\xc8\v1.32\sources\common\lwdiv.c"
	line	6
	global	__size_of___lwdiv
	__size_of___lwdiv	equ	__end_of___lwdiv-___lwdiv
	
___lwdiv:	
;incstack = 0
	opt	stack 3
; Regs used in ___lwdiv: [wreg+status,2+status,0]
	line	14
	
l1844:	
	bcf	status, 5	;RP0=0, select bank0
	bcf	status, 6	;RP1=0, select bank0
	clrf	(___lwdiv@quotient)
	clrf	(___lwdiv@quotient+1)
	line	15
	
l1846:	
	movf	(___lwdiv@divisor+1),w
	iorwf	(___lwdiv@divisor),w
	skipnz
	goto	u1231
	goto	u1230
u1231:
	goto	l1866
u1230:
	line	16
	
l1848:	
	clrf	(___lwdiv@counter)
	incf	(___lwdiv@counter),f
	line	17
	goto	l1854
	
l774:	
	line	18
	
l1850:	
	movlw	01h
	
u1245:
	clrc
	rlf	(___lwdiv@divisor),f
	rlf	(___lwdiv@divisor+1),f
	addlw	-1
	skipz
	goto	u1245
	line	19
	
l1852:	
	movlw	(01h)
	movwf	(??___lwdiv+0)+0
	movf	(??___lwdiv+0)+0,w
	addwf	(___lwdiv@counter),f
	goto	l1854
	line	20
	
l773:	
	line	17
	
l1854:	
	btfss	(___lwdiv@divisor+1),(15)&7
	goto	u1251
	goto	u1250
u1251:
	goto	l1850
u1250:
	goto	l1856
	
l775:	
	goto	l1856
	line	21
	
l776:	
	line	22
	
l1856:	
	movlw	01h
	
u1265:
	clrc
	rlf	(___lwdiv@quotient),f
	rlf	(___lwdiv@quotient+1),f
	addlw	-1
	skipz
	goto	u1265
	line	23
	movf	(___lwdiv@divisor+1),w
	subwf	(___lwdiv@dividend+1),w
	skipz
	goto	u1275
	movf	(___lwdiv@divisor),w
	subwf	(___lwdiv@dividend),w
u1275:
	skipc
	goto	u1271
	goto	u1270
u1271:
	goto	l1862
u1270:
	line	24
	
l1858:	
	movf	(___lwdiv@divisor),w
	subwf	(___lwdiv@dividend),f
	movf	(___lwdiv@divisor+1),w
	skipc
	decf	(___lwdiv@dividend+1),f
	subwf	(___lwdiv@dividend+1),f
	line	25
	
l1860:	
	bsf	(___lwdiv@quotient)+(0/8),(0)&7
	goto	l1862
	line	26
	
l777:	
	line	27
	
l1862:	
	movlw	01h
	
u1285:
	clrc
	rrf	(___lwdiv@divisor+1),f
	rrf	(___lwdiv@divisor),f
	addlw	-1
	skipz
	goto	u1285
	line	28
	
l1864:	
	movlw	low(01h)
	subwf	(___lwdiv@counter),f
	btfss	status,2
	goto	u1291
	goto	u1290
u1291:
	goto	l1856
u1290:
	goto	l1866
	
l778:	
	goto	l1866
	line	29
	
l772:	
	line	30
	
l1866:	
	movf	(___lwdiv@quotient+1),w
	clrf	(?___lwdiv+1)
	addwf	(?___lwdiv+1)
	movf	(___lwdiv@quotient),w
	clrf	(?___lwdiv)
	addwf	(?___lwdiv)

	goto	l779
	
l1868:	
	line	31
	
l779:	
	return
	opt stack 0
GLOBAL	__end_of___lwdiv
	__end_of___lwdiv:
	signat	___lwdiv,8314
	global	_SIM300WaitForResponse

;; *************** function _SIM300WaitForResponse *****************
;; Defined at:
;;		line 154 in file "E:\Study Material\XC8 PROJECTS\Security Alarm\sim300.c"
;; Parameters:    Size  Location     Type
;;  timeout         2    2[BANK0 ] unsigned int 
;; Auto vars:     Size  Location     Type
;;  n               2    5[BANK0 ] unsigned int 
;;  i               1    7[BANK0 ] unsigned char 
;; Return value:  Size  Location     Type
;;                  1    wreg      char 
;; Registers used:
;;		wreg, fsr0l, fsr0h, status,2, status,0, pclath, cstack
;; Tracked objects:
;;		On entry : 0/0
;;		On exit  : 0/0
;;		Unchanged: 0/0
;; Data sizes:     COMMON   BANK0   BANK1   BANK3   BANK2
;;      Params:         0       2       0       0       0
;;      Locals:         0       3       0       0       0
;;      Temps:          0       1       0       0       0
;;      Totals:         0       6       0       0       0
;;Total ram usage:        6 bytes
;; Hardware stack levels used:    1
;; Hardware stack levels required when called:    4
;; This function calls:
;;		_USARTDataAvailable
;;		_USARTFlushBuffer
;;		_USARTReadData
;; This function is called by:
;;		_SIM300DeleteMsg
;;		_SIM300SendMsg
;;		_SIM300ReadValidMsg
;; This function uses a non-reentrant model
;;
psect	text10,local,class=CODE,delta=2,merge=1
	file	"E:\Study Material\XC8 PROJECTS\Security Alarm\sim300.c"
	line	154
global __ptext10
__ptext10:	;psect for function _SIM300WaitForResponse
psect	text10
	file	"E:\Study Material\XC8 PROJECTS\Security Alarm\sim300.c"
	line	154
	global	__size_of_SIM300WaitForResponse
	__size_of_SIM300WaitForResponse	equ	__end_of_SIM300WaitForResponse-_SIM300WaitForResponse
	
_SIM300WaitForResponse:	
;incstack = 0
	opt	stack 2
; Regs used in _SIM300WaitForResponse: [wreg-fsr0h+status,2+status,0+pclath+cstack]
	line	156
	
l1924:	
;sim300.c: 156: uint8_t i=0;
	bcf	status, 5	;RP0=0, select bank0
	bcf	status, 6	;RP1=0, select bank0
	clrf	(SIM300WaitForResponse@i)
	line	157
;sim300.c: 157: uint16_t n=0;
	clrf	(SIM300WaitForResponse@n)
	clrf	(SIM300WaitForResponse@n+1)
	goto	l1928
	line	159
;sim300.c: 159: while(1)
	
l94:	
	line	162
;sim300.c: 160: {
;sim300.c: 162: while (USARTDataAvailable()==0 && n<timeout)
	goto	l1928
	
l96:	
	line	164
	
l1926:	
;sim300.c: 163: {
;sim300.c: 164: n++;
	movlw	low(01h)
	addwf	(SIM300WaitForResponse@n),f
	skipnc
	incf	(SIM300WaitForResponse@n+1),f
	movlw	high(01h)
	addwf	(SIM300WaitForResponse@n+1),f
	line	165
;sim300.c: 165: _delay((unsigned long)((1)*(4000000/4000.0)));
	opt asmopt_off
movlw	249
movwf	(??_SIM300WaitForResponse+0)+0,f
u2597:
	nop
decfsz	(??_SIM300WaitForResponse+0)+0,f
	goto	u2597
	nop2	;nop
	nop
opt asmopt_on

	goto	l1928
	line	167
	
l95:	
	line	162
	
l1928:	
	fcall	_USARTDataAvailable
	iorlw	0
	skipz
	goto	u1401
	goto	u1400
u1401:
	goto	l1932
u1400:
	
l1930:	
	bcf	status, 5	;RP0=0, select bank0
	bcf	status, 6	;RP1=0, select bank0
	movf	(SIM300WaitForResponse@timeout+1),w
	subwf	(SIM300WaitForResponse@n+1),w
	skipz
	goto	u1415
	movf	(SIM300WaitForResponse@timeout),w
	subwf	(SIM300WaitForResponse@n),w
u1415:
	skipc
	goto	u1411
	goto	u1410
u1411:
	goto	l1926
u1410:
	goto	l1932
	
l98:	
	goto	l1932
	
l99:	
	line	169
	
l1932:	
;sim300.c: 167: }
;sim300.c: 169: if(n==timeout)
	bcf	status, 5	;RP0=0, select bank0
	bcf	status, 6	;RP1=0, select bank0
	movf	(SIM300WaitForResponse@timeout+1),w
	xorwf	(SIM300WaitForResponse@n+1),w
	skipz
	goto	u1425
	movf	(SIM300WaitForResponse@timeout),w
	xorwf	(SIM300WaitForResponse@n),w
u1425:

	skipz
	goto	u1421
	goto	u1420
u1421:
	goto	l1940
u1420:
	line	172
	
l1934:	
;sim300.c: 170: {
;sim300.c: 172: return 0;
	movlw	(0)
	goto	l101
	
l1936:	
	goto	l101
	line	173
	
l1938:	
;sim300.c: 173: }
	goto	l1928
	line	174
	
l100:	
	line	177
	
l1940:	
;sim300.c: 174: else
;sim300.c: 175: {
;sim300.c: 177: sim300_buffer[i]=USARTReadData();
	fcall	_USARTReadData
	bcf	status, 5	;RP0=0, select bank0
	bcf	status, 6	;RP1=0, select bank0
	movwf	(??_SIM300WaitForResponse+0)+0
	movf	(SIM300WaitForResponse@i),w
	addlw	_sim300_buffer&0ffh
	movwf	fsr0
	movf	(??_SIM300WaitForResponse+0)+0,w
	bsf	status, 7	;select IRP bank3
	movwf	indf
	line	179
	
l1942:	
;sim300.c: 179: if(sim300_buffer[i]==0x0D && i!=0)
	movf	(SIM300WaitForResponse@i),w
	addlw	_sim300_buffer&0ffh
	movwf	fsr0
	movf	indf,w
	xorlw	0Dh
	skipz
	goto	u1431
	goto	u1430
u1431:
	goto	l1954
u1430:
	
l1944:	
	movf	(SIM300WaitForResponse@i),w
	skipz
	goto	u1440
	goto	l1954
u1440:
	line	181
	
l1946:	
;sim300.c: 180: {
;sim300.c: 181: USARTFlushBuffer();
	fcall	_USARTFlushBuffer
	line	182
	
l1948:	
;sim300.c: 182: return i+1;
	bcf	status, 5	;RP0=0, select bank0
	bcf	status, 6	;RP1=0, select bank0
	movf	(SIM300WaitForResponse@i),w
	addlw	01h
	goto	l101
	
l1950:	
	goto	l101
	line	183
	
l1952:	
;sim300.c: 183: }
	goto	l1928
	line	184
	
l103:	
	line	185
	
l1954:	
;sim300.c: 184: else
;sim300.c: 185: i++;
	movlw	(01h)
	movwf	(??_SIM300WaitForResponse+0)+0
	movf	(??_SIM300WaitForResponse+0)+0,w
	addwf	(SIM300WaitForResponse@i),f
	goto	l1928
	
l104:	
	goto	l1928
	line	186
	
l102:	
	goto	l1928
	line	187
	
l105:	
	line	159
	goto	l1928
	
l106:	
	line	188
	
l101:	
	return
	opt stack 0
GLOBAL	__end_of_SIM300WaitForResponse
	__end_of_SIM300WaitForResponse:
	signat	_SIM300WaitForResponse,4217
	global	_USARTFlushBuffer

;; *************** function _USARTFlushBuffer *****************
;; Defined at:
;;		line 233 in file "E:\Study Material\XC8 PROJECTS\Security Alarm\usart_pic16.c"
;; Parameters:    Size  Location     Type
;;		None
;; Auto vars:     Size  Location     Type
;;		None
;; Return value:  Size  Location     Type
;;		None               void
;; Registers used:
;;		wreg, fsr0l, fsr0h, status,2, status,0, pclath, cstack
;; Tracked objects:
;;		On entry : 0/0
;;		On exit  : 0/0
;;		Unchanged: 0/0
;; Data sizes:     COMMON   BANK0   BANK1   BANK3   BANK2
;;      Params:         0       0       0       0       0
;;      Locals:         0       0       0       0       0
;;      Temps:          0       0       0       0       0
;;      Totals:         0       0       0       0       0
;;Total ram usage:        0 bytes
;; Hardware stack levels used:    1
;; Hardware stack levels required when called:    3
;; This function calls:
;;		_USARTDataAvailable
;;		_USARTReadData
;; This function is called by:
;;		_SIM300WaitForResponse
;;		_SIM300DeleteMsg
;;		_SIM300SendMsg
;;		_main
;;		_SIM300RingResponse
;;		_SIM300WaitForValidMsg
;;		_SIM300ReadValidMsg
;; This function uses a non-reentrant model
;;
psect	text11,local,class=CODE,delta=2,merge=1
	file	"E:\Study Material\XC8 PROJECTS\Security Alarm\usart_pic16.c"
	line	233
global __ptext11
__ptext11:	;psect for function _USARTFlushBuffer
psect	text11
	file	"E:\Study Material\XC8 PROJECTS\Security Alarm\usart_pic16.c"
	line	233
	global	__size_of_USARTFlushBuffer
	__size_of_USARTFlushBuffer	equ	__end_of_USARTFlushBuffer-_USARTFlushBuffer
	
_USARTFlushBuffer:	
;incstack = 0
	opt	stack 4
; Regs used in _USARTFlushBuffer: [wreg-fsr0h+status,2+status,0+pclath+cstack]
	line	235
	
l1826:	
;usart_pic16.c: 235: while(USARTDataAvailable()>0)
	goto	l1830
	
l265:	
	line	237
	
l1828:	
;usart_pic16.c: 236: {
;usart_pic16.c: 237: USARTReadData();
	fcall	_USARTReadData
	goto	l1830
	line	238
	
l264:	
	line	235
	
l1830:	
	fcall	_USARTDataAvailable
	iorlw	0
	skipz
	goto	u1181
	goto	u1180
u1181:
	goto	l1828
u1180:
	goto	l267
	
l266:	
	line	239
	
l267:	
	return
	opt stack 0
GLOBAL	__end_of_USARTFlushBuffer
	__end_of_USARTFlushBuffer:
	signat	_USARTFlushBuffer,88
	global	_SIM300Init

;; *************** function _SIM300Init *****************
;; Defined at:
;;		line 59 in file "E:\Study Material\XC8 PROJECTS\Security Alarm\sim300.c"
;; Parameters:    Size  Location     Type
;;		None
;; Auto vars:     Size  Location     Type
;;  i               2   22[BANK0 ] unsigned int 
;; Return value:  Size  Location     Type
;;                  1    wreg      char 
;; Registers used:
;;		wreg, fsr0l, fsr0h, status,2, status,0, btemp+1, pclath, cstack
;; Tracked objects:
;;		On entry : 0/0
;;		On exit  : 0/0
;;		Unchanged: 0/0
;; Data sizes:     COMMON   BANK0   BANK1   BANK3   BANK2
;;      Params:         0       0       0       0       0
;;      Locals:         0       2       0       0       0
;;      Temps:          0       2       0       0       0
;;      Totals:         0       4       0       0       0
;;Total ram usage:        4 bytes
;; Hardware stack levels used:    1
;; Hardware stack levels required when called:    5
;; This function calls:
;;		_SIM300CheckResponse
;;		_SIM300Cmd
;;		_USARTDataAvailable
;;		_USARTInit
;;		_USARTReadBuffer
;; This function is called by:
;;		_main
;; This function uses a non-reentrant model
;;
psect	text12,local,class=CODE,delta=2,merge=1
	file	"E:\Study Material\XC8 PROJECTS\Security Alarm\sim300.c"
	line	59
global __ptext12
__ptext12:	;psect for function _SIM300Init
psect	text12
	file	"E:\Study Material\XC8 PROJECTS\Security Alarm\sim300.c"
	line	59
	global	__size_of_SIM300Init
	__size_of_SIM300Init	equ	__end_of_SIM300Init-_SIM300Init
	
_SIM300Init:	
;incstack = 0
	opt	stack 2
; Regs used in _SIM300Init: [wreg-fsr0h+status,2+status,0+btemp+1+pclath+cstack]
	line	62
	
l2214:	
;sim300.c: 62: USARTInit(9600);
	movlw	low(02580h)
	bcf	status, 5	;RP0=0, select bank0
	bcf	status, 6	;RP1=0, select bank0
	movwf	(USARTInit@baud_rate)
	movlw	high(02580h)
	movwf	((USARTInit@baud_rate))+1
	fcall	_USARTInit
	line	65
	
l2216:	
;sim300.c: 65: SIM300Cmd("AT");
	movlw	low((STR_1)-__stringbase)
	bcf	status, 5	;RP0=0, select bank0
	bcf	status, 6	;RP1=0, select bank0
	movwf	(SIM300Cmd@cmd)
	movlw	80h
	movwf	(SIM300Cmd@cmd+1)
	fcall	_SIM300Cmd
	line	68
	
l2218:	
;sim300.c: 68: uint16_t i=0;
	bcf	status, 5	;RP0=0, select bank0
	bcf	status, 6	;RP1=0, select bank0
	clrf	(SIM300Init@i)
	clrf	(SIM300Init@i+1)
	line	74
;sim300.c: 74: while(i<10)
	goto	l2230
	
l66:	
	line	76
	
l2220:	
;sim300.c: 75: {
;sim300.c: 76: if(USARTDataAvailable()<6)
	fcall	_USARTDataAvailable
	bcf	status, 5	;RP0=0, select bank0
	bcf	status, 6	;RP1=0, select bank0
	movwf	(??_SIM300Init+0)+0
	movlw	low(06h)
	subwf	(??_SIM300Init+0)+0,w
	skipnc
	goto	u1821
	goto	u1820
u1821:
	goto	l2226
u1820:
	line	78
	
l2222:	
;sim300.c: 77: {
;sim300.c: 78: i++;
	movlw	low(01h)
	addwf	(SIM300Init@i),f
	skipnc
	incf	(SIM300Init@i+1),f
	movlw	high(01h)
	addwf	(SIM300Init@i+1),f
	line	79
;sim300.c: 79: _delay((unsigned long)((10)*(4000000/4000.0)));
	opt asmopt_off
movlw	13
movwf	((??_SIM300Init+0)+0+1),f
	movlw	251
movwf	((??_SIM300Init+0)+0),f
u2607:
	decfsz	((??_SIM300Init+0)+0),f
	goto	u2607
	decfsz	((??_SIM300Init+0)+0+1),f
	goto	u2607
	nop2
opt asmopt_on

	line	80
;sim300.c: 80: continue;
	goto	l2230
	line	81
	
l2224:	
;sim300.c: 81: }
	goto	l2230
	line	82
	
l67:	
	line	86
	
l2226:	
;sim300.c: 82: else
;sim300.c: 83: {
;sim300.c: 86: USARTReadBuffer(sim300_buffer,6);
	movlw	low(06h)
	bcf	status, 5	;RP0=0, select bank0
	bcf	status, 6	;RP1=0, select bank0
	movwf	(USARTReadBuffer@len)
	movlw	high(06h)
	movwf	((USARTReadBuffer@len))+1
	movlw	(_sim300_buffer)&0ffh
	fcall	_USARTReadBuffer
	line	88
;sim300.c: 88: return SIM300CheckResponse(sim300_buffer,"OK",6);
	movlw	((STR_2)-__stringbase)&0ffh
	bcf	status, 5	;RP0=0, select bank0
	bcf	status, 6	;RP1=0, select bank0
	movwf	(??_SIM300Init+0)+0
	movf	(??_SIM300Init+0)+0,w
	movwf	(SIM300CheckResponse@check)
	movlw	(06h)
	movwf	(??_SIM300Init+1)+0
	movf	(??_SIM300Init+1)+0,w
	movwf	(SIM300CheckResponse@len)
	movlw	(_sim300_buffer)&0ffh
	fcall	_SIM300CheckResponse
	goto	l69
	
l2228:	
	goto	l69
	line	89
	
l68:	
	goto	l2230
	line	90
	
l65:	
	line	74
	
l2230:	
	movlw	high(0Ah)
	bcf	status, 5	;RP0=0, select bank0
	bcf	status, 6	;RP1=0, select bank0
	subwf	(SIM300Init@i+1),w
	movlw	low(0Ah)
	skipnz
	subwf	(SIM300Init@i),w
	skipc
	goto	u1831
	goto	u1830
u1831:
	goto	l2220
u1830:
	goto	l2232
	
l70:	
	line	95
	
l2232:	
;sim300.c: 89: }
;sim300.c: 90: }
;sim300.c: 95: return -3;
	movlw	(-3)
	goto	l69
	
l2234:	
	line	96
	
l69:	
	return
	opt stack 0
GLOBAL	__end_of_SIM300Init
	__end_of_SIM300Init:
	signat	_SIM300Init,89
	global	_USARTInit

;; *************** function _USARTInit *****************
;; Defined at:
;;		line 31 in file "E:\Study Material\XC8 PROJECTS\Security Alarm\usart_pic16.c"
;; Parameters:    Size  Location     Type
;;  baud_rate       2    0[BANK0 ] unsigned int 
;; Auto vars:     Size  Location     Type
;;		None
;; Return value:  Size  Location     Type
;;		None               void
;; Registers used:
;;		wreg, fsr0l, fsr0h, status,2, status,0
;; Tracked objects:
;;		On entry : 0/0
;;		On exit  : 0/0
;;		Unchanged: 0/0
;; Data sizes:     COMMON   BANK0   BANK1   BANK3   BANK2
;;      Params:         0       2       0       0       0
;;      Locals:         0       0       0       0       0
;;      Temps:          0       1       0       0       0
;;      Totals:         0       3       0       0       0
;;Total ram usage:        3 bytes
;; Hardware stack levels used:    1
;; Hardware stack levels required when called:    2
;; This function calls:
;;		Nothing
;; This function is called by:
;;		_SIM300Init
;; This function uses a non-reentrant model
;;
psect	text13,local,class=CODE,delta=2,merge=1
	file	"E:\Study Material\XC8 PROJECTS\Security Alarm\usart_pic16.c"
	line	31
global __ptext13
__ptext13:	;psect for function _USARTInit
psect	text13
	file	"E:\Study Material\XC8 PROJECTS\Security Alarm\usart_pic16.c"
	line	31
	global	__size_of_USARTInit
	__size_of_USARTInit	equ	__end_of_USARTInit-_USARTInit
	
_USARTInit:	
;incstack = 0
	opt	stack 4
; Regs used in _USARTInit: [wreg-fsr0h+status,2+status,0]
	line	34
	
l2058:	
;usart_pic16.c: 34: UQFront=UQEnd=-1;
	movlw	(-1)
	movwf	(_UQEnd)	;volatile
	bcf	status, 5	;RP0=0, select bank0
	bcf	status, 6	;RP1=0, select bank0
	movwf	(??_USARTInit+0)+0
	movf	(??_USARTInit+0)+0,w
	movwf	(_UQFront)	;volatile
	line	37
;usart_pic16.c: 37: switch(baud_rate)
	goto	l2070
	line	39
;usart_pic16.c: 38: {
;usart_pic16.c: 39: case 9600:
	
l185:	
	line	40
	
l2060:	
;usart_pic16.c: 40: SPBRG=25;
	movlw	(019h)
	bsf	status, 5	;RP0=1, select bank1
	bcf	status, 6	;RP1=0, select bank1
	movwf	(153)^080h	;volatile
	line	41
;usart_pic16.c: 41: break;
	goto	l186
	line	42
;usart_pic16.c: 42: case 19200:
	
l187:	
	line	43
	
l2062:	
;usart_pic16.c: 43: SPBRG=12;
	movlw	(0Ch)
	bsf	status, 5	;RP0=1, select bank1
	bcf	status, 6	;RP1=0, select bank1
	movwf	(153)^080h	;volatile
	line	44
;usart_pic16.c: 44: break;
	goto	l186
	line	45
;usart_pic16.c: 45: case 28800:
	
l188:	
	line	46
	
l2064:	
;usart_pic16.c: 46: SPBRG=8;
	movlw	(08h)
	bsf	status, 5	;RP0=1, select bank1
	bcf	status, 6	;RP1=0, select bank1
	movwf	(153)^080h	;volatile
	line	47
;usart_pic16.c: 47: break;
	goto	l186
	line	48
;usart_pic16.c: 48: case 33600:
	
l189:	
	line	49
	
l2066:	
;usart_pic16.c: 49: SPBRG=6;
	movlw	(06h)
	bsf	status, 5	;RP0=1, select bank1
	bcf	status, 6	;RP1=0, select bank1
	movwf	(153)^080h	;volatile
	line	50
;usart_pic16.c: 50: break;
	goto	l186
	line	51
	
l2068:	
;usart_pic16.c: 51: }
	goto	l186
	line	37
	
l184:	
	
l2070:	
	; Switch on 2 bytes has been partitioned into a top level switch of size 1, and 4 sub-switches
; Switch size 1, requested type "space"
; Number of cases is 4, Range of values is 37 to 131
; switch strategies available:
; Name         Instructions Cycles
; simple_byte           13     7 (average)
; jumptable            263     9 (fixed)
;	Chosen strategy is simple_byte

	bcf	status, 5	;RP0=0, select bank0
	movf (USARTInit@baud_rate+1),w
	opt asmopt_off
	xorlw	37^0	; case 37
	skipnz
	goto	l2780
	xorlw	75^37	; case 75
	skipnz
	goto	l2782
	xorlw	112^75	; case 112
	skipnz
	goto	l2784
	xorlw	131^112	; case 131
	skipnz
	goto	l2786
	goto	l186
	opt asmopt_on
	
l2780:	
; Switch size 1, requested type "space"
; Number of cases is 1, Range of values is 128 to 128
; switch strategies available:
; Name         Instructions Cycles
; simple_byte            4     3 (average)
; direct_byte           14    11 (fixed)
; jumptable            263     9 (fixed)
;	Chosen strategy is simple_byte

	movf (USARTInit@baud_rate),w
	opt asmopt_off
	xorlw	128^0	; case 128
	skipnz
	goto	l2060
	goto	l186
	opt asmopt_on
	
l2782:	
; Switch size 1, requested type "space"
; Number of cases is 1, Range of values is 0 to 0
; switch strategies available:
; Name         Instructions Cycles
; simple_byte            4     3 (average)
; direct_byte           11     8 (fixed)
; jumptable            260     6 (fixed)
;	Chosen strategy is simple_byte

	movf (USARTInit@baud_rate),w
	opt asmopt_off
	xorlw	0^0	; case 0
	skipnz
	goto	l2062
	goto	l186
	opt asmopt_on
	
l2784:	
; Switch size 1, requested type "space"
; Number of cases is 1, Range of values is 128 to 128
; switch strategies available:
; Name         Instructions Cycles
; simple_byte            4     3 (average)
; direct_byte           14    11 (fixed)
; jumptable            263     9 (fixed)
;	Chosen strategy is simple_byte

	movf (USARTInit@baud_rate),w
	opt asmopt_off
	xorlw	128^0	; case 128
	skipnz
	goto	l2064
	goto	l186
	opt asmopt_on
	
l2786:	
; Switch size 1, requested type "space"
; Number of cases is 1, Range of values is 64 to 64
; switch strategies available:
; Name         Instructions Cycles
; simple_byte            4     3 (average)
; direct_byte           14    11 (fixed)
; jumptable            263     9 (fixed)
;	Chosen strategy is simple_byte

	movf (USARTInit@baud_rate),w
	opt asmopt_off
	xorlw	64^0	; case 64
	skipnz
	goto	l2066
	goto	l186
	opt asmopt_on

	line	51
	
l186:	
	line	53
;usart_pic16.c: 53: TXSTAbits.TX9=0;
	bsf	status, 5	;RP0=1, select bank1
	bcf	status, 6	;RP1=0, select bank1
	bcf	(152)^080h,6	;volatile
	line	54
;usart_pic16.c: 54: TXSTAbits.TXEN=1;
	bsf	(152)^080h,5	;volatile
	line	55
;usart_pic16.c: 55: TXSTAbits.SYNC=0;
	bcf	(152)^080h,4	;volatile
	line	56
;usart_pic16.c: 56: TXSTAbits.BRGH=1;
	bsf	(152)^080h,2	;volatile
	line	59
;usart_pic16.c: 59: RCSTAbits.SPEN=1;
	bcf	status, 5	;RP0=0, select bank0
	bcf	status, 6	;RP1=0, select bank0
	bsf	(24),7	;volatile
	line	60
;usart_pic16.c: 60: RCSTAbits.RX9=0;
	bcf	(24),6	;volatile
	line	61
;usart_pic16.c: 61: RCSTAbits.CREN=1;
	bsf	(24),4	;volatile
	line	62
;usart_pic16.c: 62: RCSTAbits.ADDEN=0;
	bcf	(24),3	;volatile
	line	65
;usart_pic16.c: 65: RCIE=1;
	bsf	status, 5	;RP0=1, select bank1
	bcf	status, 6	;RP1=0, select bank1
	bsf	(1125/8)^080h,(1125)&7	;volatile
	line	66
;usart_pic16.c: 66: PEIE=1;
	bsf	(94/8),(94)&7	;volatile
	line	69
;usart_pic16.c: 69: (GIE = 1);
	bsf	(95/8),(95)&7	;volatile
	line	70
	
l190:	
	return
	opt stack 0
GLOBAL	__end_of_USARTInit
	__end_of_USARTInit:
	signat	_USARTInit,4216
	global	_SIM300Cmd

;; *************** function _SIM300Cmd *****************
;; Defined at:
;;		line 98 in file "E:\Study Material\XC8 PROJECTS\Security Alarm\sim300.c"
;; Parameters:    Size  Location     Type
;;  cmd             2   13[BANK0 ] PTR const unsigned char 
;;		 -> STR_13(4), STR_12(15), STR_11(10), STR_10(10), 
;;		 -> SIM300SendMsg@cmd(25), SIM300ReadValidMsg@cmd(16), SIM300DeleteMsg@cmd(16), STR_1(3), 
;; Auto vars:     Size  Location     Type
;;  i               2   17[BANK0 ] unsigned int 
;;  len             1   19[BANK0 ] unsigned char 
;; Return value:  Size  Location     Type
;;                  1    wreg      char 
;; Registers used:
;;		wreg, fsr0l, fsr0h, status,2, status,0, btemp+1, pclath, cstack
;; Tracked objects:
;;		On entry : 0/0
;;		On exit  : 0/0
;;		Unchanged: 0/0
;; Data sizes:     COMMON   BANK0   BANK1   BANK3   BANK2
;;      Params:         0       2       0       0       0
;;      Locals:         0       3       0       0       0
;;      Temps:          0       2       0       0       0
;;      Totals:         0       7       0       0       0
;;Total ram usage:        7 bytes
;; Hardware stack levels used:    1
;; Hardware stack levels required when called:    4
;; This function calls:
;;		_USARTDataAvailable
;;		_USARTReadBuffer
;;		_USARTWriteChar
;;		_USARTWriteString
;;		___wmul
;;		_strlen
;; This function is called by:
;;		_SIM300Init
;;		_SIM300DeleteMsg
;;		_SIM300SendMsg
;;		_main
;;		_SIM300ReadValidMsg
;; This function uses a non-reentrant model
;;
psect	text14,local,class=CODE,delta=2,merge=1
	file	"E:\Study Material\XC8 PROJECTS\Security Alarm\sim300.c"
	line	98
global __ptext14
__ptext14:	;psect for function _SIM300Cmd
psect	text14
	file	"E:\Study Material\XC8 PROJECTS\Security Alarm\sim300.c"
	line	98
	global	__size_of_SIM300Cmd
	__size_of_SIM300Cmd	equ	__end_of_SIM300Cmd-_SIM300Cmd
	
_SIM300Cmd:	
;incstack = 0
	opt	stack 1
; Regs used in _SIM300Cmd: [wreg-fsr0h+status,2+status,0+btemp+1+pclath+cstack]
	line	100
	
l1902:	
;sim300.c: 100: USARTWriteString(cmd);
	bcf	status, 5	;RP0=0, select bank0
	bcf	status, 6	;RP1=0, select bank0
	movf	(SIM300Cmd@cmd+1),w
	clrf	(USARTWriteString@str+1)
	addwf	(USARTWriteString@str+1)
	movf	(SIM300Cmd@cmd),w
	clrf	(USARTWriteString@str)
	addwf	(USARTWriteString@str)

	fcall	_USARTWriteString
	line	101
	
l1904:	
;sim300.c: 101: USARTWriteChar(0x0D);
	movlw	(0Dh)
	fcall	_USARTWriteChar
	line	103
	
l1906:	
;sim300.c: 103: uint8_t len=strlen(cmd);
	bcf	status, 5	;RP0=0, select bank0
	bcf	status, 6	;RP1=0, select bank0
	movf	(SIM300Cmd@cmd+1),w
	clrf	(strlen@s+1)
	addwf	(strlen@s+1)
	movf	(SIM300Cmd@cmd),w
	clrf	(strlen@s)
	addwf	(strlen@s)

	fcall	_strlen
	bcf	status, 5	;RP0=0, select bank0
	bcf	status, 6	;RP1=0, select bank0
	movf	(0+(?_strlen)),w
	movwf	(??_SIM300Cmd+0)+0
	movf	(??_SIM300Cmd+0)+0,w
	movwf	(SIM300Cmd@len)
	line	105
	
l1908:	
;sim300.c: 105: len++;
	movlw	(01h)
	movwf	(??_SIM300Cmd+0)+0
	movf	(??_SIM300Cmd+0)+0,w
	addwf	(SIM300Cmd@len),f
	line	107
	
l1910:	
;sim300.c: 107: uint16_t i=0;
	clrf	(SIM300Cmd@i)
	clrf	(SIM300Cmd@i+1)
	line	110
;sim300.c: 110: while(i<10*len)
	goto	l1922
	
l74:	
	line	112
	
l1912:	
;sim300.c: 111: {
;sim300.c: 112: if(USARTDataAvailable()<len)
	fcall	_USARTDataAvailable
	bcf	status, 5	;RP0=0, select bank0
	bcf	status, 6	;RP1=0, select bank0
	movwf	(??_SIM300Cmd+0)+0
	movf	(SIM300Cmd@len),w
	subwf	(??_SIM300Cmd+0)+0,w
	skipnc
	goto	u1381
	goto	u1380
u1381:
	goto	l1918
u1380:
	line	114
	
l1914:	
;sim300.c: 113: {
;sim300.c: 114: i++;
	movlw	low(01h)
	addwf	(SIM300Cmd@i),f
	skipnc
	incf	(SIM300Cmd@i+1),f
	movlw	high(01h)
	addwf	(SIM300Cmd@i+1),f
	line	115
;sim300.c: 115: _delay((unsigned long)((10)*(4000000/4000.0)));
	opt asmopt_off
movlw	13
movwf	((??_SIM300Cmd+0)+0+1),f
	movlw	251
movwf	((??_SIM300Cmd+0)+0),f
u2617:
	decfsz	((??_SIM300Cmd+0)+0),f
	goto	u2617
	decfsz	((??_SIM300Cmd+0)+0+1),f
	goto	u2617
	nop2
opt asmopt_on

	line	116
;sim300.c: 116: continue;
	goto	l1922
	line	117
	
l1916:	
;sim300.c: 117: }
	goto	l1922
	line	118
	
l75:	
	line	122
	
l1918:	
;sim300.c: 118: else
;sim300.c: 119: {
;sim300.c: 122: USARTReadBuffer(sim300_buffer,len);
	bcf	status, 5	;RP0=0, select bank0
	bcf	status, 6	;RP1=0, select bank0
	movf	(SIM300Cmd@len),w
	movwf	(??_SIM300Cmd+0)+0
	clrf	(??_SIM300Cmd+0)+0+1
	movf	0+(??_SIM300Cmd+0)+0,w
	movwf	(USARTReadBuffer@len)
	movf	1+(??_SIM300Cmd+0)+0,w
	movwf	(USARTReadBuffer@len+1)
	movlw	(_sim300_buffer)&0ffh
	fcall	_USARTReadBuffer
	goto	l77
	line	124
	
l1920:	
;sim300.c: 124: return 1;
;	Return value of _SIM300Cmd is never used
	goto	l77
	line	125
	
l76:	
	goto	l1922
	line	126
	
l73:	
	line	110
	
l1922:	
	bcf	status, 5	;RP0=0, select bank0
	bcf	status, 6	;RP1=0, select bank0
	movf	(SIM300Cmd@len),w
	movwf	(??_SIM300Cmd+0)+0
	clrf	(??_SIM300Cmd+0)+0+1
	movf	0+(??_SIM300Cmd+0)+0,w
	movwf	(___wmul@multiplier)
	movf	1+(??_SIM300Cmd+0)+0,w
	movwf	(___wmul@multiplier+1)
	movlw	low(0Ah)
	movwf	(___wmul@multiplicand)
	movlw	high(0Ah)
	movwf	((___wmul@multiplicand))+1
	fcall	___wmul
	bcf	status, 5	;RP0=0, select bank0
	bcf	status, 6	;RP1=0, select bank0
	movf	(1+(?___wmul)),w
	subwf	(SIM300Cmd@i+1),w
	skipz
	goto	u1395
	movf	(0+(?___wmul)),w
	subwf	(SIM300Cmd@i),w
u1395:
	skipc
	goto	u1391
	goto	u1390
u1391:
	goto	l1912
u1390:
	goto	l77
	
l78:	
	line	129
;sim300.c: 125: }
;sim300.c: 126: }
;sim300.c: 128: return -3;
;	Return value of _SIM300Cmd is never used
	
l77:	
	return
	opt stack 0
GLOBAL	__end_of_SIM300Cmd
	__end_of_SIM300Cmd:
	signat	_SIM300Cmd,4217
	global	_strlen

;; *************** function _strlen *****************
;; Defined at:
;;		line 4 in file "C:\Program Files (x86)\Microchip\xc8\v1.32\sources\common\strlen.c"
;; Parameters:    Size  Location     Type
;;  s               2    0[BANK0 ] PTR const unsigned char 
;;		 -> STR_15(33), STR_13(4), STR_12(15), STR_11(10), 
;;		 -> STR_10(10), SIM300SendMsg@cmd(25), STR_7(4), SIM300ReadValidMsg@cmd(16), 
;;		 -> SIM300DeleteMsg@cmd(16), STR_1(3), 
;; Auto vars:     Size  Location     Type
;;  cp              2    4[BANK0 ] PTR const unsigned char 
;;		 -> STR_15(33), STR_13(4), STR_12(15), STR_11(10), 
;;		 -> STR_10(10), SIM300SendMsg@cmd(25), STR_7(4), SIM300ReadValidMsg@cmd(16), 
;;		 -> SIM300DeleteMsg@cmd(16), STR_1(3), 
;; Return value:  Size  Location     Type
;;                  2    0[BANK0 ] unsigned int 
;; Registers used:
;;		wreg, fsr0l, fsr0h, status,2, status,0, btemp+1, pclath
;; Tracked objects:
;;		On entry : 0/0
;;		On exit  : 0/0
;;		Unchanged: 0/0
;; Data sizes:     COMMON   BANK0   BANK1   BANK3   BANK2
;;      Params:         0       2       0       0       0
;;      Locals:         0       2       0       0       0
;;      Temps:          0       2       0       0       0
;;      Totals:         0       6       0       0       0
;;Total ram usage:        6 bytes
;; Hardware stack levels used:    1
;; Hardware stack levels required when called:    2
;; This function calls:
;;		Nothing
;; This function is called by:
;;		_SIM300Cmd
;;		_SIM300SendMsg
;;		_strstr
;; This function uses a non-reentrant model
;;
psect	text15,local,class=CODE,delta=2,merge=1
	file	"C:\Program Files (x86)\Microchip\xc8\v1.32\sources\common\strlen.c"
	line	4
global __ptext15
__ptext15:	;psect for function _strlen
psect	text15
	file	"C:\Program Files (x86)\Microchip\xc8\v1.32\sources\common\strlen.c"
	line	4
	global	__size_of_strlen
	__size_of_strlen	equ	__end_of_strlen-_strlen
	
_strlen:	
;incstack = 0
	opt	stack 4
; Regs used in _strlen: [wreg-fsr0h+status,2+status,0+btemp+1+pclath]
	line	8
	
l1818:	
	bcf	status, 5	;RP0=0, select bank0
	bcf	status, 6	;RP1=0, select bank0
	movf	(strlen@s+1),w
	clrf	(strlen@cp+1)
	addwf	(strlen@cp+1)
	movf	(strlen@s),w
	clrf	(strlen@cp)
	addwf	(strlen@cp)

	line	9
	goto	l1820
	
l807:	
	line	10
	movlw	01h
	addwf	(strlen@cp),f
	skipnc
	incf	(strlen@cp+1),f
	goto	l1820
	line	11
	
l806:	
	line	9
	
l1820:	
	movf	(strlen@cp+1),w
	movwf	btemp+1
	movf	(strlen@cp),w
	movwf	fsr0
	fcall	stringtab
	iorlw	0
	skipz
	goto	u1171
	goto	u1170
u1171:
	goto	l807
u1170:
	goto	l1822
	
l808:	
	line	12
	
l1822:	
	comf	(strlen@s),w
	movwf	(??_strlen+0)+0
	comf	(strlen@s+1),w
	movwf	((??_strlen+0)+0+1)
	incf	(??_strlen+0)+0,f
	skipnz
	incf	((??_strlen+0)+0+1),f
	movf	(strlen@cp),w
	addwf	0+(??_strlen+0)+0,w
	movwf	(?_strlen)
	movf	(strlen@cp+1),w
	skipnc
	incf	(strlen@cp+1),w
	addwf	1+(??_strlen+0)+0,w
	movwf	1+(?_strlen)
	goto	l809
	
l1824:	
	line	13
	
l809:	
	return
	opt stack 0
GLOBAL	__end_of_strlen
	__end_of_strlen:
	signat	_strlen,4218
	global	___wmul

;; *************** function ___wmul *****************
;; Defined at:
;;		line 15 in file "C:\Program Files (x86)\Microchip\xc8\v1.32\sources\common\Umul16.c"
;; Parameters:    Size  Location     Type
;;  multiplier      2    0[BANK0 ] unsigned int 
;;  multiplicand    2    2[BANK0 ] unsigned int 
;; Auto vars:     Size  Location     Type
;;  product         2    4[BANK0 ] unsigned int 
;; Return value:  Size  Location     Type
;;                  2    0[BANK0 ] unsigned int 
;; Registers used:
;;		wreg, status,2, status,0
;; Tracked objects:
;;		On entry : 0/0
;;		On exit  : 0/0
;;		Unchanged: 0/0
;; Data sizes:     COMMON   BANK0   BANK1   BANK3   BANK2
;;      Params:         0       4       0       0       0
;;      Locals:         0       2       0       0       0
;;      Temps:          0       0       0       0       0
;;      Totals:         0       6       0       0       0
;;Total ram usage:        6 bytes
;; Hardware stack levels used:    1
;; Hardware stack levels required when called:    2
;; This function calls:
;;		Nothing
;; This function is called by:
;;		_SIM300Cmd
;;		_atoi
;; This function uses a non-reentrant model
;;
psect	text16,local,class=CODE,delta=2,merge=1
	file	"C:\Program Files (x86)\Microchip\xc8\v1.32\sources\common\Umul16.c"
	line	15
global __ptext16
__ptext16:	;psect for function ___wmul
psect	text16
	file	"C:\Program Files (x86)\Microchip\xc8\v1.32\sources\common\Umul16.c"
	line	15
	global	__size_of___wmul
	__size_of___wmul	equ	__end_of___wmul-___wmul
	
___wmul:	
;incstack = 0
	opt	stack 3
; Regs used in ___wmul: [wreg+status,2+status,0]
	line	43
	
l1832:	
	bcf	status, 5	;RP0=0, select bank0
	bcf	status, 6	;RP1=0, select bank0
	clrf	(___wmul@product)
	clrf	(___wmul@product+1)
	goto	l1834
	line	44
	
l422:	
	line	45
	
l1834:	
	btfss	(___wmul@multiplier),(0)&7
	goto	u1191
	goto	u1190
u1191:
	goto	l423
u1190:
	line	46
	
l1836:	
	movf	(___wmul@multiplicand),w
	addwf	(___wmul@product),f
	skipnc
	incf	(___wmul@product+1),f
	movf	(___wmul@multiplicand+1),w
	addwf	(___wmul@product+1),f
	
l423:	
	line	47
	movlw	01h
	
u1205:
	clrc
	rlf	(___wmul@multiplicand),f
	rlf	(___wmul@multiplicand+1),f
	addlw	-1
	skipz
	goto	u1205
	line	48
	
l1838:	
	movlw	01h
	
u1215:
	clrc
	rrf	(___wmul@multiplier+1),f
	rrf	(___wmul@multiplier),f
	addlw	-1
	skipz
	goto	u1215
	line	49
	movf	((___wmul@multiplier+1)),w
	iorwf	((___wmul@multiplier)),w
	skipz
	goto	u1221
	goto	u1220
u1221:
	goto	l1834
u1220:
	goto	l1840
	
l424:	
	line	52
	
l1840:	
	movf	(___wmul@product+1),w
	clrf	(?___wmul+1)
	addwf	(?___wmul+1)
	movf	(___wmul@product),w
	clrf	(?___wmul)
	addwf	(?___wmul)

	goto	l425
	
l1842:	
	line	53
	
l425:	
	return
	opt stack 0
GLOBAL	__end_of___wmul
	__end_of___wmul:
	signat	___wmul,8314
	global	_USARTWriteString

;; *************** function _USARTWriteString *****************
;; Defined at:
;;		line 80 in file "E:\Study Material\XC8 PROJECTS\Security Alarm\usart_pic16.c"
;; Parameters:    Size  Location     Type
;;  str             2    1[BANK0 ] PTR const unsigned char 
;;		 -> STR_15(33), STR_13(4), STR_12(15), STR_11(10), 
;;		 -> STR_10(10), SIM300SendMsg@cmd(25), SIM300ReadValidMsg@cmd(16), SIM300DeleteMsg@cmd(16), 
;;		 -> STR_1(3), 
;; Auto vars:     Size  Location     Type
;;		None
;; Return value:  Size  Location     Type
;;		None               void
;; Registers used:
;;		wreg, fsr0l, fsr0h, status,2, status,0, btemp+1, pclath, cstack
;; Tracked objects:
;;		On entry : 0/0
;;		On exit  : 0/0
;;		Unchanged: 0/0
;; Data sizes:     COMMON   BANK0   BANK1   BANK3   BANK2
;;      Params:         0       2       0       0       0
;;      Locals:         0       0       0       0       0
;;      Temps:          0       0       0       0       0
;;      Totals:         0       2       0       0       0
;;Total ram usage:        2 bytes
;; Hardware stack levels used:    1
;; Hardware stack levels required when called:    3
;; This function calls:
;;		_USARTWriteChar
;; This function is called by:
;;		_SIM300Cmd
;;		_SIM300SendMsg
;;		_USARTWriteLine
;; This function uses a non-reentrant model
;;
psect	text17,local,class=CODE,delta=2,merge=1
	file	"E:\Study Material\XC8 PROJECTS\Security Alarm\usart_pic16.c"
	line	80
global __ptext17
__ptext17:	;psect for function _USARTWriteString
psect	text17
	file	"E:\Study Material\XC8 PROJECTS\Security Alarm\usart_pic16.c"
	line	80
	global	__size_of_USARTWriteString
	__size_of_USARTWriteString	equ	__end_of_USARTWriteString-_USARTWriteString
	
_USARTWriteString:	
;incstack = 0
	opt	stack 3
; Regs used in _USARTWriteString: [wreg-fsr0h+status,2+status,0+btemp+1+pclath+cstack]
	line	82
	
l1810:	
;usart_pic16.c: 82: while(*str!='\0')
	goto	l1816
	
l200:	
	line	84
	
l1812:	
;usart_pic16.c: 83: {
;usart_pic16.c: 84: USARTWriteChar(*str);
	bcf	status, 5	;RP0=0, select bank0
	bcf	status, 6	;RP1=0, select bank0
	movf	(USARTWriteString@str+1),w
	movwf	btemp+1
	movf	(USARTWriteString@str),w
	movwf	fsr0
	fcall	stringtab
	fcall	_USARTWriteChar
	line	85
	
l1814:	
;usart_pic16.c: 85: str++;
	movlw	01h
	bcf	status, 5	;RP0=0, select bank0
	bcf	status, 6	;RP1=0, select bank0
	addwf	(USARTWriteString@str),f
	skipnc
	incf	(USARTWriteString@str+1),f
	goto	l1816
	line	86
	
l199:	
	line	82
	
l1816:	
	bcf	status, 5	;RP0=0, select bank0
	bcf	status, 6	;RP1=0, select bank0
	movf	(USARTWriteString@str+1),w
	movwf	btemp+1
	movf	(USARTWriteString@str),w
	movwf	fsr0
	fcall	stringtab
	iorlw	0
	skipz
	goto	u1161
	goto	u1160
u1161:
	goto	l1812
u1160:
	goto	l202
	
l201:	
	line	87
	
l202:	
	return
	opt stack 0
GLOBAL	__end_of_USARTWriteString
	__end_of_USARTWriteString:
	signat	_USARTWriteString,4216
	global	_USARTWriteChar

;; *************** function _USARTWriteChar *****************
;; Defined at:
;;		line 73 in file "E:\Study Material\XC8 PROJECTS\Security Alarm\usart_pic16.c"
;; Parameters:    Size  Location     Type
;;  ch              1    wreg     unsigned char 
;; Auto vars:     Size  Location     Type
;;  ch              1    0[BANK0 ] unsigned char 
;; Return value:  Size  Location     Type
;;		None               void
;; Registers used:
;;		wreg
;; Tracked objects:
;;		On entry : 0/0
;;		On exit  : 0/0
;;		Unchanged: 0/0
;; Data sizes:     COMMON   BANK0   BANK1   BANK3   BANK2
;;      Params:         0       0       0       0       0
;;      Locals:         0       1       0       0       0
;;      Temps:          0       0       0       0       0
;;      Totals:         0       1       0       0       0
;;Total ram usage:        1 bytes
;; Hardware stack levels used:    1
;; Hardware stack levels required when called:    2
;; This function calls:
;;		Nothing
;; This function is called by:
;;		_SIM300Cmd
;;		_SIM300SendMsg
;;		_USARTWriteString
;;		_USARTWriteLine
;;		_USARTWriteInt
;;		_USARTGotoNewLine
;; This function uses a non-reentrant model
;;
psect	text18,local,class=CODE,delta=2,merge=1
	line	73
global __ptext18
__ptext18:	;psect for function _USARTWriteChar
psect	text18
	file	"E:\Study Material\XC8 PROJECTS\Security Alarm\usart_pic16.c"
	line	73
	global	__size_of_USARTWriteChar
	__size_of_USARTWriteChar	equ	__end_of_USARTWriteChar-_USARTWriteChar
	
_USARTWriteChar:	
;incstack = 0
	opt	stack 3
; Regs used in _USARTWriteChar: [wreg]
;USARTWriteChar@ch stored from wreg
	bcf	status, 5	;RP0=0, select bank0
	bcf	status, 6	;RP1=0, select bank0
	movwf	(USARTWriteChar@ch)
	line	75
	
l1776:	
;usart_pic16.c: 75: while(!PIR1bits.TXIF);
	goto	l193
	
l194:	
	
l193:	
	btfss	(12),4	;volatile
	goto	u1111
	goto	u1110
u1111:
	goto	l193
u1110:
	goto	l1778
	
l195:	
	line	76
	
l1778:	
;usart_pic16.c: 76: TXREG=ch;
	movf	(USARTWriteChar@ch),w
	movwf	(25)	;volatile
	line	77
	
l196:	
	return
	opt stack 0
GLOBAL	__end_of_USARTWriteChar
	__end_of_USARTWriteChar:
	signat	_USARTWriteChar,4216
	global	_USARTReadBuffer

;; *************** function _USARTReadBuffer *****************
;; Defined at:
;;		line 223 in file "E:\Study Material\XC8 PROJECTS\Security Alarm\usart_pic16.c"
;; Parameters:    Size  Location     Type
;;  buff            1    wreg     PTR unsigned char 
;;		 -> sim300_buffer(70), 
;;  len             2    6[BANK0 ] unsigned int 
;; Auto vars:     Size  Location     Type
;;  buff            1   10[BANK0 ] PTR unsigned char 
;;		 -> sim300_buffer(70), 
;;  i               2   11[BANK0 ] unsigned int 
;; Return value:  Size  Location     Type
;;		None               void
;; Registers used:
;;		wreg, fsr0l, fsr0h, status,2, status,0, pclath, cstack
;; Tracked objects:
;;		On entry : 0/0
;;		On exit  : 0/0
;;		Unchanged: 0/0
;; Data sizes:     COMMON   BANK0   BANK1   BANK3   BANK2
;;      Params:         0       2       0       0       0
;;      Locals:         0       3       0       0       0
;;      Temps:          0       2       0       0       0
;;      Totals:         0       7       0       0       0
;;Total ram usage:        7 bytes
;; Hardware stack levels used:    1
;; Hardware stack levels required when called:    3
;; This function calls:
;;		_USARTReadData
;; This function is called by:
;;		_SIM300Init
;;		_SIM300Cmd
;;		_SIM300SendMsg
;; This function uses a non-reentrant model
;;
psect	text19,local,class=CODE,delta=2,merge=1
	line	223
global __ptext19
__ptext19:	;psect for function _USARTReadBuffer
psect	text19
	file	"E:\Study Material\XC8 PROJECTS\Security Alarm\usart_pic16.c"
	line	223
	global	__size_of_USARTReadBuffer
	__size_of_USARTReadBuffer	equ	__end_of_USARTReadBuffer-_USARTReadBuffer
	
_USARTReadBuffer:	
;incstack = 0
	opt	stack 3
; Regs used in _USARTReadBuffer: [wreg-fsr0h+status,2+status,0+pclath+cstack]
;USARTReadBuffer@buff stored from wreg
	bcf	status, 5	;RP0=0, select bank0
	bcf	status, 6	;RP1=0, select bank0
	movwf	(USARTReadBuffer@buff)
	line	226
	
l1802:	
;usart_pic16.c: 225: uint16_t i;
;usart_pic16.c: 226: for(i=0;i<len;i++)
	clrf	(USARTReadBuffer@i)
	clrf	(USARTReadBuffer@i+1)
	goto	l1808
	line	227
	
l259:	
	line	228
	
l1804:	
;usart_pic16.c: 227: {
;usart_pic16.c: 228: buff[i]=USARTReadData();
	fcall	_USARTReadData
	bcf	status, 5	;RP0=0, select bank0
	bcf	status, 6	;RP1=0, select bank0
	movwf	(??_USARTReadBuffer+0)+0
	movf	(USARTReadBuffer@i),w
	addwf	(USARTReadBuffer@buff),w
	movwf	(??_USARTReadBuffer+1)+0
	movf	0+(??_USARTReadBuffer+1)+0,w
	movwf	fsr0
	movf	(??_USARTReadBuffer+0)+0,w
	bsf	status, 7	;select IRP bank2
	movwf	indf
	line	226
	
l1806:	
	movlw	low(01h)
	addwf	(USARTReadBuffer@i),f
	skipnc
	incf	(USARTReadBuffer@i+1),f
	movlw	high(01h)
	addwf	(USARTReadBuffer@i+1),f
	goto	l1808
	
l258:	
	
l1808:	
	movf	(USARTReadBuffer@len+1),w
	subwf	(USARTReadBuffer@i+1),w
	skipz
	goto	u1155
	movf	(USARTReadBuffer@len),w
	subwf	(USARTReadBuffer@i),w
u1155:
	skipc
	goto	u1151
	goto	u1150
u1151:
	goto	l1804
u1150:
	goto	l261
	
l260:	
	line	230
	
l261:	
	return
	opt stack 0
GLOBAL	__end_of_USARTReadBuffer
	__end_of_USARTReadBuffer:
	signat	_USARTReadBuffer,8312
	global	_USARTReadData

;; *************** function _USARTReadData *****************
;; Defined at:
;;		line 131 in file "E:\Study Material\XC8 PROJECTS\Security Alarm\usart_pic16.c"
;; Parameters:    Size  Location     Type
;;		None
;; Auto vars:     Size  Location     Type
;;  data            1    1[BANK0 ] unsigned char 
;; Return value:  Size  Location     Type
;;                  1    wreg      unsigned char 
;; Registers used:
;;		wreg, fsr0l, fsr0h, status,2, status,0
;; Tracked objects:
;;		On entry : 0/0
;;		On exit  : 0/0
;;		Unchanged: 0/0
;; Data sizes:     COMMON   BANK0   BANK1   BANK3   BANK2
;;      Params:         0       0       0       0       0
;;      Locals:         0       1       0       0       0
;;      Temps:          0       1       0       0       0
;;      Totals:         0       2       0       0       0
;;Total ram usage:        2 bytes
;; Hardware stack levels used:    1
;; Hardware stack levels required when called:    2
;; This function calls:
;;		Nothing
;; This function is called by:
;;		_SIM300WaitForResponse
;;		_USARTReadBuffer
;;		_USARTFlushBuffer
;;		_SIM300RingResponse
;; This function uses a non-reentrant model
;;
psect	text20,local,class=CODE,delta=2,merge=1
	line	131
global __ptext20
__ptext20:	;psect for function _USARTReadData
psect	text20
	file	"E:\Study Material\XC8 PROJECTS\Security Alarm\usart_pic16.c"
	line	131
	global	__size_of_USARTReadData
	__size_of_USARTReadData	equ	__end_of_USARTReadData-_USARTReadData
	
_USARTReadData:	
;incstack = 0
	opt	stack 4
; Regs used in _USARTReadData: [wreg-fsr0h+status,2+status,0]
	line	136
	
l1780:	
;usart_pic16.c: 133: char data;
;usart_pic16.c: 136: if(UQFront==-1)
	movf	(_UQFront),w	;volatile
	xorlw	-1
	skipz
	goto	u1121
	goto	u1120
u1121:
	goto	l1786
u1120:
	line	137
	
l1782:	
;usart_pic16.c: 137: return 0;
	movlw	(0)
	goto	l223
	
l1784:	
	goto	l223
	
l222:	
	line	139
	
l1786:	
;usart_pic16.c: 139: data=URBuff[UQFront];
	movf	(_UQFront),w
	addlw	_URBuff&0ffh
	movwf	fsr0
	bsf	status, 7	;select IRP bank2
	movf	indf,w
	bcf	status, 5	;RP0=0, select bank0
	bcf	status, 6	;RP1=0, select bank0
	movwf	(??_USARTReadData+0)+0
	movf	(??_USARTReadData+0)+0,w
	movwf	(USARTReadData@data)
	line	141
	
l1788:	
;usart_pic16.c: 141: if(UQFront==UQEnd)
	movf	(_UQFront),w	;volatile
	xorwf	(_UQEnd),w	;volatile
	skipz
	goto	u1131
	goto	u1130
u1131:
	goto	l1792
u1130:
	line	145
	
l1790:	
;usart_pic16.c: 142: {
;usart_pic16.c: 145: UQFront=UQEnd=-1;
	movlw	(-1)
	movwf	(_UQEnd)	;volatile
	movwf	(??_USARTReadData+0)+0
	movf	(??_USARTReadData+0)+0,w
	movwf	(_UQFront)	;volatile
	line	146
;usart_pic16.c: 146: }
	goto	l1798
	line	147
	
l224:	
	line	149
	
l1792:	
;usart_pic16.c: 147: else
;usart_pic16.c: 148: {
;usart_pic16.c: 149: UQFront++;
	movlw	(01h)
	movwf	(??_USARTReadData+0)+0
	movf	(??_USARTReadData+0)+0,w
	addwf	(_UQFront),f	;volatile
	line	151
	
l1794:	
;usart_pic16.c: 151: if(UQFront==64)
	movf	(_UQFront),w	;volatile
	xorlw	040h
	skipz
	goto	u1141
	goto	u1140
u1141:
	goto	l1798
u1140:
	line	152
	
l1796:	
;usart_pic16.c: 152: UQFront=0;
	clrf	(_UQFront)	;volatile
	goto	l1798
	
l226:	
	goto	l1798
	line	153
	
l225:	
	line	155
	
l1798:	
;usart_pic16.c: 153: }
;usart_pic16.c: 155: return data;
	movf	(USARTReadData@data),w
	goto	l223
	
l1800:	
	line	156
	
l223:	
	return
	opt stack 0
GLOBAL	__end_of_USARTReadData
	__end_of_USARTReadData:
	signat	_USARTReadData,89
	global	_USARTDataAvailable

;; *************** function _USARTDataAvailable *****************
;; Defined at:
;;		line 159 in file "E:\Study Material\XC8 PROJECTS\Security Alarm\usart_pic16.c"
;; Parameters:    Size  Location     Type
;;		None
;; Auto vars:     Size  Location     Type
;;		None
;; Return value:  Size  Location     Type
;;                  1    wreg      unsigned char 
;; Registers used:
;;		wreg, status,2, status,0
;; Tracked objects:
;;		On entry : 0/0
;;		On exit  : 0/0
;;		Unchanged: 0/0
;; Data sizes:     COMMON   BANK0   BANK1   BANK3   BANK2
;;      Params:         0       0       0       0       0
;;      Locals:         0       0       0       0       0
;;      Temps:          0       1       0       0       0
;;      Totals:         0       1       0       0       0
;;Total ram usage:        1 bytes
;; Hardware stack levels used:    1
;; Hardware stack levels required when called:    2
;; This function calls:
;;		Nothing
;; This function is called by:
;;		_SIM300Init
;;		_SIM300Cmd
;;		_SIM300WaitForResponse
;;		_SIM300SendMsg
;;		_USARTFlushBuffer
;;		_SIM300RingResponse
;; This function uses a non-reentrant model
;;
psect	text21,local,class=CODE,delta=2,merge=1
	line	159
global __ptext21
__ptext21:	;psect for function _USARTDataAvailable
psect	text21
	file	"E:\Study Material\XC8 PROJECTS\Security Alarm\usart_pic16.c"
	line	159
	global	__size_of_USARTDataAvailable
	__size_of_USARTDataAvailable	equ	__end_of_USARTDataAvailable-_USARTDataAvailable
	
_USARTDataAvailable:	
;incstack = 0
	opt	stack 4
; Regs used in _USARTDataAvailable: [wreg+status,2+status,0]
	line	161
	
l1750:	
;usart_pic16.c: 161: if(UQFront==-1)
	movf	(_UQFront),w	;volatile
	xorlw	-1
	skipz
	goto	u1081
	goto	u1080
u1081:
	goto	l1756
u1080:
	line	162
	
l1752:	
;usart_pic16.c: 162: return 0;
	movlw	(0)
	goto	l230
	
l1754:	
	goto	l230
	
l229:	
	line	163
	
l1756:	
;usart_pic16.c: 163: if(UQFront<UQEnd)
	movf	(_UQFront),w	;volatile
	xorlw	80h
	bcf	status, 5	;RP0=0, select bank0
	bcf	status, 6	;RP1=0, select bank0
	movwf	(??_USARTDataAvailable+0)+0
	movf	(_UQEnd),w	;volatile
	xorlw	80h
	subwf	(??_USARTDataAvailable+0)+0
	skipnc
	goto	u1091
	goto	u1090
u1091:
	goto	l1764
u1090:
	line	164
	
l1758:	
;usart_pic16.c: 164: return(UQEnd-UQFront+1);
	decf	(_UQFront),w	;volatile
	xorlw	0ffh
	addwf	(_UQEnd),w	;volatile
	addlw	01h
	goto	l230
	
l1760:	
	goto	l230
	
l1762:	
	goto	l230
	line	165
	
l231:	
	
l1764:	
;usart_pic16.c: 165: else if(UQFront>UQEnd)
	movf	(_UQEnd),w	;volatile
	xorlw	80h
	movwf	(??_USARTDataAvailable+0)+0
	movf	(_UQFront),w	;volatile
	xorlw	80h
	subwf	(??_USARTDataAvailable+0)+0
	skipnc
	goto	u1101
	goto	u1100
u1101:
	goto	l1772
u1100:
	line	166
	
l1766:	
;usart_pic16.c: 166: return (64-UQFront+UQEnd+1);
	decf	(_UQFront),w	;volatile
	xorlw	0ffh
	addwf	(_UQEnd),w	;volatile
	addlw	041h
	goto	l230
	
l1768:	
	goto	l230
	
l1770:	
	goto	l230
	line	167
	
l233:	
	line	168
	
l1772:	
;usart_pic16.c: 167: else
;usart_pic16.c: 168: return 1;
	movlw	(01h)
	goto	l230
	
l1774:	
	goto	l230
	
l234:	
	goto	l230
	
l232:	
	line	169
	
l230:	
	return
	opt stack 0
GLOBAL	__end_of_USARTDataAvailable
	__end_of_USARTDataAvailable:
	signat	_USARTDataAvailable,89
	global	_SIM300CheckResponse

;; *************** function _SIM300CheckResponse *****************
;; Defined at:
;;		line 131 in file "E:\Study Material\XC8 PROJECTS\Security Alarm\sim300.c"
;; Parameters:    Size  Location     Type
;;  response        1    wreg     PTR const unsigned char 
;;		 -> sim300_buffer(70), 
;;  check           1    0[BANK0 ] PTR const unsigned char 
;;		 -> STR_2(3), 
;;  len             1    1[BANK0 ] unsigned char 
;; Auto vars:     Size  Location     Type
;;  response        1    5[BANK0 ] PTR const unsigned char 
;;		 -> sim300_buffer(70), 
;;  i               1    4[BANK0 ] unsigned char 
;; Return value:  Size  Location     Type
;;                  1    wreg      char 
;; Registers used:
;;		wreg, fsr0l, fsr0h, status,2, status,0, pclath
;; Tracked objects:
;;		On entry : 0/0
;;		On exit  : 0/0
;;		Unchanged: 0/0
;; Data sizes:     COMMON   BANK0   BANK1   BANK3   BANK2
;;      Params:         0       2       0       0       0
;;      Locals:         0       2       0       0       0
;;      Temps:          0       2       0       0       0
;;      Totals:         0       6       0       0       0
;;Total ram usage:        6 bytes
;; Hardware stack levels used:    1
;; Hardware stack levels required when called:    2
;; This function calls:
;;		Nothing
;; This function is called by:
;;		_SIM300Init
;; This function uses a non-reentrant model
;;
psect	text22,local,class=CODE,delta=2,merge=1
	file	"E:\Study Material\XC8 PROJECTS\Security Alarm\sim300.c"
	line	131
global __ptext22
__ptext22:	;psect for function _SIM300CheckResponse
psect	text22
	file	"E:\Study Material\XC8 PROJECTS\Security Alarm\sim300.c"
	line	131
	global	__size_of_SIM300CheckResponse
	__size_of_SIM300CheckResponse	equ	__end_of_SIM300CheckResponse-_SIM300CheckResponse
	
_SIM300CheckResponse:	
;incstack = 0
	opt	stack 4
; Regs used in _SIM300CheckResponse: [wreg-fsr0h+status,2+status,0+pclath]
;SIM300CheckResponse@response stored from wreg
	bcf	status, 5	;RP0=0, select bank0
	bcf	status, 6	;RP1=0, select bank0
	movwf	(SIM300CheckResponse@response)
	line	133
	
l2088:	
;sim300.c: 133: len-=2;
	movlw	low(02h)
	subwf	(SIM300CheckResponse@len),f
	line	136
	
l2090:	
;sim300.c: 136: if(response[0]!=0x0D | response[1]!=0x0A)
	movf	(SIM300CheckResponse@response),w
	movwf	fsr0
	bsf	status, 7	;select IRP bank2
	movf	indf,w
	xorlw	0Dh
	skipz
	goto	u1601
	goto	u1600
u1601:
	goto	l2094
u1600:
	
l2092:	
	incf	(SIM300CheckResponse@response),w
	movwf	fsr0
	movf	indf,w
	xorlw	0Ah
	skipnz
	goto	u1611
	goto	u1610
u1611:
	goto	l2098
u1610:
	goto	l2094
	
l83:	
	line	137
	
l2094:	
;sim300.c: 137: return -1;
	movlw	(-1)
	goto	l84
	
l2096:	
	goto	l84
	
l81:	
	line	140
	
l2098:	
;sim300.c: 140: if(response[len]!=0x0D | response[len+1]!=0x0A)
	movf	(SIM300CheckResponse@len),w
	addwf	(SIM300CheckResponse@response),w
	movwf	(??_SIM300CheckResponse+0)+0
	movf	0+(??_SIM300CheckResponse+0)+0,w
	movwf	fsr0
	movf	indf,w
	xorlw	0Dh
	skipz
	goto	u1621
	goto	u1620
u1621:
	goto	l2102
u1620:
	
l2100:	
	movf	(SIM300CheckResponse@len),w
	addlw	01h
	addwf	(SIM300CheckResponse@response),w
	movwf	(??_SIM300CheckResponse+0)+0
	movf	0+(??_SIM300CheckResponse+0)+0,w
	movwf	fsr0
	movf	indf,w
	xorlw	0Ah
	skipnz
	goto	u1631
	goto	u1630
u1631:
	goto	l2106
u1630:
	goto	l2102
	
l87:	
	line	141
	
l2102:	
;sim300.c: 141: return -1;
	movlw	(-1)
	goto	l84
	
l2104:	
	goto	l84
	
l85:	
	line	145
	
l2106:	
;sim300.c: 145: for(uint8_t i=2;i<len;i++)
	movlw	(02h)
	movwf	(??_SIM300CheckResponse+0)+0
	movf	(??_SIM300CheckResponse+0)+0,w
	movwf	(SIM300CheckResponse@i)
	goto	l2116
	line	146
	
l89:	
	line	147
	
l2108:	
;sim300.c: 146: {
;sim300.c: 147: if(response[i]!=check[i-2])
	movf	(SIM300CheckResponse@i),w
	addlw	-2
	addwf	(SIM300CheckResponse@check),w
	movwf	fsr0
	fcall	stringdir
	movwf	(??_SIM300CheckResponse+0)+0
	movf	(SIM300CheckResponse@i),w
	addwf	(SIM300CheckResponse@response),w
	movwf	(??_SIM300CheckResponse+1)+0
	movf	0+(??_SIM300CheckResponse+1)+0,w
	movwf	fsr0
	movf	indf,w
	xorwf	(??_SIM300CheckResponse+0)+0,w
	skipnz
	goto	u1641
	goto	u1640
u1641:
	goto	l2114
u1640:
	line	148
	
l2110:	
;sim300.c: 148: return -2;
	movlw	(-2)
	goto	l84
	
l2112:	
	goto	l84
	
l90:	
	line	145
	
l2114:	
	movlw	(01h)
	movwf	(??_SIM300CheckResponse+0)+0
	movf	(??_SIM300CheckResponse+0)+0,w
	addwf	(SIM300CheckResponse@i),f
	goto	l2116
	
l88:	
	
l2116:	
	movf	(SIM300CheckResponse@len),w
	subwf	(SIM300CheckResponse@i),w
	skipc
	goto	u1651
	goto	u1650
u1651:
	goto	l2108
u1650:
	goto	l2118
	
l91:	
	line	151
	
l2118:	
;sim300.c: 149: }
;sim300.c: 151: return 1;
	movlw	(01h)
	goto	l84
	
l2120:	
	line	152
	
l84:	
	return
	opt stack 0
GLOBAL	__end_of_SIM300CheckResponse
	__end_of_SIM300CheckResponse:
	signat	_SIM300CheckResponse,12409
	global	_ISR

;; *************** function _ISR *****************
;; Defined at:
;;		line 6 in file "E:\Study Material\XC8 PROJECTS\Security Alarm\isr.c"
;; Parameters:    Size  Location     Type
;;		None
;; Auto vars:     Size  Location     Type
;;		None
;; Return value:  Size  Location     Type
;;		None               void
;; Registers used:
;;		wreg, fsr0l, fsr0h, status,2, status,0, pclath, cstack
;; Tracked objects:
;;		On entry : 0/0
;;		On exit  : 0/0
;;		Unchanged: 0/0
;; Data sizes:     COMMON   BANK0   BANK1   BANK3   BANK2
;;      Params:         0       0       0       0       0
;;      Locals:         0       0       0       0       0
;;      Temps:          4       0       0       0       0
;;      Totals:         4       0       0       0       0
;;Total ram usage:        4 bytes
;; Hardware stack levels used:    1
;; Hardware stack levels required when called:    1
;; This function calls:
;;		_USARTHandleRxInt
;; This function is called by:
;;		Interrupt level 1
;; This function uses a non-reentrant model
;;
psect	text23,local,class=CODE,delta=2,merge=1
	file	"E:\Study Material\XC8 PROJECTS\Security Alarm\isr.c"
	line	6
global __ptext23
__ptext23:	;psect for function _ISR
psect	text23
	file	"E:\Study Material\XC8 PROJECTS\Security Alarm\isr.c"
	line	6
	global	__size_of_ISR
	__size_of_ISR	equ	__end_of_ISR-_ISR
	
_ISR:	
;incstack = 0
	opt	stack 1
; Regs used in _ISR: [wreg-fsr0h+status,2+status,0+pclath+cstack]
psect	intentry,class=CODE,delta=2
global __pintentry
__pintentry:
global interrupt_function
interrupt_function:
	global saved_w
	saved_w	set	btemp+0
	movwf	saved_w
	swapf	status,w
	movwf	(??_ISR+0)
	movf	fsr0,w
	movwf	(??_ISR+1)
	movf	pclath,w
	movwf	(??_ISR+2)
	bcf	status, 5	;RP0=0, select bank0
	bcf	status, 6	;RP1=0, select bank0
	movf	btemp+1,w
	movwf	(??_ISR+3)
	ljmp	_ISR
psect	text23
	line	8
	
i1l2294:	
;isr.c: 8: if (RCIE && RCIF) {
	bsf	status, 5	;RP0=1, select bank1
	bcf	status, 6	;RP1=0, select bank1
	btfss	(1125/8)^080h,(1125)&7	;volatile
	goto	u187_21
	goto	u187_20
u187_21:
	goto	i1l16
u187_20:
	
i1l2296:	
	bcf	status, 5	;RP0=0, select bank0
	bcf	status, 6	;RP1=0, select bank0
	btfss	(101/8),(101)&7	;volatile
	goto	u188_21
	goto	u188_20
u188_21:
	goto	i1l16
u188_20:
	line	9
	
i1l2298:	
;isr.c: 9: USARTHandleRxInt();
	fcall	_USARTHandleRxInt
	goto	i1l16
	line	10
	
i1l2300:	
;isr.c: 10: return;
	goto	i1l16
	line	11
	
i1l15:	
	line	12
	
i1l16:	
	movf	(??_ISR+3),w
	bcf	status, 5	;RP0=0, select bank0
	bcf	status, 6	;RP1=0, select bank0
	movwf	btemp+1
	movf	(??_ISR+2),w
	movwf	pclath
	movf	(??_ISR+1),w
	movwf	fsr0
	swapf	(??_ISR+0)^0FFFFFF80h,w
	movwf	status
	swapf	saved_w,f
	swapf	saved_w,w
	retfie
	opt stack 0
GLOBAL	__end_of_ISR
	__end_of_ISR:
	signat	_ISR,88
	global	_USARTHandleRxInt

;; *************** function _USARTHandleRxInt *****************
;; Defined at:
;;		line 99 in file "E:\Study Material\XC8 PROJECTS\Security Alarm\usart_pic16.c"
;; Parameters:    Size  Location     Type
;;		None
;; Auto vars:     Size  Location     Type
;;  data            1    4[COMMON] unsigned char 
;; Return value:  Size  Location     Type
;;		None               void
;; Registers used:
;;		wreg, fsr0l, fsr0h, status,2, status,0
;; Tracked objects:
;;		On entry : 0/0
;;		On exit  : 0/0
;;		Unchanged: 0/0
;; Data sizes:     COMMON   BANK0   BANK1   BANK3   BANK2
;;      Params:         0       0       0       0       0
;;      Locals:         1       0       0       0       0
;;      Temps:          4       0       0       0       0
;;      Totals:         5       0       0       0       0
;;Total ram usage:        5 bytes
;; Hardware stack levels used:    1
;; This function calls:
;;		Nothing
;; This function is called by:
;;		_ISR
;; This function uses a non-reentrant model
;;
psect	text24,local,class=CODE,delta=2,merge=1
	file	"E:\Study Material\XC8 PROJECTS\Security Alarm\usart_pic16.c"
	line	99
global __ptext24
__ptext24:	;psect for function _USARTHandleRxInt
psect	text24
	file	"E:\Study Material\XC8 PROJECTS\Security Alarm\usart_pic16.c"
	line	99
	global	__size_of_USARTHandleRxInt
	__size_of_USARTHandleRxInt	equ	__end_of_USARTHandleRxInt-_USARTHandleRxInt
	
_USARTHandleRxInt:	
;incstack = 0
	opt	stack 1
; Regs used in _USARTHandleRxInt: [wreg-fsr0h+status,2+status,0]
	line	102
	
i1l2186:	
;usart_pic16.c: 102: if(RB1==1)
	bcf	status, 5	;RP0=0, select bank0
	bcf	status, 6	;RP1=0, select bank0
	btfss	(49/8),(49)&7	;volatile
	goto	u174_21
	goto	u174_20
u174_21:
	goto	i1l208
u174_20:
	line	103
	
i1l2188:	
;usart_pic16.c: 103: RB1=0;
	bcf	(49/8),(49)&7	;volatile
	goto	i1l2190
	line	104
	
i1l208:	
	line	105
;usart_pic16.c: 104: else
;usart_pic16.c: 105: RB1=1;
	bsf	(49/8),(49)&7	;volatile
	goto	i1l2190
	
i1l209:	
	line	108
	
i1l2190:	
;usart_pic16.c: 108: char data=RCREG;
	movf	(26),w	;volatile
	movwf	(??_USARTHandleRxInt+0)+0
	movf	(??_USARTHandleRxInt+0)+0,w
	movwf	(USARTHandleRxInt@data)
	line	111
;usart_pic16.c: 111: if(((UQEnd==64-1) && UQFront==0) || ((UQEnd+1)==UQFront))
	movf	(_UQEnd),w	;volatile
	xorlw	03Fh
	skipz
	goto	u175_21
	goto	u175_20
u175_21:
	goto	i1l2194
u175_20:
	
i1l2192:	
	movf	(_UQFront),w	;volatile
	skipz
	goto	u176_20
	goto	i1l2196
u176_20:
	goto	i1l2194
	
i1l214:	
	
i1l2194:	
	movf	(_UQFront),w	;volatile
	movwf	(??_USARTHandleRxInt+0)+0
	clrf	(??_USARTHandleRxInt+0)+0+1
	btfsc	(??_USARTHandleRxInt+0)+0,7
	decf	(??_USARTHandleRxInt+0)+0+1,f
	movlw	01h
	addwf	(_UQEnd),w	;volatile
	movwf	(??_USARTHandleRxInt+2)+0
	clrf	1+(??_USARTHandleRxInt+2)+0
	skipnc
	incf	((??_USARTHandleRxInt+2)+0)+1,f
	btfss	(_UQEnd),7	;volatile
	goto	u177_24
	decf	((??_USARTHandleRxInt+2)+0)+1,f
	u177_24:
	
	movf	1+(??_USARTHandleRxInt+0)+0,w
	xorwf	1+(??_USARTHandleRxInt+2)+0,w
	skipz
	goto	u178_25
	movf	0+(??_USARTHandleRxInt+0)+0,w
	xorwf	0+(??_USARTHandleRxInt+2)+0,w
u178_25:

	skipz
	goto	u178_21
	goto	u178_20
u178_21:
	goto	i1l2202
u178_20:
	bcf	status, 5	;RP0=0, select bank0
	bcf	status, 6	;RP1=0, select bank0
	goto	i1l2196
	
i1l212:	
	line	114
	
i1l2196:	
;usart_pic16.c: 112: {
;usart_pic16.c: 114: UQFront++;
	movlw	(01h)
	movwf	(??_USARTHandleRxInt+0)+0
	movf	(??_USARTHandleRxInt+0)+0,w
	addwf	(_UQFront),f	;volatile
	line	115
	
i1l2198:	
;usart_pic16.c: 115: if(UQFront==64)
	movf	(_UQFront),w	;volatile
	xorlw	040h
	skipz
	goto	u179_21
	goto	u179_20
u179_21:
	goto	i1l2202
u179_20:
	line	116
	
i1l2200:	
;usart_pic16.c: 116: UQFront=0;
	clrf	(_UQFront)	;volatile
	goto	i1l2202
	
i1l215:	
	goto	i1l2202
	line	117
	
i1l210:	
	line	119
	
i1l2202:	
;usart_pic16.c: 117: }
;usart_pic16.c: 119: if(UQEnd==64-1)
	movf	(_UQEnd),w	;volatile
	xorlw	03Fh
	skipz
	goto	u180_21
	goto	u180_20
u180_21:
	goto	i1l2206
u180_20:
	line	120
	
i1l2204:	
;usart_pic16.c: 120: UQEnd=0;
	clrf	(_UQEnd)	;volatile
	goto	i1l2208
	line	121
	
i1l216:	
	line	122
	
i1l2206:	
;usart_pic16.c: 121: else
;usart_pic16.c: 122: UQEnd++;
	movlw	(01h)
	movwf	(??_USARTHandleRxInt+0)+0
	movf	(??_USARTHandleRxInt+0)+0,w
	addwf	(_UQEnd),f	;volatile
	goto	i1l2208
	
i1l217:	
	line	124
	
i1l2208:	
;usart_pic16.c: 124: URBuff[UQEnd]=data;
	movf	(USARTHandleRxInt@data),w
	movwf	(??_USARTHandleRxInt+0)+0
	movf	(_UQEnd),w
	addlw	_URBuff&0ffh
	movwf	fsr0
	movf	(??_USARTHandleRxInt+0)+0,w
	bsf	status, 7	;select IRP bank2
	movwf	indf
	line	126
	
i1l2210:	
;usart_pic16.c: 126: if(UQFront==-1)
	movf	(_UQFront),w	;volatile
	xorlw	-1
	skipz
	goto	u181_21
	goto	u181_20
u181_21:
	goto	i1l219
u181_20:
	line	127
	
i1l2212:	
;usart_pic16.c: 127: UQFront=0;
	clrf	(_UQFront)	;volatile
	goto	i1l219
	
i1l218:	
	line	128
	
i1l219:	
	return
	opt stack 0
GLOBAL	__end_of_USARTHandleRxInt
	__end_of_USARTHandleRxInt:
	signat	_USARTHandleRxInt,88
global	___latbits
___latbits	equ	2
	global	btemp
	btemp set 07Eh

	DABS	1,126,2	;btemp
	global	wtemp
	global	wtemp0
	wtemp set btemp
	wtemp0 set btemp
	global	wtemp1
	wtemp1 set btemp+2
	global	wtemp2
	wtemp2 set btemp+4
	global	wtemp3
	wtemp3 set btemp+6
	global	wtemp4
	wtemp4 set btemp+8
	global	wtemp5
	wtemp5 set btemp+10
	global	wtemp6
	wtemp6 set btemp+1
	global	ttemp
	global	ttemp0
	ttemp set btemp
	ttemp0 set btemp
	global	ttemp1
	ttemp1 set btemp+3
	global	ttemp2
	ttemp2 set btemp+6
	global	ttemp3
	ttemp3 set btemp+9
	global	ttemp4
	ttemp4 set btemp+1
	global	ltemp
	global	ltemp0
	ltemp set btemp
	ltemp0 set btemp
	global	ltemp1
	ltemp1 set btemp+4
	global	ltemp2
	ltemp2 set btemp+8
	global	ltemp3
	ltemp3 set btemp+2
	end
