

Microchip Technology PIC18 LITE Macro Assembler V1.12 build 49521 
                                                                                               Tue Aug 13 13:52:48 2013

HI-TECH Software Omniscient Code Generator (Lite mode) build 49521
     1  0000                     opt subtitle "HI-TECH Software Omniscient Code Generator (Lite mode) build 49521"
     2                           opt subtitle "HI-TECH Software Omniscient Code Generator (Lite mode) build 49521"
     3                           
     4                           opt pagewidth 120
     5                           
     6                           	opt lm
     7                           
     8  0000                     porta	equ	0F80h
     9  0000                     portb	equ	0F81h
    10  0000                     portc	equ	0F82h
    11  0000                     portd	equ	0F83h
    12  0000                     porte	equ	0F84h
    13  0000                     lata	equ	0F89h
    14  0000                     latb	equ	0F8Ah
    15  0000                     latc	equ	0F8Bh
    16  0000                     latd	equ	0F8Ch
    17  0000                     late	equ	0F8Dh
    18  0000                     trisa	equ	0F92h
    19  0000                     trisb	equ	0F93h
    20  0000                     trisc	equ	0F94h
    21  0000                     trisd	equ	0F95h
    22  0000                     trise	equ	0F96h
    23  0000                     pie1	equ	0F9Dh
    24  0000                     pir1	equ	0F9Eh
    25  0000                     ipr1	equ	0F9Fh
    26  0000                     pie2	equ	0FA0h
    27  0000                     pir2	equ	0FA1h
    28  0000                     ipr2	equ	0FA2h
    29  0000                     t3con	equ	0FB1h
    30  0000                     tmr3l	equ	0FB2h
    31  0000                     tmr3h	equ	0FB3h
    32  0000                     ccp1con	equ	0FBDh
    33  0000                     ccpr1l	equ	0FBEh
    34  0000                     ccpr1h	equ	0FBFh
    35  0000                     adcon1	equ	0FC1h
    36  0000                     adcon0	equ	0FC2h
    37  0000                     adresl	equ	0FC3h
    38  0000                     adresh	equ	0FC4h
    39  0000                     sspcon2	equ	0FC5h
    40  0000                     sspcon1	equ	0FC6h
    41  0000                     sspstat	equ	0FC7h
    42  0000                     sspadd	equ	0FC8h
    43  0000                     sspbuf	equ	0FC9h
    44  0000                     t2con	equ	0FCAh
    45  0000                     pr2	equ	0FCBh
    46  0000                     tmr2	equ	0FCCh
    47  0000                     t1con	equ	0FCDh
    48  0000                     tmr1l	equ	0FCEh
    49  0000                     tmr1h	equ	0FCFh
    50  0000                     rcon	equ	0FD0h
    51  0000                     wdtcon	equ	0FD1h
    52  0000                     lvdcon	equ	0FD2h
    53  0000                     osccon	equ	0FD3h
    54  0000                     t0con	equ	0FD5h
    55  0000                     tmr0l	equ	0FD6h
    56  0000                     tmr0h	equ	0FD7h
    57  0000                     status	equ	0FD8h
    58  0000                     fsr2	equ	0FD9h
    59  0000                     fsr2l	equ	0FD9h
    60  0000                     fsr2h	equ	0FDAh
    61  0000                     plusw2	equ	0FDBh
    62  0000                     preinc2	equ	0FDCh
    63  0000                     postdec2	equ	0FDDh
    64  0000                     postinc2	equ	0FDEh
    65  0000                     indf2	equ	0FDFh
    66  0000                     bsr	equ	0FE0h
    67  0000                     fsr1	equ	0FE1h
    68  0000                     fsr1l	equ	0FE1h
    69  0000                     fsr1h	equ	0FE2h
    70  0000                     plusw1	equ	0FE3h
    71  0000                     preinc1	equ	0FE4h
    72  0000                     postdec1	equ	0FE5h
    73  0000                     postinc1	equ	0FE6h
    74  0000                     indf1	equ	0FE7h
    75  0000                     wreg	equ	0FE8h
    76  0000                     fsr0	equ	0FE9h
    77  0000                     fsr0l	equ	0FE9h
    78  0000                     fsr0h	equ	0FEAh
    79  0000                     plusw0	equ	0FEBh
    80  0000                     preinc0	equ	0FECh
    81  0000                     postdec0	equ	0FEDh
    82  0000                     postinc0	equ	0FEEh
    83  0000                     indf0	equ	0FEFh
    84  0000                     intcon3	equ	0FF0h
    85  0000                     intcon2	equ	0FF1h
    86  0000                     intcon	equ	0FF2h
    87  0000                     prod	equ	0FF3h
    88  0000                     prodl	equ	0FF3h
    89  0000                     prodh	equ	0FF4h
    90  0000                     tablat	equ	0FF5h
    91  0000                     tblptr	equ	0FF6h
    92  0000                     tblptrl	equ	0FF6h
    93  0000                     tblptrh	equ	0FF7h
    94  0000                     tblptru	equ	0FF8h
    95  0000                     pcl	equ	0FF9h
    96  0000                     pclat	equ	0FFAh
    97  0000                     pclath	equ	0FFAh
    98  0000                     pclatu	equ	0FFBh
    99  0000                     stkptr	equ	0FFCh
   100  0000                     tosl	equ	0FFDh
   101  0000                     tosh	equ	0FFEh
   102  0000                     tosu	equ	0FFFh
   103                           opt subtitle "HI-TECH Software Omniscient Code Generator (Lite mode) build 49521"
   104                           
   105  0000                     	endm
   106                           opt subtitle "HI-TECH Software Omniscient Code Generator (Lite mode) build 49521"
   107                           
   108                           opt pagewidth 120
   109  0000                     PORTA equ 0F80h ;# 
   110                           opt subtitle "HI-TECH Software Omniscient Code Generator (Lite mode) build 49521"
   111  0000                     PORTB equ 0F81h ;# 
   112                           opt subtitle "HI-TECH Software Omniscient Code Generator (Lite mode) build 49521"
   113  0000                     PORTC equ 0F82h ;# 
   114                           opt subtitle "HI-TECH Software Omniscient Code Generator (Lite mode) build 49521"
   115  0000                     PORTD equ 0F83h ;# 
   116                           opt subtitle "HI-TECH Software Omniscient Code Generator (Lite mode) build 49521"
   117  0000                     PORTE equ 0F84h ;# 
   118                           opt subtitle "HI-TECH Software Omniscient Code Generator (Lite mode) build 49521"
   119  0000                     LATA equ 0F89h ;# 
   120                           opt subtitle "HI-TECH Software Omniscient Code Generator (Lite mode) build 49521"
   121  0000                     LATB equ 0F8Ah ;# 
   122                           opt subtitle "HI-TECH Software Omniscient Code Generator (Lite mode) build 49521"
   123  0000                     LATC equ 0F8Bh ;# 
   124                           opt subtitle "HI-TECH Software Omniscient Code Generator (Lite mode) build 49521"
   125  0000                     LATD equ 0F8Ch ;# 
   126                           opt subtitle "HI-TECH Software Omniscient Code Generator (Lite mode) build 49521"
   127  0000                     LATE equ 0F8Dh ;# 
   128                           opt subtitle "HI-TECH Software Omniscient Code Generator (Lite mode) build 49521"
   129  0000                     TRISA equ 0F92h ;# 
   130                           opt subtitle "HI-TECH Software Omniscient Code Generator (Lite mode) build 49521"
   131  0000                     DDRA equ 0F92h ;# 
   132                           opt subtitle "HI-TECH Software Omniscient Code Generator (Lite mode) build 49521"
   133  0000                     TRISB equ 0F93h ;# 
   134                           opt subtitle "HI-TECH Software Omniscient Code Generator (Lite mode) build 49521"
   135  0000                     DDRB equ 0F93h ;# 
   136                           opt subtitle "HI-TECH Software Omniscient Code Generator (Lite mode) build 49521"
   137  0000                     TRISC equ 0F94h ;# 
   138                           opt subtitle "HI-TECH Software Omniscient Code Generator (Lite mode) build 49521"
   139  0000                     DDRC equ 0F94h ;# 
   140                           opt subtitle "HI-TECH Software Omniscient Code Generator (Lite mode) build 49521"
   141  0000                     TRISD equ 0F95h ;# 
   142                           opt subtitle "HI-TECH Software Omniscient Code Generator (Lite mode) build 49521"
   143  0000                     DDRD equ 0F95h ;# 
   144                           opt subtitle "HI-TECH Software Omniscient Code Generator (Lite mode) build 49521"
   145  0000                     TRISE equ 0F96h ;# 
   146                           opt subtitle "HI-TECH Software Omniscient Code Generator (Lite mode) build 49521"
   147  0000                     DDRE equ 0F96h ;# 
   148                           opt subtitle "HI-TECH Software Omniscient Code Generator (Lite mode) build 49521"
   149  0000                     PIE1 equ 0F9Dh ;# 
   150                           opt subtitle "HI-TECH Software Omniscient Code Generator (Lite mode) build 49521"
   151  0000                     PIR1 equ 0F9Eh ;# 
   152                           opt subtitle "HI-TECH Software Omniscient Code Generator (Lite mode) build 49521"
   153  0000                     IPR1 equ 0F9Fh ;# 
   154                           opt subtitle "HI-TECH Software Omniscient Code Generator (Lite mode) build 49521"
   155  0000                     PIE2 equ 0FA0h ;# 
   156                           opt subtitle "HI-TECH Software Omniscient Code Generator (Lite mode) build 49521"
   157  0000                     PIR2 equ 0FA1h ;# 
   158                           opt subtitle "HI-TECH Software Omniscient Code Generator (Lite mode) build 49521"
   159  0000                     IPR2 equ 0FA2h ;# 
   160                           opt subtitle "HI-TECH Software Omniscient Code Generator (Lite mode) build 49521"
   161  0000                     EECON1 equ 0FA6h ;# 
   162                           opt subtitle "HI-TECH Software Omniscient Code Generator (Lite mode) build 49521"
   163  0000                     EECON2 equ 0FA7h ;# 
   164                           opt subtitle "HI-TECH Software Omniscient Code Generator (Lite mode) build 49521"
   165  0000                     EEDATA equ 0FA8h ;# 
   166                           opt subtitle "HI-TECH Software Omniscient Code Generator (Lite mode) build 49521"
   167  0000                     EEADR equ 0FA9h ;# 
   168                           opt subtitle "HI-TECH Software Omniscient Code Generator (Lite mode) build 49521"
   169  0000                     RCSTA equ 0FABh ;# 
   170                           opt subtitle "HI-TECH Software Omniscient Code Generator (Lite mode) build 49521"
   171  0000                     RCSTA1 equ 0FABh ;# 
   172                           opt subtitle "HI-TECH Software Omniscient Code Generator (Lite mode) build 49521"
   173  0000                     TXSTA equ 0FACh ;# 
   174                           opt subtitle "HI-TECH Software Omniscient Code Generator (Lite mode) build 49521"
   175  0000                     TXSTA1 equ 0FACh ;# 
   176                           opt subtitle "HI-TECH Software Omniscient Code Generator (Lite mode) build 49521"
   177  0000                     TXREG equ 0FADh ;# 
   178                           opt subtitle "HI-TECH Software Omniscient Code Generator (Lite mode) build 49521"
   179  0000                     TXREG1 equ 0FADh ;# 
   180                           opt subtitle "HI-TECH Software Omniscient Code Generator (Lite mode) build 49521"
   181  0000                     RCREG equ 0FAEh ;# 
   182                           opt subtitle "HI-TECH Software Omniscient Code Generator (Lite mode) build 49521"
   183  0000                     RCREG1 equ 0FAEh ;# 
   184                           opt subtitle "HI-TECH Software Omniscient Code Generator (Lite mode) build 49521"
   185  0000                     SPBRG equ 0FAFh ;# 
   186                           opt subtitle "HI-TECH Software Omniscient Code Generator (Lite mode) build 49521"
   187  0000                     SPBRG1 equ 0FAFh ;# 
   188                           opt subtitle "HI-TECH Software Omniscient Code Generator (Lite mode) build 49521"
   189  0000                     T3CON equ 0FB1h ;# 
   190                           opt subtitle "HI-TECH Software Omniscient Code Generator (Lite mode) build 49521"
   191  0000                     TMR3 equ 0FB2h ;# 
   192                           opt subtitle "HI-TECH Software Omniscient Code Generator (Lite mode) build 49521"
   193  0000                     TMR3L equ 0FB2h ;# 
   194                           opt subtitle "HI-TECH Software Omniscient Code Generator (Lite mode) build 49521"
   195  0000                     TMR3H equ 0FB3h ;# 
   196                           opt subtitle "HI-TECH Software Omniscient Code Generator (Lite mode) build 49521"
   197  0000                     CCP2CON equ 0FBAh ;# 
   198                           opt subtitle "HI-TECH Software Omniscient Code Generator (Lite mode) build 49521"
   199  0000                     CCPR2 equ 0FBBh ;# 
   200                           opt subtitle "HI-TECH Software Omniscient Code Generator (Lite mode) build 49521"
   201  0000                     CCPR2L equ 0FBBh ;# 
   202                           opt subtitle "HI-TECH Software Omniscient Code Generator (Lite mode) build 49521"
   203  0000                     CCPR2H equ 0FBCh ;# 
   204                           opt subtitle "HI-TECH Software Omniscient Code Generator (Lite mode) build 49521"
   205  0000                     CCP1CON equ 0FBDh ;# 
   206                           opt subtitle "HI-TECH Software Omniscient Code Generator (Lite mode) build 49521"
   207  0000                     CCPR1 equ 0FBEh ;# 
   208                           opt subtitle "HI-TECH Software Omniscient Code Generator (Lite mode) build 49521"
   209  0000                     CCPR1L equ 0FBEh ;# 
   210                           opt subtitle "HI-TECH Software Omniscient Code Generator (Lite mode) build 49521"
   211  0000                     CCPR1H equ 0FBFh ;# 
   212                           opt subtitle "HI-TECH Software Omniscient Code Generator (Lite mode) build 49521"
   213  0000                     ADCON1 equ 0FC1h ;# 
   214                           opt subtitle "HI-TECH Software Omniscient Code Generator (Lite mode) build 49521"
   215  0000                     ADCON0 equ 0FC2h ;# 
   216                           opt subtitle "HI-TECH Software Omniscient Code Generator (Lite mode) build 49521"
   217  0000                     ADRES equ 0FC3h ;# 
   218                           opt subtitle "HI-TECH Software Omniscient Code Generator (Lite mode) build 49521"
   219  0000                     ADRESL equ 0FC3h ;# 
   220                           opt subtitle "HI-TECH Software Omniscient Code Generator (Lite mode) build 49521"
   221  0000                     ADRESH equ 0FC4h ;# 
   222                           opt subtitle "HI-TECH Software Omniscient Code Generator (Lite mode) build 49521"
   223  0000                     SSPCON2 equ 0FC5h ;# 
   224                           opt subtitle "HI-TECH Software Omniscient Code Generator (Lite mode) build 49521"
   225  0000                     SSPCON1 equ 0FC6h ;# 
   226                           opt subtitle "HI-TECH Software Omniscient Code Generator (Lite mode) build 49521"
   227  0000                     SSPSTAT equ 0FC7h ;# 
   228                           opt subtitle "HI-TECH Software Omniscient Code Generator (Lite mode) build 49521"
   229  0000                     SSPADD equ 0FC8h ;# 
   230                           opt subtitle "HI-TECH Software Omniscient Code Generator (Lite mode) build 49521"
   231  0000                     SSPBUF equ 0FC9h ;# 
   232                           opt subtitle "HI-TECH Software Omniscient Code Generator (Lite mode) build 49521"
   233  0000                     T2CON equ 0FCAh ;# 
   234                           opt subtitle "HI-TECH Software Omniscient Code Generator (Lite mode) build 49521"
   235  0000                     PR2 equ 0FCBh ;# 
   236                           opt subtitle "HI-TECH Software Omniscient Code Generator (Lite mode) build 49521"
   237  0000                     MEMCON equ 0FCBh ;# 
   238                           opt subtitle "HI-TECH Software Omniscient Code Generator (Lite mode) build 49521"
   239  0000                     TMR2 equ 0FCCh ;# 
   240                           opt subtitle "HI-TECH Software Omniscient Code Generator (Lite mode) build 49521"
   241  0000                     T1CON equ 0FCDh ;# 
   242                           opt subtitle "HI-TECH Software Omniscient Code Generator (Lite mode) build 49521"
   243  0000                     TMR1 equ 0FCEh ;# 
   244                           opt subtitle "HI-TECH Software Omniscient Code Generator (Lite mode) build 49521"
   245  0000                     TMR1L equ 0FCEh ;# 
   246                           opt subtitle "HI-TECH Software Omniscient Code Generator (Lite mode) build 49521"
   247  0000                     TMR1H equ 0FCFh ;# 
   248                           opt subtitle "HI-TECH Software Omniscient Code Generator (Lite mode) build 49521"
   249  0000                     RCON equ 0FD0h ;# 
   250                           opt subtitle "HI-TECH Software Omniscient Code Generator (Lite mode) build 49521"
   251  0000                     WDTCON equ 0FD1h ;# 
   252                           opt subtitle "HI-TECH Software Omniscient Code Generator (Lite mode) build 49521"
   253  0000                     LVDCON equ 0FD2h ;# 
   254                           opt subtitle "HI-TECH Software Omniscient Code Generator (Lite mode) build 49521"
   255  0000                     OSCCON equ 0FD3h ;# 
   256                           opt subtitle "HI-TECH Software Omniscient Code Generator (Lite mode) build 49521"
   257  0000                     T0CON equ 0FD5h ;# 
   258                           opt subtitle "HI-TECH Software Omniscient Code Generator (Lite mode) build 49521"
   259  0000                     TMR0 equ 0FD6h ;# 
   260                           opt subtitle "HI-TECH Software Omniscient Code Generator (Lite mode) build 49521"
   261  0000                     TMR0L equ 0FD6h ;# 
   262                           opt subtitle "HI-TECH Software Omniscient Code Generator (Lite mode) build 49521"
   263  0000                     TMR0H equ 0FD7h ;# 
   264                           opt subtitle "HI-TECH Software Omniscient Code Generator (Lite mode) build 49521"
   265  0000                     STATUS equ 0FD8h ;# 
   266                           opt subtitle "HI-TECH Software Omniscient Code Generator (Lite mode) build 49521"
   267  0000                     FSR2 equ 0FD9h ;# 
   268                           opt subtitle "HI-TECH Software Omniscient Code Generator (Lite mode) build 49521"
   269  0000                     FSR2L equ 0FD9h ;# 
   270                           opt subtitle "HI-TECH Software Omniscient Code Generator (Lite mode) build 49521"
   271  0000                     FSR2H equ 0FDAh ;# 
   272                           opt subtitle "HI-TECH Software Omniscient Code Generator (Lite mode) build 49521"
   273  0000                     PLUSW2 equ 0FDBh ;# 
   274                           opt subtitle "HI-TECH Software Omniscient Code Generator (Lite mode) build 49521"
   275  0000                     PREINC2 equ 0FDCh ;# 
   276                           opt subtitle "HI-TECH Software Omniscient Code Generator (Lite mode) build 49521"
   277  0000                     POSTDEC2 equ 0FDDh ;# 
   278                           opt subtitle "HI-TECH Software Omniscient Code Generator (Lite mode) build 49521"
   279  0000                     POSTINC2 equ 0FDEh ;# 
   280                           opt subtitle "HI-TECH Software Omniscient Code Generator (Lite mode) build 49521"
   281  0000                     INDF2 equ 0FDFh ;# 
   282                           opt subtitle "HI-TECH Software Omniscient Code Generator (Lite mode) build 49521"
   283  0000                     BSR equ 0FE0h ;# 
   284                           opt subtitle "HI-TECH Software Omniscient Code Generator (Lite mode) build 49521"
   285  0000                     FSR1 equ 0FE1h ;# 
   286                           opt subtitle "HI-TECH Software Omniscient Code Generator (Lite mode) build 49521"
   287  0000                     FSR1L equ 0FE1h ;# 
   288                           opt subtitle "HI-TECH Software Omniscient Code Generator (Lite mode) build 49521"
   289  0000                     FSR1H equ 0FE2h ;# 
   290                           opt subtitle "HI-TECH Software Omniscient Code Generator (Lite mode) build 49521"
   291  0000                     PLUSW1 equ 0FE3h ;# 
   292                           opt subtitle "HI-TECH Software Omniscient Code Generator (Lite mode) build 49521"
   293  0000                     PREINC1 equ 0FE4h ;# 
   294                           opt subtitle "HI-TECH Software Omniscient Code Generator (Lite mode) build 49521"
   295  0000                     POSTDEC1 equ 0FE5h ;# 
   296                           opt subtitle "HI-TECH Software Omniscient Code Generator (Lite mode) build 49521"
   297  0000                     POSTINC1 equ 0FE6h ;# 
   298                           opt subtitle "HI-TECH Software Omniscient Code Generator (Lite mode) build 49521"
   299  0000                     INDF1 equ 0FE7h ;# 
   300                           opt subtitle "HI-TECH Software Omniscient Code Generator (Lite mode) build 49521"
   301  0000                     WREG equ 0FE8h ;# 
   302                           opt subtitle "HI-TECH Software Omniscient Code Generator (Lite mode) build 49521"
   303  0000                     FSR0 equ 0FE9h ;# 
   304                           opt subtitle "HI-TECH Software Omniscient Code Generator (Lite mode) build 49521"
   305  0000                     FSR0L equ 0FE9h ;# 
   306                           opt subtitle "HI-TECH Software Omniscient Code Generator (Lite mode) build 49521"
   307  0000                     FSR0H equ 0FEAh ;# 
   308                           opt subtitle "HI-TECH Software Omniscient Code Generator (Lite mode) build 49521"
   309  0000                     PLUSW0 equ 0FEBh ;# 
   310                           opt subtitle "HI-TECH Software Omniscient Code Generator (Lite mode) build 49521"
   311  0000                     PREINC0 equ 0FECh ;# 
   312                           opt subtitle "HI-TECH Software Omniscient Code Generator (Lite mode) build 49521"
   313  0000                     POSTDEC0 equ 0FEDh ;# 
   314                           opt subtitle "HI-TECH Software Omniscient Code Generator (Lite mode) build 49521"
   315  0000                     POSTINC0 equ 0FEEh ;# 
   316                           opt subtitle "HI-TECH Software Omniscient Code Generator (Lite mode) build 49521"
   317  0000                     INDF0 equ 0FEFh ;# 
   318                           opt subtitle "HI-TECH Software Omniscient Code Generator (Lite mode) build 49521"
   319  0000                     INTCON3 equ 0FF0h ;# 
   320                           opt subtitle "HI-TECH Software Omniscient Code Generator (Lite mode) build 49521"
   321  0000                     INTCON2 equ 0FF1h ;# 
   322                           opt subtitle "HI-TECH Software Omniscient Code Generator (Lite mode) build 49521"
   323  0000                     INTCON equ 0FF2h ;# 
   324                           opt subtitle "HI-TECH Software Omniscient Code Generator (Lite mode) build 49521"
   325  0000                     INTCON1 equ 0FF2h ;# 
   326                           opt subtitle "HI-TECH Software Omniscient Code Generator (Lite mode) build 49521"
   327  0000                     PROD equ 0FF3h ;# 
   328                           opt subtitle "HI-TECH Software Omniscient Code Generator (Lite mode) build 49521"
   329  0000                     PRODL equ 0FF3h ;# 
   330                           opt subtitle "HI-TECH Software Omniscient Code Generator (Lite mode) build 49521"
   331  0000                     PRODH equ 0FF4h ;# 
   332                           opt subtitle "HI-TECH Software Omniscient Code Generator (Lite mode) build 49521"
   333  0000                     TABLAT equ 0FF5h ;# 
   334                           opt subtitle "HI-TECH Software Omniscient Code Generator (Lite mode) build 49521"
   335  0000                     TBLPTR equ 0FF6h ;# 
   336                           opt subtitle "HI-TECH Software Omniscient Code Generator (Lite mode) build 49521"
   337  0000                     TBLPTRL equ 0FF6h ;# 
   338                           opt subtitle "HI-TECH Software Omniscient Code Generator (Lite mode) build 49521"
   339  0000                     TBLPTRH equ 0FF7h ;# 
   340                           opt subtitle "HI-TECH Software Omniscient Code Generator (Lite mode) build 49521"
   341  0000                     TBLPTRU equ 0FF8h ;# 
   342                           opt subtitle "HI-TECH Software Omniscient Code Generator (Lite mode) build 49521"
   343  0000                     PCLAT equ 0FF9h ;# 
   344                           opt subtitle "HI-TECH Software Omniscient Code Generator (Lite mode) build 49521"
   345  0000                     PC equ 0FF9h ;# 
   346                           opt subtitle "HI-TECH Software Omniscient Code Generator (Lite mode) build 49521"
   347  0000                     PCL equ 0FF9h ;# 
   348                           opt subtitle "HI-TECH Software Omniscient Code Generator (Lite mode) build 49521"
   349  0000                     PCLATH equ 0FFAh ;# 
   350                           opt subtitle "HI-TECH Software Omniscient Code Generator (Lite mode) build 49521"
   351  0000                     PCLATU equ 0FFBh ;# 
   352                           opt subtitle "HI-TECH Software Omniscient Code Generator (Lite mode) build 49521"
   353  0000                     STKPTR equ 0FFCh ;# 
   354                           opt subtitle "HI-TECH Software Omniscient Code Generator (Lite mode) build 49521"
   355  0000                     TOS equ 0FFDh ;# 
   356                           opt subtitle "HI-TECH Software Omniscient Code Generator (Lite mode) build 49521"
   357  0000                     TOSL equ 0FFDh ;# 
   358                           opt subtitle "HI-TECH Software Omniscient Code Generator (Lite mode) build 49521"
   359  0000                     TOSH equ 0FFEh ;# 
   360                           opt subtitle "HI-TECH Software Omniscient Code Generator (Lite mode) build 49521"
   361  0000                     TOSU equ 0FFFh ;# 
   362                           opt subtitle "HI-TECH Software Omniscient Code Generator (Lite mode) build 49521"
   363                           
   364                           opt pagewidth 120
   365                           
   366                           	opt lm
   367                           
   368                           	processor	18F452
   369                           porta	equ	0F80h
   370                           portb	equ	0F81h
   371                           portc	equ	0F82h
   372                           portd	equ	0F83h
   373                           porte	equ	0F84h
   374                           lata	equ	0F89h
   375                           latb	equ	0F8Ah
   376                           latc	equ	0F8Bh
   377                           latd	equ	0F8Ch
   378                           late	equ	0F8Dh
   379                           trisa	equ	0F92h
   380                           trisb	equ	0F93h
   381                           trisc	equ	0F94h
   382  001A62                     __pidataCOMRAM:
   383                           opt subtitle "HI-TECH Software Omniscient Code Generator (Lite mode) build 49521"
   384                           
   385                           opt pagewidth 120
   386                           
   387  001A62  11                 	db	low(011h)
   388                           opt subtitle "HI-TECH Software Omniscient Code Generator (Lite mode) build 49521"
   389                           
   390                           opt pagewidth 120
   391                           
   392                           	opt lm
   393                           
   394                           	processor	18F452
   395                           porta	equ	0F80h
   396                           portb	equ	0F81h
   397                           portc	equ	0F82h
   398                           portd	equ	0F83h
   399                           porte	equ	0F84h
   400                           lata	equ	0F89h
   401                           latb	equ	0F8Ah
   402                           latc	equ	0F8Bh
   403                           latd	equ	0F8Ch
   404                           late	equ	0F8Dh
   405                           trisa	equ	0F92h
   406                           trisb	equ	0F93h
   407                           trisc	equ	0F94h
   408                           trisd	equ	0F95h
   409                           trise	equ	0F96h
   410                           pie1	equ	0F9Dh
   411                           pir1	equ	0F9Eh
   412                           ipr1	equ	0F9Fh
   413  0000                     _TMR0	set	0xFD6
   414                           opt subtitle "HI-TECH Software Omniscient Code Generator (Lite mode) build 49521"
   415  0000                     _ADCON1	set	0xFC1
   416                           opt subtitle "HI-TECH Software Omniscient Code Generator (Lite mode) build 49521"
   417  0000                     _EEADR	set	0xFA9
   418                           opt subtitle "HI-TECH Software Omniscient Code Generator (Lite mode) build 49521"
   419  0000                     _EECON1bits	set	0xFA6
   420                           opt subtitle "HI-TECH Software Omniscient Code Generator (Lite mode) build 49521"
   421  0000                     _EECON2	set	0xFA7
   422                           opt subtitle "HI-TECH Software Omniscient Code Generator (Lite mode) build 49521"
   423  0000                     _EEDATA	set	0xFA8
   424                           opt subtitle "HI-TECH Software Omniscient Code Generator (Lite mode) build 49521"
   425  0000                     _INTCON	set	0xFF2
   426                           opt subtitle "HI-TECH Software Omniscient Code Generator (Lite mode) build 49521"
   427  0000                     _INTCONbits	set	0xFF2
   428                           opt subtitle "HI-TECH Software Omniscient Code Generator (Lite mode) build 49521"
   429  0000                     _PIR1bits	set	0xF9E
   430                           opt subtitle "HI-TECH Software Omniscient Code Generator (Lite mode) build 49521"
   431  0000                     _PIR2bits	set	0xFA1
   432                           opt subtitle "HI-TECH Software Omniscient Code Generator (Lite mode) build 49521"
   433  0000                     _PORTB	set	0xF81
   434                           opt subtitle "HI-TECH Software Omniscient Code Generator (Lite mode) build 49521"
   435  0000                     _PORTC	set	0xF82
   436                           opt subtitle "HI-TECH Software Omniscient Code Generator (Lite mode) build 49521"
   437  0000                     _PORTD	set	0xF83
   438                           opt subtitle "HI-TECH Software Omniscient Code Generator (Lite mode) build 49521"
   439  0000                     _PORTE	set	0xF84
   440                           opt subtitle "HI-TECH Software Omniscient Code Generator (Lite mode) build 49521"
   441  0000                     _RCON	set	0xFD0
   442                           opt subtitle "HI-TECH Software Omniscient Code Generator (Lite mode) build 49521"
   443  0000                     _SSPADD	set	0xFC8
   444                           opt subtitle "HI-TECH Software Omniscient Code Generator (Lite mode) build 49521"
   445  0000                     _SSPBUF	set	0xFC9
   446                           opt subtitle "HI-TECH Software Omniscient Code Generator (Lite mode) build 49521"
   447  0000                     _SSPCON1	set	0xFC6
   448                           opt subtitle "HI-TECH Software Omniscient Code Generator (Lite mode) build 49521"
   449  0000                     _SSPCON1bits	set	0xFC6
   450                           opt subtitle "HI-TECH Software Omniscient Code Generator (Lite mode) build 49521"
   451  0000                     _SSPCON2	set	0xFC5
   452                           opt subtitle "HI-TECH Software Omniscient Code Generator (Lite mode) build 49521"
   453  0000                     _SSPCON2bits	set	0xFC5
   454                           opt subtitle "HI-TECH Software Omniscient Code Generator (Lite mode) build 49521"
   455  0000                     _SSPSTAT	set	0xFC7
   456                           opt subtitle "HI-TECH Software Omniscient Code Generator (Lite mode) build 49521"
   457  0000                     _SSPSTATbits	set	0xFC7
   458                           opt subtitle "HI-TECH Software Omniscient Code Generator (Lite mode) build 49521"
   459  0000                     _T0CON	set	0xFD5
   460                           opt subtitle "HI-TECH Software Omniscient Code Generator (Lite mode) build 49521"
   461  0000                     _TRISA	set	0xF92
   462                           opt subtitle "HI-TECH Software Omniscient Code Generator (Lite mode) build 49521"
   463  0000                     _TRISB	set	0xF93
   464                           opt subtitle "HI-TECH Software Omniscient Code Generator (Lite mode) build 49521"
   465  0000                     _TRISC	set	0xF94
   466                           opt subtitle "HI-TECH Software Omniscient Code Generator (Lite mode) build 49521"
   467  0000                     _TRISCbits	set	0xF94
   468                           opt subtitle "HI-TECH Software Omniscient Code Generator (Lite mode) build 49521"
   469  0000                     _TRISD	set	0xF95
   470                           opt subtitle "HI-TECH Software Omniscient Code Generator (Lite mode) build 49521"
   471  0000                     _TRISE	set	0xF96
   472                           opt subtitle "HI-TECH Software Omniscient Code Generator (Lite mode) build 49521"
   473  0000                     _CARRY	set	0x7EC0
   474                           opt subtitle "HI-TECH Software Omniscient Code Generator (Lite mode) build 49521"
   475  0000                     _RA0	set	0x7C00
   476                           opt subtitle "HI-TECH Software Omniscient Code Generator (Lite mode) build 49521"
   477  0000                     _RA1	set	0x7C01
   478                           opt subtitle "HI-TECH Software Omniscient Code Generator (Lite mode) build 49521"
   479  0000                     _RA2	set	0x7C02
   480                           opt subtitle "HI-TECH Software Omniscient Code Generator (Lite mode) build 49521"
   481  0000                     _RA3	set	0x7C03
   482                           opt subtitle "HI-TECH Software Omniscient Code Generator (Lite mode) build 49521"
   483  0000                     _RA4	set	0x7C04
   484                           opt subtitle "HI-TECH Software Omniscient Code Generator (Lite mode) build 49521"
   485  0000                     _RB0	set	0x7C08
   486                           opt subtitle "HI-TECH Software Omniscient Code Generator (Lite mode) build 49521"
   487  0000                     _RB1	set	0x7C09
   488                           opt subtitle "HI-TECH Software Omniscient Code Generator (Lite mode) build 49521"
   489  0000                     _RB2	set	0x7C0A
   490                           opt subtitle "HI-TECH Software Omniscient Code Generator (Lite mode) build 49521"
   491  0000                     _RB3	set	0x7C0B
   492                           opt subtitle "HI-TECH Software Omniscient Code Generator (Lite mode) build 49521"
   493  0000                     _RC0	set	0x7C10
   494                           opt subtitle "HI-TECH Software Omniscient Code Generator (Lite mode) build 49521"
   495  0000                     _RC1	set	0x7C11
   496                           opt subtitle "HI-TECH Software Omniscient Code Generator (Lite mode) build 49521"
   497  0000                     _RC2	set	0x7C12
   498                           opt subtitle "HI-TECH Software Omniscient Code Generator (Lite mode) build 49521"
   499  0000                     _RC3	set	0x7C13
   500                           opt subtitle "HI-TECH Software Omniscient Code Generator (Lite mode) build 49521"
   501  0000                     _RC4	set	0x7C14
   502                           opt subtitle "HI-TECH Software Omniscient Code Generator (Lite mode) build 49521"
   503  0000                     _RC5	set	0x7C15
   504                           opt subtitle "HI-TECH Software Omniscient Code Generator (Lite mode) build 49521"
   505  0000                     _RC6	set	0x7C16
   506                           opt subtitle "HI-TECH Software Omniscient Code Generator (Lite mode) build 49521"
   507  0000                     _RC7	set	0x7C17
   508                           opt subtitle "HI-TECH Software Omniscient Code Generator (Lite mode) build 49521"
   509  0000                     _RD0	set	0x7C18
   510                           opt subtitle "HI-TECH Software Omniscient Code Generator (Lite mode) build 49521"
   511  0000                     _RD1	set	0x7C19
   512                           opt subtitle "HI-TECH Software Omniscient Code Generator (Lite mode) build 49521"
   513  0000                     _RD2	set	0x7C1A
   514                           opt subtitle "HI-TECH Software Omniscient Code Generator (Lite mode) build 49521"
   515  0000                     _RD3	set	0x7C1B
   516                           opt subtitle "HI-TECH Software Omniscient Code Generator (Lite mode) build 49521"
   517  0000                     _RD4	set	0x7C1C
   518                           opt subtitle "HI-TECH Software Omniscient Code Generator (Lite mode) build 49521"
   519  0000                     _RD5	set	0x7C1D
   520                           opt subtitle "HI-TECH Software Omniscient Code Generator (Lite mode) build 49521"
   521  0000                     _RD6	set	0x7C1E
   522                           opt subtitle "HI-TECH Software Omniscient Code Generator (Lite mode) build 49521"
   523  0000                     _RD7	set	0x7C1F
   524                           opt subtitle "HI-TECH Software Omniscient Code Generator (Lite mode) build 49521"
   525  0000                     _T0IF	set	0x7F92
   526                           opt subtitle "HI-TECH Software Omniscient Code Generator (Lite mode) build 49521"
   527                           
   528                           opt pagewidth 120
   529                           
   530                           	opt lm
   531  0019E6                     __pcinit:
   532                           opt subtitle "HI-TECH Software Omniscient Code Generator (Lite mode) build 49521"
   533  0019E6                     start_initialization:
   534                           opt subtitle "HI-TECH Software Omniscient Code Generator (Lite mode) build 49521"
   535                           
   536  0019E6                     __initialization:
   537                           opt subtitle "HI-TECH Software Omniscient Code Generator (Lite mode) build 49521"
   538                           
   539  000001                     __pbssCOMRAM:
   540                           opt subtitle "HI-TECH Software Omniscient Code Generator (Lite mode) build 49521"
   541  000001                     _values:
   542  000001                            ds      14
   543                           opt subtitle "HI-TECH Software Omniscient Code Generator (Lite mode) build 49521"
   544  00000F                     _cutpower:
   545  00000F                            ds      2
   546                           opt subtitle "HI-TECH Software Omniscient Code Generator (Lite mode) build 49521"
   547  000011                     _temp_a:
   548  000011                            ds      2
   549                           opt subtitle "HI-TECH Software Omniscient Code Generator (Lite mode) build 49521"
   550                           
   551  000013                     _R2:
   552  000013                            ds      1
   553                           opt subtitle "HI-TECH Software Omniscient Code Generator (Lite mode) build 49521"
   554                           
   555  000014                     _addrh:
   556  000014                            ds      1
   557                           opt subtitle "HI-TECH Software Omniscient Code Generator (Lite mode) build 49521"
   558                           
   559  000015                     _addrl:
   560  000015                            ds      1
   561                           opt subtitle "HI-TECH Software Omniscient Code Generator (Lite mode) build 49521"
   562  000016                     _adr:
   563  000016                            ds      1
   564                           opt subtitle "HI-TECH Software Omniscient Code Generator (Lite mode) build 49521"
   565  000017                     _bipomode:
   566  000017                            ds      1
   567                           opt subtitle "HI-TECH Software Omniscient Code Generator (Lite mode) build 49521"
   568  000018                     _bipopower:
   569  000018                            ds      1
   570                           opt subtitle "HI-TECH Software Omniscient Code Generator (Lite mode) build 49521"
   571  000019                     _cnt:
   572  000019                            ds      1
   573                           opt subtitle "HI-TECH Software Omniscient Code Generator (Lite mode) build 49521"
   574  00001A                     _coagmode:
   575  00001A                            ds      1
   576                           opt subtitle "HI-TECH Software Omniscient Code Generator (Lite mode) build 49521"
   577  00001B                     _coagpower:
   578  00001B                            ds      1
   579                           opt subtitle "HI-TECH Software Omniscient Code Generator (Lite mode) build 49521"
   580  00001C                     _count:
   581  00001C                            ds      1
   582                           opt subtitle "HI-TECH Software Omniscient Code Generator (Lite mode) build 49521"
   583  00001D                     _cutmode:
   584  00001D                            ds      1
   585                           opt subtitle "HI-TECH Software Omniscient Code Generator (Lite mode) build 49521"
   586  00001E                     _cutpowerh:
   587  00001E                            ds      1
   588                           opt subtitle "HI-TECH Software Omniscient Code Generator (Lite mode) build 49521"
   589  00001F                     _cutpowerl:
   590  00001F                            ds      1
   591                           opt subtitle "HI-TECH Software Omniscient Code Generator (Lite mode) build 49521"
   592                           
   593  000020                     _datai:
   594  000020                            ds      1
   595                           opt subtitle "HI-TECH Software Omniscient Code Generator (Lite mode) build 49521"
   596                           
   597  000021                     _datao:
   598  000021                            ds      1
   599                           opt subtitle "HI-TECH Software Omniscient Code Generator (Lite mode) build 49521"
   600  000022                     _debounce:
   601  000022                            ds      1
   602                           opt subtitle "HI-TECH Software Omniscient Code Generator (Lite mode) build 49521"
   603  000023                     _hold:
   604  000023                            ds      1
   605                           opt subtitle "HI-TECH Software Omniscient Code Generator (Lite mode) build 49521"
   606  000024                     _hundreds:
   607  000024                            ds      1
   608                           opt subtitle "HI-TECH Software Omniscient Code Generator (Lite mode) build 49521"
   609  000025                     _i:
   610  000025                            ds      1
   611                           opt subtitle "HI-TECH Software Omniscient Code Generator (Lite mode) build 49521"
   612  000026                     _j:
   613  000026                            ds      1
   614                           opt subtitle "HI-TECH Software Omniscient Code Generator (Lite mode) build 49521"
   615  000027                     _progno:
   616  000027                            ds      1
   617                           opt subtitle "HI-TECH Software Omniscient Code Generator (Lite mode) build 49521"
   618  000028                     _rdfl:
   619  000028                            ds      1
   620                           opt subtitle "HI-TECH Software Omniscient Code Generator (Lite mode) build 49521"
   621                           
   622  000029                     _rxbuf:
   623  000029                            ds      1
   624                           opt subtitle "HI-TECH Software Omniscient Code Generator (Lite mode) build 49521"
   625  00002A                     _temp:
   626  00002A                            ds      1
   627                           opt subtitle "HI-TECH Software Omniscient Code Generator (Lite mode) build 49521"
   628  00002B                     _tens:
   629  00002B                            ds      1
   630                           opt subtitle "HI-TECH Software Omniscient Code Generator (Lite mode) build 49521"
   631                           
   632  00002C                     _txbuf:
   633  00002C                            ds      1
   634                           opt subtitle "HI-TECH Software Omniscient Code Generator (Lite mode) build 49521"
   635  00002D                     _units:
   636  00002D                            ds      1
   637                           opt subtitle "HI-TECH Software Omniscient Code Generator (Lite mode) build 49521"
   638  00002E                     _wrfl:
   639  00002E                            ds      1
   640                           opt subtitle "HI-TECH Software Omniscient Code Generator (Lite mode) build 49521"
   641                           
   642  000049                     __pdataCOMRAM:
   643                           opt subtitle "HI-TECH Software Omniscient Code Generator (Lite mode) build 49521"
   644                           
   645  000049                     _R1:
   646  000049                            ds      1
   647                           opt subtitle "HI-TECH Software Omniscient Code Generator (Lite mode) build 49521"
   648                           
   649                           opt pagewidth 120
   650  0019E6  EE00  F001         lfsr	0,__pbssCOMRAM
   651  0019EA  0E2E               movlw	46
   652  0019EC                     clear_0:
   653  0019EC  6AEE               clrf	postinc0,c
   654  0019EE  06E8               decf	wreg
   655  0019F0  E1FD               bnz	clear_0
   656                           opt subtitle "HI-TECH Software Omniscient Code Generator (Lite mode) build 49521"
   657                           
   658                           opt pagewidth 120
   659  0019F2  0E62               	movlw	low (__pidataCOMRAM)
   660  0019F4  6EF6               	movwf	tblptrl
   661  0019F6  0E1A               	movlw	high(__pidataCOMRAM)
   662  0019F8  6EF7               	movwf	tblptrh
   663  0019FA  0E00               	movlw	low highword(__pidataCOMRAM)
   664  0019FC  6EF8               	movwf	tblptru
   665  0019FE  0009               	tblrd*+ ;fetch initializer
   666  001A00  CFF5 F049          	movff	tablat, __pdataCOMRAM+0		
   667                           opt subtitle "HI-TECH Software Omniscient Code Generator (Lite mode) build 49521"
   668                           
   669                           opt pagewidth 120
   670                           
   671                           	opt lm
   672  001A04                     end_of_initialization:
   673  001A04                     __end_of__initialization:movlb 0
   674  001A06  EF70  F000         goto _main	;jump to C main() function
   675                           opt subtitle "HI-TECH Software Omniscient Code Generator (Lite mode) build 49521"
   676                           
   677  00002F                     __pcstackCOMRAM:
   678  00002F                     ?_IdleI2C:	; 0 bytes @ 0x0
   679  00002F                     ?_main:	; 0 bytes @ 0x0
   680  00002F                     ?_tmr_int:	; 0 bytes @ 0x0
   681  00002F                     ??_tmr_int:	; 0 bytes @ 0x0
   682  00002F                     	ds   14
   683                           opt subtitle "HI-TECH Software Omniscient Code Generator (Lite mode) build 49521"
   684  00003D                     ?_OpenI2C:	; 0 bytes @ 0xE
   685                           opt subtitle "HI-TECH Software Omniscient Code Generator (Lite mode) build 49521"
   686  00003D                     ?_Write_b_eep:	; 0 bytes @ 0xE
   687  00003D                     ??_IdleI2C:	; 0 bytes @ 0xE
   688                           opt subtitle "HI-TECH Software Omniscient Code Generator (Lite mode) build 49521"
   689  00003D                     ?_Read_b_eep:	; 1 bytes @ 0xE
   690                           opt subtitle "HI-TECH Software Omniscient Code Generator (Lite mode) build 49521"
   691  00003D                     ?_WriteI2C:	; 1 bytes @ 0xE
   692                           opt subtitle "HI-TECH Software Omniscient Code Generator (Lite mode) build 49521"
   693  00003D                     ?___awdiv:	; 2 bytes @ 0xE
   694                           opt subtitle "HI-TECH Software Omniscient Code Generator (Lite mode) build 49521"
   695  00003D                     ?___awmod:	; 2 bytes @ 0xE
   696                           opt subtitle "HI-TECH Software Omniscient Code Generator (Lite mode) build 49521"
   697  00003D                     ?___lwdiv:	; 2 bytes @ 0xE
   698                           opt subtitle "HI-TECH Software Omniscient Code Generator (Lite mode) build 49521"
   699  00003D                     OpenI2C@sync_mode:	; 1 bytes @ 0xE
   700                           opt subtitle "HI-TECH Software Omniscient Code Generator (Lite mode) build 49521"
   701  00003D                     WriteI2C@data_out:	; 1 bytes @ 0xE
   702                           opt subtitle "HI-TECH Software Omniscient Code Generator (Lite mode) build 49521"
   703  00003D                     Read_b_eep@badd:	; 2 bytes @ 0xE
   704                           opt subtitle "HI-TECH Software Omniscient Code Generator (Lite mode) build 49521"
   705  00003D                     Write_b_eep@badd:	; 2 bytes @ 0xE
   706                           opt subtitle "HI-TECH Software Omniscient Code Generator (Lite mode) build 49521"
   707  00003D                     ___awdiv@dividend:	; 2 bytes @ 0xE
   708                           opt subtitle "HI-TECH Software Omniscient Code Generator (Lite mode) build 49521"
   709  00003D                     ___awmod@dividend:	; 2 bytes @ 0xE
   710                           opt subtitle "HI-TECH Software Omniscient Code Generator (Lite mode) build 49521"
   711  00003D                     ___lwdiv@dividend:	; 2 bytes @ 0xE
   712  00003D                     	ds   1
   713  00003E                     ??_WriteI2C:	; 0 bytes @ 0xF
   714                           opt subtitle "HI-TECH Software Omniscient Code Generator (Lite mode) build 49521"
   715  00003E                     ?_EEByteWrite:	; 1 bytes @ 0xF
   716                           opt subtitle "HI-TECH Software Omniscient Code Generator (Lite mode) build 49521"
   717  00003E                     ?_EERandomRead:	; 2 bytes @ 0xF
   718                           opt subtitle "HI-TECH Software Omniscient Code Generator (Lite mode) build 49521"
   719  00003E                     EEByteWrite@control:	; 1 bytes @ 0xF
   720                           opt subtitle "HI-TECH Software Omniscient Code Generator (Lite mode) build 49521"
   721  00003E                     EERandomRead@control:	; 1 bytes @ 0xF
   722                           opt subtitle "HI-TECH Software Omniscient Code Generator (Lite mode) build 49521"
   723  00003E                     OpenI2C@slew:	; 1 bytes @ 0xF
   724  00003E                     	ds   1
   725  00003F                     ??_OpenI2C:	; 0 bytes @ 0x10
   726  00003F                     ??_Read_b_eep:	; 0 bytes @ 0x10
   727                           opt subtitle "HI-TECH Software Omniscient Code Generator (Lite mode) build 49521"
   728  00003F                     Write_b_eep@bdat:	; 1 bytes @ 0x10
   729                           opt subtitle "HI-TECH Software Omniscient Code Generator (Lite mode) build 49521"
   730  00003F                     EEByteWrite@address:	; 1 bytes @ 0x10
   731                           opt subtitle "HI-TECH Software Omniscient Code Generator (Lite mode) build 49521"
   732  00003F                     EERandomRead@address:	; 1 bytes @ 0x10
   733                           opt subtitle "HI-TECH Software Omniscient Code Generator (Lite mode) build 49521"
   734  00003F                     ___awdiv@divisor:	; 2 bytes @ 0x10
   735                           opt subtitle "HI-TECH Software Omniscient Code Generator (Lite mode) build 49521"
   736  00003F                     ___awmod@divisor:	; 2 bytes @ 0x10
   737                           opt subtitle "HI-TECH Software Omniscient Code Generator (Lite mode) build 49521"
   738  00003F                     ___lwdiv@divisor:	; 2 bytes @ 0x10
   739  00003F                     	ds   1
   740  000040                     ??_EERandomRead:	; 0 bytes @ 0x11
   741  000040                     ??_Write_b_eep:	; 0 bytes @ 0x11
   742                           opt subtitle "HI-TECH Software Omniscient Code Generator (Lite mode) build 49521"
   743  000040                     EEByteWrite@data:	; 1 bytes @ 0x11
   744  000040                     	ds   1
   745  000041                     ??_EEByteWrite:	; 0 bytes @ 0x12
   746  000041                     ??___awdiv:	; 0 bytes @ 0x12
   747  000041                     ??___awmod:	; 0 bytes @ 0x12
   748  000041                     ??___lwdiv:	; 0 bytes @ 0x12
   749                           opt subtitle "HI-TECH Software Omniscient Code Generator (Lite mode) build 49521"
   750  000041                     Write_b_eep@GIE_BIT_VAL:	; 1 bytes @ 0x12
   751  000041                     	ds   1
   752                           opt subtitle "HI-TECH Software Omniscient Code Generator (Lite mode) build 49521"
   753  000042                     ___awdiv@counter:	; 1 bytes @ 0x13
   754                           opt subtitle "HI-TECH Software Omniscient Code Generator (Lite mode) build 49521"
   755  000042                     ___awmod@counter:	; 1 bytes @ 0x13
   756                           opt subtitle "HI-TECH Software Omniscient Code Generator (Lite mode) build 49521"
   757  000042                     ___lwdiv@quotient:	; 2 bytes @ 0x13
   758  000042                     	ds   1
   759                           opt subtitle "HI-TECH Software Omniscient Code Generator (Lite mode) build 49521"
   760  000043                     ___awdiv@sign:	; 1 bytes @ 0x14
   761                           opt subtitle "HI-TECH Software Omniscient Code Generator (Lite mode) build 49521"
   762  000043                     ___awmod@sign:	; 1 bytes @ 0x14
   763  000043                     	ds   1
   764                           opt subtitle "HI-TECH Software Omniscient Code Generator (Lite mode) build 49521"
   765  000044                     ___lwdiv@counter:	; 1 bytes @ 0x15
   766                           opt subtitle "HI-TECH Software Omniscient Code Generator (Lite mode) build 49521"
   767  000044                     ___awdiv@quotient:	; 2 bytes @ 0x15
   768  000044                     	ds   2
   769  000046                     ??_main:	; 0 bytes @ 0x17
   770  000046                     	ds   3
   771                           opt subtitle "HI-TECH Software Omniscient Code Generator (Lite mode) build 49521"
   772                           
   773                           opt pagewidth 120
   774                           
   775                           	opt lm
   776                           
   777                           	processor	18F452
   778                           porta	equ	0F80h
   779                           portb	equ	0F81h
   780                           portc	equ	0F82h
   781                           portd	equ	0F83h
   782                           porte	equ	0F84h
   783                           lata	equ	0F89h
   784                           latb	equ	0F8Ah
   785                           latc	equ	0F8Bh
   786                           latd	equ	0F8Ch
   787                           late	equ	0F8Dh
   788                           trisa	equ	0F92h
   789                           trisb	equ	0F93h
   790                           trisc	equ	0F94h
   791                           trisd	equ	0F95h
   792                           trise	equ	0F96h
   793                           pie1	equ	0F9Dh
   794                           pir1	equ	0F9Eh
   795                           ipr1	equ	0F9Fh
   796                           pie2	equ	0FA0h
   797                           pir2	equ	0FA1h
   798                           ipr2	equ	0FA2h
   799                           t3con	equ	0FB1h
   800                           tmr3l	equ	0FB2h
   801                           tmr3h	equ	0FB3h
   802                           ccp1con	equ	0FBDh
   803                           ccpr1l	equ	0FBEh
   804                           ccpr1h	equ	0FBFh
   805                           adcon1	equ	0FC1h
   806                           adcon0	equ	0FC2h
   807                           adresl	equ	0FC3h
   808                           adresh	equ	0FC4h
   809                           sspcon2	equ	0FC5h
   810                           sspcon1	equ	0FC6h
   811                           sspstat	equ	0FC7h
   812                           sspadd	equ	0FC8h
   813                           sspbuf	equ	0FC9h
   814                           t2con	equ	0FCAh
   815                           pr2	equ	0FCBh
   816                           tmr2	equ	0FCCh
   817                           t1con	equ	0FCDh
   818                           tmr1l	equ	0FCEh
   819                           tmr1h	equ	0FCFh
   820                           rcon	equ	0FD0h
   821                           wdtcon	equ	0FD1h
   822                           lvdcon	equ	0FD2h
   823                           osccon	equ	0FD3h
   824                           t0con	equ	0FD5h
   825                           tmr0l	equ	0FD6h
   826                           tmr0h	equ	0FD7h
   827                           status	equ	0FD8h
   828                           fsr2	equ	0FD9h
   829                           fsr2l	equ	0FD9h
   830                           fsr2h	equ	0FDAh
   831                           plusw2	equ	0FDBh
   832                           preinc2	equ	0FDCh
   833                           postdec2	equ	0FDDh
   834                           postinc2	equ	0FDEh
   835                           indf2	equ	0FDFh
   836                           bsr	equ	0FE0h
   837                           fsr1	equ	0FE1h
   838                           fsr1l	equ	0FE1h
   839                           fsr1h	equ	0FE2h
   840                           plusw1	equ	0FE3h
   841                           preinc1	equ	0FE4h
   842                           postdec1	equ	0FE5h
   843                           postinc1	equ	0FE6h
   844                           indf1	equ	0FE7h
   845                           wreg	equ	0FE8h
   846                           fsr0	equ	0FE9h
   847                           fsr0l	equ	0FE9h
   848                           fsr0h	equ	0FEAh
   849                           plusw0	equ	0FEBh
   850                           preinc0	equ	0FECh
   851                           postdec0	equ	0FEDh
   852                           postinc0	equ	0FEEh
   853                           indf0	equ	0FEFh
   854                           intcon3	equ	0FF0h
   855                           intcon2	equ	0FF1h
   856                           intcon	equ	0FF2h
   857                           prod	equ	0FF3h
   858                           prodl	equ	0FF3h
   859                           prodh	equ	0FF4h
   860                           tablat	equ	0FF5h
   861                           tblptr	equ	0FF6h
   862                           tblptrl	equ	0FF6h
   863                           tblptrh	equ	0FF7h
   864                           tblptru	equ	0FF8h
   865                           pcl	equ	0FF9h
   866                           pclat	equ	0FFAh
   867                           pclath	equ	0FFAh
   868                           pclatu	equ	0FFBh
   869                           stkptr	equ	0FFCh
   870                           tosl	equ	0FFDh
   871                           tosh	equ	0FFEh
   872                           tosu	equ	0FFFh
   873                           skipnz macro
   874                           	btfsc	status,2
   875                           	endm
   876                           	global	__ramtop
   877                           	global	__accesstop
   878                           # 46 "C:\Program Files\Microchip\xc8\v1.12\include\pic18f452.h"
   879                           PORTA equ 0F80h ;# 
   880                           # 208 "C:\Program Files\Microchip\xc8\v1.12\include\pic18f452.h"
   881                           PORTB equ 0F81h ;# 
   882                           # 332 "C:\Program Files\Microchip\xc8\v1.12\include\pic18f452.h"
   883                           PORTC equ 0F82h ;# 
   884                           # 501 "C:\Program Files\Microchip\xc8\v1.12\include\pic18f452.h"
   885                           PORTD equ 0F83h ;# 
   886                           # 621 "C:\Program Files\Microchip\xc8\v1.12\include\pic18f452.h"
   887                           PORTE equ 0F84h ;# 
   888                           # 879 "C:\Program Files\Microchip\xc8\v1.12\include\pic18f452.h"
   889                           LATA equ 0F89h ;# 
   890                           # 1014 "C:\Program Files\Microchip\xc8\v1.12\include\pic18f452.h"
   891                           LATB equ 0F8Ah ;# 
   892                           # 1146 "C:\Program Files\Microchip\xc8\v1.12\include\pic18f452.h"
   893                           LATC equ 0F8Bh ;# 
   894                           # 1278 "C:\Program Files\Microchip\xc8\v1.12\include\pic18f452.h"
   895                           LATD equ 0F8Ch ;# 
   896                           # 1410 "C:\Program Files\Microchip\xc8\v1.12\include\pic18f452.h"
   897                           LATE equ 0F8Dh ;# 
   898                           # 1512 "C:\Program Files\Microchip\xc8\v1.12\include\pic18f452.h"
   899                           TRISA equ 0F92h ;# 
   900                           # 1517 "C:\Program Files\Microchip\xc8\v1.12\include\pic18f452.h"
   901                           DDRA equ 0F92h ;# 
   902                           # 1709 "C:\Program Files\Microchip\xc8\v1.12\include\pic18f452.h"
   903                           TRISB equ 0F93h ;# 
   904                           # 1714 "C:\Program Files\Microchip\xc8\v1.12\include\pic18f452.h"
   905                           DDRB equ 0F93h ;# 
   906                           # 1948 "C:\Program Files\Microchip\xc8\v1.12\include\pic18f452.h"
   907                           TRISC equ 0F94h ;# 
   908                           # 1953 "C:\Program Files\Microchip\xc8\v1.12\include\pic18f452.h"
   909                           DDRC equ 0F94h ;# 
   910                           # 2187 "C:\Program Files\Microchip\xc8\v1.12\include\pic18f452.h"
   911                           TRISD equ 0F95h ;# 
   912                           # 2192 "C:\Program Files\Microchip\xc8\v1.12\include\pic18f452.h"
   913                           DDRD equ 0F95h ;# 
   914                           # 2408 "C:\Program Files\Microchip\xc8\v1.12\include\pic18f452.h"
   915                           TRISE equ 0F96h ;# 
   916                           # 2413 "C:\Program Files\Microchip\xc8\v1.12\include\pic18f452.h"
   917                           DDRE equ 0F96h ;# 
   918                           # 2559 "C:\Program Files\Microchip\xc8\v1.12\include\pic18f452.h"
   919                           PIE1 equ 0F9Dh ;# 
   920                           # 2638 "C:\Program Files\Microchip\xc8\v1.12\include\pic18f452.h"
   921                           PIR1 equ 0F9Eh ;# 
   922                           # 2717 "C:\Program Files\Microchip\xc8\v1.12\include\pic18f452.h"
   923                           IPR1 equ 0F9Fh ;# 
   924                           # 2796 "C:\Program Files\Microchip\xc8\v1.12\include\pic18f452.h"
   925                           PIE2 equ 0FA0h ;# 
   926                           # 2839 "C:\Program Files\Microchip\xc8\v1.12\include\pic18f452.h"
   927                           PIR2 equ 0FA1h ;# 
   928                           # 2882 "C:\Program Files\Microchip\xc8\v1.12\include\pic18f452.h"
   929                           IPR2 equ 0FA2h ;# 
   930                           # 2925 "C:\Program Files\Microchip\xc8\v1.12\include\pic18f452.h"
   931                           EECON1 equ 0FA6h ;# 
   932                           # 2990 "C:\Program Files\Microchip\xc8\v1.12\include\pic18f452.h"
   933                           EECON2 equ 0FA7h ;# 
   934                           # 2996 "C:\Program Files\Microchip\xc8\v1.12\include\pic18f452.h"
   935                           EEDATA equ 0FA8h ;# 
   936                           # 3002 "C:\Program Files\Microchip\xc8\v1.12\include\pic18f452.h"
   937                           EEADR equ 0FA9h ;# 
   938                           # 3008 "C:\Program Files\Microchip\xc8\v1.12\include\pic18f452.h"
   939                           RCSTA equ 0FABh ;# 
   940                           # 3013 "C:\Program Files\Microchip\xc8\v1.12\include\pic18f452.h"
   941                           RCSTA1 equ 0FABh ;# 
   942                           # 3231 "C:\Program Files\Microchip\xc8\v1.12\include\pic18f452.h"
   943                           TXSTA equ 0FACh ;# 
   944                           # 3236 "C:\Program Files\Microchip\xc8\v1.12\include\pic18f452.h"
   945                           TXSTA1 equ 0FACh ;# 
   946                           # 3532 "C:\Program Files\Microchip\xc8\v1.12\include\pic18f452.h"
   947                           TXREG equ 0FADh ;# 
   948                           # 3537 "C:\Program Files\Microchip\xc8\v1.12\include\pic18f452.h"
   949                           TXREG1 equ 0FADh ;# 
   950                           # 3543 "C:\Program Files\Microchip\xc8\v1.12\include\pic18f452.h"
   951                           RCREG equ 0FAEh ;# 
   952                           # 3548 "C:\Program Files\Microchip\xc8\v1.12\include\pic18f452.h"
   953                           RCREG1 equ 0FAEh ;# 
   954                           # 3554 "C:\Program Files\Microchip\xc8\v1.12\include\pic18f452.h"
   955                           SPBRG equ 0FAFh ;# 
   956                           # 3559 "C:\Program Files\Microchip\xc8\v1.12\include\pic18f452.h"
   957                           SPBRG1 equ 0FAFh ;# 
   958                           # 3565 "C:\Program Files\Microchip\xc8\v1.12\include\pic18f452.h"
   959                           T3CON equ 0FB1h ;# 
   960                           # 3687 "C:\Program Files\Microchip\xc8\v1.12\include\pic18f452.h"
   961                           TMR3 equ 0FB2h ;# 
   962                           # 3693 "C:\Program Files\Microchip\xc8\v1.12\include\pic18f452.h"
   963                           TMR3L equ 0FB2h ;# 
   964                           # 3699 "C:\Program Files\Microchip\xc8\v1.12\include\pic18f452.h"
   965                           TMR3H equ 0FB3h ;# 
   966                           # 3705 "C:\Program Files\Microchip\xc8\v1.12\include\pic18f452.h"
   967                           CCP2CON equ 0FBAh ;# 
   968                           # 3792 "C:\Program Files\Microchip\xc8\v1.12\include\pic18f452.h"
   969                           CCPR2 equ 0FBBh ;# 
   970                           # 3798 "C:\Program Files\Microchip\xc8\v1.12\include\pic18f452.h"
   971                           CCPR2L equ 0FBBh ;# 
   972                           # 3804 "C:\Program Files\Microchip\xc8\v1.12\include\pic18f452.h"
   973                           CCPR2H equ 0FBCh ;# 
   974                           # 3810 "C:\Program Files\Microchip\xc8\v1.12\include\pic18f452.h"
   975                           CCP1CON equ 0FBDh ;# 
   976                           # 3888 "C:\Program Files\Microchip\xc8\v1.12\include\pic18f452.h"
   977                           CCPR1 equ 0FBEh ;# 
   978                           # 3894 "C:\Program Files\Microchip\xc8\v1.12\include\pic18f452.h"
   979                           CCPR1L equ 0FBEh ;# 
   980                           # 3900 "C:\Program Files\Microchip\xc8\v1.12\include\pic18f452.h"
   981                           CCPR1H equ 0FBFh ;# 
   982                           # 3906 "C:\Program Files\Microchip\xc8\v1.12\include\pic18f452.h"
   983                           ADCON1 equ 0FC1h ;# 
   984                           # 3973 "C:\Program Files\Microchip\xc8\v1.12\include\pic18f452.h"
   985                           ADCON0 equ 0FC2h ;# 
   986                           # 4117 "C:\Program Files\Microchip\xc8\v1.12\include\pic18f452.h"
   987                           ADRES equ 0FC3h ;# 
   988                           # 4123 "C:\Program Files\Microchip\xc8\v1.12\include\pic18f452.h"
   989                           ADRESL equ 0FC3h ;# 
   990                           # 4129 "C:\Program Files\Microchip\xc8\v1.12\include\pic18f452.h"
   991                           ADRESH equ 0FC4h ;# 
   992                           # 4135 "C:\Program Files\Microchip\xc8\v1.12\include\pic18f452.h"
   993                           SSPCON2 equ 0FC5h ;# 
   994                           # 4196 "C:\Program Files\Microchip\xc8\v1.12\include\pic18f452.h"
   995                           SSPCON1 equ 0FC6h ;# 
   996                           # 4265 "C:\Program Files\Microchip\xc8\v1.12\include\pic18f452.h"
   997                           SSPSTAT equ 0FC7h ;# 
   998                           # 4540 "C:\Program Files\Microchip\xc8\v1.12\include\pic18f452.h"
   999                           SSPADD equ 0FC8h ;# 
  1000                           # 4546 "C:\Program Files\Microchip\xc8\v1.12\include\pic18f452.h"
  1001                           SSPBUF equ 0FC9h ;# 
  1002                           # 4552 "C:\Program Files\Microchip\xc8\v1.12\include\pic18f452.h"
  1003                           T2CON equ 0FCAh ;# 
  1004                           # 4622 "C:\Program Files\Microchip\xc8\v1.12\include\pic18f452.h"
  1005                           PR2 equ 0FCBh ;# 
  1006                           # 4627 "C:\Program Files\Microchip\xc8\v1.12\include\pic18f452.h"
  1007                           MEMCON equ 0FCBh ;# 
  1008                           # 4633 "C:\Program Files\Microchip\xc8\v1.12\include\pic18f452.h"
  1009                           TMR2 equ 0FCCh ;# 
  1010                           # 4639 "C:\Program Files\Microchip\xc8\v1.12\include\pic18f452.h"
  1011                           T1CON equ 0FCDh ;# 
  1012                           # 4747 "C:\Program Files\Microchip\xc8\v1.12\include\pic18f452.h"
  1013                           TMR1 equ 0FCEh ;# 
  1014  0000E0                     __ptext0:
  1015                           opt subtitle "HI-TECH Software Omniscient Code Generator (Lite mode) build 49521"
  1016                           
  1017                           opt pagewidth 120
  1018                           
  1019  0000                     	__size_of_main	equ	__end_of_main-_main
  1020                           opt subtitle "HI-TECH Software Omniscient Code Generator (Lite mode) build 49521"
  1021  0000E0                     _main:
  1022                           opt subtitle "HI-TECH Software Omniscient Code Generator (Lite mode) build 49521"
  1023  0000E0  FFFF               	dw	0FFFFh
  1024                           opt subtitle "HI-TECH Software Omniscient Code Generator (Lite mode) build 49521"
  1025                           
  1026  0000E2                     l1487:
  1027                           opt subtitle "HI-TECH Software Omniscient Code Generator (Lite mode) build 49521"
  1028  0000E2  6892               	setf	((c:3986)),c	;volatile
  1029                           opt subtitle "HI-TECH Software Omniscient Code Generator (Lite mode) build 49521"
  1030                           
  1031  0000E4                     l1489:
  1032                           opt subtitle "HI-TECH Software Omniscient Code Generator (Lite mode) build 49521"
  1033  0000E4  0E00               	movlw	low(0)
  1034  0000E6  6E96               	movwf	((c:3990)),c	;volatile
  1035                           opt subtitle "HI-TECH Software Omniscient Code Generator (Lite mode) build 49521"
  1036                           
  1037  0000E8  0E00               	movlw	low(0)
  1038  0000EA  6E93               	movwf	((c:3987)),c	;volatile
  1039                           opt subtitle "HI-TECH Software Omniscient Code Generator (Lite mode) build 49521"
  1040                           
  1041  0000EC  0E0F               	movlw	low(0Fh)
  1042  0000EE  6E95               	movwf	((c:3989)),c	;volatile
  1043                           opt subtitle "HI-TECH Software Omniscient Code Generator (Lite mode) build 49521"
  1044                           
  1045  0000F0  0E7F               	movlw	low(07Fh)
  1046  0000F2  6E94               	movwf	((c:3988)),c	;volatile
  1047                           opt subtitle "HI-TECH Software Omniscient Code Generator (Lite mode) build 49521"
  1048                           
  1049  0000F4  0E07               	movlw	low(07h)
  1050  0000F6  6EC1               	movwf	((c:4033)),c	;volatile
  1051                           opt subtitle "HI-TECH Software Omniscient Code Generator (Lite mode) build 49521"
  1052                           
  1053  0000F8  0E9F               	movlw	low(09Fh)
  1054  0000FA  6ED0               	movwf	((c:4048)),c	;volatile
  1055                           opt subtitle "HI-TECH Software Omniscient Code Generator (Lite mode) build 49521"
  1056                           
  1057  0000FC  0EA0               	movlw	low(0A0h)
  1058  0000FE  6EF2               	movwf	((c:4082)),c	;volatile
  1059                           opt subtitle "HI-TECH Software Omniscient Code Generator (Lite mode) build 49521"
  1060                           
  1061  000100  0EC2               	movlw	low(0C2h)
  1062  000102  6ED5               	movwf	((c:4053)),c	;volatile
  1063                           opt subtitle "HI-TECH Software Omniscient Code Generator (Lite mode) build 49521"
  1064                           
  1065  000104  0E00               	movlw	high(0)
  1066  000106  6ED7               	movwf	((c:4054+1)),c	;volatile
  1067  000108  0E00               	movlw	low(0)
  1068  00010A  6ED6               	movwf	((c:4054)),c	;volatile
  1069                           opt subtitle "HI-TECH Software Omniscient Code Generator (Lite mode) build 49521"
  1070                           
  1071  00010C                     l1491:
  1072                           opt subtitle "HI-TECH Software Omniscient Code Generator (Lite mode) build 49521"
  1073  00010C  6E46               	movwf	(??_main+0+0)&0ffh,c
  1074  00010E  0E00               	movlw	low(0)
  1075  000110  6E1D               	movwf	((c:_cutmode)),c
  1076  000112  5046               	movf	(??_main+0+0)&0ffh,c,w
  1077                           opt subtitle "HI-TECH Software Omniscient Code Generator (Lite mode) build 49521"
  1078                           
  1079  000114                     l1493:
  1080                           opt subtitle "HI-TECH Software Omniscient Code Generator (Lite mode) build 49521"
  1081  000114  6E46               	movwf	(??_main+0+0)&0ffh,c
  1082  000116  0E00               	movlw	low(0)
  1083  000118  6E1A               	movwf	((c:_coagmode)),c
  1084  00011A  5046               	movf	(??_main+0+0)&0ffh,c,w
  1085                           opt subtitle "HI-TECH Software Omniscient Code Generator (Lite mode) build 49521"
  1086                           
  1087  00011C                     l1495:
  1088                           opt subtitle "HI-TECH Software Omniscient Code Generator (Lite mode) build 49521"
  1089  00011C  6E46               	movwf	(??_main+0+0)&0ffh,c
  1090  00011E  0E00               	movlw	low(0)
  1091  000120  6E17               	movwf	((c:_bipomode)),c
  1092  000122  5046               	movf	(??_main+0+0)&0ffh,c,w
  1093                           opt subtitle "HI-TECH Software Omniscient Code Generator (Lite mode) build 49521"
  1094                           
  1095  000124                     l1497:
  1096                           opt subtitle "HI-TECH Software Omniscient Code Generator (Lite mode) build 49521"
  1097  000124  6E46               	movwf	(??_main+0+0)&0ffh,c
  1098  000126  0E08               	movlw	low(08h)
  1099  000128  6E3D               	movwf	((c:?_OpenI2C)),c
  1100  00012A  5046               	movf	(??_main+0+0)&0ffh,c,w
  1101  00012C  6E47               	movwf	(??_main+1+0)&0ffh,c
  1102  00012E  0E00               	movlw	low(0)
  1103  000130  6E3E               	movwf	(0+((c:?_OpenI2C)+01h)),c
  1104  000132  5047               	movf	(??_main+1+0)&0ffh,c,w
  1105  000134  EC05  F00D         	call	_OpenI2C	;wreg free
  1106                           opt subtitle "HI-TECH Software Omniscient Code Generator (Lite mode) build 49521"
  1107                           
  1108  000138                     l1499:
  1109                           opt subtitle "HI-TECH Software Omniscient Code Generator (Lite mode) build 49521"
  1110  000138  0E09               	movlw	low(09h)
  1111  00013A  6EC8               	movwf	((c:4040)),c	;volatile
  1112                           opt subtitle "HI-TECH Software Omniscient Code Generator (Lite mode) build 49521"
  1113                           
  1114  00013C                     l1501:
  1115                           opt subtitle "HI-TECH Software Omniscient Code Generator (Lite mode) build 49521"
  1116  00013C  6E46               	movwf	(??_main+0+0)&0ffh,c
  1117  00013E  0EA0               	movlw	low(0A0h)
  1118  000140  6E3E               	movwf	((c:?_EEByteWrite)),c
  1119  000142  5046               	movf	(??_main+0+0)&0ffh,c,w
  1120  000144  6E47               	movwf	(??_main+1+0)&0ffh,c
  1121  000146  0E30               	movlw	low(030h)
  1122  000148  6E3F               	movwf	(0+((c:?_EEByteWrite)+01h)),c
  1123  00014A  5047               	movf	(??_main+1+0)&0ffh,c,w
  1124  00014C  6E48               	movwf	(??_main+2+0)&0ffh,c
  1125  00014E  0E04               	movlw	low(04h)
  1126  000150  6E40               	movwf	(0+((c:?_EEByteWrite)+02h)),c
  1127  000152  5048               	movf	(??_main+2+0)&0ffh,c,w
  1128  000154  EC18  F00B         	call	_EEByteWrite	;wreg free
  1129                           opt subtitle "HI-TECH Software Omniscient Code Generator (Lite mode) build 49521"
  1130                           
  1131  000158                     l1503:
  1132                           opt subtitle "HI-TECH Software Omniscient Code Generator (Lite mode) build 49521"
  1133  000158  6E46               	movwf	(??_main+0+0)&0ffh,c
  1134  00015A  0EA0               	movlw	low(0A0h)
  1135  00015C  6E3E               	movwf	((c:?_EERandomRead)),c
  1136  00015E  5046               	movf	(??_main+0+0)&0ffh,c,w
  1137  000160  6E47               	movwf	(??_main+1+0)&0ffh,c
  1138  000162  0E30               	movlw	low(030h)
  1139  000164  6E3F               	movwf	(0+((c:?_EERandomRead)+01h)),c
  1140  000166  5047               	movf	(??_main+1+0)&0ffh,c,w
  1141  000168  EC4B  F00A         	call	_EERandomRead	;wreg free
  1142  00016C  503E               	movf	(0+?_EERandomRead),c,w
  1143  00016E  6E1D               	movwf	((c:_cutmode)),c
  1144                           opt subtitle "HI-TECH Software Omniscient Code Generator (Lite mode) build 49521"
  1145                           
  1146  000170                     l1505:
  1147                           opt subtitle "HI-TECH Software Omniscient Code Generator (Lite mode) build 49521"
  1148  000170  C027  F03D         	movff	(c:_progno),(c:?_Write_b_eep)
  1149  000174  6A3E               	clrf	((c:?_Write_b_eep+1)),c
  1150  000176  C01B  F03F         	movff	(c:_coagpower),0+((c:?_Write_b_eep)+02h)
  1151  00017A  ECD0  F00C         	call	_Write_b_eep	;wreg free
  1152                           opt subtitle "HI-TECH Software Omniscient Code Generator (Lite mode) build 49521"
  1153                           
  1154  00017E                     l1507:
  1155                           opt subtitle "HI-TECH Software Omniscient Code Generator (Lite mode) build 49521"
  1156  00017E  9081               	bcf	c:(31752/8),(31752)&7	;volatile
  1157                           opt subtitle "HI-TECH Software Omniscient Code Generator (Lite mode) build 49521"
  1158                           
  1159  000180                     l1509:
  1160                           opt subtitle "HI-TECH Software Omniscient Code Generator (Lite mode) build 49521"
  1161  000180  9281               	bcf	c:(31753/8),(31753)&7	;volatile
  1162                           opt subtitle "HI-TECH Software Omniscient Code Generator (Lite mode) build 49521"
  1163                           
  1164  000182                     l1511:
  1165                           opt subtitle "HI-TECH Software Omniscient Code Generator (Lite mode) build 49521"
  1166  000182  9481               	bcf	c:(31754/8),(31754)&7	;volatile
  1167                           opt subtitle "HI-TECH Software Omniscient Code Generator (Lite mode) build 49521"
  1168                           
  1169  000184                     l1513:
  1170                           opt subtitle "HI-TECH Software Omniscient Code Generator (Lite mode) build 49521"
  1171  000184  9681               	bcf	c:(31755/8),(31755)&7	;volatile
  1172                           opt subtitle "HI-TECH Software Omniscient Code Generator (Lite mode) build 49521"
  1173                           
  1174  000186                     l1515:
  1175                           opt subtitle "HI-TECH Software Omniscient Code Generator (Lite mode) build 49521"
  1176  000186  9883               	bcf	c:(31772/8),(31772)&7	;volatile
  1177                           opt subtitle "HI-TECH Software Omniscient Code Generator (Lite mode) build 49521"
  1178                           
  1179  000188                     l1517:
  1180                           opt subtitle "HI-TECH Software Omniscient Code Generator (Lite mode) build 49521"
  1181  000188  9E82               	bcf	c:(31767/8),(31767)&7	;volatile
  1182                           opt subtitle "HI-TECH Software Omniscient Code Generator (Lite mode) build 49521"
  1183                           
  1184  00018A                     l1519:
  1185                           opt subtitle "HI-TECH Software Omniscient Code Generator (Lite mode) build 49521"
  1186  00018A  8A83               	bsf	c:(31773/8),(31773)&7	;volatile
  1187  00018C  D000               	goto	l1521
  1188                           opt subtitle "HI-TECH Software Omniscient Code Generator (Lite mode) build 49521"
  1189                           
  1190                           opt pagewidth 120
  1191  00018E                     l163:
  1192                           opt subtitle "HI-TECH Software Omniscient Code Generator (Lite mode) build 49521"
  1193                           
  1194  00018E                     l1521:
  1195                           opt subtitle "HI-TECH Software Omniscient Code Generator (Lite mode) build 49521"
  1196                           
  1197  00018E  042E               	decf	((c:_wrfl)),c,w
  1198                           opt subtitle "HI-TECH Software Omniscient Code Generator (Lite mode) build 49521"
  1199  000190  A4D8               	btfss	status,2
  1200  000192  D001               	goto	u11
  1201  000194  D001               	goto	u10
  1202  000196                     u11:
  1203  000196  D019               	goto	l1533
  1204  000198                     u10:
  1205                           opt subtitle "HI-TECH Software Omniscient Code Generator (Lite mode) build 49521"
  1206  000198                     l1523:
  1207  000198  B283               	btfsc	c:(31769/8),(31769)&7	;volatile
  1208  00019A  D001               	goto	u21
  1209  00019C  D001               	goto	u20
  1210  00019E                     u21:
  1211  00019E  D005               	goto	l1527
  1212  0001A0                     u20:
  1213                           opt subtitle "HI-TECH Software Omniscient Code Generator (Lite mode) build 49521"
  1214  0001A0                     l1525:
  1215  0001A0  A483               	btfss	c:(31770/8),(31770)&7	;volatile
  1216  0001A2  D001               	goto	u31
  1217  0001A4  D001               	goto	u30
  1218  0001A6                     u31:
  1219  0001A6  D011               	goto	l1533
  1220  0001A8                     u30:
  1221  0001A8  D000               	goto	l1527
  1222                           opt subtitle "HI-TECH Software Omniscient Code Generator (Lite mode) build 49521"
  1223  0001AA                     l166:
  1224                           opt subtitle "HI-TECH Software Omniscient Code Generator (Lite mode) build 49521"
  1225                           
  1226  0001AA                     l1527:
  1227                           opt subtitle "HI-TECH Software Omniscient Code Generator (Lite mode) build 49521"
  1228                           
  1229  0001AA  C027  F03D         	movff	(c:_progno),(c:?_Write_b_eep)
  1230  0001AE  6A3E               	clrf	((c:?_Write_b_eep+1)),c
  1231  0001B0  C01B  F03F         	movff	(c:_coagpower),0+((c:?_Write_b_eep)+02h)
  1232  0001B4  ECD0  F00C         	call	_Write_b_eep	;wreg free
  1233                           opt subtitle "HI-TECH Software Omniscient Code Generator (Lite mode) build 49521"
  1234                           
  1235  0001B8                     l1529:
  1236                           opt subtitle "HI-TECH Software Omniscient Code Generator (Lite mode) build 49521"
  1237  0001B8  0E0A               	movlw	10
  1238  0001BA                     u2507:
  1239  0001BA  F000               	nop
  1240  0001BC  2EE8               decfsz	wreg,f
  1241  0001BE  D7FD               	goto	u2507
  1242                           opt subtitle "HI-TECH Software Omniscient Code Generator (Lite mode) build 49521"
  1243                           
  1244                           opt pagewidth 120
  1245  0001C0                     l1531:
  1246                           opt subtitle "HI-TECH Software Omniscient Code Generator (Lite mode) build 49521"
  1247  0001C0  6E46               	movwf	(??_main+0+0)&0ffh,c
  1248  0001C2  0E00               	movlw	low(0)
  1249  0001C4  6E2E               	movwf	((c:_wrfl)),c
  1250  0001C6  5046               	movf	(??_main+0+0)&0ffh,c,w
  1251  0001C8  D000               	goto	l1533
  1252                           opt subtitle "HI-TECH Software Omniscient Code Generator (Lite mode) build 49521"
  1253                           
  1254  0001CA                     l164:
  1255                           opt subtitle "HI-TECH Software Omniscient Code Generator (Lite mode) build 49521"
  1256                           
  1257  0001CA                     l1533:
  1258                           opt subtitle "HI-TECH Software Omniscient Code Generator (Lite mode) build 49521"
  1259                           
  1260  0001CA  0428               	decf	((c:_rdfl)),c,w
  1261                           opt subtitle "HI-TECH Software Omniscient Code Generator (Lite mode) build 49521"
  1262  0001CC  A4D8               	btfss	status,2
  1263  0001CE  D001               	goto	u41
  1264  0001D0  D001               	goto	u40
  1265  0001D2                     u41:
  1266  0001D2  D04E               	goto	l1565
  1267  0001D4                     u40:
  1268                           opt subtitle "HI-TECH Software Omniscient Code Generator (Lite mode) build 49521"
  1269  0001D4                     l1535:
  1270  0001D4  B082               	btfsc	c:(31760/8),(31760)&7	;volatile
  1271  0001D6  D001               	goto	u51
  1272  0001D8  D001               	goto	u50
  1273  0001DA                     u51:
  1274  0001DA  D005               	goto	l1539
  1275  0001DC                     u50:
  1276                           opt subtitle "HI-TECH Software Omniscient Code Generator (Lite mode) build 49521"
  1277  0001DC                     l1537:
  1278  0001DC  A282               	btfss	c:(31761/8),(31761)&7	;volatile
  1279  0001DE  D001               	goto	u61
  1280  0001E0  D001               	goto	u60
  1281  0001E2                     u61:
  1282  0001E2  D046               	goto	l1565
  1283  0001E4                     u60:
  1284  0001E4  D000               	goto	l1539
  1285                           opt subtitle "HI-TECH Software Omniscient Code Generator (Lite mode) build 49521"
  1286  0001E6                     l169:
  1287                           opt subtitle "HI-TECH Software Omniscient Code Generator (Lite mode) build 49521"
  1288                           
  1289  0001E6                     l1539:
  1290                           opt subtitle "HI-TECH Software Omniscient Code Generator (Lite mode) build 49521"
  1291                           
  1292  0001E6  C027  F03D         	movff	(c:_progno),(c:?_Read_b_eep)
  1293  0001EA  6A3E               	clrf	((c:?_Read_b_eep+1)),c
  1294  0001EC  EC25  F00D         	call	_Read_b_eep	;wreg free
  1295  0001F0  6E1B               	movwf	((c:_coagpower)),c
  1296                           opt subtitle "HI-TECH Software Omniscient Code Generator (Lite mode) build 49521"
  1297                           
  1298  0001F2                     l1541:
  1299                           opt subtitle "HI-TECH Software Omniscient Code Generator (Lite mode) build 49521"
  1300  0001F2  0E0A               	movlw	10
  1301  0001F4                     u2517:
  1302  0001F4  F000               	nop
  1303  0001F6  2EE8               decfsz	wreg,f
  1304  0001F8  D7FD               	goto	u2517
  1305                           opt subtitle "HI-TECH Software Omniscient Code Generator (Lite mode) build 49521"
  1306                           
  1307                           opt pagewidth 120
  1308  0001FA                     l1543:
  1309                           opt subtitle "HI-TECH Software Omniscient Code Generator (Lite mode) build 49521"
  1310  0001FA  C01B  F03D         	movff	(c:_coagpower),(c:?___awdiv)
  1311  0001FE  6A3E               	clrf	((c:?___awdiv+1)),c
  1312  000200  0E00               	movlw	high(064h)
  1313  000202  6E40               	movwf	(1+((c:?___awdiv)+02h)),c
  1314  000204  0E64               	movlw	low(064h)
  1315  000206  6E3F               	movwf	(0+((c:?___awdiv)+02h)),c
  1316  000208  EC8C  F00B         	call	___awdiv	;wreg free
  1317  00020C  503D               	movf	(0+?___awdiv),c,w
  1318  00020E  6E24               	movwf	((c:_hundreds)),c
  1319                           opt subtitle "HI-TECH Software Omniscient Code Generator (Lite mode) build 49521"
  1320                           
  1321  000210                     l1545:
  1322                           opt subtitle "HI-TECH Software Omniscient Code Generator (Lite mode) build 49521"
  1323  000210  5024               	movf	((c:_hundreds)),c,w
  1324  000212  0D64               	mullw	064h
  1325  000214  50F3               	movf	(prodl),c,w
  1326  000216  0800               	sublw	0
  1327  000218  241B               	addwf	((c:_coagpower)),c,w
  1328  00021A  6E2A               	movwf	((c:_temp)),c
  1329                           opt subtitle "HI-TECH Software Omniscient Code Generator (Lite mode) build 49521"
  1330                           
  1331  00021C                     l1547:
  1332                           opt subtitle "HI-TECH Software Omniscient Code Generator (Lite mode) build 49521"
  1333  00021C  C02A  F03D         	movff	(c:_temp),(c:?___awmod)
  1334  000220  6A3E               	clrf	((c:?___awmod+1)),c
  1335  000222  0E00               	movlw	high(0Ah)
  1336  000224  6E40               	movwf	(1+((c:?___awmod)+02h)),c
  1337  000226  0E0A               	movlw	low(0Ah)
  1338  000228  6E3F               	movwf	(0+((c:?___awmod)+02h)),c
  1339  00022A  EC42  F00C         	call	___awmod	;wreg free
  1340  00022E  503D               	movf	(0+?___awmod),c,w
  1341  000230  6E2D               	movwf	((c:_units)),c
  1342                           opt subtitle "HI-TECH Software Omniscient Code Generator (Lite mode) build 49521"
  1343                           
  1344  000232                     l1549:
  1345                           opt subtitle "HI-TECH Software Omniscient Code Generator (Lite mode) build 49521"
  1346  000232  382D               	swapf	((c:_units)),c,w
  1347  000234  0BF0               	andlw	(0ffh shl 4) & 0ffh
  1348  000236  6E2D               	movwf	((c:_units)),c
  1349                           opt subtitle "HI-TECH Software Omniscient Code Generator (Lite mode) build 49521"
  1350                           
  1351  000238                     l1551:
  1352                           opt subtitle "HI-TECH Software Omniscient Code Generator (Lite mode) build 49521"
  1353  000238  C02D  F00D         	movff	(c:_units),0+((c:_values)+0Ch)	;volatile
  1354                           opt subtitle "HI-TECH Software Omniscient Code Generator (Lite mode) build 49521"
  1355                           
  1356  00023C                     l1553:
  1357                           opt subtitle "HI-TECH Software Omniscient Code Generator (Lite mode) build 49521"
  1358  00023C  C02A  F03D         	movff	(c:_temp),(c:?___awdiv)
  1359  000240  6A3E               	clrf	((c:?___awdiv+1)),c
  1360  000242  0E00               	movlw	high(0Ah)
  1361  000244  6E40               	movwf	(1+((c:?___awdiv)+02h)),c
  1362  000246  0E0A               	movlw	low(0Ah)
  1363  000248  6E3F               	movwf	(0+((c:?___awdiv)+02h)),c
  1364  00024A  EC8C  F00B         	call	___awdiv	;wreg free
  1365  00024E  503D               	movf	(0+?___awdiv),c,w
  1366  000250  6E2B               	movwf	((c:_tens)),c
  1367                           opt subtitle "HI-TECH Software Omniscient Code Generator (Lite mode) build 49521"
  1368                           
  1369  000252                     l1555:
  1370                           opt subtitle "HI-TECH Software Omniscient Code Generator (Lite mode) build 49521"
  1371  000252  382B               	swapf	((c:_tens)),c,w
  1372  000254  0BF0               	andlw	(0ffh shl 4) & 0ffh
  1373  000256  6E2B               	movwf	((c:_tens)),c
  1374                           opt subtitle "HI-TECH Software Omniscient Code Generator (Lite mode) build 49521"
  1375                           
  1376  000258                     l1557:
  1377                           opt subtitle "HI-TECH Software Omniscient Code Generator (Lite mode) build 49521"
  1378  000258  C02B  F00B         	movff	(c:_tens),0+((c:_values)+0Ah)	;volatile
  1379                           opt subtitle "HI-TECH Software Omniscient Code Generator (Lite mode) build 49521"
  1380                           
  1381  00025C                     l1559:
  1382                           opt subtitle "HI-TECH Software Omniscient Code Generator (Lite mode) build 49521"
  1383  00025C  3824               	swapf	((c:_hundreds)),c,w
  1384  00025E  0BF0               	andlw	(0ffh shl 4) & 0ffh
  1385  000260  6E24               	movwf	((c:_hundreds)),c
  1386                           opt subtitle "HI-TECH Software Omniscient Code Generator (Lite mode) build 49521"
  1387                           
  1388  000262                     l1561:
  1389                           opt subtitle "HI-TECH Software Omniscient Code Generator (Lite mode) build 49521"
  1390  000262  C024  F00A         	movff	(c:_hundreds),0+((c:_values)+09h)	;volatile
  1391                           opt subtitle "HI-TECH Software Omniscient Code Generator (Lite mode) build 49521"
  1392                           
  1393  000266                     l1563:
  1394                           opt subtitle "HI-TECH Software Omniscient Code Generator (Lite mode) build 49521"
  1395  000266  6E46               	movwf	(??_main+0+0)&0ffh,c
  1396  000268  0E00               	movlw	low(0)
  1397  00026A  6E28               	movwf	((c:_rdfl)),c
  1398  00026C  5046               	movf	(??_main+0+0)&0ffh,c,w
  1399  00026E  D000               	goto	l1565
  1400                           opt subtitle "HI-TECH Software Omniscient Code Generator (Lite mode) build 49521"
  1401                           
  1402  000270                     l167:
  1403                           opt subtitle "HI-TECH Software Omniscient Code Generator (Lite mode) build 49521"
  1404                           
  1405  000270                     l1565:
  1406                           opt subtitle "HI-TECH Software Omniscient Code Generator (Lite mode) build 49521"
  1407                           
  1408  000270  A280               	btfss	c:(31745/8),(31745)&7	;volatile
  1409  000272  D001               	goto	u71
  1410  000274  D001               	goto	u70
  1411  000276                     u71:
  1412  000276  D001               	goto	l170
  1413  000278                     u70:
  1414                           opt subtitle "HI-TECH Software Omniscient Code Generator (Lite mode) build 49521"
  1415                           
  1416  000278                     l1567:
  1417                           opt subtitle "HI-TECH Software Omniscient Code Generator (Lite mode) build 49521"
  1418                           
  1419  000278  9681               	bcf	c:(31755/8),(31755)&7	;volatile
  1420                           opt subtitle "HI-TECH Software Omniscient Code Generator (Lite mode) build 49521"
  1421                           
  1422  00027A                     l170:
  1423                           opt subtitle "HI-TECH Software Omniscient Code Generator (Lite mode) build 49521"
  1424                           
  1425                           opt pagewidth 120
  1426  00027A  B480               	btfsc	c:(31746/8),(31746)&7	;volatile
  1427  00027C  D001               	goto	u81
  1428  00027E  D001               	goto	u80
  1429  000280                     u81:
  1430  000280  D004               	goto	l173
  1431  000282                     u80:
  1432                           opt subtitle "HI-TECH Software Omniscient Code Generator (Lite mode) build 49521"
  1433  000282                     l1569:
  1434  000282  A680               	btfss	c:(31747/8),(31747)&7	;volatile
  1435  000284  D001               	goto	u91
  1436  000286  D001               	goto	u90
  1437  000288                     u91:
  1438  000288  D001               	goto	l171
  1439  00028A                     u90:
  1440                           opt subtitle "HI-TECH Software Omniscient Code Generator (Lite mode) build 49521"
  1441  00028A                     l173:
  1442                           opt subtitle "HI-TECH Software Omniscient Code Generator (Lite mode) build 49521"
  1443                           
  1444                           opt pagewidth 120
  1445  00028A  9481               	bcf	c:(31754/8),(31754)&7	;volatile
  1446                           opt subtitle "HI-TECH Software Omniscient Code Generator (Lite mode) build 49521"
  1447                           
  1448  00028C                     l171:
  1449                           opt subtitle "HI-TECH Software Omniscient Code Generator (Lite mode) build 49521"
  1450                           
  1451                           opt pagewidth 120
  1452  00028C  9E82               	bcf	c:(31767/8),(31767)&7	;volatile
  1453                           opt subtitle "HI-TECH Software Omniscient Code Generator (Lite mode) build 49521"
  1454                           
  1455  00028E  B080               	btfsc	c:(31744/8),(31744)&7	;volatile
  1456  000290  D001               	goto	u101
  1457  000292  D001               	goto	u100
  1458  000294                     u101:
  1459  000294  D0BF               	goto	l174
  1460  000296                     u100:
  1461                           opt subtitle "HI-TECH Software Omniscient Code Generator (Lite mode) build 49521"
  1462                           
  1463  000296                     l1571:
  1464                           opt subtitle "HI-TECH Software Omniscient Code Generator (Lite mode) build 49521"
  1465                           
  1466  000296  A880               	btfss	c:(31748/8),(31748)&7	;volatile
  1467  000298  D001               	goto	u111
  1468  00029A  D001               	goto	u110
  1469  00029C                     u111:
  1470  00029C  D005               	goto	l1577
  1471  00029E                     u110:
  1472                           opt subtitle "HI-TECH Software Omniscient Code Generator (Lite mode) build 49521"
  1473                           
  1474  00029E                     l1573:
  1475                           opt subtitle "HI-TECH Software Omniscient Code Generator (Lite mode) build 49521"
  1476                           
  1477  00029E  8E82               	bsf	c:(31767/8),(31767)&7	;volatile
  1478                           opt subtitle "HI-TECH Software Omniscient Code Generator (Lite mode) build 49521"
  1479                           
  1480  0002A0                     l1575:
  1481                           opt subtitle "HI-TECH Software Omniscient Code Generator (Lite mode) build 49521"
  1482  0002A0  0E19               	movlw	25
  1483  0002A2                     u2527:
  1484  0002A2  2EE8               decfsz	wreg,f
  1485  0002A4  D7FE               	goto	u2527
  1486                           opt subtitle "HI-TECH Software Omniscient Code Generator (Lite mode) build 49521"
  1487                           
  1488                           opt pagewidth 120
  1489  0002A6  D0B6               	goto	l174
  1490                           opt subtitle "HI-TECH Software Omniscient Code Generator (Lite mode) build 49521"
  1491                           
  1492  0002A8                     l175:
  1493                           opt subtitle "HI-TECH Software Omniscient Code Generator (Lite mode) build 49521"
  1494                           
  1495  0002A8                     l1577:
  1496                           opt subtitle "HI-TECH Software Omniscient Code Generator (Lite mode) build 49521"
  1497                           
  1498                           opt pagewidth 120
  1499  0002A8  C00F  F046         	movff	(c:_cutpower),??_main+0+0
  1500  0002AC  C010  F047         	movff	(c:_cutpower+1),??_main+0+0+1
  1501  0002B0  90D8               	bcf	status,0
  1502  0002B2  3247               	rrcf	(??_main+0+1),c
  1503  0002B4  3246               	rrcf	(??_main+0+0),c
  1504  0002B6  90D8               	bcf	status,0
  1505  0002B8  3247               	rrcf	(??_main+0+1),c
  1506  0002BA  3246               	rrcf	(??_main+0+0),c
  1507  0002BC  C046  F011         	movff	??_main+0+0,(c:_temp_a)
  1508  0002C0  C047  F012         	movff	??_main+0+1,(c:_temp_a+1)
  1509                           opt subtitle "HI-TECH Software Omniscient Code Generator (Lite mode) build 49521"
  1510                           
  1511  0002C4                     l1579:
  1512                           opt subtitle "HI-TECH Software Omniscient Code Generator (Lite mode) build 49521"
  1513  0002C4  C011  F02A         	movff	(c:_temp_a),(c:_temp)
  1514                           opt subtitle "HI-TECH Software Omniscient Code Generator (Lite mode) build 49521"
  1515                           
  1516  0002C8  1E2A               	comf	((c:_temp)),c
  1517                           opt subtitle "HI-TECH Software Omniscient Code Generator (Lite mode) build 49521"
  1518                           
  1519  0002CA                     l1581:
  1520                           opt subtitle "HI-TECH Software Omniscient Code Generator (Lite mode) build 49521"
  1521  0002CA  9A83               	bcf	c:(31773/8),(31773)&7	;volatile
  1522                           opt subtitle "HI-TECH Software Omniscient Code Generator (Lite mode) build 49521"
  1523                           
  1524  0002CC                     l1583:
  1525                           opt subtitle "HI-TECH Software Omniscient Code Generator (Lite mode) build 49521"
  1526  0002CC  0E05               	movlw	5
  1527  0002CE                     u2537:
  1528  0002CE  F000               	nop
  1529  0002D0  2EE8               decfsz	wreg,f
  1530  0002D2  D7FD               	goto	u2537
  1531                           opt subtitle "HI-TECH Software Omniscient Code Generator (Lite mode) build 49521"
  1532                           
  1533                           opt pagewidth 120
  1534  0002D4                     l1585:
  1535                           opt subtitle "HI-TECH Software Omniscient Code Generator (Lite mode) build 49521"
  1536  0002D4  6E46               	movwf	(??_main+0+0)&0ffh,c
  1537  0002D6  0E00               	movlw	low(0)
  1538  0002D8  6E26               	movwf	((c:_j)),c
  1539  0002DA  5046               	movf	(??_main+0+0)&0ffh,c,w
  1540                           opt subtitle "HI-TECH Software Omniscient Code Generator (Lite mode) build 49521"
  1541                           
  1542  0002DC                     l1587:
  1543                           opt subtitle "HI-TECH Software Omniscient Code Generator (Lite mode) build 49521"
  1544  0002DC  6E46               	movwf	(??_main+0+0)&0ffh,c
  1545  0002DE  0E00               	movlw	low(0)
  1546  0002E0  6E26               	movwf	((c:_j)),c
  1547  0002E2  5046               	movf	(??_main+0+0)&0ffh,c,w
  1548                           opt subtitle "HI-TECH Software Omniscient Code Generator (Lite mode) build 49521"
  1549  0002E4                     l1589:
  1550  0002E4  0E07               	movlw	(08h-1)
  1551  0002E6  6426               	cpfsgt	((c:_j)),c
  1552  0002E8  D001               	goto	u121
  1553  0002EA  D001               	goto	u120
  1554  0002EC                     u121:
  1555  0002EC  D002               	goto	l1593
  1556  0002EE                     u120:
  1557  0002EE  D018               	goto	l1603
  1558                           opt subtitle "HI-TECH Software Omniscient Code Generator (Lite mode) build 49521"
  1559  0002F0                     l1591:
  1560  0002F0  D017               	goto	l1603
  1561                           opt subtitle "HI-TECH Software Omniscient Code Generator (Lite mode) build 49521"
  1562                           
  1563  0002F2                     l177:
  1564                           opt subtitle "HI-TECH Software Omniscient Code Generator (Lite mode) build 49521"
  1565                           
  1566  0002F2                     l1593:
  1567                           opt subtitle "HI-TECH Software Omniscient Code Generator (Lite mode) build 49521"
  1568                           
  1569  0002F2  5049               	movf	((c:_R1)),c,w
  1570  0002F4  2449               	addwf	((c:_R1)),c,w
  1571  0002F6  6E49               	movwf	((c:_R1)),c
  1572                           opt subtitle "HI-TECH Software Omniscient Code Generator (Lite mode) build 49521"
  1573                           
  1574  0002F8                     l1595:
  1575                           opt subtitle "HI-TECH Software Omniscient Code Generator (Lite mode) build 49521"
  1576  0002F8  A0D8               	btfss	c:(32448/8),(32448)&7	;volatile
  1577  0002FA  D001               	goto	u131
  1578  0002FC  D001               	goto	u130
  1579  0002FE                     u131:
  1580  0002FE  D002               	goto	l179
  1581  000300                     u130:
  1582                           opt subtitle "HI-TECH Software Omniscient Code Generator (Lite mode) build 49521"
  1583                           
  1584  000300                     l1597:
  1585                           opt subtitle "HI-TECH Software Omniscient Code Generator (Lite mode) build 49521"
  1586                           
  1587  000300  8E83               	bsf	c:(31775/8),(31775)&7	;volatile
  1588                           opt subtitle "HI-TECH Software Omniscient Code Generator (Lite mode) build 49521"
  1589                           
  1590  000302  D001               	goto	l180
  1591                           opt subtitle "HI-TECH Software Omniscient Code Generator (Lite mode) build 49521"
  1592                           
  1593  000304                     l179:
  1594                           opt subtitle "HI-TECH Software Omniscient Code Generator (Lite mode) build 49521"
  1595                           
  1596                           opt pagewidth 120
  1597                           
  1598  000304  9E83               	bcf	c:(31775/8),(31775)&7	;volatile
  1599                           opt subtitle "HI-TECH Software Omniscient Code Generator (Lite mode) build 49521"
  1600                           
  1601  000306                     l180:
  1602                           opt subtitle "HI-TECH Software Omniscient Code Generator (Lite mode) build 49521"
  1603                           
  1604                           opt pagewidth 120
  1605  000306  8C83               	bsf	c:(31774/8),(31774)&7	;volatile
  1606                           opt subtitle "HI-TECH Software Omniscient Code Generator (Lite mode) build 49521"
  1607                           
  1608  000308  F000               	nop
  1609  00030A  D000               	nop2	;2 cycle nop
  1610  00030C  D000               	nop2	;2 cycle nop
  1611                           opt subtitle "HI-TECH Software Omniscient Code Generator (Lite mode) build 49521"
  1612                           
  1613                           opt pagewidth 120
  1614  00030E  9C83               	bcf	c:(31774/8),(31774)&7	;volatile
  1615                           opt subtitle "HI-TECH Software Omniscient Code Generator (Lite mode) build 49521"
  1616                           
  1617  000310  9E83               	bcf	c:(31775/8),(31775)&7	;volatile
  1618                           opt subtitle "HI-TECH Software Omniscient Code Generator (Lite mode) build 49521"
  1619                           
  1620  000312                     l1599:
  1621  000312  2A26               	incf	((c:_j)),c
  1622                           opt subtitle "HI-TECH Software Omniscient Code Generator (Lite mode) build 49521"
  1623  000314                     l1601:
  1624  000314  0E07               	movlw	(08h-1)
  1625  000316  6426               	cpfsgt	((c:_j)),c
  1626  000318  D001               	goto	u141
  1627  00031A  D001               	goto	u140
  1628  00031C                     u141:
  1629  00031C  D7EA               	goto	l1593
  1630  00031E                     u140:
  1631  00031E  D000               	goto	l1603
  1632                           opt subtitle "HI-TECH Software Omniscient Code Generator (Lite mode) build 49521"
  1633  000320                     l178:
  1634                           opt subtitle "HI-TECH Software Omniscient Code Generator (Lite mode) build 49521"
  1635                           
  1636  000320                     l1603:
  1637                           opt subtitle "HI-TECH Software Omniscient Code Generator (Lite mode) build 49521"
  1638                           
  1639  000320  6E46               	movwf	(??_main+0+0)&0ffh,c
  1640  000322  0E00               	movlw	low(0)
  1641  000324  6E25               	movwf	((c:_i)),c
  1642  000326  5046               	movf	(??_main+0+0)&0ffh,c,w
  1643                           opt subtitle "HI-TECH Software Omniscient Code Generator (Lite mode) build 49521"
  1644                           
  1645  000328  6E46               	movwf	(??_main+0+0)&0ffh,c
  1646  00032A  0E00               	movlw	low(0)
  1647  00032C  6E25               	movwf	((c:_i)),c
  1648  00032E  5046               	movf	(??_main+0+0)&0ffh,c,w
  1649                           opt subtitle "HI-TECH Software Omniscient Code Generator (Lite mode) build 49521"
  1650  000330                     l1605:
  1651  000330  0E07               	movlw	(08h-1)
  1652  000332  6425               	cpfsgt	((c:_i)),c
  1653  000334  D001               	goto	u151
  1654  000336  D001               	goto	u150
  1655  000338                     u151:
  1656  000338  D002               	goto	l1609
  1657  00033A                     u150:
  1658  00033A  D017               	goto	l182
  1659                           opt subtitle "HI-TECH Software Omniscient Code Generator (Lite mode) build 49521"
  1660  00033C                     l1607:
  1661  00033C  D016               	goto	l182
  1662                           opt subtitle "HI-TECH Software Omniscient Code Generator (Lite mode) build 49521"
  1663                           
  1664  00033E                     l181:
  1665                           opt subtitle "HI-TECH Software Omniscient Code Generator (Lite mode) build 49521"
  1666                           
  1667  00033E                     l1609:
  1668                           opt subtitle "HI-TECH Software Omniscient Code Generator (Lite mode) build 49521"
  1669                           
  1670  00033E  502A               	movf	((c:_temp)),c,w
  1671  000340  242A               	addwf	((c:_temp)),c,w
  1672  000342  6E2A               	movwf	((c:_temp)),c
  1673                           opt subtitle "HI-TECH Software Omniscient Code Generator (Lite mode) build 49521"
  1674                           
  1675  000344                     l1611:
  1676                           opt subtitle "HI-TECH Software Omniscient Code Generator (Lite mode) build 49521"
  1677  000344  A0D8               	btfss	c:(32448/8),(32448)&7	;volatile
  1678  000346  D001               	goto	u161
  1679  000348  D001               	goto	u160
  1680  00034A                     u161:
  1681  00034A  D002               	goto	l183
  1682  00034C                     u160:
  1683                           opt subtitle "HI-TECH Software Omniscient Code Generator (Lite mode) build 49521"
  1684                           
  1685  00034C                     l1613:
  1686                           opt subtitle "HI-TECH Software Omniscient Code Generator (Lite mode) build 49521"
  1687                           
  1688  00034C  8E83               	bsf	c:(31775/8),(31775)&7	;volatile
  1689                           opt subtitle "HI-TECH Software Omniscient Code Generator (Lite mode) build 49521"
  1690                           
  1691  00034E  D001               	goto	l184
  1692                           opt subtitle "HI-TECH Software Omniscient Code Generator (Lite mode) build 49521"
  1693                           
  1694  000350                     l183:
  1695                           opt subtitle "HI-TECH Software Omniscient Code Generator (Lite mode) build 49521"
  1696                           
  1697                           opt pagewidth 120
  1698                           
  1699  000350  9E83               	bcf	c:(31775/8),(31775)&7	;volatile
  1700                           opt subtitle "HI-TECH Software Omniscient Code Generator (Lite mode) build 49521"
  1701                           
  1702  000352                     l184:
  1703                           opt subtitle "HI-TECH Software Omniscient Code Generator (Lite mode) build 49521"
  1704                           
  1705                           opt pagewidth 120
  1706  000352  8C83               	bsf	c:(31774/8),(31774)&7	;volatile
  1707                           opt subtitle "HI-TECH Software Omniscient Code Generator (Lite mode) build 49521"
  1708                           
  1709  000354  F000               	nop
  1710  000356  D000               	nop2	;2 cycle nop
  1711  000358  D000               	nop2	;2 cycle nop
  1712                           opt subtitle "HI-TECH Software Omniscient Code Generator (Lite mode) build 49521"
  1713                           
  1714                           opt pagewidth 120
  1715  00035A  9C83               	bcf	c:(31774/8),(31774)&7	;volatile
  1716                           opt subtitle "HI-TECH Software Omniscient Code Generator (Lite mode) build 49521"
  1717                           
  1718  00035C  9E83               	bcf	c:(31775/8),(31775)&7	;volatile
  1719                           opt subtitle "HI-TECH Software Omniscient Code Generator (Lite mode) build 49521"
  1720                           
  1721  00035E                     l1615:
  1722  00035E  2A25               	incf	((c:_i)),c
  1723                           opt subtitle "HI-TECH Software Omniscient Code Generator (Lite mode) build 49521"
  1724  000360                     l1617:
  1725  000360  0E07               	movlw	(08h-1)
  1726  000362  6425               	cpfsgt	((c:_i)),c
  1727  000364  D001               	goto	u171
  1728  000366  D001               	goto	u170
  1729  000368                     u171:
  1730  000368  D7EA               	goto	l1609
  1731  00036A                     u170:
  1732                           opt subtitle "HI-TECH Software Omniscient Code Generator (Lite mode) build 49521"
  1733  00036A                     l182:
  1734                           opt subtitle "HI-TECH Software Omniscient Code Generator (Lite mode) build 49521"
  1735                           
  1736                           opt pagewidth 120
  1737  00036A  8A83               	bsf	c:(31773/8),(31773)&7	;volatile
  1738                           opt subtitle "HI-TECH Software Omniscient Code Generator (Lite mode) build 49521"
  1739                           
  1740  00036C                     l1619:
  1741                           opt subtitle "HI-TECH Software Omniscient Code Generator (Lite mode) build 49521"
  1742  00036C  6E46               	movwf	(??_main+0+0)&0ffh,c
  1743  00036E  0E11               	movlw	low(011h)
  1744  000370  6E49               	movwf	((c:_R1)),c
  1745  000372  5046               	movf	(??_main+0+0)&0ffh,c,w
  1746                           opt subtitle "HI-TECH Software Omniscient Code Generator (Lite mode) build 49521"
  1747                           
  1748  000374                     l1621:
  1749                           opt subtitle "HI-TECH Software Omniscient Code Generator (Lite mode) build 49521"
  1750  000374  661D               	tstfsz	((c:_cutmode)),c
  1751  000376  D001               	goto	u181
  1752  000378  D001               	goto	u180
  1753  00037A                     u181:
  1754  00037A  D02E               	goto	l1641
  1755  00037C                     u180:
  1756                           opt subtitle "HI-TECH Software Omniscient Code Generator (Lite mode) build 49521"
  1757  00037C                     l1623:
  1758  00037C  661D               	tstfsz	((c:_cutmode)),c
  1759  00037E  D001               	goto	u191
  1760  000380  D001               	goto	u190
  1761  000382                     u191:
  1762  000382  D02A               	goto	l1641
  1763  000384                     u190:
  1764                           opt subtitle "HI-TECH Software Omniscient Code Generator (Lite mode) build 49521"
  1765  000384                     l1625:
  1766  000384  5023               	movf	((c:_hold)),c,w	;volatile
  1767  000386  0A80               	xorlw	80h
  1768  000388  0F7F               	addlw	-((01h)^80h)
  1769  00038A  B0D8               	btfsc	status,0
  1770  00038C  D001               	goto	u201
  1771  00038E  D001               	goto	u200
  1772  000390                     u201:
  1773  000390  D023               	goto	l1641
  1774  000392                     u200:
  1775                           opt subtitle "HI-TECH Software Omniscient Code Generator (Lite mode) build 49521"
  1776                           
  1777  000392                     l1627:
  1778                           opt subtitle "HI-TECH Software Omniscient Code Generator (Lite mode) build 49521"
  1779                           
  1780  000392  6E46               	movwf	(??_main+0+0)&0ffh,c
  1781  000394  0E00               	movlw	low(0)
  1782  000396  6E25               	movwf	((c:_i)),c
  1783  000398  5046               	movf	(??_main+0+0)&0ffh,c,w
  1784                           opt subtitle "HI-TECH Software Omniscient Code Generator (Lite mode) build 49521"
  1785                           
  1786  00039A  D017               	goto	l1639
  1787                           opt subtitle "HI-TECH Software Omniscient Code Generator (Lite mode) build 49521"
  1788  00039C                     l188:
  1789                           opt subtitle "HI-TECH Software Omniscient Code Generator (Lite mode) build 49521"
  1790                           
  1791                           opt pagewidth 120
  1792  00039C  D008               	goto	l1633
  1793                           opt subtitle "HI-TECH Software Omniscient Code Generator (Lite mode) build 49521"
  1794  00039E                     l190:
  1795                           opt subtitle "HI-TECH Software Omniscient Code Generator (Lite mode) build 49521"
  1796                           
  1797                           opt pagewidth 120
  1798  00039E  8883               	bsf	c:(31772/8),(31772)&7	;volatile
  1799                           opt subtitle "HI-TECH Software Omniscient Code Generator (Lite mode) build 49521"
  1800                           
  1801  0003A0  D000               		nop2	;2 cycle nop
  1802  0003A2  D000               	nop2	;2 cycle nop
  1803  0003A4  D000               	nop2	;2 cycle nop
  1804                           opt subtitle "HI-TECH Software Omniscient Code Generator (Lite mode) build 49521"
  1805                           
  1806                           opt pagewidth 120
  1807  0003A6                     l1629:
  1808                           opt subtitle "HI-TECH Software Omniscient Code Generator (Lite mode) build 49521"
  1809  0003A6  2825               	incf	((c:_i)),c,w
  1810  0003A8  6E25               	movwf	((c:_i)),c
  1811                           opt subtitle "HI-TECH Software Omniscient Code Generator (Lite mode) build 49521"
  1812                           
  1813  0003AA                     l1631:
  1814                           opt subtitle "HI-TECH Software Omniscient Code Generator (Lite mode) build 49521"
  1815  0003AA  9883               	bcf	c:(31772/8),(31772)&7	;volatile
  1816  0003AC  D000               	goto	l1633
  1817                           opt subtitle "HI-TECH Software Omniscient Code Generator (Lite mode) build 49521"
  1818                           
  1819  0003AE                     l189:
  1820                           opt subtitle "HI-TECH Software Omniscient Code Generator (Lite mode) build 49521"
  1821                           
  1822  0003AE                     l1633:
  1823  0003AE  0E09               	movlw	(0Ah-1)
  1824  0003B0  6425               	cpfsgt	((c:_i)),c
  1825  0003B2  D001               	goto	u211
  1826  0003B4  D001               	goto	u210
  1827  0003B6                     u211:
  1828  0003B6  D7F3               	goto	l190
  1829  0003B8                     u210:
  1830  0003B8  D000               	goto	l1635
  1831                           opt subtitle "HI-TECH Software Omniscient Code Generator (Lite mode) build 49521"
  1832  0003BA                     l191:
  1833                           opt subtitle "HI-TECH Software Omniscient Code Generator (Lite mode) build 49521"
  1834                           
  1835  0003BA                     l1635:
  1836                           opt subtitle "HI-TECH Software Omniscient Code Generator (Lite mode) build 49521"
  1837                           
  1838  0003BA  0E02               	movlw	2
  1839  0003BC                     u2547:
  1840  0003BC  2EE8               decfsz	wreg,f
  1841  0003BE  D7FE               	goto	u2547
  1842                           opt subtitle "HI-TECH Software Omniscient Code Generator (Lite mode) build 49521"
  1843                           
  1844                           opt pagewidth 120
  1845  0003C0                     l1637:
  1846                           opt subtitle "HI-TECH Software Omniscient Code Generator (Lite mode) build 49521"
  1847  0003C0  6E46               	movwf	(??_main+0+0)&0ffh,c
  1848  0003C2  0E00               	movlw	low(0)
  1849  0003C4  6E25               	movwf	((c:_i)),c
  1850  0003C6  5046               	movf	(??_main+0+0)&0ffh,c,w
  1851  0003C8  D000               	goto	l1639
  1852                           opt subtitle "HI-TECH Software Omniscient Code Generator (Lite mode) build 49521"
  1853                           
  1854  0003CA                     l187:
  1855                           opt subtitle "HI-TECH Software Omniscient Code Generator (Lite mode) build 49521"
  1856                           
  1857  0003CA                     l1639:
  1858  0003CA  A080               	btfss	c:(31744/8),(31744)&7	;volatile
  1859  0003CC  D001               	goto	u221
  1860  0003CE  D001               	goto	u220
  1861  0003D0                     u221:
  1862  0003D0  D7EE               	goto	l1633
  1863  0003D2                     u220:
  1864  0003D2  D002               	goto	l1641
  1865                           opt subtitle "HI-TECH Software Omniscient Code Generator (Lite mode) build 49521"
  1866  0003D4                     l192:
  1867  0003D4  D001               	goto	l1641
  1868                           opt subtitle "HI-TECH Software Omniscient Code Generator (Lite mode) build 49521"
  1869                           
  1870  0003D6                     l186:
  1871  0003D6  D000               	goto	l1641
  1872                           opt subtitle "HI-TECH Software Omniscient Code Generator (Lite mode) build 49521"
  1873                           
  1874  0003D8                     l185:
  1875                           opt subtitle "HI-TECH Software Omniscient Code Generator (Lite mode) build 49521"
  1876  0003D8                     l1641:
  1877                           opt subtitle "HI-TECH Software Omniscient Code Generator (Lite mode) build 49521"
  1878                           
  1879                           opt pagewidth 120
  1880  0003D8  041D               	decf	((c:_cutmode)),c,w
  1881                           opt subtitle "HI-TECH Software Omniscient Code Generator (Lite mode) build 49521"
  1882  0003DA  A4D8               	btfss	status,2
  1883  0003DC  D001               	goto	u231
  1884  0003DE  D001               	goto	u230
  1885  0003E0                     u231:
  1886  0003E0  D004               	goto	l1645
  1887  0003E2                     u230:
  1888                           opt subtitle "HI-TECH Software Omniscient Code Generator (Lite mode) build 49521"
  1889                           
  1890  0003E2                     l1643:
  1891                           opt subtitle "HI-TECH Software Omniscient Code Generator (Lite mode) build 49521"
  1892                           
  1893  0003E2  F000               	nop
  1894  0003E4  D000               	nop2	;2 cycle nop
  1895  0003E6  D000               	nop2	;2 cycle nop
  1896                           opt subtitle "HI-TECH Software Omniscient Code Generator (Lite mode) build 49521"
  1897  0003E8  D000               	goto	l1645
  1898                           opt subtitle "HI-TECH Software Omniscient Code Generator (Lite mode) build 49521"
  1899                           
  1900  0003EA                     l193:
  1901                           opt subtitle "HI-TECH Software Omniscient Code Generator (Lite mode) build 49521"
  1902                           
  1903  0003EA                     l1645:
  1904                           opt subtitle "HI-TECH Software Omniscient Code Generator (Lite mode) build 49521"
  1905                           
  1906  0003EA  501D               	movf	((c:_cutmode)),c,w
  1907  0003EC  0A02               	xorlw	2
  1908                           opt subtitle "HI-TECH Software Omniscient Code Generator (Lite mode) build 49521"
  1909  0003EE  A4D8               	btfss	status,2
  1910  0003F0  D001               	goto	u241
  1911  0003F2  D001               	goto	u240
  1912  0003F4                     u241:
  1913  0003F4  D004               	goto	l1649
  1914  0003F6                     u240:
  1915                           opt subtitle "HI-TECH Software Omniscient Code Generator (Lite mode) build 49521"
  1916                           
  1917  0003F6                     l1647:
  1918                           opt subtitle "HI-TECH Software Omniscient Code Generator (Lite mode) build 49521"
  1919                           
  1920  0003F6  F000               	nop
  1921  0003F8  D000               	nop2	;2 cycle nop
  1922  0003FA  D000               	nop2	;2 cycle nop
  1923                           opt subtitle "HI-TECH Software Omniscient Code Generator (Lite mode) build 49521"
  1924  0003FC  D000               	goto	l1649
  1925                           opt subtitle "HI-TECH Software Omniscient Code Generator (Lite mode) build 49521"
  1926                           
  1927  0003FE                     l194:
  1928                           opt subtitle "HI-TECH Software Omniscient Code Generator (Lite mode) build 49521"
  1929                           
  1930  0003FE                     l1649:
  1931                           opt subtitle "HI-TECH Software Omniscient Code Generator (Lite mode) build 49521"
  1932                           
  1933  0003FE  501D               	movf	((c:_cutmode)),c,w
  1934  000400  0A03               	xorlw	3
  1935                           opt subtitle "HI-TECH Software Omniscient Code Generator (Lite mode) build 49521"
  1936  000402  A4D8               	btfss	status,2
  1937  000404  D001               	goto	u251
  1938  000406  D001               	goto	u250
  1939  000408                     u251:
  1940  000408  D005               	goto	l174
  1941  00040A                     u250:
  1942                           opt subtitle "HI-TECH Software Omniscient Code Generator (Lite mode) build 49521"
  1943                           
  1944  00040A                     l1651:
  1945                           opt subtitle "HI-TECH Software Omniscient Code Generator (Lite mode) build 49521"
  1946                           
  1947  00040A  F000               	nop
  1948  00040C  D000               	nop2	;2 cycle nop
  1949  00040E  D000               	nop2	;2 cycle nop
  1950                           opt subtitle "HI-TECH Software Omniscient Code Generator (Lite mode) build 49521"
  1951  000410  D001               	goto	l174
  1952                           opt subtitle "HI-TECH Software Omniscient Code Generator (Lite mode) build 49521"
  1953                           
  1954  000412                     l195:
  1955  000412  D000               	goto	l174
  1956                           opt subtitle "HI-TECH Software Omniscient Code Generator (Lite mode) build 49521"
  1957                           
  1958  000414                     l176:
  1959                           opt subtitle "HI-TECH Software Omniscient Code Generator (Lite mode) build 49521"
  1960                           
  1961  000414                     l174:
  1962                           opt subtitle "HI-TECH Software Omniscient Code Generator (Lite mode) build 49521"
  1963                           
  1964                           opt pagewidth 120
  1965                           
  1966                           	opt lm
  1967  000414  B280               	btfsc	c:(31745/8),(31745)&7	;volatile
  1968  000416  D001               	goto	u261
  1969  000418  D001               	goto	u260
  1970  00041A                     u261:
  1971  00041A  D0DA               	goto	l196
  1972  00041C                     u260:
  1973                           opt subtitle "HI-TECH Software Omniscient Code Generator (Lite mode) build 49521"
  1974                           
  1975  00041C                     l1653:
  1976                           opt subtitle "HI-TECH Software Omniscient Code Generator (Lite mode) build 49521"
  1977                           
  1978  00041C  A880               	btfss	c:(31748/8),(31748)&7	;volatile
  1979  00041E  D001               	goto	u271
  1980  000420  D001               	goto	u270
  1981  000422                     u271:
  1982  000422  D002               	goto	l197
  1983  000424                     u270:
  1984                           opt subtitle "HI-TECH Software Omniscient Code Generator (Lite mode) build 49521"
  1985                           
  1986  000424                     l1655:
  1987                           opt subtitle "HI-TECH Software Omniscient Code Generator (Lite mode) build 49521"
  1988                           
  1989  000424  8E82               	bsf	c:(31767/8),(31767)&7	;volatile
  1990                           opt subtitle "HI-TECH Software Omniscient Code Generator (Lite mode) build 49521"
  1991                           
  1992  000426  D0D4               	goto	l196
  1993                           opt subtitle "HI-TECH Software Omniscient Code Generator (Lite mode) build 49521"
  1994                           
  1995  000428                     l197:
  1996                           opt subtitle "HI-TECH Software Omniscient Code Generator (Lite mode) build 49521"
  1997                           
  1998                           opt pagewidth 120
  1999                           
  2000  000428  8681               	bsf	c:(31755/8),(31755)&7	;volatile
  2001                           opt subtitle "HI-TECH Software Omniscient Code Generator (Lite mode) build 49521"
  2002                           
  2003  00042A                     l1657:
  2004                           opt subtitle "HI-TECH Software Omniscient Code Generator (Lite mode) build 49521"
  2005  00042A  0E05               	movlw	5
  2006  00042C                     u2557:
  2007  00042C  F000               	nop
  2008  00042E  2EE8               decfsz	wreg,f
  2009  000430  D7FD               	goto	u2557
  2010                           opt subtitle "HI-TECH Software Omniscient Code Generator (Lite mode) build 49521"
  2011                           
  2012                           opt pagewidth 120
  2013  000432                     l1659:
  2014                           opt subtitle "HI-TECH Software Omniscient Code Generator (Lite mode) build 49521"
  2015  000432  C01B  F02A         	movff	(c:_coagpower),(c:_temp)
  2016                           opt subtitle "HI-TECH Software Omniscient Code Generator (Lite mode) build 49521"
  2017                           
  2018  000436                     l1661:
  2019                           opt subtitle "HI-TECH Software Omniscient Code Generator (Lite mode) build 49521"
  2020  000436  1E2A               	comf	((c:_temp)),c
  2021                           opt subtitle "HI-TECH Software Omniscient Code Generator (Lite mode) build 49521"
  2022                           
  2023  000438                     l1663:
  2024                           opt subtitle "HI-TECH Software Omniscient Code Generator (Lite mode) build 49521"
  2025  000438  9A83               	bcf	c:(31773/8),(31773)&7	;volatile
  2026                           opt subtitle "HI-TECH Software Omniscient Code Generator (Lite mode) build 49521"
  2027                           
  2028  00043A                     l1665:
  2029                           opt subtitle "HI-TECH Software Omniscient Code Generator (Lite mode) build 49521"
  2030  00043A  0E05               	movlw	5
  2031  00043C                     u2567:
  2032  00043C  F000               	nop
  2033  00043E  2EE8               decfsz	wreg,f
  2034  000440  D7FD               	goto	u2567
  2035                           opt subtitle "HI-TECH Software Omniscient Code Generator (Lite mode) build 49521"
  2036                           
  2037                           opt pagewidth 120
  2038  000442                     l1667:
  2039                           opt subtitle "HI-TECH Software Omniscient Code Generator (Lite mode) build 49521"
  2040  000442  6E46               	movwf	(??_main+0+0)&0ffh,c
  2041  000444  0E00               	movlw	low(0)
  2042  000446  6E26               	movwf	((c:_j)),c
  2043  000448  5046               	movf	(??_main+0+0)&0ffh,c,w
  2044                           opt subtitle "HI-TECH Software Omniscient Code Generator (Lite mode) build 49521"
  2045                           
  2046  00044A                     l1669:
  2047                           opt subtitle "HI-TECH Software Omniscient Code Generator (Lite mode) build 49521"
  2048  00044A  6E46               	movwf	(??_main+0+0)&0ffh,c
  2049  00044C  0E00               	movlw	low(0)
  2050  00044E  6E26               	movwf	((c:_j)),c
  2051  000450  5046               	movf	(??_main+0+0)&0ffh,c,w
  2052                           opt subtitle "HI-TECH Software Omniscient Code Generator (Lite mode) build 49521"
  2053  000452                     l1671:
  2054  000452  0E07               	movlw	(08h-1)
  2055  000454  6426               	cpfsgt	((c:_j)),c
  2056  000456  D001               	goto	u281
  2057  000458  D001               	goto	u280
  2058  00045A                     u281:
  2059  00045A  D002               	goto	l1675
  2060  00045C                     u280:
  2061  00045C  D018               	goto	l1685
  2062                           opt subtitle "HI-TECH Software Omniscient Code Generator (Lite mode) build 49521"
  2063  00045E                     l1673:
  2064  00045E  D017               	goto	l1685
  2065                           opt subtitle "HI-TECH Software Omniscient Code Generator (Lite mode) build 49521"
  2066                           
  2067  000460                     l199:
  2068                           opt subtitle "HI-TECH Software Omniscient Code Generator (Lite mode) build 49521"
  2069                           
  2070  000460                     l1675:
  2071                           opt subtitle "HI-TECH Software Omniscient Code Generator (Lite mode) build 49521"
  2072                           
  2073  000460  5049               	movf	((c:_R1)),c,w
  2074  000462  2449               	addwf	((c:_R1)),c,w
  2075  000464  6E49               	movwf	((c:_R1)),c
  2076                           opt subtitle "HI-TECH Software Omniscient Code Generator (Lite mode) build 49521"
  2077                           
  2078  000466                     l1677:
  2079                           opt subtitle "HI-TECH Software Omniscient Code Generator (Lite mode) build 49521"
  2080  000466  A0D8               	btfss	c:(32448/8),(32448)&7	;volatile
  2081  000468  D001               	goto	u291
  2082  00046A  D001               	goto	u290
  2083  00046C                     u291:
  2084  00046C  D002               	goto	l201
  2085  00046E                     u290:
  2086                           opt subtitle "HI-TECH Software Omniscient Code Generator (Lite mode) build 49521"
  2087                           
  2088  00046E                     l1679:
  2089                           opt subtitle "HI-TECH Software Omniscient Code Generator (Lite mode) build 49521"
  2090                           
  2091  00046E  8E83               	bsf	c:(31775/8),(31775)&7	;volatile
  2092                           opt subtitle "HI-TECH Software Omniscient Code Generator (Lite mode) build 49521"
  2093                           
  2094  000470  D001               	goto	l202
  2095                           opt subtitle "HI-TECH Software Omniscient Code Generator (Lite mode) build 49521"
  2096                           
  2097  000472                     l201:
  2098                           opt subtitle "HI-TECH Software Omniscient Code Generator (Lite mode) build 49521"
  2099                           
  2100                           opt pagewidth 120
  2101                           
  2102  000472  9E83               	bcf	c:(31775/8),(31775)&7	;volatile
  2103                           opt subtitle "HI-TECH Software Omniscient Code Generator (Lite mode) build 49521"
  2104                           
  2105  000474                     l202:
  2106                           opt subtitle "HI-TECH Software Omniscient Code Generator (Lite mode) build 49521"
  2107                           
  2108                           opt pagewidth 120
  2109  000474  8C83               	bsf	c:(31774/8),(31774)&7	;volatile
  2110                           opt subtitle "HI-TECH Software Omniscient Code Generator (Lite mode) build 49521"
  2111                           
  2112  000476  F000               	nop
  2113  000478  D000               	nop2	;2 cycle nop
  2114  00047A  D000               	nop2	;2 cycle nop
  2115                           opt subtitle "HI-TECH Software Omniscient Code Generator (Lite mode) build 49521"
  2116                           
  2117                           opt pagewidth 120
  2118  00047C  9C83               	bcf	c:(31774/8),(31774)&7	;volatile
  2119                           opt subtitle "HI-TECH Software Omniscient Code Generator (Lite mode) build 49521"
  2120                           
  2121  00047E  9E83               	bcf	c:(31775/8),(31775)&7	;volatile
  2122                           opt subtitle "HI-TECH Software Omniscient Code Generator (Lite mode) build 49521"
  2123                           
  2124  000480                     l1681:
  2125  000480  2A26               	incf	((c:_j)),c
  2126                           opt subtitle "HI-TECH Software Omniscient Code Generator (Lite mode) build 49521"
  2127  000482                     l1683:
  2128  000482  0E07               	movlw	(08h-1)
  2129  000484  6426               	cpfsgt	((c:_j)),c
  2130  000486  D001               	goto	u301
  2131  000488  D001               	goto	u300
  2132  00048A                     u301:
  2133  00048A  D7EA               	goto	l1675
  2134  00048C                     u300:
  2135  00048C  D000               	goto	l1685
  2136                           opt subtitle "HI-TECH Software Omniscient Code Generator (Lite mode) build 49521"
  2137  00048E                     l200:
  2138                           opt subtitle "HI-TECH Software Omniscient Code Generator (Lite mode) build 49521"
  2139                           
  2140  00048E                     l1685:
  2141                           opt subtitle "HI-TECH Software Omniscient Code Generator (Lite mode) build 49521"
  2142                           
  2143  00048E  6E46               	movwf	(??_main+0+0)&0ffh,c
  2144  000490  0E00               	movlw	low(0)
  2145  000492  6E25               	movwf	((c:_i)),c
  2146  000494  5046               	movf	(??_main+0+0)&0ffh,c,w
  2147                           opt subtitle "HI-TECH Software Omniscient Code Generator (Lite mode) build 49521"
  2148                           
  2149  000496  6E46               	movwf	(??_main+0+0)&0ffh,c
  2150  000498  0E00               	movlw	low(0)
  2151  00049A  6E25               	movwf	((c:_i)),c
  2152  00049C  5046               	movf	(??_main+0+0)&0ffh,c,w
  2153                           opt subtitle "HI-TECH Software Omniscient Code Generator (Lite mode) build 49521"
  2154  00049E                     l1687:
  2155  00049E  0E07               	movlw	(08h-1)
  2156  0004A0  6425               	cpfsgt	((c:_i)),c
  2157  0004A2  D001               	goto	u311
  2158  0004A4  D001               	goto	u310
  2159  0004A6                     u311:
  2160  0004A6  D002               	goto	l1691
  2161  0004A8                     u310:
  2162  0004A8  D017               	goto	l204
  2163                           opt subtitle "HI-TECH Software Omniscient Code Generator (Lite mode) build 49521"
  2164  0004AA                     l1689:
  2165  0004AA  D016               	goto	l204
  2166                           opt subtitle "HI-TECH Software Omniscient Code Generator (Lite mode) build 49521"
  2167                           
  2168  0004AC                     l203:
  2169                           opt subtitle "HI-TECH Software Omniscient Code Generator (Lite mode) build 49521"
  2170                           
  2171  0004AC                     l1691:
  2172                           opt subtitle "HI-TECH Software Omniscient Code Generator (Lite mode) build 49521"
  2173                           
  2174  0004AC  502A               	movf	((c:_temp)),c,w
  2175  0004AE  242A               	addwf	((c:_temp)),c,w
  2176  0004B0  6E2A               	movwf	((c:_temp)),c
  2177                           opt subtitle "HI-TECH Software Omniscient Code Generator (Lite mode) build 49521"
  2178                           
  2179  0004B2                     l1693:
  2180                           opt subtitle "HI-TECH Software Omniscient Code Generator (Lite mode) build 49521"
  2181  0004B2  A0D8               	btfss	c:(32448/8),(32448)&7	;volatile
  2182  0004B4  D001               	goto	u321
  2183  0004B6  D001               	goto	u320
  2184  0004B8                     u321:
  2185  0004B8  D002               	goto	l205
  2186  0004BA                     u320:
  2187                           opt subtitle "HI-TECH Software Omniscient Code Generator (Lite mode) build 49521"
  2188                           
  2189  0004BA                     l1695:
  2190                           opt subtitle "HI-TECH Software Omniscient Code Generator (Lite mode) build 49521"
  2191                           
  2192  0004BA  8E83               	bsf	c:(31775/8),(31775)&7	;volatile
  2193                           opt subtitle "HI-TECH Software Omniscient Code Generator (Lite mode) build 49521"
  2194                           
  2195  0004BC  D001               	goto	l206
  2196                           opt subtitle "HI-TECH Software Omniscient Code Generator (Lite mode) build 49521"
  2197                           
  2198  0004BE                     l205:
  2199                           opt subtitle "HI-TECH Software Omniscient Code Generator (Lite mode) build 49521"
  2200                           
  2201                           opt pagewidth 120
  2202                           
  2203  0004BE  9E83               	bcf	c:(31775/8),(31775)&7	;volatile
  2204                           opt subtitle "HI-TECH Software Omniscient Code Generator (Lite mode) build 49521"
  2205                           
  2206  0004C0                     l206:
  2207                           opt subtitle "HI-TECH Software Omniscient Code Generator (Lite mode) build 49521"
  2208                           
  2209                           opt pagewidth 120
  2210  0004C0  8C83               	bsf	c:(31774/8),(31774)&7	;volatile
  2211                           opt subtitle "HI-TECH Software Omniscient Code Generator (Lite mode) build 49521"
  2212                           
  2213  0004C2  F000               	nop
  2214  0004C4  D000               	nop2	;2 cycle nop
  2215  0004C6  D000               	nop2	;2 cycle nop
  2216                           opt subtitle "HI-TECH Software Omniscient Code Generator (Lite mode) build 49521"
  2217                           
  2218                           opt pagewidth 120
  2219  0004C8  9C83               	bcf	c:(31774/8),(31774)&7	;volatile
  2220                           opt subtitle "HI-TECH Software Omniscient Code Generator (Lite mode) build 49521"
  2221                           
  2222  0004CA  9E83               	bcf	c:(31775/8),(31775)&7	;volatile
  2223                           opt subtitle "HI-TECH Software Omniscient Code Generator (Lite mode) build 49521"
  2224                           
  2225  0004CC                     l1697:
  2226  0004CC  2A25               	incf	((c:_i)),c
  2227                           opt subtitle "HI-TECH Software Omniscient Code Generator (Lite mode) build 49521"
  2228  0004CE                     l1699:
  2229  0004CE  0E07               	movlw	(08h-1)
  2230  0004D0  6425               	cpfsgt	((c:_i)),c
  2231  0004D2  D001               	goto	u331
  2232  0004D4  D001               	goto	u330
  2233  0004D6                     u331:
  2234  0004D6  D7EA               	goto	l1691
  2235  0004D8                     u330:
  2236                           opt subtitle "HI-TECH Software Omniscient Code Generator (Lite mode) build 49521"
  2237  0004D8                     l204:
  2238                           opt subtitle "HI-TECH Software Omniscient Code Generator (Lite mode) build 49521"
  2239                           
  2240                           opt pagewidth 120
  2241  0004D8  8A83               	bsf	c:(31773/8),(31773)&7	;volatile
  2242                           opt subtitle "HI-TECH Software Omniscient Code Generator (Lite mode) build 49521"
  2243                           
  2244  0004DA                     l1701:
  2245                           opt subtitle "HI-TECH Software Omniscient Code Generator (Lite mode) build 49521"
  2246  0004DA  6E46               	movwf	(??_main+0+0)&0ffh,c
  2247  0004DC  0E11               	movlw	low(011h)
  2248  0004DE  6E49               	movwf	((c:_R1)),c
  2249  0004E0  5046               	movf	(??_main+0+0)&0ffh,c,w
  2250                           opt subtitle "HI-TECH Software Omniscient Code Generator (Lite mode) build 49521"
  2251                           
  2252  0004E2                     l1703:
  2253                           opt subtitle "HI-TECH Software Omniscient Code Generator (Lite mode) build 49521"
  2254  0004E2  661A               	tstfsz	((c:_coagmode)),c
  2255  0004E4  D001               	goto	u341
  2256  0004E6  D001               	goto	u340
  2257  0004E8                     u341:
  2258  0004E8  D022               	goto	l1719
  2259  0004EA                     u340:
  2260                           opt subtitle "HI-TECH Software Omniscient Code Generator (Lite mode) build 49521"
  2261                           
  2262  0004EA                     l1705:
  2263                           opt subtitle "HI-TECH Software Omniscient Code Generator (Lite mode) build 49521"
  2264                           
  2265  0004EA  6E46               	movwf	(??_main+0+0)&0ffh,c
  2266  0004EC  0E00               	movlw	low(0)
  2267  0004EE  6E25               	movwf	((c:_i)),c
  2268  0004F0  5046               	movf	(??_main+0+0)&0ffh,c,w
  2269                           opt subtitle "HI-TECH Software Omniscient Code Generator (Lite mode) build 49521"
  2270                           
  2271  0004F2  D017               	goto	l1717
  2272                           opt subtitle "HI-TECH Software Omniscient Code Generator (Lite mode) build 49521"
  2273  0004F4                     l209:
  2274                           opt subtitle "HI-TECH Software Omniscient Code Generator (Lite mode) build 49521"
  2275                           
  2276                           opt pagewidth 120
  2277  0004F4  D008               	goto	l1711
  2278                           opt subtitle "HI-TECH Software Omniscient Code Generator (Lite mode) build 49521"
  2279  0004F6                     l211:
  2280                           opt subtitle "HI-TECH Software Omniscient Code Generator (Lite mode) build 49521"
  2281                           
  2282                           opt pagewidth 120
  2283  0004F6  8883               	bsf	c:(31772/8),(31772)&7	;volatile
  2284                           opt subtitle "HI-TECH Software Omniscient Code Generator (Lite mode) build 49521"
  2285                           
  2286  0004F8  D000               		nop2	;2 cycle nop
  2287  0004FA  D000               	nop2	;2 cycle nop
  2288  0004FC  D000               	nop2	;2 cycle nop
  2289                           opt subtitle "HI-TECH Software Omniscient Code Generator (Lite mode) build 49521"
  2290                           
  2291                           opt pagewidth 120
  2292  0004FE                     l1707:
  2293                           opt subtitle "HI-TECH Software Omniscient Code Generator (Lite mode) build 49521"
  2294  0004FE  2825               	incf	((c:_i)),c,w
  2295  000500  6E25               	movwf	((c:_i)),c
  2296                           opt subtitle "HI-TECH Software Omniscient Code Generator (Lite mode) build 49521"
  2297                           
  2298  000502                     l1709:
  2299                           opt subtitle "HI-TECH Software Omniscient Code Generator (Lite mode) build 49521"
  2300  000502  9883               	bcf	c:(31772/8),(31772)&7	;volatile
  2301  000504  D000               	goto	l1711
  2302                           opt subtitle "HI-TECH Software Omniscient Code Generator (Lite mode) build 49521"
  2303                           
  2304  000506                     l210:
  2305                           opt subtitle "HI-TECH Software Omniscient Code Generator (Lite mode) build 49521"
  2306                           
  2307  000506                     l1711:
  2308  000506  5025               	movf	((c:_i)),c,w
  2309  000508  B4D8               	btfsc	status,2
  2310  00050A  D001               	goto	u351
  2311  00050C  D001               	goto	u350
  2312  00050E                     u351:
  2313  00050E  D7F3               	goto	l211
  2314  000510                     u350:
  2315  000510  D000               	goto	l1713
  2316                           opt subtitle "HI-TECH Software Omniscient Code Generator (Lite mode) build 49521"
  2317  000512                     l212:
  2318                           opt subtitle "HI-TECH Software Omniscient Code Generator (Lite mode) build 49521"
  2319                           
  2320  000512                     l1713:
  2321                           opt subtitle "HI-TECH Software Omniscient Code Generator (Lite mode) build 49521"
  2322                           
  2323  000512  0E14               	movlw	20
  2324  000514                     u2577:
  2325  000514  2EE8               decfsz	wreg,f
  2326  000516  D7FE               	goto	u2577
  2327                           opt subtitle "HI-TECH Software Omniscient Code Generator (Lite mode) build 49521"
  2328                           
  2329                           opt pagewidth 120
  2330  000518                     l1715:
  2331                           opt subtitle "HI-TECH Software Omniscient Code Generator (Lite mode) build 49521"
  2332  000518  6E46               	movwf	(??_main+0+0)&0ffh,c
  2333  00051A  0E00               	movlw	low(0)
  2334  00051C  6E25               	movwf	((c:_i)),c
  2335  00051E  5046               	movf	(??_main+0+0)&0ffh,c,w
  2336  000520  D000               	goto	l1717
  2337                           opt subtitle "HI-TECH Software Omniscient Code Generator (Lite mode) build 49521"
  2338                           
  2339  000522                     l208:
  2340                           opt subtitle "HI-TECH Software Omniscient Code Generator (Lite mode) build 49521"
  2341                           
  2342  000522                     l1717:
  2343  000522  A280               	btfss	c:(31745/8),(31745)&7	;volatile
  2344  000524  D001               	goto	u361
  2345  000526  D001               	goto	u360
  2346  000528                     u361:
  2347  000528  D7EE               	goto	l1711
  2348  00052A                     u360:
  2349  00052A  D001               	goto	l1719
  2350                           opt subtitle "HI-TECH Software Omniscient Code Generator (Lite mode) build 49521"
  2351  00052C                     l213:
  2352  00052C  D000               	goto	l1719
  2353                           opt subtitle "HI-TECH Software Omniscient Code Generator (Lite mode) build 49521"
  2354                           
  2355  00052E                     l207:
  2356                           opt subtitle "HI-TECH Software Omniscient Code Generator (Lite mode) build 49521"
  2357                           
  2358  00052E                     l1719:
  2359                           opt subtitle "HI-TECH Software Omniscient Code Generator (Lite mode) build 49521"
  2360                           
  2361                           opt pagewidth 120
  2362  00052E  041A               	decf	((c:_coagmode)),c,w
  2363                           opt subtitle "HI-TECH Software Omniscient Code Generator (Lite mode) build 49521"
  2364  000530  A4D8               	btfss	status,2
  2365  000532  D001               	goto	u371
  2366  000534  D001               	goto	u370
  2367  000536                     u371:
  2368  000536  D023               	goto	l1735
  2369  000538                     u370:
  2370                           opt subtitle "HI-TECH Software Omniscient Code Generator (Lite mode) build 49521"
  2371                           
  2372  000538                     l1721:
  2373                           opt subtitle "HI-TECH Software Omniscient Code Generator (Lite mode) build 49521"
  2374                           
  2375  000538  6E46               	movwf	(??_main+0+0)&0ffh,c
  2376  00053A  0E00               	movlw	low(0)
  2377  00053C  6E25               	movwf	((c:_i)),c
  2378  00053E  5046               	movf	(??_main+0+0)&0ffh,c,w
  2379                           opt subtitle "HI-TECH Software Omniscient Code Generator (Lite mode) build 49521"
  2380                           
  2381  000540  D018               	goto	l1733
  2382                           opt subtitle "HI-TECH Software Omniscient Code Generator (Lite mode) build 49521"
  2383  000542                     l216:
  2384                           opt subtitle "HI-TECH Software Omniscient Code Generator (Lite mode) build 49521"
  2385                           
  2386                           opt pagewidth 120
  2387  000542  D008               	goto	l1727
  2388                           opt subtitle "HI-TECH Software Omniscient Code Generator (Lite mode) build 49521"
  2389  000544                     l218:
  2390                           opt subtitle "HI-TECH Software Omniscient Code Generator (Lite mode) build 49521"
  2391                           
  2392                           opt pagewidth 120
  2393  000544  8883               	bsf	c:(31772/8),(31772)&7	;volatile
  2394                           opt subtitle "HI-TECH Software Omniscient Code Generator (Lite mode) build 49521"
  2395                           
  2396  000546  D000               		nop2	;2 cycle nop
  2397  000548  D000               	nop2	;2 cycle nop
  2398  00054A  D000               	nop2	;2 cycle nop
  2399                           opt subtitle "HI-TECH Software Omniscient Code Generator (Lite mode) build 49521"
  2400                           
  2401                           opt pagewidth 120
  2402  00054C                     l1723:
  2403                           opt subtitle "HI-TECH Software Omniscient Code Generator (Lite mode) build 49521"
  2404  00054C  2825               	incf	((c:_i)),c,w
  2405  00054E  6E25               	movwf	((c:_i)),c
  2406                           opt subtitle "HI-TECH Software Omniscient Code Generator (Lite mode) build 49521"
  2407                           
  2408  000550                     l1725:
  2409                           opt subtitle "HI-TECH Software Omniscient Code Generator (Lite mode) build 49521"
  2410  000550  9883               	bcf	c:(31772/8),(31772)&7	;volatile
  2411  000552  D000               	goto	l1727
  2412                           opt subtitle "HI-TECH Software Omniscient Code Generator (Lite mode) build 49521"
  2413                           
  2414  000554                     l217:
  2415                           opt subtitle "HI-TECH Software Omniscient Code Generator (Lite mode) build 49521"
  2416                           
  2417  000554                     l1727:
  2418  000554  0E02               	movlw	(03h-1)
  2419  000556  6425               	cpfsgt	((c:_i)),c
  2420  000558  D001               	goto	u381
  2421  00055A  D001               	goto	u380
  2422  00055C                     u381:
  2423  00055C  D7F3               	goto	l218
  2424  00055E                     u380:
  2425  00055E  D000               	goto	l1729
  2426                           opt subtitle "HI-TECH Software Omniscient Code Generator (Lite mode) build 49521"
  2427  000560                     l219:
  2428                           opt subtitle "HI-TECH Software Omniscient Code Generator (Lite mode) build 49521"
  2429                           
  2430  000560                     l1729:
  2431                           opt subtitle "HI-TECH Software Omniscient Code Generator (Lite mode) build 49521"
  2432                           
  2433  000560  0E0A               	movlw	10
  2434  000562                     u2587:
  2435  000562  F000               	nop
  2436  000564  2EE8               decfsz	wreg,f
  2437  000566  D7FD               	goto	u2587
  2438                           opt subtitle "HI-TECH Software Omniscient Code Generator (Lite mode) build 49521"
  2439                           
  2440                           opt pagewidth 120
  2441  000568                     l1731:
  2442                           opt subtitle "HI-TECH Software Omniscient Code Generator (Lite mode) build 49521"
  2443  000568  6E46               	movwf	(??_main+0+0)&0ffh,c
  2444  00056A  0E00               	movlw	low(0)
  2445  00056C  6E25               	movwf	((c:_i)),c
  2446  00056E  5046               	movf	(??_main+0+0)&0ffh,c,w
  2447  000570  D000               	goto	l1733
  2448                           opt subtitle "HI-TECH Software Omniscient Code Generator (Lite mode) build 49521"
  2449                           
  2450  000572                     l215:
  2451                           opt subtitle "HI-TECH Software Omniscient Code Generator (Lite mode) build 49521"
  2452                           
  2453  000572                     l1733:
  2454  000572  A280               	btfss	c:(31745/8),(31745)&7	;volatile
  2455  000574  D001               	goto	u391
  2456  000576  D001               	goto	u390
  2457  000578                     u391:
  2458  000578  D7ED               	goto	l1727
  2459  00057A                     u390:
  2460  00057A  D001               	goto	l1735
  2461                           opt subtitle "HI-TECH Software Omniscient Code Generator (Lite mode) build 49521"
  2462  00057C                     l220:
  2463  00057C  D000               	goto	l1735
  2464                           opt subtitle "HI-TECH Software Omniscient Code Generator (Lite mode) build 49521"
  2465                           
  2466  00057E                     l214:
  2467                           opt subtitle "HI-TECH Software Omniscient Code Generator (Lite mode) build 49521"
  2468                           
  2469  00057E                     l1735:
  2470                           opt subtitle "HI-TECH Software Omniscient Code Generator (Lite mode) build 49521"
  2471                           
  2472                           opt pagewidth 120
  2473  00057E  501A               	movf	((c:_coagmode)),c,w
  2474  000580  0A02               	xorlw	2
  2475                           opt subtitle "HI-TECH Software Omniscient Code Generator (Lite mode) build 49521"
  2476  000582  A4D8               	btfss	status,2
  2477  000584  D001               	goto	u401
  2478  000586  D001               	goto	u400
  2479  000588                     u401:
  2480  000588  D023               	goto	l196
  2481  00058A                     u400:
  2482                           opt subtitle "HI-TECH Software Omniscient Code Generator (Lite mode) build 49521"
  2483                           
  2484  00058A                     l1737:
  2485                           opt subtitle "HI-TECH Software Omniscient Code Generator (Lite mode) build 49521"
  2486                           
  2487  00058A  6E46               	movwf	(??_main+0+0)&0ffh,c
  2488  00058C  0E00               	movlw	low(0)
  2489  00058E  6E25               	movwf	((c:_i)),c
  2490  000590  5046               	movf	(??_main+0+0)&0ffh,c,w
  2491                           opt subtitle "HI-TECH Software Omniscient Code Generator (Lite mode) build 49521"
  2492                           
  2493  000592  D017               	goto	l1749
  2494                           opt subtitle "HI-TECH Software Omniscient Code Generator (Lite mode) build 49521"
  2495  000594                     l223:
  2496                           opt subtitle "HI-TECH Software Omniscient Code Generator (Lite mode) build 49521"
  2497                           
  2498                           opt pagewidth 120
  2499  000594  D008               	goto	l1743
  2500                           opt subtitle "HI-TECH Software Omniscient Code Generator (Lite mode) build 49521"
  2501  000596                     l225:
  2502                           opt subtitle "HI-TECH Software Omniscient Code Generator (Lite mode) build 49521"
  2503                           
  2504                           opt pagewidth 120
  2505  000596  8883               	bsf	c:(31772/8),(31772)&7	;volatile
  2506                           opt subtitle "HI-TECH Software Omniscient Code Generator (Lite mode) build 49521"
  2507                           
  2508  000598  D000               		nop2	;2 cycle nop
  2509  00059A  D000               	nop2	;2 cycle nop
  2510  00059C  D000               	nop2	;2 cycle nop
  2511                           opt subtitle "HI-TECH Software Omniscient Code Generator (Lite mode) build 49521"
  2512                           
  2513                           opt pagewidth 120
  2514  00059E                     l1739:
  2515                           opt subtitle "HI-TECH Software Omniscient Code Generator (Lite mode) build 49521"
  2516  00059E  2825               	incf	((c:_i)),c,w
  2517  0005A0  6E25               	movwf	((c:_i)),c
  2518                           opt subtitle "HI-TECH Software Omniscient Code Generator (Lite mode) build 49521"
  2519                           
  2520  0005A2                     l1741:
  2521                           opt subtitle "HI-TECH Software Omniscient Code Generator (Lite mode) build 49521"
  2522  0005A2  9883               	bcf	c:(31772/8),(31772)&7	;volatile
  2523  0005A4  D000               	goto	l1743
  2524                           opt subtitle "HI-TECH Software Omniscient Code Generator (Lite mode) build 49521"
  2525                           
  2526  0005A6                     l224:
  2527                           opt subtitle "HI-TECH Software Omniscient Code Generator (Lite mode) build 49521"
  2528                           
  2529  0005A6                     l1743:
  2530  0005A6  0E03               	movlw	(04h-1)
  2531  0005A8  6425               	cpfsgt	((c:_i)),c
  2532  0005AA  D001               	goto	u411
  2533  0005AC  D001               	goto	u410
  2534  0005AE                     u411:
  2535  0005AE  D7F3               	goto	l225
  2536  0005B0                     u410:
  2537  0005B0  D000               	goto	l1745
  2538                           opt subtitle "HI-TECH Software Omniscient Code Generator (Lite mode) build 49521"
  2539  0005B2                     l226:
  2540                           opt subtitle "HI-TECH Software Omniscient Code Generator (Lite mode) build 49521"
  2541                           
  2542  0005B2                     l1745:
  2543                           opt subtitle "HI-TECH Software Omniscient Code Generator (Lite mode) build 49521"
  2544                           
  2545  0005B2  0E0A               	movlw	10
  2546  0005B4                     u2597:
  2547  0005B4  2EE8               decfsz	wreg,f
  2548  0005B6  D7FE               	goto	u2597
  2549                           opt subtitle "HI-TECH Software Omniscient Code Generator (Lite mode) build 49521"
  2550                           
  2551                           opt pagewidth 120
  2552  0005B8                     l1747:
  2553                           opt subtitle "HI-TECH Software Omniscient Code Generator (Lite mode) build 49521"
  2554  0005B8  6E46               	movwf	(??_main+0+0)&0ffh,c
  2555  0005BA  0E00               	movlw	low(0)
  2556  0005BC  6E25               	movwf	((c:_i)),c
  2557  0005BE  5046               	movf	(??_main+0+0)&0ffh,c,w
  2558  0005C0  D000               	goto	l1749
  2559                           opt subtitle "HI-TECH Software Omniscient Code Generator (Lite mode) build 49521"
  2560                           
  2561  0005C2                     l222:
  2562                           opt subtitle "HI-TECH Software Omniscient Code Generator (Lite mode) build 49521"
  2563                           
  2564  0005C2                     l1749:
  2565  0005C2  A280               	btfss	c:(31745/8),(31745)&7	;volatile
  2566  0005C4  D001               	goto	u421
  2567  0005C6  D001               	goto	u420
  2568  0005C8                     u421:
  2569  0005C8  D7EE               	goto	l1743
  2570  0005CA                     u420:
  2571  0005CA  D002               	goto	l196
  2572                           opt subtitle "HI-TECH Software Omniscient Code Generator (Lite mode) build 49521"
  2573  0005CC                     l227:
  2574  0005CC  D001               	goto	l196
  2575                           opt subtitle "HI-TECH Software Omniscient Code Generator (Lite mode) build 49521"
  2576                           
  2577  0005CE                     l221:
  2578  0005CE  D000               	goto	l196
  2579                           opt subtitle "HI-TECH Software Omniscient Code Generator (Lite mode) build 49521"
  2580                           
  2581  0005D0                     l198:
  2582                           opt subtitle "HI-TECH Software Omniscient Code Generator (Lite mode) build 49521"
  2583                           
  2584  0005D0                     l196:
  2585                           opt subtitle "HI-TECH Software Omniscient Code Generator (Lite mode) build 49521"
  2586                           
  2587                           opt pagewidth 120
  2588                           
  2589                           	opt lm
  2590                           
  2591  0005D0  B480               	btfsc	c:(31746/8),(31746)&7	;volatile
  2592  0005D2  D001               	goto	u431
  2593  0005D4  D001               	goto	u430
  2594  0005D6                     u431:
  2595  0005D6  D0B3               	goto	l228
  2596  0005D8                     u430:
  2597                           opt subtitle "HI-TECH Software Omniscient Code Generator (Lite mode) build 49521"
  2598                           
  2599  0005D8                     l1751:
  2600                           opt subtitle "HI-TECH Software Omniscient Code Generator (Lite mode) build 49521"
  2601                           
  2602  0005D8  5017               	movf	((c:_bipomode)),c,w
  2603  0005DA  0A02               	xorlw	2
  2604                           opt subtitle "HI-TECH Software Omniscient Code Generator (Lite mode) build 49521"
  2605  0005DC  A4D8               	btfss	status,2
  2606  0005DE  D001               	goto	u441
  2607  0005E0  D001               	goto	u440
  2608  0005E2                     u441:
  2609  0005E2  D005               	goto	l229
  2610  0005E4                     u440:
  2611                           opt subtitle "HI-TECH Software Omniscient Code Generator (Lite mode) build 49521"
  2612                           
  2613  0005E4                     l1753:
  2614                           opt subtitle "HI-TECH Software Omniscient Code Generator (Lite mode) build 49521"
  2615                           
  2616  0005E4  6E46               	movwf	(??_main+0+0)&0ffh,c
  2617  0005E6  0E00               	movlw	low(0)
  2618  0005E8  6E17               	movwf	((c:_bipomode)),c
  2619  0005EA  5046               	movf	(??_main+0+0)&0ffh,c,w
  2620                           opt subtitle "HI-TECH Software Omniscient Code Generator (Lite mode) build 49521"
  2621                           
  2622  0005EC  D0A8               	goto	l228
  2623                           opt subtitle "HI-TECH Software Omniscient Code Generator (Lite mode) build 49521"
  2624                           
  2625  0005EE                     l229:
  2626                           opt subtitle "HI-TECH Software Omniscient Code Generator (Lite mode) build 49521"
  2627                           
  2628                           opt pagewidth 120
  2629                           
  2630  0005EE  8481               	bsf	c:(31754/8),(31754)&7	;volatile
  2631                           opt subtitle "HI-TECH Software Omniscient Code Generator (Lite mode) build 49521"
  2632                           
  2633  0005F0                     l1755:
  2634                           opt subtitle "HI-TECH Software Omniscient Code Generator (Lite mode) build 49521"
  2635  0005F0  0E05               	movlw	5
  2636  0005F2                     u2607:
  2637  0005F2  F000               	nop
  2638  0005F4  2EE8               decfsz	wreg,f
  2639  0005F6  D7FD               	goto	u2607
  2640                           opt subtitle "HI-TECH Software Omniscient Code Generator (Lite mode) build 49521"
  2641                           
  2642                           opt pagewidth 120
  2643  0005F8                     l1757:
  2644                           opt subtitle "HI-TECH Software Omniscient Code Generator (Lite mode) build 49521"
  2645  0005F8  C018  F02A         	movff	(c:_bipopower),(c:_temp)
  2646                           opt subtitle "HI-TECH Software Omniscient Code Generator (Lite mode) build 49521"
  2647                           
  2648  0005FC                     l1759:
  2649                           opt subtitle "HI-TECH Software Omniscient Code Generator (Lite mode) build 49521"
  2650  0005FC  1E2A               	comf	((c:_temp)),c
  2651                           opt subtitle "HI-TECH Software Omniscient Code Generator (Lite mode) build 49521"
  2652                           
  2653  0005FE                     l1761:
  2654                           opt subtitle "HI-TECH Software Omniscient Code Generator (Lite mode) build 49521"
  2655  0005FE  9A83               	bcf	c:(31773/8),(31773)&7	;volatile
  2656                           opt subtitle "HI-TECH Software Omniscient Code Generator (Lite mode) build 49521"
  2657                           
  2658  000600                     l1763:
  2659                           opt subtitle "HI-TECH Software Omniscient Code Generator (Lite mode) build 49521"
  2660  000600  0E05               	movlw	5
  2661  000602                     u2617:
  2662  000602  F000               	nop
  2663  000604  2EE8               decfsz	wreg,f
  2664  000606  D7FD               	goto	u2617
  2665                           opt subtitle "HI-TECH Software Omniscient Code Generator (Lite mode) build 49521"
  2666                           
  2667                           opt pagewidth 120
  2668  000608                     l1765:
  2669                           opt subtitle "HI-TECH Software Omniscient Code Generator (Lite mode) build 49521"
  2670  000608  6E46               	movwf	(??_main+0+0)&0ffh,c
  2671  00060A  0E00               	movlw	low(0)
  2672  00060C  6E26               	movwf	((c:_j)),c
  2673  00060E  5046               	movf	(??_main+0+0)&0ffh,c,w
  2674                           opt subtitle "HI-TECH Software Omniscient Code Generator (Lite mode) build 49521"
  2675                           
  2676  000610                     l1767:
  2677                           opt subtitle "HI-TECH Software Omniscient Code Generator (Lite mode) build 49521"
  2678  000610  6E46               	movwf	(??_main+0+0)&0ffh,c
  2679  000612  0E00               	movlw	low(0)
  2680  000614  6E26               	movwf	((c:_j)),c
  2681  000616  5046               	movf	(??_main+0+0)&0ffh,c,w
  2682                           opt subtitle "HI-TECH Software Omniscient Code Generator (Lite mode) build 49521"
  2683  000618                     l1769:
  2684  000618  0E07               	movlw	(08h-1)
  2685  00061A  6426               	cpfsgt	((c:_j)),c
  2686  00061C  D001               	goto	u451
  2687  00061E  D001               	goto	u450
  2688  000620                     u451:
  2689  000620  D002               	goto	l1773
  2690  000622                     u450:
  2691  000622  D018               	goto	l1783
  2692                           opt subtitle "HI-TECH Software Omniscient Code Generator (Lite mode) build 49521"
  2693  000624                     l1771:
  2694  000624  D017               	goto	l1783
  2695                           opt subtitle "HI-TECH Software Omniscient Code Generator (Lite mode) build 49521"
  2696                           
  2697  000626                     l231:
  2698                           opt subtitle "HI-TECH Software Omniscient Code Generator (Lite mode) build 49521"
  2699                           
  2700  000626                     l1773:
  2701                           opt subtitle "HI-TECH Software Omniscient Code Generator (Lite mode) build 49521"
  2702                           
  2703  000626  5049               	movf	((c:_R1)),c,w
  2704  000628  2449               	addwf	((c:_R1)),c,w
  2705  00062A  6E49               	movwf	((c:_R1)),c
  2706                           opt subtitle "HI-TECH Software Omniscient Code Generator (Lite mode) build 49521"
  2707                           
  2708  00062C                     l1775:
  2709                           opt subtitle "HI-TECH Software Omniscient Code Generator (Lite mode) build 49521"
  2710  00062C  A0D8               	btfss	c:(32448/8),(32448)&7	;volatile
  2711  00062E  D001               	goto	u461
  2712  000630  D001               	goto	u460
  2713  000632                     u461:
  2714  000632  D002               	goto	l233
  2715  000634                     u460:
  2716                           opt subtitle "HI-TECH Software Omniscient Code Generator (Lite mode) build 49521"
  2717                           
  2718  000634                     l1777:
  2719                           opt subtitle "HI-TECH Software Omniscient Code Generator (Lite mode) build 49521"
  2720                           
  2721  000634  8E83               	bsf	c:(31775/8),(31775)&7	;volatile
  2722                           opt subtitle "HI-TECH Software Omniscient Code Generator (Lite mode) build 49521"
  2723                           
  2724  000636  D001               	goto	l234
  2725                           opt subtitle "HI-TECH Software Omniscient Code Generator (Lite mode) build 49521"
  2726                           
  2727  000638                     l233:
  2728                           opt subtitle "HI-TECH Software Omniscient Code Generator (Lite mode) build 49521"
  2729                           
  2730                           opt pagewidth 120
  2731                           
  2732  000638  9E83               	bcf	c:(31775/8),(31775)&7	;volatile
  2733                           opt subtitle "HI-TECH Software Omniscient Code Generator (Lite mode) build 49521"
  2734                           
  2735  00063A                     l234:
  2736                           opt subtitle "HI-TECH Software Omniscient Code Generator (Lite mode) build 49521"
  2737                           
  2738                           opt pagewidth 120
  2739  00063A  8C83               	bsf	c:(31774/8),(31774)&7	;volatile
  2740                           opt subtitle "HI-TECH Software Omniscient Code Generator (Lite mode) build 49521"
  2741                           
  2742  00063C  F000               	nop
  2743  00063E  D000               	nop2	;2 cycle nop
  2744  000640  D000               	nop2	;2 cycle nop
  2745                           opt subtitle "HI-TECH Software Omniscient Code Generator (Lite mode) build 49521"
  2746                           
  2747                           opt pagewidth 120
  2748  000642  9C83               	bcf	c:(31774/8),(31774)&7	;volatile
  2749                           opt subtitle "HI-TECH Software Omniscient Code Generator (Lite mode) build 49521"
  2750                           
  2751  000644  9E83               	bcf	c:(31775/8),(31775)&7	;volatile
  2752                           opt subtitle "HI-TECH Software Omniscient Code Generator (Lite mode) build 49521"
  2753                           
  2754  000646                     l1779:
  2755  000646  2A26               	incf	((c:_j)),c
  2756                           opt subtitle "HI-TECH Software Omniscient Code Generator (Lite mode) build 49521"
  2757  000648                     l1781:
  2758  000648  0E07               	movlw	(08h-1)
  2759  00064A  6426               	cpfsgt	((c:_j)),c
  2760  00064C  D001               	goto	u471
  2761  00064E  D001               	goto	u470
  2762  000650                     u471:
  2763  000650  D7EA               	goto	l1773
  2764  000652                     u470:
  2765  000652  D000               	goto	l1783
  2766                           opt subtitle "HI-TECH Software Omniscient Code Generator (Lite mode) build 49521"
  2767  000654                     l232:
  2768                           opt subtitle "HI-TECH Software Omniscient Code Generator (Lite mode) build 49521"
  2769                           
  2770  000654                     l1783:
  2771                           opt subtitle "HI-TECH Software Omniscient Code Generator (Lite mode) build 49521"
  2772                           
  2773  000654  6E46               	movwf	(??_main+0+0)&0ffh,c
  2774  000656  0E00               	movlw	low(0)
  2775  000658  6E25               	movwf	((c:_i)),c
  2776  00065A  5046               	movf	(??_main+0+0)&0ffh,c,w
  2777                           opt subtitle "HI-TECH Software Omniscient Code Generator (Lite mode) build 49521"
  2778                           
  2779  00065C  6E46               	movwf	(??_main+0+0)&0ffh,c
  2780  00065E  0E00               	movlw	low(0)
  2781  000660  6E25               	movwf	((c:_i)),c
  2782  000662  5046               	movf	(??_main+0+0)&0ffh,c,w
  2783                           opt subtitle "HI-TECH Software Omniscient Code Generator (Lite mode) build 49521"
  2784  000664                     l1785:
  2785  000664  0E07               	movlw	(08h-1)
  2786  000666  6425               	cpfsgt	((c:_i)),c
  2787  000668  D001               	goto	u481
  2788  00066A  D001               	goto	u480
  2789  00066C                     u481:
  2790  00066C  D002               	goto	l1789
  2791  00066E                     u480:
  2792  00066E  D017               	goto	l236
  2793                           opt subtitle "HI-TECH Software Omniscient Code Generator (Lite mode) build 49521"
  2794  000670                     l1787:
  2795  000670  D016               	goto	l236
  2796                           opt subtitle "HI-TECH Software Omniscient Code Generator (Lite mode) build 49521"
  2797                           
  2798  000672                     l235:
  2799                           opt subtitle "HI-TECH Software Omniscient Code Generator (Lite mode) build 49521"
  2800                           
  2801  000672                     l1789:
  2802                           opt subtitle "HI-TECH Software Omniscient Code Generator (Lite mode) build 49521"
  2803                           
  2804  000672  502A               	movf	((c:_temp)),c,w
  2805  000674  242A               	addwf	((c:_temp)),c,w
  2806  000676  6E2A               	movwf	((c:_temp)),c
  2807                           opt subtitle "HI-TECH Software Omniscient Code Generator (Lite mode) build 49521"
  2808                           
  2809  000678                     l1791:
  2810                           opt subtitle "HI-TECH Software Omniscient Code Generator (Lite mode) build 49521"
  2811  000678  A0D8               	btfss	c:(32448/8),(32448)&7	;volatile
  2812  00067A  D001               	goto	u491
  2813  00067C  D001               	goto	u490
  2814  00067E                     u491:
  2815  00067E  D002               	goto	l237
  2816  000680                     u490:
  2817                           opt subtitle "HI-TECH Software Omniscient Code Generator (Lite mode) build 49521"
  2818                           
  2819  000680                     l1793:
  2820                           opt subtitle "HI-TECH Software Omniscient Code Generator (Lite mode) build 49521"
  2821                           
  2822  000680  8E83               	bsf	c:(31775/8),(31775)&7	;volatile
  2823                           opt subtitle "HI-TECH Software Omniscient Code Generator (Lite mode) build 49521"
  2824                           
  2825  000682  D001               	goto	l238
  2826                           opt subtitle "HI-TECH Software Omniscient Code Generator (Lite mode) build 49521"
  2827                           
  2828  000684                     l237:
  2829                           opt subtitle "HI-TECH Software Omniscient Code Generator (Lite mode) build 49521"
  2830                           
  2831                           opt pagewidth 120
  2832                           
  2833  000684  9E83               	bcf	c:(31775/8),(31775)&7	;volatile
  2834                           opt subtitle "HI-TECH Software Omniscient Code Generator (Lite mode) build 49521"
  2835                           
  2836  000686                     l238:
  2837                           opt subtitle "HI-TECH Software Omniscient Code Generator (Lite mode) build 49521"
  2838                           
  2839                           opt pagewidth 120
  2840  000686  8C83               	bsf	c:(31774/8),(31774)&7	;volatile
  2841                           opt subtitle "HI-TECH Software Omniscient Code Generator (Lite mode) build 49521"
  2842                           
  2843  000688  F000               	nop
  2844  00068A  D000               	nop2	;2 cycle nop
  2845  00068C  D000               	nop2	;2 cycle nop
  2846                           opt subtitle "HI-TECH Software Omniscient Code Generator (Lite mode) build 49521"
  2847                           
  2848                           opt pagewidth 120
  2849  00068E  9C83               	bcf	c:(31774/8),(31774)&7	;volatile
  2850                           opt subtitle "HI-TECH Software Omniscient Code Generator (Lite mode) build 49521"
  2851                           
  2852  000690  9E83               	bcf	c:(31775/8),(31775)&7	;volatile
  2853                           opt subtitle "HI-TECH Software Omniscient Code Generator (Lite mode) build 49521"
  2854                           
  2855  000692                     l1795:
  2856  000692  2A25               	incf	((c:_i)),c
  2857                           opt subtitle "HI-TECH Software Omniscient Code Generator (Lite mode) build 49521"
  2858  000694                     l1797:
  2859  000694  0E07               	movlw	(08h-1)
  2860  000696  6425               	cpfsgt	((c:_i)),c
  2861  000698  D001               	goto	u501
  2862  00069A  D001               	goto	u500
  2863  00069C                     u501:
  2864  00069C  D7EA               	goto	l1789
  2865  00069E                     u500:
  2866                           opt subtitle "HI-TECH Software Omniscient Code Generator (Lite mode) build 49521"
  2867  00069E                     l236:
  2868                           opt subtitle "HI-TECH Software Omniscient Code Generator (Lite mode) build 49521"
  2869                           
  2870                           opt pagewidth 120
  2871  00069E  8A83               	bsf	c:(31773/8),(31773)&7	;volatile
  2872                           opt subtitle "HI-TECH Software Omniscient Code Generator (Lite mode) build 49521"
  2873                           
  2874  0006A0                     l1799:
  2875                           opt subtitle "HI-TECH Software Omniscient Code Generator (Lite mode) build 49521"
  2876  0006A0  6E46               	movwf	(??_main+0+0)&0ffh,c
  2877  0006A2  0E11               	movlw	low(011h)
  2878  0006A4  6E49               	movwf	((c:_R1)),c
  2879  0006A6  5046               	movf	(??_main+0+0)&0ffh,c,w
  2880                           opt subtitle "HI-TECH Software Omniscient Code Generator (Lite mode) build 49521"
  2881                           
  2882  0006A8                     l1801:
  2883                           opt subtitle "HI-TECH Software Omniscient Code Generator (Lite mode) build 49521"
  2884  0006A8  6617               	tstfsz	((c:_bipomode)),c
  2885  0006AA  D001               	goto	u511
  2886  0006AC  D001               	goto	u510
  2887  0006AE                     u511:
  2888  0006AE  D022               	goto	l1817
  2889  0006B0                     u510:
  2890                           opt subtitle "HI-TECH Software Omniscient Code Generator (Lite mode) build 49521"
  2891                           
  2892  0006B0                     l1803:
  2893                           opt subtitle "HI-TECH Software Omniscient Code Generator (Lite mode) build 49521"
  2894                           
  2895  0006B0  6E46               	movwf	(??_main+0+0)&0ffh,c
  2896  0006B2  0E00               	movlw	low(0)
  2897  0006B4  6E25               	movwf	((c:_i)),c
  2898  0006B6  5046               	movf	(??_main+0+0)&0ffh,c,w
  2899                           opt subtitle "HI-TECH Software Omniscient Code Generator (Lite mode) build 49521"
  2900                           
  2901  0006B8  D017               	goto	l1815
  2902                           opt subtitle "HI-TECH Software Omniscient Code Generator (Lite mode) build 49521"
  2903  0006BA                     l241:
  2904                           opt subtitle "HI-TECH Software Omniscient Code Generator (Lite mode) build 49521"
  2905                           
  2906                           opt pagewidth 120
  2907  0006BA  D008               	goto	l1809
  2908                           opt subtitle "HI-TECH Software Omniscient Code Generator (Lite mode) build 49521"
  2909  0006BC                     l243:
  2910                           opt subtitle "HI-TECH Software Omniscient Code Generator (Lite mode) build 49521"
  2911                           
  2912                           opt pagewidth 120
  2913  0006BC  8883               	bsf	c:(31772/8),(31772)&7	;volatile
  2914                           opt subtitle "HI-TECH Software Omniscient Code Generator (Lite mode) build 49521"
  2915                           
  2916  0006BE  D000               		nop2	;2 cycle nop
  2917  0006C0  D000               	nop2	;2 cycle nop
  2918  0006C2  D000               	nop2	;2 cycle nop
  2919                           opt subtitle "HI-TECH Software Omniscient Code Generator (Lite mode) build 49521"
  2920                           
  2921                           opt pagewidth 120
  2922  0006C4                     l1805:
  2923                           opt subtitle "HI-TECH Software Omniscient Code Generator (Lite mode) build 49521"
  2924  0006C4  2825               	incf	((c:_i)),c,w
  2925  0006C6  6E25               	movwf	((c:_i)),c
  2926                           opt subtitle "HI-TECH Software Omniscient Code Generator (Lite mode) build 49521"
  2927                           
  2928  0006C8                     l1807:
  2929                           opt subtitle "HI-TECH Software Omniscient Code Generator (Lite mode) build 49521"
  2930  0006C8  9883               	bcf	c:(31772/8),(31772)&7	;volatile
  2931  0006CA  D000               	goto	l1809
  2932                           opt subtitle "HI-TECH Software Omniscient Code Generator (Lite mode) build 49521"
  2933                           
  2934  0006CC                     l242:
  2935                           opt subtitle "HI-TECH Software Omniscient Code Generator (Lite mode) build 49521"
  2936                           
  2937  0006CC                     l1809:
  2938  0006CC  5025               	movf	((c:_i)),c,w
  2939  0006CE  B4D8               	btfsc	status,2
  2940  0006D0  D001               	goto	u521
  2941  0006D2  D001               	goto	u520
  2942  0006D4                     u521:
  2943  0006D4  D7F3               	goto	l243
  2944  0006D6                     u520:
  2945  0006D6  D000               	goto	l1811
  2946                           opt subtitle "HI-TECH Software Omniscient Code Generator (Lite mode) build 49521"
  2947  0006D8                     l244:
  2948                           opt subtitle "HI-TECH Software Omniscient Code Generator (Lite mode) build 49521"
  2949                           
  2950  0006D8                     l1811:
  2951                           opt subtitle "HI-TECH Software Omniscient Code Generator (Lite mode) build 49521"
  2952                           
  2953  0006D8  0E14               	movlw	20
  2954  0006DA                     u2627:
  2955  0006DA  2EE8               decfsz	wreg,f
  2956  0006DC  D7FE               	goto	u2627
  2957                           opt subtitle "HI-TECH Software Omniscient Code Generator (Lite mode) build 49521"
  2958                           
  2959                           opt pagewidth 120
  2960  0006DE                     l1813:
  2961                           opt subtitle "HI-TECH Software Omniscient Code Generator (Lite mode) build 49521"
  2962  0006DE  6E46               	movwf	(??_main+0+0)&0ffh,c
  2963  0006E0  0E00               	movlw	low(0)
  2964  0006E2  6E25               	movwf	((c:_i)),c
  2965  0006E4  5046               	movf	(??_main+0+0)&0ffh,c,w
  2966  0006E6  D000               	goto	l1815
  2967                           opt subtitle "HI-TECH Software Omniscient Code Generator (Lite mode) build 49521"
  2968                           
  2969  0006E8                     l240:
  2970                           opt subtitle "HI-TECH Software Omniscient Code Generator (Lite mode) build 49521"
  2971                           
  2972  0006E8                     l1815:
  2973  0006E8  A480               	btfss	c:(31746/8),(31746)&7	;volatile
  2974  0006EA  D001               	goto	u531
  2975  0006EC  D001               	goto	u530
  2976  0006EE                     u531:
  2977  0006EE  D7EE               	goto	l1809
  2978  0006F0                     u530:
  2979  0006F0  D001               	goto	l1817
  2980                           opt subtitle "HI-TECH Software Omniscient Code Generator (Lite mode) build 49521"
  2981  0006F2                     l245:
  2982  0006F2  D000               	goto	l1817
  2983                           opt subtitle "HI-TECH Software Omniscient Code Generator (Lite mode) build 49521"
  2984                           
  2985  0006F4                     l239:
  2986                           opt subtitle "HI-TECH Software Omniscient Code Generator (Lite mode) build 49521"
  2987                           
  2988  0006F4                     l1817:
  2989                           opt subtitle "HI-TECH Software Omniscient Code Generator (Lite mode) build 49521"
  2990                           
  2991                           opt pagewidth 120
  2992  0006F4  0417               	decf	((c:_bipomode)),c,w
  2993                           opt subtitle "HI-TECH Software Omniscient Code Generator (Lite mode) build 49521"
  2994  0006F6  A4D8               	btfss	status,2
  2995  0006F8  D001               	goto	u541
  2996  0006FA  D001               	goto	u540
  2997  0006FC                     u541:
  2998  0006FC  D020               	goto	l228
  2999  0006FE                     u540:
  3000                           opt subtitle "HI-TECH Software Omniscient Code Generator (Lite mode) build 49521"
  3001                           
  3002  0006FE                     l1819:
  3003                           opt subtitle "HI-TECH Software Omniscient Code Generator (Lite mode) build 49521"
  3004                           
  3005  0006FE  6E46               	movwf	(??_main+0+0)&0ffh,c
  3006  000700  0E00               	movlw	low(0)
  3007  000702  6E25               	movwf	((c:_i)),c
  3008  000704  5046               	movf	(??_main+0+0)&0ffh,c,w
  3009                           opt subtitle "HI-TECH Software Omniscient Code Generator (Lite mode) build 49521"
  3010                           
  3011  000706  D014               	goto	l1829
  3012                           opt subtitle "HI-TECH Software Omniscient Code Generator (Lite mode) build 49521"
  3013  000708                     l248:
  3014                           opt subtitle "HI-TECH Software Omniscient Code Generator (Lite mode) build 49521"
  3015                           
  3016                           opt pagewidth 120
  3017  000708  D008               	goto	l1825
  3018                           opt subtitle "HI-TECH Software Omniscient Code Generator (Lite mode) build 49521"
  3019  00070A                     l250:
  3020                           opt subtitle "HI-TECH Software Omniscient Code Generator (Lite mode) build 49521"
  3021                           
  3022                           opt pagewidth 120
  3023  00070A  8883               	bsf	c:(31772/8),(31772)&7	;volatile
  3024                           opt subtitle "HI-TECH Software Omniscient Code Generator (Lite mode) build 49521"
  3025                           
  3026  00070C  D000               		nop2	;2 cycle nop
  3027  00070E  D000               	nop2	;2 cycle nop
  3028  000710  D000               	nop2	;2 cycle nop
  3029                           opt subtitle "HI-TECH Software Omniscient Code Generator (Lite mode) build 49521"
  3030                           
  3031                           opt pagewidth 120
  3032  000712                     l1821:
  3033                           opt subtitle "HI-TECH Software Omniscient Code Generator (Lite mode) build 49521"
  3034  000712  2825               	incf	((c:_i)),c,w
  3035  000714  6E25               	movwf	((c:_i)),c
  3036                           opt subtitle "HI-TECH Software Omniscient Code Generator (Lite mode) build 49521"
  3037                           
  3038  000716                     l1823:
  3039                           opt subtitle "HI-TECH Software Omniscient Code Generator (Lite mode) build 49521"
  3040  000716  9883               	bcf	c:(31772/8),(31772)&7	;volatile
  3041  000718  D000               	goto	l1825
  3042                           opt subtitle "HI-TECH Software Omniscient Code Generator (Lite mode) build 49521"
  3043                           
  3044  00071A                     l249:
  3045                           opt subtitle "HI-TECH Software Omniscient Code Generator (Lite mode) build 49521"
  3046                           
  3047  00071A                     l1825:
  3048  00071A  0E02               	movlw	(03h-1)
  3049  00071C  6425               	cpfsgt	((c:_i)),c
  3050  00071E  D001               	goto	u551
  3051  000720  D001               	goto	u550
  3052  000722                     u551:
  3053  000722  D7F3               	goto	l250
  3054  000724                     u550:
  3055  000724  D000               	goto	l1827
  3056                           opt subtitle "HI-TECH Software Omniscient Code Generator (Lite mode) build 49521"
  3057  000726                     l251:
  3058                           opt subtitle "HI-TECH Software Omniscient Code Generator (Lite mode) build 49521"
  3059                           
  3060  000726                     l1827:
  3061                           opt subtitle "HI-TECH Software Omniscient Code Generator (Lite mode) build 49521"
  3062                           
  3063  000726  0E0A               	movlw	10
  3064  000728                     u2637:
  3065  000728  F000               	nop
  3066  00072A  2EE8               decfsz	wreg,f
  3067  00072C  D7FD               	goto	u2637
  3068                           opt subtitle "HI-TECH Software Omniscient Code Generator (Lite mode) build 49521"
  3069  00072E  D000               	goto	l1829
  3070                           opt subtitle "HI-TECH Software Omniscient Code Generator (Lite mode) build 49521"
  3071                           
  3072  000730                     l247:
  3073                           opt subtitle "HI-TECH Software Omniscient Code Generator (Lite mode) build 49521"
  3074                           
  3075  000730                     l1829:
  3076  000730  A480               	btfss	c:(31746/8),(31746)&7	;volatile
  3077  000732  D001               	goto	u561
  3078  000734  D001               	goto	u560
  3079  000736                     u561:
  3080  000736  D7F1               	goto	l1825
  3081  000738                     u560:
  3082  000738  D002               	goto	l228
  3083                           opt subtitle "HI-TECH Software Omniscient Code Generator (Lite mode) build 49521"
  3084  00073A                     l252:
  3085  00073A  D001               	goto	l228
  3086                           opt subtitle "HI-TECH Software Omniscient Code Generator (Lite mode) build 49521"
  3087                           
  3088  00073C                     l246:
  3089  00073C  D000               	goto	l228
  3090                           opt subtitle "HI-TECH Software Omniscient Code Generator (Lite mode) build 49521"
  3091                           
  3092  00073E                     l230:
  3093                           opt subtitle "HI-TECH Software Omniscient Code Generator (Lite mode) build 49521"
  3094                           
  3095  00073E                     l228:
  3096                           opt subtitle "HI-TECH Software Omniscient Code Generator (Lite mode) build 49521"
  3097                           
  3098                           opt pagewidth 120
  3099                           
  3100                           	opt lm
  3101                           
  3102  00073E  B680               	btfsc	c:(31747/8),(31747)&7	;volatile
  3103  000740  D001               	goto	u571
  3104  000742  D001               	goto	u570
  3105  000744                     u571:
  3106  000744  D085               	goto	l1895
  3107  000746                     u570:
  3108                           opt subtitle "HI-TECH Software Omniscient Code Generator (Lite mode) build 49521"
  3109                           
  3110  000746                     l1831:
  3111                           opt subtitle "HI-TECH Software Omniscient Code Generator (Lite mode) build 49521"
  3112                           
  3113  000746  6E46               	movwf	(??_main+0+0)&0ffh,c
  3114  000748  0E02               	movlw	low(02h)
  3115  00074A  6E17               	movwf	((c:_bipomode)),c
  3116  00074C  5046               	movf	(??_main+0+0)&0ffh,c,w
  3117                           opt subtitle "HI-TECH Software Omniscient Code Generator (Lite mode) build 49521"
  3118                           
  3119  00074E                     l1833:
  3120                           opt subtitle "HI-TECH Software Omniscient Code Generator (Lite mode) build 49521"
  3121  00074E  8481               	bsf	c:(31754/8),(31754)&7	;volatile
  3122                           opt subtitle "HI-TECH Software Omniscient Code Generator (Lite mode) build 49521"
  3123                           
  3124  000750                     l1835:
  3125                           opt subtitle "HI-TECH Software Omniscient Code Generator (Lite mode) build 49521"
  3126  000750  0E05               	movlw	5
  3127  000752                     u2647:
  3128  000752  F000               	nop
  3129  000754  2EE8               decfsz	wreg,f
  3130  000756  D7FD               	goto	u2647
  3131                           opt subtitle "HI-TECH Software Omniscient Code Generator (Lite mode) build 49521"
  3132                           
  3133                           opt pagewidth 120
  3134  000758                     l1837:
  3135                           opt subtitle "HI-TECH Software Omniscient Code Generator (Lite mode) build 49521"
  3136  000758  C018  F02A         	movff	(c:_bipopower),(c:_temp)
  3137                           opt subtitle "HI-TECH Software Omniscient Code Generator (Lite mode) build 49521"
  3138                           
  3139  00075C                     l1839:
  3140                           opt subtitle "HI-TECH Software Omniscient Code Generator (Lite mode) build 49521"
  3141  00075C  1E2A               	comf	((c:_temp)),c
  3142                           opt subtitle "HI-TECH Software Omniscient Code Generator (Lite mode) build 49521"
  3143                           
  3144  00075E                     l1841:
  3145                           opt subtitle "HI-TECH Software Omniscient Code Generator (Lite mode) build 49521"
  3146  00075E  9A83               	bcf	c:(31773/8),(31773)&7	;volatile
  3147                           opt subtitle "HI-TECH Software Omniscient Code Generator (Lite mode) build 49521"
  3148                           
  3149  000760                     l1843:
  3150                           opt subtitle "HI-TECH Software Omniscient Code Generator (Lite mode) build 49521"
  3151  000760  6E46               	movwf	(??_main+0+0)&0ffh,c
  3152  000762  0E00               	movlw	low(0)
  3153  000764  6E26               	movwf	((c:_j)),c
  3154  000766  5046               	movf	(??_main+0+0)&0ffh,c,w
  3155                           opt subtitle "HI-TECH Software Omniscient Code Generator (Lite mode) build 49521"
  3156                           
  3157  000768                     l1845:
  3158                           opt subtitle "HI-TECH Software Omniscient Code Generator (Lite mode) build 49521"
  3159  000768  6E46               	movwf	(??_main+0+0)&0ffh,c
  3160  00076A  0E00               	movlw	low(0)
  3161  00076C  6E26               	movwf	((c:_j)),c
  3162  00076E  5046               	movf	(??_main+0+0)&0ffh,c,w
  3163                           opt subtitle "HI-TECH Software Omniscient Code Generator (Lite mode) build 49521"
  3164  000770                     l1847:
  3165  000770  0E07               	movlw	(08h-1)
  3166  000772  6426               	cpfsgt	((c:_j)),c
  3167  000774  D001               	goto	u581
  3168  000776  D001               	goto	u580
  3169  000778                     u581:
  3170  000778  D002               	goto	l1851
  3171  00077A                     u580:
  3172  00077A  D018               	goto	l1861
  3173                           opt subtitle "HI-TECH Software Omniscient Code Generator (Lite mode) build 49521"
  3174  00077C                     l1849:
  3175  00077C  D017               	goto	l1861
  3176                           opt subtitle "HI-TECH Software Omniscient Code Generator (Lite mode) build 49521"
  3177                           
  3178  00077E                     l254:
  3179                           opt subtitle "HI-TECH Software Omniscient Code Generator (Lite mode) build 49521"
  3180                           
  3181  00077E                     l1851:
  3182                           opt subtitle "HI-TECH Software Omniscient Code Generator (Lite mode) build 49521"
  3183                           
  3184  00077E  5049               	movf	((c:_R1)),c,w
  3185  000780  2449               	addwf	((c:_R1)),c,w
  3186  000782  6E49               	movwf	((c:_R1)),c
  3187                           opt subtitle "HI-TECH Software Omniscient Code Generator (Lite mode) build 49521"
  3188                           
  3189  000784                     l1853:
  3190                           opt subtitle "HI-TECH Software Omniscient Code Generator (Lite mode) build 49521"
  3191  000784  A0D8               	btfss	c:(32448/8),(32448)&7	;volatile
  3192  000786  D001               	goto	u591
  3193  000788  D001               	goto	u590
  3194  00078A                     u591:
  3195  00078A  D002               	goto	l256
  3196  00078C                     u590:
  3197                           opt subtitle "HI-TECH Software Omniscient Code Generator (Lite mode) build 49521"
  3198                           
  3199  00078C                     l1855:
  3200                           opt subtitle "HI-TECH Software Omniscient Code Generator (Lite mode) build 49521"
  3201                           
  3202  00078C  8E83               	bsf	c:(31775/8),(31775)&7	;volatile
  3203                           opt subtitle "HI-TECH Software Omniscient Code Generator (Lite mode) build 49521"
  3204                           
  3205  00078E  D001               	goto	l257
  3206                           opt subtitle "HI-TECH Software Omniscient Code Generator (Lite mode) build 49521"
  3207                           
  3208  000790                     l256:
  3209                           opt subtitle "HI-TECH Software Omniscient Code Generator (Lite mode) build 49521"
  3210                           
  3211                           opt pagewidth 120
  3212                           
  3213  000790  9E83               	bcf	c:(31775/8),(31775)&7	;volatile
  3214                           opt subtitle "HI-TECH Software Omniscient Code Generator (Lite mode) build 49521"
  3215                           
  3216  000792                     l257:
  3217                           opt subtitle "HI-TECH Software Omniscient Code Generator (Lite mode) build 49521"
  3218                           
  3219                           opt pagewidth 120
  3220  000792  8C83               	bsf	c:(31774/8),(31774)&7	;volatile
  3221                           opt subtitle "HI-TECH Software Omniscient Code Generator (Lite mode) build 49521"
  3222                           
  3223  000794  F000               	nop
  3224  000796  D000               	nop2	;2 cycle nop
  3225  000798  D000               	nop2	;2 cycle nop
  3226                           opt subtitle "HI-TECH Software Omniscient Code Generator (Lite mode) build 49521"
  3227                           
  3228                           opt pagewidth 120
  3229  00079A  9C83               	bcf	c:(31774/8),(31774)&7	;volatile
  3230                           opt subtitle "HI-TECH Software Omniscient Code Generator (Lite mode) build 49521"
  3231                           
  3232  00079C  9E83               	bcf	c:(31775/8),(31775)&7	;volatile
  3233                           opt subtitle "HI-TECH Software Omniscient Code Generator (Lite mode) build 49521"
  3234                           
  3235  00079E                     l1857:
  3236  00079E  2A26               	incf	((c:_j)),c
  3237                           opt subtitle "HI-TECH Software Omniscient Code Generator (Lite mode) build 49521"
  3238  0007A0                     l1859:
  3239  0007A0  0E07               	movlw	(08h-1)
  3240  0007A2  6426               	cpfsgt	((c:_j)),c
  3241  0007A4  D001               	goto	u601
  3242  0007A6  D001               	goto	u600
  3243  0007A8                     u601:
  3244  0007A8  D7EA               	goto	l1851
  3245  0007AA                     u600:
  3246  0007AA  D000               	goto	l1861
  3247                           opt subtitle "HI-TECH Software Omniscient Code Generator (Lite mode) build 49521"
  3248  0007AC                     l255:
  3249                           opt subtitle "HI-TECH Software Omniscient Code Generator (Lite mode) build 49521"
  3250                           
  3251  0007AC                     l1861:
  3252                           opt subtitle "HI-TECH Software Omniscient Code Generator (Lite mode) build 49521"
  3253                           
  3254  0007AC  6E46               	movwf	(??_main+0+0)&0ffh,c
  3255  0007AE  0E00               	movlw	low(0)
  3256  0007B0  6E25               	movwf	((c:_i)),c
  3257  0007B2  5046               	movf	(??_main+0+0)&0ffh,c,w
  3258                           opt subtitle "HI-TECH Software Omniscient Code Generator (Lite mode) build 49521"
  3259                           
  3260  0007B4  6E46               	movwf	(??_main+0+0)&0ffh,c
  3261  0007B6  0E00               	movlw	low(0)
  3262  0007B8  6E25               	movwf	((c:_i)),c
  3263  0007BA  5046               	movf	(??_main+0+0)&0ffh,c,w
  3264                           opt subtitle "HI-TECH Software Omniscient Code Generator (Lite mode) build 49521"
  3265  0007BC                     l1863:
  3266  0007BC  0E07               	movlw	(08h-1)
  3267  0007BE  6425               	cpfsgt	((c:_i)),c
  3268  0007C0  D001               	goto	u611
  3269  0007C2  D001               	goto	u610
  3270  0007C4                     u611:
  3271  0007C4  D002               	goto	l1867
  3272  0007C6                     u610:
  3273  0007C6  D017               	goto	l259
  3274                           opt subtitle "HI-TECH Software Omniscient Code Generator (Lite mode) build 49521"
  3275  0007C8                     l1865:
  3276  0007C8  D016               	goto	l259
  3277                           opt subtitle "HI-TECH Software Omniscient Code Generator (Lite mode) build 49521"
  3278                           
  3279  0007CA                     l258:
  3280                           opt subtitle "HI-TECH Software Omniscient Code Generator (Lite mode) build 49521"
  3281                           
  3282  0007CA                     l1867:
  3283                           opt subtitle "HI-TECH Software Omniscient Code Generator (Lite mode) build 49521"
  3284                           
  3285  0007CA  502A               	movf	((c:_temp)),c,w
  3286  0007CC  242A               	addwf	((c:_temp)),c,w
  3287  0007CE  6E2A               	movwf	((c:_temp)),c
  3288                           opt subtitle "HI-TECH Software Omniscient Code Generator (Lite mode) build 49521"
  3289                           
  3290  0007D0                     l1869:
  3291                           opt subtitle "HI-TECH Software Omniscient Code Generator (Lite mode) build 49521"
  3292  0007D0  A0D8               	btfss	c:(32448/8),(32448)&7	;volatile
  3293  0007D2  D001               	goto	u621
  3294  0007D4  D001               	goto	u620
  3295  0007D6                     u621:
  3296  0007D6  D002               	goto	l260
  3297  0007D8                     u620:
  3298                           opt subtitle "HI-TECH Software Omniscient Code Generator (Lite mode) build 49521"
  3299                           
  3300  0007D8                     l1871:
  3301                           opt subtitle "HI-TECH Software Omniscient Code Generator (Lite mode) build 49521"
  3302                           
  3303  0007D8  8E83               	bsf	c:(31775/8),(31775)&7	;volatile
  3304                           opt subtitle "HI-TECH Software Omniscient Code Generator (Lite mode) build 49521"
  3305                           
  3306  0007DA  D001               	goto	l261
  3307                           opt subtitle "HI-TECH Software Omniscient Code Generator (Lite mode) build 49521"
  3308                           
  3309  0007DC                     l260:
  3310                           opt subtitle "HI-TECH Software Omniscient Code Generator (Lite mode) build 49521"
  3311                           
  3312                           opt pagewidth 120
  3313                           
  3314  0007DC  9E83               	bcf	c:(31775/8),(31775)&7	;volatile
  3315                           opt subtitle "HI-TECH Software Omniscient Code Generator (Lite mode) build 49521"
  3316                           
  3317  0007DE                     l261:
  3318                           opt subtitle "HI-TECH Software Omniscient Code Generator (Lite mode) build 49521"
  3319                           
  3320                           opt pagewidth 120
  3321  0007DE  8C83               	bsf	c:(31774/8),(31774)&7	;volatile
  3322                           opt subtitle "HI-TECH Software Omniscient Code Generator (Lite mode) build 49521"
  3323                           
  3324  0007E0  F000               	nop
  3325  0007E2  D000               	nop2	;2 cycle nop
  3326  0007E4  D000               	nop2	;2 cycle nop
  3327                           opt subtitle "HI-TECH Software Omniscient Code Generator (Lite mode) build 49521"
  3328                           
  3329                           opt pagewidth 120
  3330  0007E6  9C83               	bcf	c:(31774/8),(31774)&7	;volatile
  3331                           opt subtitle "HI-TECH Software Omniscient Code Generator (Lite mode) build 49521"
  3332                           
  3333  0007E8  9E83               	bcf	c:(31775/8),(31775)&7	;volatile
  3334                           opt subtitle "HI-TECH Software Omniscient Code Generator (Lite mode) build 49521"
  3335                           
  3336  0007EA                     l1873:
  3337  0007EA  2A25               	incf	((c:_i)),c
  3338                           opt subtitle "HI-TECH Software Omniscient Code Generator (Lite mode) build 49521"
  3339  0007EC                     l1875:
  3340  0007EC  0E07               	movlw	(08h-1)
  3341  0007EE  6425               	cpfsgt	((c:_i)),c
  3342  0007F0  D001               	goto	u631
  3343  0007F2  D001               	goto	u630
  3344  0007F4                     u631:
  3345  0007F4  D7EA               	goto	l1867
  3346  0007F6                     u630:
  3347                           opt subtitle "HI-TECH Software Omniscient Code Generator (Lite mode) build 49521"
  3348  0007F6                     l259:
  3349                           opt subtitle "HI-TECH Software Omniscient Code Generator (Lite mode) build 49521"
  3350                           
  3351                           opt pagewidth 120
  3352  0007F6  8A83               	bsf	c:(31773/8),(31773)&7	;volatile
  3353                           opt subtitle "HI-TECH Software Omniscient Code Generator (Lite mode) build 49521"
  3354                           
  3355  0007F8  9481               	bcf	c:(31754/8),(31754)&7	;volatile
  3356                           opt subtitle "HI-TECH Software Omniscient Code Generator (Lite mode) build 49521"
  3357                           
  3358  0007FA                     l1877:
  3359                           opt subtitle "HI-TECH Software Omniscient Code Generator (Lite mode) build 49521"
  3360  0007FA  0E05               	movlw	5
  3361  0007FC                     u2657:
  3362  0007FC  F000               	nop
  3363  0007FE  2EE8               decfsz	wreg,f
  3364  000800  D7FD               	goto	u2657
  3365                           opt subtitle "HI-TECH Software Omniscient Code Generator (Lite mode) build 49521"
  3366                           
  3367                           opt pagewidth 120
  3368  000802                     l1879:
  3369                           opt subtitle "HI-TECH Software Omniscient Code Generator (Lite mode) build 49521"
  3370  000802  6E46               	movwf	(??_main+0+0)&0ffh,c
  3371  000804  0E11               	movlw	low(011h)
  3372  000806  6E49               	movwf	((c:_R1)),c
  3373  000808  5046               	movf	(??_main+0+0)&0ffh,c,w
  3374                           opt subtitle "HI-TECH Software Omniscient Code Generator (Lite mode) build 49521"
  3375                           
  3376  00080A                     l1881:
  3377                           opt subtitle "HI-TECH Software Omniscient Code Generator (Lite mode) build 49521"
  3378  00080A  6E46               	movwf	(??_main+0+0)&0ffh,c
  3379  00080C  0E00               	movlw	low(0)
  3380  00080E  6E25               	movwf	((c:_i)),c
  3381  000810  5046               	movf	(??_main+0+0)&0ffh,c,w
  3382                           opt subtitle "HI-TECH Software Omniscient Code Generator (Lite mode) build 49521"
  3383                           
  3384  000812  D018               	goto	l1893
  3385                           opt subtitle "HI-TECH Software Omniscient Code Generator (Lite mode) build 49521"
  3386  000814                     l263:
  3387                           opt subtitle "HI-TECH Software Omniscient Code Generator (Lite mode) build 49521"
  3388                           
  3389                           opt pagewidth 120
  3390  000814  D008               	goto	l1887
  3391                           opt subtitle "HI-TECH Software Omniscient Code Generator (Lite mode) build 49521"
  3392  000816                     l265:
  3393                           opt subtitle "HI-TECH Software Omniscient Code Generator (Lite mode) build 49521"
  3394                           
  3395                           opt pagewidth 120
  3396  000816  8883               	bsf	c:(31772/8),(31772)&7	;volatile
  3397                           opt subtitle "HI-TECH Software Omniscient Code Generator (Lite mode) build 49521"
  3398                           
  3399  000818  D000               		nop2	;2 cycle nop
  3400  00081A  D000               	nop2	;2 cycle nop
  3401  00081C  D000               	nop2	;2 cycle nop
  3402                           opt subtitle "HI-TECH Software Omniscient Code Generator (Lite mode) build 49521"
  3403                           
  3404                           opt pagewidth 120
  3405  00081E                     l1883:
  3406                           opt subtitle "HI-TECH Software Omniscient Code Generator (Lite mode) build 49521"
  3407  00081E  2825               	incf	((c:_i)),c,w
  3408  000820  6E25               	movwf	((c:_i)),c
  3409                           opt subtitle "HI-TECH Software Omniscient Code Generator (Lite mode) build 49521"
  3410                           
  3411  000822                     l1885:
  3412                           opt subtitle "HI-TECH Software Omniscient Code Generator (Lite mode) build 49521"
  3413  000822  9883               	bcf	c:(31772/8),(31772)&7	;volatile
  3414  000824  D000               	goto	l1887
  3415                           opt subtitle "HI-TECH Software Omniscient Code Generator (Lite mode) build 49521"
  3416                           
  3417  000826                     l264:
  3418                           opt subtitle "HI-TECH Software Omniscient Code Generator (Lite mode) build 49521"
  3419                           
  3420  000826                     l1887:
  3421  000826  0E02               	movlw	(03h-1)
  3422  000828  6425               	cpfsgt	((c:_i)),c
  3423  00082A  D001               	goto	u641
  3424  00082C  D001               	goto	u640
  3425  00082E                     u641:
  3426  00082E  D7F3               	goto	l265
  3427  000830                     u640:
  3428  000830  D000               	goto	l1889
  3429                           opt subtitle "HI-TECH Software Omniscient Code Generator (Lite mode) build 49521"
  3430  000832                     l266:
  3431                           opt subtitle "HI-TECH Software Omniscient Code Generator (Lite mode) build 49521"
  3432                           
  3433  000832                     l1889:
  3434                           opt subtitle "HI-TECH Software Omniscient Code Generator (Lite mode) build 49521"
  3435                           
  3436  000832  0E0A               	movlw	10
  3437  000834                     u2667:
  3438  000834  F000               	nop
  3439  000836  2EE8               decfsz	wreg,f
  3440  000838  D7FD               	goto	u2667
  3441                           opt subtitle "HI-TECH Software Omniscient Code Generator (Lite mode) build 49521"
  3442                           
  3443                           opt pagewidth 120
  3444  00083A                     l1891:
  3445                           opt subtitle "HI-TECH Software Omniscient Code Generator (Lite mode) build 49521"
  3446  00083A  6E46               	movwf	(??_main+0+0)&0ffh,c
  3447  00083C  0E00               	movlw	low(0)
  3448  00083E  6E25               	movwf	((c:_i)),c
  3449  000840  5046               	movf	(??_main+0+0)&0ffh,c,w
  3450  000842  D000               	goto	l1893
  3451                           opt subtitle "HI-TECH Software Omniscient Code Generator (Lite mode) build 49521"
  3452                           
  3453  000844                     l262:
  3454                           opt subtitle "HI-TECH Software Omniscient Code Generator (Lite mode) build 49521"
  3455                           
  3456  000844                     l1893:
  3457  000844  A680               	btfss	c:(31747/8),(31747)&7	;volatile
  3458  000846  D001               	goto	u651
  3459  000848  D001               	goto	u650
  3460  00084A                     u651:
  3461  00084A  D7ED               	goto	l1887
  3462  00084C                     u650:
  3463  00084C  D001               	goto	l1895
  3464                           opt subtitle "HI-TECH Software Omniscient Code Generator (Lite mode) build 49521"
  3465  00084E                     l267:
  3466  00084E  D000               	goto	l1895
  3467                           opt subtitle "HI-TECH Software Omniscient Code Generator (Lite mode) build 49521"
  3468                           
  3469  000850                     l253:
  3470                           opt subtitle "HI-TECH Software Omniscient Code Generator (Lite mode) build 49521"
  3471                           
  3472  000850                     l1895:
  3473                           opt subtitle "HI-TECH Software Omniscient Code Generator (Lite mode) build 49521"
  3474                           
  3475                           opt pagewidth 120
  3476  000850  5083               	movf	((c:3971)),c,w	;volatile
  3477  000852  0B0F               	andlw	low(0Fh)
  3478  000854  6E83               	movwf	((c:3971)),c	;volatile
  3479                           opt subtitle "HI-TECH Software Omniscient Code Generator (Lite mode) build 49521"
  3480                           
  3481  000856  5082               	movf	((c:3970)),c,w	;volatile
  3482  000858  0B7F               	andlw	low(07Fh)
  3483  00085A  6E82               	movwf	((c:3970)),c	;volatile
  3484                           opt subtitle "HI-TECH Software Omniscient Code Generator (Lite mode) build 49521"
  3485                           
  3486  00085C  5082               	movf	((c:3970)),c,w	;volatile
  3487  00085E  0A7F               	xorlw	127
  3488                           opt subtitle "HI-TECH Software Omniscient Code Generator (Lite mode) build 49521"
  3489  000860  A4D8               	btfss	status,2
  3490  000862  D001               	goto	u661
  3491  000864  D001               	goto	u660
  3492  000866                     u661:
  3493  000866  D00B               	goto	l1901
  3494  000868                     u660:
  3495                           opt subtitle "HI-TECH Software Omniscient Code Generator (Lite mode) build 49521"
  3496  000868                     l1897:
  3497  000868  5083               	movf	((c:3971)),c,w	;volatile
  3498  00086A  0A0F               	xorlw	15
  3499                           opt subtitle "HI-TECH Software Omniscient Code Generator (Lite mode) build 49521"
  3500  00086C  A4D8               	btfss	status,2
  3501  00086E  D001               	goto	u671
  3502  000870  D001               	goto	u670
  3503  000872                     u671:
  3504  000872  D005               	goto	l1901
  3505  000874                     u670:
  3506                           opt subtitle "HI-TECH Software Omniscient Code Generator (Lite mode) build 49521"
  3507                           
  3508  000874                     l1899:
  3509                           opt subtitle "HI-TECH Software Omniscient Code Generator (Lite mode) build 49521"
  3510                           
  3511                           opt pagewidth 120
  3512  000874  6E46               	movwf	(??_main+0+0)&0ffh,c
  3513  000876  0E00               	movlw	low(0)
  3514  000878  6E19               	movwf	((c:_cnt)),c
  3515  00087A  5046               	movf	(??_main+0+0)&0ffh,c,w
  3516  00087C  D000               	goto	l1901
  3517                           opt subtitle "HI-TECH Software Omniscient Code Generator (Lite mode) build 49521"
  3518                           
  3519  00087E                     l268:
  3520                           opt subtitle "HI-TECH Software Omniscient Code Generator (Lite mode) build 49521"
  3521                           
  3522  00087E                     l1901:
  3523                           opt subtitle "HI-TECH Software Omniscient Code Generator (Lite mode) build 49521"
  3524                           
  3525                           opt pagewidth 120
  3526  00087E  B082               	btfsc	c:(31760/8),(31760)&7	;volatile
  3527  000880  D001               	goto	u681
  3528  000882  D001               	goto	u680
  3529  000884                     u681:
  3530  000884  D01A               	goto	l269
  3531  000886                     u680:
  3532                           opt subtitle "HI-TECH Software Omniscient Code Generator (Lite mode) build 49521"
  3533  000886                     l1903:
  3534  000886  6619               	tstfsz	((c:_cnt)),c
  3535  000888  D001               	goto	u691
  3536  00088A  D001               	goto	u690
  3537  00088C                     u691:
  3538  00088C  D016               	goto	l269
  3539  00088E                     u690:
  3540                           opt subtitle "HI-TECH Software Omniscient Code Generator (Lite mode) build 49521"
  3541                           
  3542  00088E                     l1905:
  3543                           opt subtitle "HI-TECH Software Omniscient Code Generator (Lite mode) build 49521"
  3544                           
  3545  00088E  6E46               	movwf	(??_main+0+0)&0ffh,c
  3546  000890  0E00               	movlw	low(0)
  3547  000892  6E22               	movwf	((c:_debounce)),c
  3548  000894  5046               	movf	(??_main+0+0)&0ffh,c,w
  3549                           opt subtitle "HI-TECH Software Omniscient Code Generator (Lite mode) build 49521"
  3550  000896                     l1907:
  3551  000896  0E63               	movlw	(064h-1)
  3552  000898  6422               	cpfsgt	((c:_debounce)),c
  3553  00089A  D001               	goto	u701
  3554  00089C  D001               	goto	u700
  3555  00089E                     u701:
  3556  00089E  D002               	goto	l1911
  3557  0008A0                     u700:
  3558  0008A0  D00C               	goto	l269
  3559                           opt subtitle "HI-TECH Software Omniscient Code Generator (Lite mode) build 49521"
  3560  0008A2                     l1909:
  3561  0008A2  D00B               	goto	l269
  3562                           opt subtitle "HI-TECH Software Omniscient Code Generator (Lite mode) build 49521"
  3563                           
  3564  0008A4                     l270:
  3565                           opt subtitle "HI-TECH Software Omniscient Code Generator (Lite mode) build 49521"
  3566                           
  3567  0008A4                     l1911:
  3568                           opt subtitle "HI-TECH Software Omniscient Code Generator (Lite mode) build 49521"
  3569                           
  3570  0008A4  0E32               	movlw	50
  3571  0008A6                     u2677:
  3572  0008A6  F000               	nop
  3573  0008A8  2EE8               decfsz	wreg,f
  3574  0008AA  D7FD               	goto	u2677
  3575                           opt subtitle "HI-TECH Software Omniscient Code Generator (Lite mode) build 49521"
  3576                           
  3577                           opt pagewidth 120
  3578  0008AC                     l1913:
  3579  0008AC  2A22               	incf	((c:_debounce)),c
  3580                           opt subtitle "HI-TECH Software Omniscient Code Generator (Lite mode) build 49521"
  3581  0008AE                     l1915:
  3582  0008AE  0E63               	movlw	(064h-1)
  3583  0008B0  6422               	cpfsgt	((c:_debounce)),c
  3584  0008B2  D001               	goto	u711
  3585  0008B4  D001               	goto	u710
  3586  0008B6                     u711:
  3587  0008B6  D7F6               	goto	l1911
  3588  0008B8                     u710:
  3589  0008B8  D000               	goto	l269
  3590                           opt subtitle "HI-TECH Software Omniscient Code Generator (Lite mode) build 49521"
  3591  0008BA                     l271:
  3592                           opt subtitle "HI-TECH Software Omniscient Code Generator (Lite mode) build 49521"
  3593                           
  3594  0008BA                     l269:
  3595                           opt subtitle "HI-TECH Software Omniscient Code Generator (Lite mode) build 49521"
  3596                           
  3597                           opt pagewidth 120
  3598                           
  3599  0008BA  B082               	btfsc	c:(31760/8),(31760)&7	;volatile
  3600  0008BC  D001               	goto	u721
  3601  0008BE  D001               	goto	u720
  3602  0008C0                     u721:
  3603  0008C0  D069               	goto	l272
  3604  0008C2                     u720:
  3605                           opt subtitle "HI-TECH Software Omniscient Code Generator (Lite mode) build 49521"
  3606                           
  3607  0008C2                     l1917:
  3608                           opt subtitle "HI-TECH Software Omniscient Code Generator (Lite mode) build 49521"
  3609                           
  3610  0008C2  0E63               	movlw	(063h)&0ffh
  3611  0008C4  6027               	cpfslt	((c:_progno)),c
  3612  0008C6  D001               	goto	u731
  3613  0008C8  D001               	goto	u730
  3614  0008CA                     u731:
  3615  0008CA  D027               	goto	l1933
  3616  0008CC                     u730:
  3617                           opt subtitle "HI-TECH Software Omniscient Code Generator (Lite mode) build 49521"
  3618                           
  3619  0008CC                     l1919:
  3620                           opt subtitle "HI-TECH Software Omniscient Code Generator (Lite mode) build 49521"
  3621                           
  3622  0008CC  2827               	incf	((c:_progno)),c,w
  3623  0008CE  6E27               	movwf	((c:_progno)),c
  3624                           opt subtitle "HI-TECH Software Omniscient Code Generator (Lite mode) build 49521"
  3625                           
  3626  0008D0                     l1921:
  3627                           opt subtitle "HI-TECH Software Omniscient Code Generator (Lite mode) build 49521"
  3628  0008D0  C027  F03D         	movff	(c:_progno),(c:?___awdiv)
  3629  0008D4  6A3E               	clrf	((c:?___awdiv+1)),c
  3630  0008D6  0E00               	movlw	high(0Ah)
  3631  0008D8  6E40               	movwf	(1+((c:?___awdiv)+02h)),c
  3632  0008DA  0E0A               	movlw	low(0Ah)
  3633  0008DC  6E3F               	movwf	(0+((c:?___awdiv)+02h)),c
  3634  0008DE  EC8C  F00B         	call	___awdiv	;wreg free
  3635  0008E2  503D               	movf	(0+?___awdiv),c,w
  3636  0008E4  6E2B               	movwf	((c:_tens)),c
  3637                           opt subtitle "HI-TECH Software Omniscient Code Generator (Lite mode) build 49521"
  3638                           
  3639  0008E6                     l1923:
  3640                           opt subtitle "HI-TECH Software Omniscient Code Generator (Lite mode) build 49521"
  3641  0008E6  382B               	swapf	((c:_tens)),c,w
  3642  0008E8  0BF0               	andlw	(0ffh shl 4) & 0ffh
  3643  0008EA  6E2B               	movwf	((c:_tens)),c
  3644                           opt subtitle "HI-TECH Software Omniscient Code Generator (Lite mode) build 49521"
  3645                           
  3646  0008EC                     l1925:
  3647                           opt subtitle "HI-TECH Software Omniscient Code Generator (Lite mode) build 49521"
  3648  0008EC  C02B  F001         	movff	(c:_tens),(c:_values)	;volatile
  3649                           opt subtitle "HI-TECH Software Omniscient Code Generator (Lite mode) build 49521"
  3650                           
  3651  0008F0  C027  F03D         	movff	(c:_progno),(c:?___awmod)
  3652  0008F4  6A3E               	clrf	((c:?___awmod+1)),c
  3653  0008F6  0E00               	movlw	high(0Ah)
  3654  0008F8  6E40               	movwf	(1+((c:?___awmod)+02h)),c
  3655  0008FA  0E0A               	movlw	low(0Ah)
  3656  0008FC  6E3F               	movwf	(0+((c:?___awmod)+02h)),c
  3657  0008FE  EC42  F00C         	call	___awmod	;wreg free
  3658  000902  503D               	movf	(0+?___awmod),c,w
  3659  000904  6E2D               	movwf	((c:_units)),c
  3660                           opt subtitle "HI-TECH Software Omniscient Code Generator (Lite mode) build 49521"
  3661                           
  3662  000906                     l1927:
  3663                           opt subtitle "HI-TECH Software Omniscient Code Generator (Lite mode) build 49521"
  3664  000906  382D               	swapf	((c:_units)),c,w
  3665  000908  0BF0               	andlw	(0ffh shl 4) & 0ffh
  3666  00090A  6E2D               	movwf	((c:_units)),c
  3667                           opt subtitle "HI-TECH Software Omniscient Code Generator (Lite mode) build 49521"
  3668                           
  3669  00090C                     l1929:
  3670                           opt subtitle "HI-TECH Software Omniscient Code Generator (Lite mode) build 49521"
  3671  00090C  C02D  F002         	movff	(c:_units),0+((c:_values)+01h)	;volatile
  3672                           opt subtitle "HI-TECH Software Omniscient Code Generator (Lite mode) build 49521"
  3673                           
  3674  000910                     l1931:
  3675                           opt subtitle "HI-TECH Software Omniscient Code Generator (Lite mode) build 49521"
  3676  000910  6E46               	movwf	(??_main+0+0)&0ffh,c
  3677  000912  0E01               	movlw	low(01h)
  3678  000914  6E28               	movwf	((c:_rdfl)),c
  3679  000916  5046               	movf	(??_main+0+0)&0ffh,c,w
  3680  000918  D000               	goto	l1933
  3681                           opt subtitle "HI-TECH Software Omniscient Code Generator (Lite mode) build 49521"
  3682                           
  3683  00091A                     l273:
  3684                           opt subtitle "HI-TECH Software Omniscient Code Generator (Lite mode) build 49521"
  3685                           
  3686  00091A                     l1933:
  3687                           opt subtitle "HI-TECH Software Omniscient Code Generator (Lite mode) build 49521"
  3688                           
  3689  00091A  6619               	tstfsz	((c:_cnt)),c
  3690  00091C  D001               	goto	u741
  3691  00091E  D001               	goto	u740
  3692  000920                     u741:
  3693  000920  D01D               	goto	l1949
  3694  000922                     u740:
  3695                           opt subtitle "HI-TECH Software Omniscient Code Generator (Lite mode) build 49521"
  3696                           
  3697  000922                     l1935:
  3698                           opt subtitle "HI-TECH Software Omniscient Code Generator (Lite mode) build 49521"
  3699                           
  3700  000922  6E46               	movwf	(??_main+0+0)&0ffh,c
  3701  000924  0E00               	movlw	low(0)
  3702  000926  6E22               	movwf	((c:_debounce)),c
  3703  000928  5046               	movf	(??_main+0+0)&0ffh,c,w
  3704                           opt subtitle "HI-TECH Software Omniscient Code Generator (Lite mode) build 49521"
  3705  00092A                     l1937:
  3706  00092A  0EC8               	movlw	(0C9h-1)
  3707  00092C  6422               	cpfsgt	((c:_debounce)),c
  3708  00092E  D001               	goto	u751
  3709  000930  D001               	goto	u750
  3710  000932                     u751:
  3711  000932  D002               	goto	l1941
  3712  000934                     u750:
  3713  000934  D010               	goto	l1947
  3714                           opt subtitle "HI-TECH Software Omniscient Code Generator (Lite mode) build 49521"
  3715  000936                     l1939:
  3716  000936  D00F               	goto	l1947
  3717                           opt subtitle "HI-TECH Software Omniscient Code Generator (Lite mode) build 49521"
  3718                           
  3719  000938                     l275:
  3720                           opt subtitle "HI-TECH Software Omniscient Code Generator (Lite mode) build 49521"
  3721                           
  3722  000938                     l1941:
  3723                           opt subtitle "HI-TECH Software Omniscient Code Generator (Lite mode) build 49521"
  3724                           
  3725  000938  0E14               	movlw	20
  3726  00093A  6E46               movwf	(??_main+0+0)&0ffh,c,f
  3727  00093C  0E7D               	movlw	125
  3728  00093E                     u2687:
  3729  00093E  2EE8               	decfsz	wreg,f
  3730  000940  D7FE               	goto	u2687
  3731  000942  2E46               	decfsz	(??_main+0+0)&0ffh,c,f
  3732  000944  D7FC               	goto	u2687
  3733  000946  F000               	nop
  3734                           opt subtitle "HI-TECH Software Omniscient Code Generator (Lite mode) build 49521"
  3735                           
  3736                           opt pagewidth 120
  3737  000948                     l1943:
  3738  000948  2A22               	incf	((c:_debounce)),c
  3739                           opt subtitle "HI-TECH Software Omniscient Code Generator (Lite mode) build 49521"
  3740  00094A                     l1945:
  3741  00094A  0EC8               	movlw	(0C9h-1)
  3742  00094C  6422               	cpfsgt	((c:_debounce)),c
  3743  00094E  D001               	goto	u761
  3744  000950  D001               	goto	u760
  3745  000952                     u761:
  3746  000952  D7F2               	goto	l1941
  3747  000954                     u760:
  3748  000954  D000               	goto	l1947
  3749                           opt subtitle "HI-TECH Software Omniscient Code Generator (Lite mode) build 49521"
  3750  000956                     l276:
  3751                           opt subtitle "HI-TECH Software Omniscient Code Generator (Lite mode) build 49521"
  3752                           
  3753  000956                     l1947:
  3754                           opt subtitle "HI-TECH Software Omniscient Code Generator (Lite mode) build 49521"
  3755                           
  3756  000956  2819               	incf	((c:_cnt)),c,w
  3757  000958  6E19               	movwf	((c:_cnt)),c
  3758                           opt subtitle "HI-TECH Software Omniscient Code Generator (Lite mode) build 49521"
  3759                           
  3760  00095A  D01C               	goto	l272
  3761                           opt subtitle "HI-TECH Software Omniscient Code Generator (Lite mode) build 49521"
  3762                           
  3763  00095C                     l274:
  3764                           opt subtitle "HI-TECH Software Omniscient Code Generator (Lite mode) build 49521"
  3765                           
  3766  00095C                     l1949:
  3767                           opt subtitle "HI-TECH Software Omniscient Code Generator (Lite mode) build 49521"
  3768                           
  3769                           opt pagewidth 120
  3770  00095C  6E46               	movwf	(??_main+0+0)&0ffh,c
  3771  00095E  0E00               	movlw	low(0)
  3772  000960  6E22               	movwf	((c:_debounce)),c
  3773  000962  5046               	movf	(??_main+0+0)&0ffh,c,w
  3774                           opt subtitle "HI-TECH Software Omniscient Code Generator (Lite mode) build 49521"
  3775  000964                     l1951:
  3776  000964  0E64               	movlw	(065h-1)
  3777  000966  6422               	cpfsgt	((c:_debounce)),c
  3778  000968  D001               	goto	u771
  3779  00096A  D001               	goto	u770
  3780  00096C                     u771:
  3781  00096C  D002               	goto	l1955
  3782  00096E                     u770:
  3783  00096E  D012               	goto	l272
  3784                           opt subtitle "HI-TECH Software Omniscient Code Generator (Lite mode) build 49521"
  3785  000970                     l1953:
  3786  000970  D011               	goto	l272
  3787                           opt subtitle "HI-TECH Software Omniscient Code Generator (Lite mode) build 49521"
  3788                           
  3789  000972                     l278:
  3790                           opt subtitle "HI-TECH Software Omniscient Code Generator (Lite mode) build 49521"
  3791                           
  3792  000972                     l1955:
  3793                           opt subtitle "HI-TECH Software Omniscient Code Generator (Lite mode) build 49521"
  3794                           
  3795  000972  0E03               	movlw	3
  3796  000974  6E46               movwf	(??_main+0+0)&0ffh,c,f
  3797  000976  0EEB               	movlw	235
  3798  000978                     u2697:
  3799  000978  2EE8               	decfsz	wreg,f
  3800  00097A  D7FE               	goto	u2697
  3801  00097C  2E46               	decfsz	(??_main+0+0)&0ffh,c,f
  3802  00097E  D7FC               	goto	u2697
  3803  000980  D000               	nop2
  3804  000982  F000               	nop
  3805                           opt subtitle "HI-TECH Software Omniscient Code Generator (Lite mode) build 49521"
  3806                           
  3807                           opt pagewidth 120
  3808  000984                     l1957:
  3809  000984  2A22               	incf	((c:_debounce)),c
  3810                           opt subtitle "HI-TECH Software Omniscient Code Generator (Lite mode) build 49521"
  3811  000986                     l1959:
  3812  000986  0E64               	movlw	(065h-1)
  3813  000988  6422               	cpfsgt	((c:_debounce)),c
  3814  00098A  D001               	goto	u781
  3815  00098C  D001               	goto	u780
  3816  00098E                     u781:
  3817  00098E  D7F1               	goto	l1955
  3818  000990                     u780:
  3819  000990  D001               	goto	l272
  3820                           opt subtitle "HI-TECH Software Omniscient Code Generator (Lite mode) build 49521"
  3821  000992                     l279:
  3822  000992  D000               	goto	l272
  3823                           opt subtitle "HI-TECH Software Omniscient Code Generator (Lite mode) build 49521"
  3824                           
  3825  000994                     l277:
  3826                           opt subtitle "HI-TECH Software Omniscient Code Generator (Lite mode) build 49521"
  3827                           
  3828  000994                     l272:
  3829                           opt subtitle "HI-TECH Software Omniscient Code Generator (Lite mode) build 49521"
  3830                           
  3831                           opt pagewidth 120
  3832                           
  3833                           	opt lm
  3834  000994  B282               	btfsc	c:(31761/8),(31761)&7	;volatile
  3835  000996  D001               	goto	u791
  3836  000998  D001               	goto	u790
  3837  00099A                     u791:
  3838  00099A  D01A               	goto	l280
  3839  00099C                     u790:
  3840                           opt subtitle "HI-TECH Software Omniscient Code Generator (Lite mode) build 49521"
  3841  00099C                     l1961:
  3842  00099C  6619               	tstfsz	((c:_cnt)),c
  3843  00099E  D001               	goto	u801
  3844  0009A0  D001               	goto	u800
  3845  0009A2                     u801:
  3846  0009A2  D016               	goto	l280
  3847  0009A4                     u800:
  3848                           opt subtitle "HI-TECH Software Omniscient Code Generator (Lite mode) build 49521"
  3849                           
  3850  0009A4                     l1963:
  3851                           opt subtitle "HI-TECH Software Omniscient Code Generator (Lite mode) build 49521"
  3852                           
  3853  0009A4  6E46               	movwf	(??_main+0+0)&0ffh,c
  3854  0009A6  0E00               	movlw	low(0)
  3855  0009A8  6E22               	movwf	((c:_debounce)),c
  3856  0009AA  5046               	movf	(??_main+0+0)&0ffh,c,w
  3857                           opt subtitle "HI-TECH Software Omniscient Code Generator (Lite mode) build 49521"
  3858  0009AC                     l1965:
  3859  0009AC  0E63               	movlw	(064h-1)
  3860  0009AE  6422               	cpfsgt	((c:_debounce)),c
  3861  0009B0  D001               	goto	u811
  3862  0009B2  D001               	goto	u810
  3863  0009B4                     u811:
  3864  0009B4  D002               	goto	l1969
  3865  0009B6                     u810:
  3866  0009B6  D00C               	goto	l280
  3867                           opt subtitle "HI-TECH Software Omniscient Code Generator (Lite mode) build 49521"
  3868  0009B8                     l1967:
  3869  0009B8  D00B               	goto	l280
  3870                           opt subtitle "HI-TECH Software Omniscient Code Generator (Lite mode) build 49521"
  3871                           
  3872  0009BA                     l281:
  3873                           opt subtitle "HI-TECH Software Omniscient Code Generator (Lite mode) build 49521"
  3874                           
  3875  0009BA                     l1969:
  3876                           opt subtitle "HI-TECH Software Omniscient Code Generator (Lite mode) build 49521"
  3877                           
  3878  0009BA  0E32               	movlw	50
  3879  0009BC                     u2707:
  3880  0009BC  F000               	nop
  3881  0009BE  2EE8               decfsz	wreg,f
  3882  0009C0  D7FD               	goto	u2707
  3883                           opt subtitle "HI-TECH Software Omniscient Code Generator (Lite mode) build 49521"
  3884                           
  3885                           opt pagewidth 120
  3886  0009C2                     l1971:
  3887  0009C2  2A22               	incf	((c:_debounce)),c
  3888                           opt subtitle "HI-TECH Software Omniscient Code Generator (Lite mode) build 49521"
  3889  0009C4                     l1973:
  3890  0009C4  0E63               	movlw	(064h-1)
  3891  0009C6  6422               	cpfsgt	((c:_debounce)),c
  3892  0009C8  D001               	goto	u821
  3893  0009CA  D001               	goto	u820
  3894  0009CC                     u821:
  3895  0009CC  D7F6               	goto	l1969
  3896  0009CE                     u820:
  3897  0009CE  D000               	goto	l280
  3898                           opt subtitle "HI-TECH Software Omniscient Code Generator (Lite mode) build 49521"
  3899  0009D0                     l282:
  3900                           opt subtitle "HI-TECH Software Omniscient Code Generator (Lite mode) build 49521"
  3901                           
  3902  0009D0                     l280:
  3903                           opt subtitle "HI-TECH Software Omniscient Code Generator (Lite mode) build 49521"
  3904                           
  3905                           opt pagewidth 120
  3906                           
  3907  0009D0  B282               	btfsc	c:(31761/8),(31761)&7	;volatile
  3908  0009D2  D001               	goto	u831
  3909  0009D4  D001               	goto	u830
  3910  0009D6                     u831:
  3911  0009D6  D069               	goto	l283
  3912  0009D8                     u830:
  3913                           opt subtitle "HI-TECH Software Omniscient Code Generator (Lite mode) build 49521"
  3914                           
  3915  0009D8                     l1975:
  3916                           opt subtitle "HI-TECH Software Omniscient Code Generator (Lite mode) build 49521"
  3917                           
  3918  0009D8  5027               	movf	((c:_progno)),c,w
  3919  0009DA  B4D8               	btfsc	status,2
  3920  0009DC  D001               	goto	u841
  3921  0009DE  D001               	goto	u840
  3922  0009E0                     u841:
  3923  0009E0  D027               	goto	l1991
  3924  0009E2                     u840:
  3925                           opt subtitle "HI-TECH Software Omniscient Code Generator (Lite mode) build 49521"
  3926                           
  3927  0009E2                     l1977:
  3928                           opt subtitle "HI-TECH Software Omniscient Code Generator (Lite mode) build 49521"
  3929                           
  3930  0009E2  0427               	decf	((c:_progno)),c,w
  3931  0009E4  6E27               	movwf	((c:_progno)),c
  3932                           opt subtitle "HI-TECH Software Omniscient Code Generator (Lite mode) build 49521"
  3933                           
  3934  0009E6                     l1979:
  3935                           opt subtitle "HI-TECH Software Omniscient Code Generator (Lite mode) build 49521"
  3936  0009E6  C027  F03D         	movff	(c:_progno),(c:?___awdiv)
  3937  0009EA  6A3E               	clrf	((c:?___awdiv+1)),c
  3938  0009EC  0E00               	movlw	high(0Ah)
  3939  0009EE  6E40               	movwf	(1+((c:?___awdiv)+02h)),c
  3940  0009F0  0E0A               	movlw	low(0Ah)
  3941  0009F2  6E3F               	movwf	(0+((c:?___awdiv)+02h)),c
  3942  0009F4  EC8C  F00B         	call	___awdiv	;wreg free
  3943  0009F8  503D               	movf	(0+?___awdiv),c,w
  3944  0009FA  6E2B               	movwf	((c:_tens)),c
  3945                           opt subtitle "HI-TECH Software Omniscient Code Generator (Lite mode) build 49521"
  3946                           
  3947  0009FC                     l1981:
  3948                           opt subtitle "HI-TECH Software Omniscient Code Generator (Lite mode) build 49521"
  3949  0009FC  382B               	swapf	((c:_tens)),c,w
  3950  0009FE  0BF0               	andlw	(0ffh shl 4) & 0ffh
  3951  000A00  6E2B               	movwf	((c:_tens)),c
  3952                           opt subtitle "HI-TECH Software Omniscient Code Generator (Lite mode) build 49521"
  3953                           
  3954  000A02                     l1983:
  3955                           opt subtitle "HI-TECH Software Omniscient Code Generator (Lite mode) build 49521"
  3956  000A02  C02B  F001         	movff	(c:_tens),(c:_values)	;volatile
  3957                           opt subtitle "HI-TECH Software Omniscient Code Generator (Lite mode) build 49521"
  3958                           
  3959  000A06  C027  F03D         	movff	(c:_progno),(c:?___awmod)
  3960  000A0A  6A3E               	clrf	((c:?___awmod+1)),c
  3961  000A0C  0E00               	movlw	high(0Ah)
  3962  000A0E  6E40               	movwf	(1+((c:?___awmod)+02h)),c
  3963  000A10  0E0A               	movlw	low(0Ah)
  3964  000A12  6E3F               	movwf	(0+((c:?___awmod)+02h)),c
  3965  000A14  EC42  F00C         	call	___awmod	;wreg free
  3966  000A18  503D               	movf	(0+?___awmod),c,w
  3967  000A1A  6E2D               	movwf	((c:_units)),c
  3968                           opt subtitle "HI-TECH Software Omniscient Code Generator (Lite mode) build 49521"
  3969                           
  3970  000A1C                     l1985:
  3971                           opt subtitle "HI-TECH Software Omniscient Code Generator (Lite mode) build 49521"
  3972  000A1C  382D               	swapf	((c:_units)),c,w
  3973  000A1E  0BF0               	andlw	(0ffh shl 4) & 0ffh
  3974  000A20  6E2D               	movwf	((c:_units)),c
  3975                           opt subtitle "HI-TECH Software Omniscient Code Generator (Lite mode) build 49521"
  3976                           
  3977  000A22                     l1987:
  3978                           opt subtitle "HI-TECH Software Omniscient Code Generator (Lite mode) build 49521"
  3979  000A22  C02D  F002         	movff	(c:_units),0+((c:_values)+01h)	;volatile
  3980                           opt subtitle "HI-TECH Software Omniscient Code Generator (Lite mode) build 49521"
  3981                           
  3982  000A26                     l1989:
  3983                           opt subtitle "HI-TECH Software Omniscient Code Generator (Lite mode) build 49521"
  3984  000A26  6E46               	movwf	(??_main+0+0)&0ffh,c
  3985  000A28  0E01               	movlw	low(01h)
  3986  000A2A  6E28               	movwf	((c:_rdfl)),c
  3987  000A2C  5046               	movf	(??_main+0+0)&0ffh,c,w
  3988  000A2E  D000               	goto	l1991
  3989                           opt subtitle "HI-TECH Software Omniscient Code Generator (Lite mode) build 49521"
  3990                           
  3991  000A30                     l284:
  3992                           opt subtitle "HI-TECH Software Omniscient Code Generator (Lite mode) build 49521"
  3993                           
  3994  000A30                     l1991:
  3995                           opt subtitle "HI-TECH Software Omniscient Code Generator (Lite mode) build 49521"
  3996                           
  3997  000A30  6619               	tstfsz	((c:_cnt)),c
  3998  000A32  D001               	goto	u851
  3999  000A34  D001               	goto	u850
  4000  000A36                     u851:
  4001  000A36  D01D               	goto	l2007
  4002  000A38                     u850:
  4003                           opt subtitle "HI-TECH Software Omniscient Code Generator (Lite mode) build 49521"
  4004                           
  4005  000A38                     l1993:
  4006                           opt subtitle "HI-TECH Software Omniscient Code Generator (Lite mode) build 49521"
  4007                           
  4008  000A38  6E46               	movwf	(??_main+0+0)&0ffh,c
  4009  000A3A  0E00               	movlw	low(0)
  4010  000A3C  6E22               	movwf	((c:_debounce)),c
  4011  000A3E  5046               	movf	(??_main+0+0)&0ffh,c,w
  4012                           opt subtitle "HI-TECH Software Omniscient Code Generator (Lite mode) build 49521"
  4013  000A40                     l1995:
  4014  000A40  0EC8               	movlw	(0C9h-1)
  4015  000A42  6422               	cpfsgt	((c:_debounce)),c
  4016  000A44  D001               	goto	u861
  4017  000A46  D001               	goto	u860
  4018  000A48                     u861:
  4019  000A48  D002               	goto	l1999
  4020  000A4A                     u860:
  4021  000A4A  D010               	goto	l2005
  4022                           opt subtitle "HI-TECH Software Omniscient Code Generator (Lite mode) build 49521"
  4023  000A4C                     l1997:
  4024  000A4C  D00F               	goto	l2005
  4025                           opt subtitle "HI-TECH Software Omniscient Code Generator (Lite mode) build 49521"
  4026                           
  4027  000A4E                     l286:
  4028                           opt subtitle "HI-TECH Software Omniscient Code Generator (Lite mode) build 49521"
  4029                           
  4030  000A4E                     l1999:
  4031                           opt subtitle "HI-TECH Software Omniscient Code Generator (Lite mode) build 49521"
  4032                           
  4033  000A4E  0E14               	movlw	20
  4034  000A50  6E46               movwf	(??_main+0+0)&0ffh,c,f
  4035  000A52  0E7D               	movlw	125
  4036  000A54                     u2717:
  4037  000A54  2EE8               	decfsz	wreg,f
  4038  000A56  D7FE               	goto	u2717
  4039  000A58  2E46               	decfsz	(??_main+0+0)&0ffh,c,f
  4040  000A5A  D7FC               	goto	u2717
  4041  000A5C  F000               	nop
  4042                           opt subtitle "HI-TECH Software Omniscient Code Generator (Lite mode) build 49521"
  4043                           
  4044                           opt pagewidth 120
  4045  000A5E                     l2001:
  4046  000A5E  2A22               	incf	((c:_debounce)),c
  4047                           opt subtitle "HI-TECH Software Omniscient Code Generator (Lite mode) build 49521"
  4048  000A60                     l2003:
  4049  000A60  0EC8               	movlw	(0C9h-1)
  4050  000A62  6422               	cpfsgt	((c:_debounce)),c
  4051  000A64  D001               	goto	u871
  4052  000A66  D001               	goto	u870
  4053  000A68                     u871:
  4054  000A68  D7F2               	goto	l1999
  4055  000A6A                     u870:
  4056  000A6A  D000               	goto	l2005
  4057                           opt subtitle "HI-TECH Software Omniscient Code Generator (Lite mode) build 49521"
  4058  000A6C                     l287:
  4059                           opt subtitle "HI-TECH Software Omniscient Code Generator (Lite mode) build 49521"
  4060                           
  4061  000A6C                     l2005:
  4062                           opt subtitle "HI-TECH Software Omniscient Code Generator (Lite mode) build 49521"
  4063                           
  4064  000A6C  2819               	incf	((c:_cnt)),c,w
  4065  000A6E  6E19               	movwf	((c:_cnt)),c
  4066                           opt subtitle "HI-TECH Software Omniscient Code Generator (Lite mode) build 49521"
  4067                           
  4068  000A70  D01C               	goto	l283
  4069                           opt subtitle "HI-TECH Software Omniscient Code Generator (Lite mode) build 49521"
  4070                           
  4071  000A72                     l285:
  4072                           opt subtitle "HI-TECH Software Omniscient Code Generator (Lite mode) build 49521"
  4073                           
  4074  000A72                     l2007:
  4075                           opt subtitle "HI-TECH Software Omniscient Code Generator (Lite mode) build 49521"
  4076                           
  4077                           opt pagewidth 120
  4078  000A72  6E46               	movwf	(??_main+0+0)&0ffh,c
  4079  000A74  0E00               	movlw	low(0)
  4080  000A76  6E22               	movwf	((c:_debounce)),c
  4081  000A78  5046               	movf	(??_main+0+0)&0ffh,c,w
  4082                           opt subtitle "HI-TECH Software Omniscient Code Generator (Lite mode) build 49521"
  4083  000A7A                     l2009:
  4084  000A7A  0E64               	movlw	(065h-1)
  4085  000A7C  6422               	cpfsgt	((c:_debounce)),c
  4086  000A7E  D001               	goto	u881
  4087  000A80  D001               	goto	u880
  4088  000A82                     u881:
  4089  000A82  D002               	goto	l2013
  4090  000A84                     u880:
  4091  000A84  D012               	goto	l283
  4092                           opt subtitle "HI-TECH Software Omniscient Code Generator (Lite mode) build 49521"
  4093  000A86                     l2011:
  4094  000A86  D011               	goto	l283
  4095                           opt subtitle "HI-TECH Software Omniscient Code Generator (Lite mode) build 49521"
  4096                           
  4097  000A88                     l289:
  4098                           opt subtitle "HI-TECH Software Omniscient Code Generator (Lite mode) build 49521"
  4099                           
  4100  000A88                     l2013:
  4101                           opt subtitle "HI-TECH Software Omniscient Code Generator (Lite mode) build 49521"
  4102                           
  4103  000A88  0E03               	movlw	3
  4104  000A8A  6E46               movwf	(??_main+0+0)&0ffh,c,f
  4105  000A8C  0EEB               	movlw	235
  4106  000A8E                     u2727:
  4107  000A8E  2EE8               	decfsz	wreg,f
  4108  000A90  D7FE               	goto	u2727
  4109  000A92  2E46               	decfsz	(??_main+0+0)&0ffh,c,f
  4110  000A94  D7FC               	goto	u2727
  4111  000A96  D000               	nop2
  4112  000A98  F000               	nop
  4113                           opt subtitle "HI-TECH Software Omniscient Code Generator (Lite mode) build 49521"
  4114                           
  4115                           opt pagewidth 120
  4116  000A9A                     l2015:
  4117  000A9A  2A22               	incf	((c:_debounce)),c
  4118                           opt subtitle "HI-TECH Software Omniscient Code Generator (Lite mode) build 49521"
  4119  000A9C                     l2017:
  4120  000A9C  0E64               	movlw	(065h-1)
  4121  000A9E  6422               	cpfsgt	((c:_debounce)),c
  4122  000AA0  D001               	goto	u891
  4123  000AA2  D001               	goto	u890
  4124  000AA4                     u891:
  4125  000AA4  D7F1               	goto	l2013
  4126  000AA6                     u890:
  4127  000AA6  D001               	goto	l283
  4128                           opt subtitle "HI-TECH Software Omniscient Code Generator (Lite mode) build 49521"
  4129  000AA8                     l290:
  4130  000AA8  D000               	goto	l283
  4131                           opt subtitle "HI-TECH Software Omniscient Code Generator (Lite mode) build 49521"
  4132                           
  4133  000AAA                     l288:
  4134                           opt subtitle "HI-TECH Software Omniscient Code Generator (Lite mode) build 49521"
  4135                           
  4136  000AAA                     l283:
  4137                           opt subtitle "HI-TECH Software Omniscient Code Generator (Lite mode) build 49521"
  4138                           
  4139                           opt pagewidth 120
  4140                           
  4141                           	opt lm
  4142  000AAA  B482               	btfsc	c:(31762/8),(31762)&7	;volatile
  4143  000AAC  D001               	goto	u901
  4144  000AAE  D001               	goto	u900
  4145  000AB0                     u901:
  4146  000AB0  D01A               	goto	l291
  4147  000AB2                     u900:
  4148                           opt subtitle "HI-TECH Software Omniscient Code Generator (Lite mode) build 49521"
  4149  000AB2                     l2019:
  4150  000AB2  6619               	tstfsz	((c:_cnt)),c
  4151  000AB4  D001               	goto	u911
  4152  000AB6  D001               	goto	u910
  4153  000AB8                     u911:
  4154  000AB8  D016               	goto	l291
  4155  000ABA                     u910:
  4156                           opt subtitle "HI-TECH Software Omniscient Code Generator (Lite mode) build 49521"
  4157                           
  4158  000ABA                     l2021:
  4159                           opt subtitle "HI-TECH Software Omniscient Code Generator (Lite mode) build 49521"
  4160                           
  4161  000ABA  6E46               	movwf	(??_main+0+0)&0ffh,c
  4162  000ABC  0E00               	movlw	low(0)
  4163  000ABE  6E22               	movwf	((c:_debounce)),c
  4164  000AC0  5046               	movf	(??_main+0+0)&0ffh,c,w
  4165                           opt subtitle "HI-TECH Software Omniscient Code Generator (Lite mode) build 49521"
  4166  000AC2                     l2023:
  4167  000AC2  0E63               	movlw	(064h-1)
  4168  000AC4  6422               	cpfsgt	((c:_debounce)),c
  4169  000AC6  D001               	goto	u921
  4170  000AC8  D001               	goto	u920
  4171  000ACA                     u921:
  4172  000ACA  D002               	goto	l2027
  4173  000ACC                     u920:
  4174  000ACC  D00C               	goto	l291
  4175                           opt subtitle "HI-TECH Software Omniscient Code Generator (Lite mode) build 49521"
  4176  000ACE                     l2025:
  4177  000ACE  D00B               	goto	l291
  4178                           opt subtitle "HI-TECH Software Omniscient Code Generator (Lite mode) build 49521"
  4179                           
  4180  000AD0                     l292:
  4181                           opt subtitle "HI-TECH Software Omniscient Code Generator (Lite mode) build 49521"
  4182                           
  4183  000AD0                     l2027:
  4184                           opt subtitle "HI-TECH Software Omniscient Code Generator (Lite mode) build 49521"
  4185                           
  4186  000AD0  0E32               	movlw	50
  4187  000AD2                     u2737:
  4188  000AD2  F000               	nop
  4189  000AD4  2EE8               decfsz	wreg,f
  4190  000AD6  D7FD               	goto	u2737
  4191                           opt subtitle "HI-TECH Software Omniscient Code Generator (Lite mode) build 49521"
  4192                           
  4193                           opt pagewidth 120
  4194  000AD8                     l2029:
  4195  000AD8  2A22               	incf	((c:_debounce)),c
  4196                           opt subtitle "HI-TECH Software Omniscient Code Generator (Lite mode) build 49521"
  4197  000ADA                     l2031:
  4198  000ADA  0E63               	movlw	(064h-1)
  4199  000ADC  6422               	cpfsgt	((c:_debounce)),c
  4200  000ADE  D001               	goto	u931
  4201  000AE0  D001               	goto	u930
  4202  000AE2                     u931:
  4203  000AE2  D7F6               	goto	l2027
  4204  000AE4                     u930:
  4205  000AE4  D000               	goto	l291
  4206                           opt subtitle "HI-TECH Software Omniscient Code Generator (Lite mode) build 49521"
  4207  000AE6                     l293:
  4208                           opt subtitle "HI-TECH Software Omniscient Code Generator (Lite mode) build 49521"
  4209                           
  4210  000AE6                     l291:
  4211                           opt subtitle "HI-TECH Software Omniscient Code Generator (Lite mode) build 49521"
  4212                           
  4213                           opt pagewidth 120
  4214                           
  4215  000AE6  B482               	btfsc	c:(31762/8),(31762)&7	;volatile
  4216  000AE8  D001               	goto	u941
  4217  000AEA  D001               	goto	u940
  4218  000AEC                     u941:
  4219  000AEC  D087               	goto	l294
  4220  000AEE                     u940:
  4221                           opt subtitle "HI-TECH Software Omniscient Code Generator (Lite mode) build 49521"
  4222                           
  4223  000AEE                     l2033:
  4224                           opt subtitle "HI-TECH Software Omniscient Code Generator (Lite mode) build 49521"
  4225                           
  4226  000AEE  0E90               	movlw	090h
  4227  000AF0  5C0F               	subwf	((c:_cutpower)),c,w
  4228  000AF2  0E01               	movlw	01h
  4229  000AF4  5810               	subwfb	((c:_cutpower+1)),c,w
  4230  000AF6  B0D8               	btfsc	status,0
  4231  000AF8  D001               	goto	u951
  4232  000AFA  D001               	goto	u950
  4233  000AFC                     u951:
  4234  000AFC  D042               	goto	l2061
  4235  000AFE                     u950:
  4236                           opt subtitle "HI-TECH Software Omniscient Code Generator (Lite mode) build 49521"
  4237                           
  4238  000AFE                     l2035:
  4239                           opt subtitle "HI-TECH Software Omniscient Code Generator (Lite mode) build 49521"
  4240                           
  4241  000AFE  0E01               	movlw	low(01h)
  4242  000B00  240F               	addwf	((c:_cutpower)),c,w
  4243                           opt subtitle "HI-TECH Software Omniscient Code Generator (Lite mode) build 49521"
  4244  000B02  6E0F               	movwf	((c:_cutpower)),c
  4245  000B04  0E00               	movlw	high(01h)
  4246  000B06  2010               	addwfc	((c:_cutpower+1)),c,w
  4247  000B08  6E10               	movwf	1+((c:_cutpower)),c
  4248                           opt subtitle "HI-TECH Software Omniscient Code Generator (Lite mode) build 49521"
  4249                           
  4250  000B0A                     l2037:
  4251                           opt subtitle "HI-TECH Software Omniscient Code Generator (Lite mode) build 49521"
  4252  000B0A  C00F  F03D         	movff	(c:_cutpower),(c:?___lwdiv)
  4253  000B0E  C010  F03E         	movff	(c:_cutpower+1),(c:?___lwdiv+1)
  4254  000B12  0E00               	movlw	high(064h)
  4255  000B14  6E40               	movwf	(1+((c:?___lwdiv)+02h)),c
  4256  000B16  0E64               	movlw	low(064h)
  4257  000B18  6E3F               	movwf	(0+((c:?___lwdiv)+02h)),c
  4258  000B1A  EC98  F00C         	call	___lwdiv	;wreg free
  4259  000B1E  503D               	movf	(0+?___lwdiv),c,w
  4260  000B20  6E24               	movwf	((c:_hundreds)),c
  4261                           opt subtitle "HI-TECH Software Omniscient Code Generator (Lite mode) build 49521"
  4262                           
  4263  000B22                     l2039:
  4264                           opt subtitle "HI-TECH Software Omniscient Code Generator (Lite mode) build 49521"
  4265  000B22  5024               	movf	((c:_hundreds)),c,w
  4266  000B24  0D64               	mullw	064h
  4267  000B26  50F3               	movf	(prodl),c,w
  4268  000B28  0800               	sublw	0
  4269  000B2A  240F               	addwf	((c:_cutpower)),c,w
  4270  000B2C  6E2A               	movwf	((c:_temp)),c
  4271                           opt subtitle "HI-TECH Software Omniscient Code Generator (Lite mode) build 49521"
  4272                           
  4273  000B2E                     l2041:
  4274                           opt subtitle "HI-TECH Software Omniscient Code Generator (Lite mode) build 49521"
  4275  000B2E  C02A  F03D         	movff	(c:_temp),(c:?___awmod)
  4276  000B32  6A3E               	clrf	((c:?___awmod+1)),c
  4277  000B34  0E00               	movlw	high(0Ah)
  4278  000B36  6E40               	movwf	(1+((c:?___awmod)+02h)),c
  4279  000B38  0E0A               	movlw	low(0Ah)
  4280  000B3A  6E3F               	movwf	(0+((c:?___awmod)+02h)),c
  4281  000B3C  EC42  F00C         	call	___awmod	;wreg free
  4282  000B40  503D               	movf	(0+?___awmod),c,w
  4283  000B42  6E2D               	movwf	((c:_units)),c
  4284                           opt subtitle "HI-TECH Software Omniscient Code Generator (Lite mode) build 49521"
  4285                           
  4286  000B44                     l2043:
  4287                           opt subtitle "HI-TECH Software Omniscient Code Generator (Lite mode) build 49521"
  4288  000B44  382D               	swapf	((c:_units)),c,w
  4289  000B46  0BF0               	andlw	(0ffh shl 4) & 0ffh
  4290  000B48  6E2D               	movwf	((c:_units)),c
  4291                           opt subtitle "HI-TECH Software Omniscient Code Generator (Lite mode) build 49521"
  4292                           
  4293  000B4A                     l2045:
  4294                           opt subtitle "HI-TECH Software Omniscient Code Generator (Lite mode) build 49521"
  4295  000B4A  C02D  F009         	movff	(c:_units),0+((c:_values)+08h)	;volatile
  4296                           opt subtitle "HI-TECH Software Omniscient Code Generator (Lite mode) build 49521"
  4297                           
  4298  000B4E                     l2047:
  4299                           opt subtitle "HI-TECH Software Omniscient Code Generator (Lite mode) build 49521"
  4300  000B4E  C02A  F03D         	movff	(c:_temp),(c:?___awdiv)
  4301  000B52  6A3E               	clrf	((c:?___awdiv+1)),c
  4302  000B54  0E00               	movlw	high(0Ah)
  4303  000B56  6E40               	movwf	(1+((c:?___awdiv)+02h)),c
  4304  000B58  0E0A               	movlw	low(0Ah)
  4305  000B5A  6E3F               	movwf	(0+((c:?___awdiv)+02h)),c
  4306  000B5C  EC8C  F00B         	call	___awdiv	;wreg free
  4307  000B60  503D               	movf	(0+?___awdiv),c,w
  4308  000B62  6E2B               	movwf	((c:_tens)),c
  4309                           opt subtitle "HI-TECH Software Omniscient Code Generator (Lite mode) build 49521"
  4310                           
  4311  000B64                     l2049:
  4312                           opt subtitle "HI-TECH Software Omniscient Code Generator (Lite mode) build 49521"
  4313  000B64  382B               	swapf	((c:_tens)),c,w
  4314  000B66  0BF0               	andlw	(0ffh shl 4) & 0ffh
  4315  000B68  6E2B               	movwf	((c:_tens)),c
  4316                           opt subtitle "HI-TECH Software Omniscient Code Generator (Lite mode) build 49521"
  4317                           
  4318  000B6A                     l2051:
  4319                           opt subtitle "HI-TECH Software Omniscient Code Generator (Lite mode) build 49521"
  4320  000B6A  C02B  F004         	movff	(c:_tens),0+((c:_values)+03h)	;volatile
  4321                           opt subtitle "HI-TECH Software Omniscient Code Generator (Lite mode) build 49521"
  4322                           
  4323  000B6E                     l2053:
  4324                           opt subtitle "HI-TECH Software Omniscient Code Generator (Lite mode) build 49521"
  4325  000B6E  3824               	swapf	((c:_hundreds)),c,w
  4326  000B70  0BF0               	andlw	(0ffh shl 4) & 0ffh
  4327  000B72  6E24               	movwf	((c:_hundreds)),c
  4328                           opt subtitle "HI-TECH Software Omniscient Code Generator (Lite mode) build 49521"
  4329                           
  4330  000B74                     l2055:
  4331                           opt subtitle "HI-TECH Software Omniscient Code Generator (Lite mode) build 49521"
  4332  000B74  C024  F003         	movff	(c:_hundreds),0+((c:_values)+02h)	;volatile
  4333                           opt subtitle "HI-TECH Software Omniscient Code Generator (Lite mode) build 49521"
  4334                           
  4335  000B78                     l2057:
  4336                           opt subtitle "HI-TECH Software Omniscient Code Generator (Lite mode) build 49521"
  4337  000B78  C00F  F01F         	movff	(c:_cutpower),(c:_cutpowerl)
  4338                           opt subtitle "HI-TECH Software Omniscient Code Generator (Lite mode) build 49521"
  4339                           
  4340  000B7C                     l2059:
  4341                           opt subtitle "HI-TECH Software Omniscient Code Generator (Lite mode) build 49521"
  4342  000B7C  5010               	movf	((c:_cutpower+1)),c,w
  4343  000B7E  6E1E               	movwf	((c:_cutpowerh)),c
  4344  000B80  D000               	goto	l2061
  4345                           opt subtitle "HI-TECH Software Omniscient Code Generator (Lite mode) build 49521"
  4346                           
  4347  000B82                     l295:
  4348                           opt subtitle "HI-TECH Software Omniscient Code Generator (Lite mode) build 49521"
  4349                           
  4350  000B82                     l2061:
  4351                           opt subtitle "HI-TECH Software Omniscient Code Generator (Lite mode) build 49521"
  4352                           
  4353  000B82  6619               	tstfsz	((c:_cnt)),c
  4354  000B84  D001               	goto	u961
  4355  000B86  D001               	goto	u960
  4356  000B88                     u961:
  4357  000B88  D01D               	goto	l2077
  4358  000B8A                     u960:
  4359                           opt subtitle "HI-TECH Software Omniscient Code Generator (Lite mode) build 49521"
  4360                           
  4361  000B8A                     l2063:
  4362                           opt subtitle "HI-TECH Software Omniscient Code Generator (Lite mode) build 49521"
  4363                           
  4364  000B8A  6E46               	movwf	(??_main+0+0)&0ffh,c
  4365  000B8C  0E00               	movlw	low(0)
  4366  000B8E  6E22               	movwf	((c:_debounce)),c
  4367  000B90  5046               	movf	(??_main+0+0)&0ffh,c,w
  4368                           opt subtitle "HI-TECH Software Omniscient Code Generator (Lite mode) build 49521"
  4369  000B92                     l2065:
  4370  000B92  0EC8               	movlw	(0C9h-1)
  4371  000B94  6422               	cpfsgt	((c:_debounce)),c
  4372  000B96  D001               	goto	u971
  4373  000B98  D001               	goto	u970
  4374  000B9A                     u971:
  4375  000B9A  D002               	goto	l2069
  4376  000B9C                     u970:
  4377  000B9C  D010               	goto	l2075
  4378                           opt subtitle "HI-TECH Software Omniscient Code Generator (Lite mode) build 49521"
  4379  000B9E                     l2067:
  4380  000B9E  D00F               	goto	l2075
  4381                           opt subtitle "HI-TECH Software Omniscient Code Generator (Lite mode) build 49521"
  4382                           
  4383  000BA0                     l297:
  4384                           opt subtitle "HI-TECH Software Omniscient Code Generator (Lite mode) build 49521"
  4385                           
  4386  000BA0                     l2069:
  4387                           opt subtitle "HI-TECH Software Omniscient Code Generator (Lite mode) build 49521"
  4388                           
  4389  000BA0  0E14               	movlw	20
  4390  000BA2  6E46               movwf	(??_main+0+0)&0ffh,c,f
  4391  000BA4  0E7D               	movlw	125
  4392  000BA6                     u2747:
  4393  000BA6  2EE8               	decfsz	wreg,f
  4394  000BA8  D7FE               	goto	u2747
  4395  000BAA  2E46               	decfsz	(??_main+0+0)&0ffh,c,f
  4396  000BAC  D7FC               	goto	u2747
  4397  000BAE  F000               	nop
  4398                           opt subtitle "HI-TECH Software Omniscient Code Generator (Lite mode) build 49521"
  4399                           
  4400                           opt pagewidth 120
  4401  000BB0                     l2071:
  4402  000BB0  2A22               	incf	((c:_debounce)),c
  4403                           opt subtitle "HI-TECH Software Omniscient Code Generator (Lite mode) build 49521"
  4404  000BB2                     l2073:
  4405  000BB2  0EC8               	movlw	(0C9h-1)
  4406  000BB4  6422               	cpfsgt	((c:_debounce)),c
  4407  000BB6  D001               	goto	u981
  4408  000BB8  D001               	goto	u980
  4409  000BBA                     u981:
  4410  000BBA  D7F2               	goto	l2069
  4411  000BBC                     u980:
  4412  000BBC  D000               	goto	l2075
  4413                           opt subtitle "HI-TECH Software Omniscient Code Generator (Lite mode) build 49521"
  4414  000BBE                     l298:
  4415                           opt subtitle "HI-TECH Software Omniscient Code Generator (Lite mode) build 49521"
  4416                           
  4417  000BBE                     l2075:
  4418                           opt subtitle "HI-TECH Software Omniscient Code Generator (Lite mode) build 49521"
  4419                           
  4420  000BBE  2819               	incf	((c:_cnt)),c,w
  4421  000BC0  6E19               	movwf	((c:_cnt)),c
  4422                           opt subtitle "HI-TECH Software Omniscient Code Generator (Lite mode) build 49521"
  4423                           
  4424  000BC2  D01C               	goto	l294
  4425                           opt subtitle "HI-TECH Software Omniscient Code Generator (Lite mode) build 49521"
  4426                           
  4427  000BC4                     l296:
  4428                           opt subtitle "HI-TECH Software Omniscient Code Generator (Lite mode) build 49521"
  4429                           
  4430  000BC4                     l2077:
  4431                           opt subtitle "HI-TECH Software Omniscient Code Generator (Lite mode) build 49521"
  4432                           
  4433                           opt pagewidth 120
  4434  000BC4  6E46               	movwf	(??_main+0+0)&0ffh,c
  4435  000BC6  0E00               	movlw	low(0)
  4436  000BC8  6E22               	movwf	((c:_debounce)),c
  4437  000BCA  5046               	movf	(??_main+0+0)&0ffh,c,w
  4438                           opt subtitle "HI-TECH Software Omniscient Code Generator (Lite mode) build 49521"
  4439  000BCC                     l2079:
  4440  000BCC  0E64               	movlw	(065h-1)
  4441  000BCE  6422               	cpfsgt	((c:_debounce)),c
  4442  000BD0  D001               	goto	u991
  4443  000BD2  D001               	goto	u990
  4444  000BD4                     u991:
  4445  000BD4  D002               	goto	l2083
  4446  000BD6                     u990:
  4447  000BD6  D012               	goto	l294
  4448                           opt subtitle "HI-TECH Software Omniscient Code Generator (Lite mode) build 49521"
  4449  000BD8                     l2081:
  4450  000BD8  D011               	goto	l294
  4451                           opt subtitle "HI-TECH Software Omniscient Code Generator (Lite mode) build 49521"
  4452                           
  4453  000BDA                     l300:
  4454                           opt subtitle "HI-TECH Software Omniscient Code Generator (Lite mode) build 49521"
  4455                           
  4456  000BDA                     l2083:
  4457                           opt subtitle "HI-TECH Software Omniscient Code Generator (Lite mode) build 49521"
  4458                           
  4459  000BDA  0E03               	movlw	3
  4460  000BDC  6E46               movwf	(??_main+0+0)&0ffh,c,f
  4461  000BDE  0EEB               	movlw	235
  4462  000BE0                     u2757:
  4463  000BE0  2EE8               	decfsz	wreg,f
  4464  000BE2  D7FE               	goto	u2757
  4465  000BE4  2E46               	decfsz	(??_main+0+0)&0ffh,c,f
  4466  000BE6  D7FC               	goto	u2757
  4467  000BE8  D000               	nop2
  4468  000BEA  F000               	nop
  4469                           opt subtitle "HI-TECH Software Omniscient Code Generator (Lite mode) build 49521"
  4470                           
  4471                           opt pagewidth 120
  4472  000BEC                     l2085:
  4473  000BEC  2A22               	incf	((c:_debounce)),c
  4474                           opt subtitle "HI-TECH Software Omniscient Code Generator (Lite mode) build 49521"
  4475  000BEE                     l2087:
  4476  000BEE  0E64               	movlw	(065h-1)
  4477  000BF0  6422               	cpfsgt	((c:_debounce)),c
  4478  000BF2  D001               	goto	u1001
  4479  000BF4  D001               	goto	u1000
  4480  000BF6                     u1001:
  4481  000BF6  D7F1               	goto	l2083
  4482  000BF8                     u1000:
  4483  000BF8  D001               	goto	l294
  4484                           opt subtitle "HI-TECH Software Omniscient Code Generator (Lite mode) build 49521"
  4485  000BFA                     l301:
  4486  000BFA  D000               	goto	l294
  4487                           opt subtitle "HI-TECH Software Omniscient Code Generator (Lite mode) build 49521"
  4488                           
  4489  000BFC                     l299:
  4490                           opt subtitle "HI-TECH Software Omniscient Code Generator (Lite mode) build 49521"
  4491                           
  4492  000BFC                     l294:
  4493                           opt subtitle "HI-TECH Software Omniscient Code Generator (Lite mode) build 49521"
  4494                           
  4495                           opt pagewidth 120
  4496                           
  4497                           	opt lm
  4498  000BFC  B682               	btfsc	c:(31763/8),(31763)&7	;volatile
  4499  000BFE  D001               	goto	u1011
  4500  000C00  D001               	goto	u1010
  4501  000C02                     u1011:
  4502  000C02  D01A               	goto	l302
  4503  000C04                     u1010:
  4504                           opt subtitle "HI-TECH Software Omniscient Code Generator (Lite mode) build 49521"
  4505  000C04                     l2089:
  4506  000C04  6619               	tstfsz	((c:_cnt)),c
  4507  000C06  D001               	goto	u1021
  4508  000C08  D001               	goto	u1020
  4509  000C0A                     u1021:
  4510  000C0A  D016               	goto	l302
  4511  000C0C                     u1020:
  4512                           opt subtitle "HI-TECH Software Omniscient Code Generator (Lite mode) build 49521"
  4513                           
  4514  000C0C                     l2091:
  4515                           opt subtitle "HI-TECH Software Omniscient Code Generator (Lite mode) build 49521"
  4516                           
  4517  000C0C  6E46               	movwf	(??_main+0+0)&0ffh,c
  4518  000C0E  0E00               	movlw	low(0)
  4519  000C10  6E22               	movwf	((c:_debounce)),c
  4520  000C12  5046               	movf	(??_main+0+0)&0ffh,c,w
  4521                           opt subtitle "HI-TECH Software Omniscient Code Generator (Lite mode) build 49521"
  4522  000C14                     l2093:
  4523  000C14  0E63               	movlw	(064h-1)
  4524  000C16  6422               	cpfsgt	((c:_debounce)),c
  4525  000C18  D001               	goto	u1031
  4526  000C1A  D001               	goto	u1030
  4527  000C1C                     u1031:
  4528  000C1C  D002               	goto	l2097
  4529  000C1E                     u1030:
  4530  000C1E  D00C               	goto	l302
  4531                           opt subtitle "HI-TECH Software Omniscient Code Generator (Lite mode) build 49521"
  4532  000C20                     l2095:
  4533  000C20  D00B               	goto	l302
  4534                           opt subtitle "HI-TECH Software Omniscient Code Generator (Lite mode) build 49521"
  4535                           
  4536  000C22                     l303:
  4537                           opt subtitle "HI-TECH Software Omniscient Code Generator (Lite mode) build 49521"
  4538                           
  4539  000C22                     l2097:
  4540                           opt subtitle "HI-TECH Software Omniscient Code Generator (Lite mode) build 49521"
  4541                           
  4542  000C22  0E32               	movlw	50
  4543  000C24                     u2767:
  4544  000C24  F000               	nop
  4545  000C26  2EE8               decfsz	wreg,f
  4546  000C28  D7FD               	goto	u2767
  4547                           opt subtitle "HI-TECH Software Omniscient Code Generator (Lite mode) build 49521"
  4548                           
  4549                           opt pagewidth 120
  4550  000C2A                     l2099:
  4551  000C2A  2A22               	incf	((c:_debounce)),c
  4552                           opt subtitle "HI-TECH Software Omniscient Code Generator (Lite mode) build 49521"
  4553  000C2C                     l2101:
  4554  000C2C  0E63               	movlw	(064h-1)
  4555  000C2E  6422               	cpfsgt	((c:_debounce)),c
  4556  000C30  D001               	goto	u1041
  4557  000C32  D001               	goto	u1040
  4558  000C34                     u1041:
  4559  000C34  D7F6               	goto	l2097
  4560  000C36                     u1040:
  4561  000C36  D000               	goto	l302
  4562                           opt subtitle "HI-TECH Software Omniscient Code Generator (Lite mode) build 49521"
  4563  000C38                     l304:
  4564                           opt subtitle "HI-TECH Software Omniscient Code Generator (Lite mode) build 49521"
  4565                           
  4566  000C38                     l302:
  4567                           opt subtitle "HI-TECH Software Omniscient Code Generator (Lite mode) build 49521"
  4568                           
  4569                           opt pagewidth 120
  4570                           
  4571  000C38  B682               	btfsc	c:(31763/8),(31763)&7	;volatile
  4572  000C3A  D001               	goto	u1051
  4573  000C3C  D001               	goto	u1050
  4574  000C3E                     u1051:
  4575  000C3E  D085               	goto	l305
  4576  000C40                     u1050:
  4577                           opt subtitle "HI-TECH Software Omniscient Code Generator (Lite mode) build 49521"
  4578                           
  4579  000C40                     l2103:
  4580                           opt subtitle "HI-TECH Software Omniscient Code Generator (Lite mode) build 49521"
  4581                           
  4582  000C40  5010               	movf	((c:_cutpower+1)),c,w
  4583  000C42  100F               	iorwf ((c:_cutpower)),c,w
  4584                           opt subtitle "HI-TECH Software Omniscient Code Generator (Lite mode) build 49521"
  4585  000C44  B4D8               	btfsc	status,2
  4586  000C46  D001               	goto	u1061
  4587  000C48  D001               	goto	u1060
  4588  000C4A                     u1061:
  4589  000C4A  D042               	goto	l2131
  4590  000C4C                     u1060:
  4591                           opt subtitle "HI-TECH Software Omniscient Code Generator (Lite mode) build 49521"
  4592                           
  4593  000C4C                     l2105:
  4594                           opt subtitle "HI-TECH Software Omniscient Code Generator (Lite mode) build 49521"
  4595                           
  4596  000C4C  0EFF               	movlw	low(0FFFFh)
  4597  000C4E  240F               	addwf	((c:_cutpower)),c,w
  4598                           opt subtitle "HI-TECH Software Omniscient Code Generator (Lite mode) build 49521"
  4599  000C50  6E0F               	movwf	((c:_cutpower)),c
  4600  000C52  0EFF               	movlw	high(0FFFFh)
  4601  000C54  2010               	addwfc	((c:_cutpower+1)),c,w
  4602  000C56  6E10               	movwf	1+((c:_cutpower)),c
  4603                           opt subtitle "HI-TECH Software Omniscient Code Generator (Lite mode) build 49521"
  4604                           
  4605  000C58                     l2107:
  4606                           opt subtitle "HI-TECH Software Omniscient Code Generator (Lite mode) build 49521"
  4607  000C58  C00F  F03D         	movff	(c:_cutpower),(c:?___lwdiv)
  4608  000C5C  C010  F03E         	movff	(c:_cutpower+1),(c:?___lwdiv+1)
  4609  000C60  0E00               	movlw	high(064h)
  4610  000C62  6E40               	movwf	(1+((c:?___lwdiv)+02h)),c
  4611  000C64  0E64               	movlw	low(064h)
  4612  000C66  6E3F               	movwf	(0+((c:?___lwdiv)+02h)),c
  4613  000C68  EC98  F00C         	call	___lwdiv	;wreg free
  4614  000C6C  503D               	movf	(0+?___lwdiv),c,w
  4615  000C6E  6E24               	movwf	((c:_hundreds)),c
  4616                           opt subtitle "HI-TECH Software Omniscient Code Generator (Lite mode) build 49521"
  4617                           
  4618  000C70                     l2109:
  4619                           opt subtitle "HI-TECH Software Omniscient Code Generator (Lite mode) build 49521"
  4620  000C70  5024               	movf	((c:_hundreds)),c,w
  4621  000C72  0D64               	mullw	064h
  4622  000C74  50F3               	movf	(prodl),c,w
  4623  000C76  0800               	sublw	0
  4624  000C78  240F               	addwf	((c:_cutpower)),c,w
  4625  000C7A  6E2A               	movwf	((c:_temp)),c
  4626                           opt subtitle "HI-TECH Software Omniscient Code Generator (Lite mode) build 49521"
  4627                           
  4628  000C7C                     l2111:
  4629                           opt subtitle "HI-TECH Software Omniscient Code Generator (Lite mode) build 49521"
  4630  000C7C  C02A  F03D         	movff	(c:_temp),(c:?___awmod)
  4631  000C80  6A3E               	clrf	((c:?___awmod+1)),c
  4632  000C82  0E00               	movlw	high(0Ah)
  4633  000C84  6E40               	movwf	(1+((c:?___awmod)+02h)),c
  4634  000C86  0E0A               	movlw	low(0Ah)
  4635  000C88  6E3F               	movwf	(0+((c:?___awmod)+02h)),c
  4636  000C8A  EC42  F00C         	call	___awmod	;wreg free
  4637  000C8E  503D               	movf	(0+?___awmod),c,w
  4638  000C90  6E2D               	movwf	((c:_units)),c
  4639                           opt subtitle "HI-TECH Software Omniscient Code Generator (Lite mode) build 49521"
  4640                           
  4641  000C92                     l2113:
  4642                           opt subtitle "HI-TECH Software Omniscient Code Generator (Lite mode) build 49521"
  4643  000C92  382D               	swapf	((c:_units)),c,w
  4644  000C94  0BF0               	andlw	(0ffh shl 4) & 0ffh
  4645  000C96  6E2D               	movwf	((c:_units)),c
  4646                           opt subtitle "HI-TECH Software Omniscient Code Generator (Lite mode) build 49521"
  4647                           
  4648  000C98                     l2115:
  4649                           opt subtitle "HI-TECH Software Omniscient Code Generator (Lite mode) build 49521"
  4650  000C98  C02D  F009         	movff	(c:_units),0+((c:_values)+08h)	;volatile
  4651                           opt subtitle "HI-TECH Software Omniscient Code Generator (Lite mode) build 49521"
  4652                           
  4653  000C9C                     l2117:
  4654                           opt subtitle "HI-TECH Software Omniscient Code Generator (Lite mode) build 49521"
  4655  000C9C  C02A  F03D         	movff	(c:_temp),(c:?___awdiv)
  4656  000CA0  6A3E               	clrf	((c:?___awdiv+1)),c
  4657  000CA2  0E00               	movlw	high(0Ah)
  4658  000CA4  6E40               	movwf	(1+((c:?___awdiv)+02h)),c
  4659  000CA6  0E0A               	movlw	low(0Ah)
  4660  000CA8  6E3F               	movwf	(0+((c:?___awdiv)+02h)),c
  4661  000CAA  EC8C  F00B         	call	___awdiv	;wreg free
  4662  000CAE  503D               	movf	(0+?___awdiv),c,w
  4663  000CB0  6E2B               	movwf	((c:_tens)),c
  4664                           opt subtitle "HI-TECH Software Omniscient Code Generator (Lite mode) build 49521"
  4665                           
  4666  000CB2                     l2119:
  4667                           opt subtitle "HI-TECH Software Omniscient Code Generator (Lite mode) build 49521"
  4668  000CB2  382B               	swapf	((c:_tens)),c,w
  4669  000CB4  0BF0               	andlw	(0ffh shl 4) & 0ffh
  4670  000CB6  6E2B               	movwf	((c:_tens)),c
  4671                           opt subtitle "HI-TECH Software Omniscient Code Generator (Lite mode) build 49521"
  4672                           
  4673  000CB8                     l2121:
  4674                           opt subtitle "HI-TECH Software Omniscient Code Generator (Lite mode) build 49521"
  4675  000CB8  C02B  F004         	movff	(c:_tens),0+((c:_values)+03h)	;volatile
  4676                           opt subtitle "HI-TECH Software Omniscient Code Generator (Lite mode) build 49521"
  4677                           
  4678  000CBC                     l2123:
  4679                           opt subtitle "HI-TECH Software Omniscient Code Generator (Lite mode) build 49521"
  4680  000CBC  3824               	swapf	((c:_hundreds)),c,w
  4681  000CBE  0BF0               	andlw	(0ffh shl 4) & 0ffh
  4682  000CC0  6E24               	movwf	((c:_hundreds)),c
  4683                           opt subtitle "HI-TECH Software Omniscient Code Generator (Lite mode) build 49521"
  4684                           
  4685  000CC2                     l2125:
  4686                           opt subtitle "HI-TECH Software Omniscient Code Generator (Lite mode) build 49521"
  4687  000CC2  C024  F003         	movff	(c:_hundreds),0+((c:_values)+02h)	;volatile
  4688                           opt subtitle "HI-TECH Software Omniscient Code Generator (Lite mode) build 49521"
  4689                           
  4690  000CC6                     l2127:
  4691                           opt subtitle "HI-TECH Software Omniscient Code Generator (Lite mode) build 49521"
  4692  000CC6  C00F  F01F         	movff	(c:_cutpower),(c:_cutpowerl)
  4693                           opt subtitle "HI-TECH Software Omniscient Code Generator (Lite mode) build 49521"
  4694                           
  4695  000CCA                     l2129:
  4696                           opt subtitle "HI-TECH Software Omniscient Code Generator (Lite mode) build 49521"
  4697  000CCA  5010               	movf	((c:_cutpower+1)),c,w
  4698  000CCC  6E1E               	movwf	((c:_cutpowerh)),c
  4699  000CCE  D000               	goto	l2131
  4700                           opt subtitle "HI-TECH Software Omniscient Code Generator (Lite mode) build 49521"
  4701                           
  4702  000CD0                     l306:
  4703                           opt subtitle "HI-TECH Software Omniscient Code Generator (Lite mode) build 49521"
  4704                           
  4705  000CD0                     l2131:
  4706                           opt subtitle "HI-TECH Software Omniscient Code Generator (Lite mode) build 49521"
  4707                           
  4708  000CD0  6619               	tstfsz	((c:_cnt)),c
  4709  000CD2  D001               	goto	u1071
  4710  000CD4  D001               	goto	u1070
  4711  000CD6                     u1071:
  4712  000CD6  D01D               	goto	l2147
  4713  000CD8                     u1070:
  4714                           opt subtitle "HI-TECH Software Omniscient Code Generator (Lite mode) build 49521"
  4715                           
  4716  000CD8                     l2133:
  4717                           opt subtitle "HI-TECH Software Omniscient Code Generator (Lite mode) build 49521"
  4718                           
  4719  000CD8  6E46               	movwf	(??_main+0+0)&0ffh,c
  4720  000CDA  0E00               	movlw	low(0)
  4721  000CDC  6E22               	movwf	((c:_debounce)),c
  4722  000CDE  5046               	movf	(??_main+0+0)&0ffh,c,w
  4723                           opt subtitle "HI-TECH Software Omniscient Code Generator (Lite mode) build 49521"
  4724  000CE0                     l2135:
  4725  000CE0  0EC8               	movlw	(0C9h-1)
  4726  000CE2  6422               	cpfsgt	((c:_debounce)),c
  4727  000CE4  D001               	goto	u1081
  4728  000CE6  D001               	goto	u1080
  4729  000CE8                     u1081:
  4730  000CE8  D002               	goto	l2139
  4731  000CEA                     u1080:
  4732  000CEA  D010               	goto	l2145
  4733                           opt subtitle "HI-TECH Software Omniscient Code Generator (Lite mode) build 49521"
  4734  000CEC                     l2137:
  4735  000CEC  D00F               	goto	l2145
  4736                           opt subtitle "HI-TECH Software Omniscient Code Generator (Lite mode) build 49521"
  4737                           
  4738  000CEE                     l308:
  4739                           opt subtitle "HI-TECH Software Omniscient Code Generator (Lite mode) build 49521"
  4740                           
  4741  000CEE                     l2139:
  4742                           opt subtitle "HI-TECH Software Omniscient Code Generator (Lite mode) build 49521"
  4743                           
  4744  000CEE  0E14               	movlw	20
  4745  000CF0  6E46               movwf	(??_main+0+0)&0ffh,c,f
  4746  000CF2  0E7D               	movlw	125
  4747  000CF4                     u2777:
  4748  000CF4  2EE8               	decfsz	wreg,f
  4749  000CF6  D7FE               	goto	u2777
  4750  000CF8  2E46               	decfsz	(??_main+0+0)&0ffh,c,f
  4751  000CFA  D7FC               	goto	u2777
  4752  000CFC  F000               	nop
  4753                           opt subtitle "HI-TECH Software Omniscient Code Generator (Lite mode) build 49521"
  4754                           
  4755                           opt pagewidth 120
  4756  000CFE                     l2141:
  4757  000CFE  2A22               	incf	((c:_debounce)),c
  4758                           opt subtitle "HI-TECH Software Omniscient Code Generator (Lite mode) build 49521"
  4759  000D00                     l2143:
  4760  000D00  0EC8               	movlw	(0C9h-1)
  4761  000D02  6422               	cpfsgt	((c:_debounce)),c
  4762  000D04  D001               	goto	u1091
  4763  000D06  D001               	goto	u1090
  4764  000D08                     u1091:
  4765  000D08  D7F2               	goto	l2139
  4766  000D0A                     u1090:
  4767  000D0A  D000               	goto	l2145
  4768                           opt subtitle "HI-TECH Software Omniscient Code Generator (Lite mode) build 49521"
  4769  000D0C                     l309:
  4770                           opt subtitle "HI-TECH Software Omniscient Code Generator (Lite mode) build 49521"
  4771                           
  4772  000D0C                     l2145:
  4773                           opt subtitle "HI-TECH Software Omniscient Code Generator (Lite mode) build 49521"
  4774                           
  4775  000D0C  2819               	incf	((c:_cnt)),c,w
  4776  000D0E  6E19               	movwf	((c:_cnt)),c
  4777                           opt subtitle "HI-TECH Software Omniscient Code Generator (Lite mode) build 49521"
  4778                           
  4779  000D10  D01C               	goto	l305
  4780                           opt subtitle "HI-TECH Software Omniscient Code Generator (Lite mode) build 49521"
  4781                           
  4782  000D12                     l307:
  4783                           opt subtitle "HI-TECH Software Omniscient Code Generator (Lite mode) build 49521"
  4784                           
  4785  000D12                     l2147:
  4786                           opt subtitle "HI-TECH Software Omniscient Code Generator (Lite mode) build 49521"
  4787                           
  4788                           opt pagewidth 120
  4789  000D12  6E46               	movwf	(??_main+0+0)&0ffh,c
  4790  000D14  0E00               	movlw	low(0)
  4791  000D16  6E22               	movwf	((c:_debounce)),c
  4792  000D18  5046               	movf	(??_main+0+0)&0ffh,c,w
  4793                           opt subtitle "HI-TECH Software Omniscient Code Generator (Lite mode) build 49521"
  4794  000D1A                     l2149:
  4795  000D1A  0E64               	movlw	(065h-1)
  4796  000D1C  6422               	cpfsgt	((c:_debounce)),c
  4797  000D1E  D001               	goto	u1101
  4798  000D20  D001               	goto	u1100
  4799  000D22                     u1101:
  4800  000D22  D002               	goto	l2153
  4801  000D24                     u1100:
  4802  000D24  D012               	goto	l305
  4803                           opt subtitle "HI-TECH Software Omniscient Code Generator (Lite mode) build 49521"
  4804  000D26                     l2151:
  4805  000D26  D011               	goto	l305
  4806                           opt subtitle "HI-TECH Software Omniscient Code Generator (Lite mode) build 49521"
  4807                           
  4808  000D28                     l311:
  4809                           opt subtitle "HI-TECH Software Omniscient Code Generator (Lite mode) build 49521"
  4810                           
  4811  000D28                     l2153:
  4812                           opt subtitle "HI-TECH Software Omniscient Code Generator (Lite mode) build 49521"
  4813                           
  4814  000D28  0E03               	movlw	3
  4815  000D2A  6E46               movwf	(??_main+0+0)&0ffh,c,f
  4816  000D2C  0EEB               	movlw	235
  4817  000D2E                     u2787:
  4818  000D2E  2EE8               	decfsz	wreg,f
  4819  000D30  D7FE               	goto	u2787
  4820  000D32  2E46               	decfsz	(??_main+0+0)&0ffh,c,f
  4821  000D34  D7FC               	goto	u2787
  4822  000D36  D000               	nop2
  4823  000D38  F000               	nop
  4824                           opt subtitle "HI-TECH Software Omniscient Code Generator (Lite mode) build 49521"
  4825                           
  4826                           opt pagewidth 120
  4827  000D3A                     l2155:
  4828  000D3A  2A22               	incf	((c:_debounce)),c
  4829                           opt subtitle "HI-TECH Software Omniscient Code Generator (Lite mode) build 49521"
  4830  000D3C                     l2157:
  4831  000D3C  0E64               	movlw	(065h-1)
  4832  000D3E  6422               	cpfsgt	((c:_debounce)),c
  4833  000D40  D001               	goto	u1111
  4834  000D42  D001               	goto	u1110
  4835  000D44                     u1111:
  4836  000D44  D7F1               	goto	l2153
  4837  000D46                     u1110:
  4838  000D46  D001               	goto	l305
  4839                           opt subtitle "HI-TECH Software Omniscient Code Generator (Lite mode) build 49521"
  4840  000D48                     l312:
  4841  000D48  D000               	goto	l305
  4842                           opt subtitle "HI-TECH Software Omniscient Code Generator (Lite mode) build 49521"
  4843                           
  4844  000D4A                     l310:
  4845                           opt subtitle "HI-TECH Software Omniscient Code Generator (Lite mode) build 49521"
  4846                           
  4847  000D4A                     l305:
  4848                           opt subtitle "HI-TECH Software Omniscient Code Generator (Lite mode) build 49521"
  4849                           
  4850                           opt pagewidth 120
  4851                           
  4852                           	opt lm
  4853  000D4A  B083               	btfsc	c:(31768/8),(31768)&7	;volatile
  4854  000D4C  D001               	goto	u1121
  4855  000D4E  D001               	goto	u1120
  4856  000D50                     u1121:
  4857  000D50  D01A               	goto	l313
  4858  000D52                     u1120:
  4859                           opt subtitle "HI-TECH Software Omniscient Code Generator (Lite mode) build 49521"
  4860  000D52                     l2159:
  4861  000D52  6619               	tstfsz	((c:_cnt)),c
  4862  000D54  D001               	goto	u1131
  4863  000D56  D001               	goto	u1130
  4864  000D58                     u1131:
  4865  000D58  D016               	goto	l313
  4866  000D5A                     u1130:
  4867                           opt subtitle "HI-TECH Software Omniscient Code Generator (Lite mode) build 49521"
  4868                           
  4869  000D5A                     l2161:
  4870                           opt subtitle "HI-TECH Software Omniscient Code Generator (Lite mode) build 49521"
  4871                           
  4872  000D5A  6E46               	movwf	(??_main+0+0)&0ffh,c
  4873  000D5C  0E00               	movlw	low(0)
  4874  000D5E  6E22               	movwf	((c:_debounce)),c
  4875  000D60  5046               	movf	(??_main+0+0)&0ffh,c,w
  4876                           opt subtitle "HI-TECH Software Omniscient Code Generator (Lite mode) build 49521"
  4877  000D62                     l2163:
  4878  000D62  0E63               	movlw	(064h-1)
  4879  000D64  6422               	cpfsgt	((c:_debounce)),c
  4880  000D66  D001               	goto	u1141
  4881  000D68  D001               	goto	u1140
  4882  000D6A                     u1141:
  4883  000D6A  D002               	goto	l2167
  4884  000D6C                     u1140:
  4885  000D6C  D00C               	goto	l313
  4886                           opt subtitle "HI-TECH Software Omniscient Code Generator (Lite mode) build 49521"
  4887  000D6E                     l2165:
  4888  000D6E  D00B               	goto	l313
  4889                           opt subtitle "HI-TECH Software Omniscient Code Generator (Lite mode) build 49521"
  4890                           
  4891  000D70                     l314:
  4892                           opt subtitle "HI-TECH Software Omniscient Code Generator (Lite mode) build 49521"
  4893                           
  4894  000D70                     l2167:
  4895                           opt subtitle "HI-TECH Software Omniscient Code Generator (Lite mode) build 49521"
  4896                           
  4897  000D70  0E32               	movlw	50
  4898  000D72                     u2797:
  4899  000D72  F000               	nop
  4900  000D74  2EE8               decfsz	wreg,f
  4901  000D76  D7FD               	goto	u2797
  4902                           opt subtitle "HI-TECH Software Omniscient Code Generator (Lite mode) build 49521"
  4903                           
  4904                           opt pagewidth 120
  4905  000D78                     l2169:
  4906  000D78  2A22               	incf	((c:_debounce)),c
  4907                           opt subtitle "HI-TECH Software Omniscient Code Generator (Lite mode) build 49521"
  4908  000D7A                     l2171:
  4909  000D7A  0E63               	movlw	(064h-1)
  4910  000D7C  6422               	cpfsgt	((c:_debounce)),c
  4911  000D7E  D001               	goto	u1151
  4912  000D80  D001               	goto	u1150
  4913  000D82                     u1151:
  4914  000D82  D7F6               	goto	l2167
  4915  000D84                     u1150:
  4916  000D84  D000               	goto	l313
  4917                           opt subtitle "HI-TECH Software Omniscient Code Generator (Lite mode) build 49521"
  4918  000D86                     l315:
  4919                           opt subtitle "HI-TECH Software Omniscient Code Generator (Lite mode) build 49521"
  4920                           
  4921  000D86                     l313:
  4922                           opt subtitle "HI-TECH Software Omniscient Code Generator (Lite mode) build 49521"
  4923                           
  4924                           opt pagewidth 120
  4925                           
  4926  000D86  B083               	btfsc	c:(31768/8),(31768)&7	;volatile
  4927  000D88  D001               	goto	u1161
  4928  000D8A  D001               	goto	u1160
  4929  000D8C                     u1161:
  4930  000D8C  D073               	goto	l316
  4931  000D8E                     u1160:
  4932                           opt subtitle "HI-TECH Software Omniscient Code Generator (Lite mode) build 49521"
  4933                           
  4934  000D8E                     l2173:
  4935                           opt subtitle "HI-TECH Software Omniscient Code Generator (Lite mode) build 49521"
  4936                           
  4937  000D8E  281D               	incf	((c:_cutmode)),c,w
  4938  000D90  6E1D               	movwf	((c:_cutmode)),c
  4939                           opt subtitle "HI-TECH Software Omniscient Code Generator (Lite mode) build 49521"
  4940                           
  4941  000D92                     l2175:
  4942                           opt subtitle "HI-TECH Software Omniscient Code Generator (Lite mode) build 49521"
  4943  000D92  661D               	tstfsz	((c:_cutmode)),c
  4944  000D94  D001               	goto	u1171
  4945  000D96  D001               	goto	u1170
  4946  000D98                     u1171:
  4947  000D98  D00C               	goto	l2181
  4948  000D9A                     u1170:
  4949                           opt subtitle "HI-TECH Software Omniscient Code Generator (Lite mode) build 49521"
  4950                           
  4951  000D9A                     l2177:
  4952                           opt subtitle "HI-TECH Software Omniscient Code Generator (Lite mode) build 49521"
  4953                           
  4954  000D9A  0E70               	movlw	low(070h)
  4955  000D9C  6E06               	movwf	(0+((c:_values)+05h)),c	;volatile
  4956                           opt subtitle "HI-TECH Software Omniscient Code Generator (Lite mode) build 49521"
  4957                           
  4958  000D9E                     l2179:
  4959                           opt subtitle "HI-TECH Software Omniscient Code Generator (Lite mode) build 49521"
  4960  000D9E  0E19               	movlw	25
  4961  000DA0  6E46               movwf	(??_main+0+0)&0ffh,c,f
  4962  000DA2  0E5C               	movlw	92
  4963  000DA4                     u2807:
  4964  000DA4  2EE8               	decfsz	wreg,f
  4965  000DA6  D7FE               	goto	u2807
  4966  000DA8  2E46               	decfsz	(??_main+0+0)&0ffh,c,f
  4967  000DAA  D7FC               	goto	u2807
  4968  000DAC  D000               	nop2
  4969  000DAE  F000               	nop
  4970                           opt subtitle "HI-TECH Software Omniscient Code Generator (Lite mode) build 49521"
  4971  000DB0  D000               	goto	l2181
  4972                           opt subtitle "HI-TECH Software Omniscient Code Generator (Lite mode) build 49521"
  4973                           
  4974  000DB2                     l317:
  4975                           opt subtitle "HI-TECH Software Omniscient Code Generator (Lite mode) build 49521"
  4976                           
  4977  000DB2                     l2181:
  4978                           opt subtitle "HI-TECH Software Omniscient Code Generator (Lite mode) build 49521"
  4979                           
  4980  000DB2  041D               	decf	((c:_cutmode)),c,w
  4981                           opt subtitle "HI-TECH Software Omniscient Code Generator (Lite mode) build 49521"
  4982  000DB4  A4D8               	btfss	status,2
  4983  000DB6  D001               	goto	u1181
  4984  000DB8  D001               	goto	u1180
  4985  000DBA                     u1181:
  4986  000DBA  D00C               	goto	l2187
  4987  000DBC                     u1180:
  4988                           opt subtitle "HI-TECH Software Omniscient Code Generator (Lite mode) build 49521"
  4989                           
  4990  000DBC                     l2183:
  4991                           opt subtitle "HI-TECH Software Omniscient Code Generator (Lite mode) build 49521"
  4992                           
  4993  000DBC  0E40               	movlw	low(040h)
  4994  000DBE  6E06               	movwf	(0+((c:_values)+05h)),c	;volatile
  4995                           opt subtitle "HI-TECH Software Omniscient Code Generator (Lite mode) build 49521"
  4996                           
  4997  000DC0                     l2185:
  4998                           opt subtitle "HI-TECH Software Omniscient Code Generator (Lite mode) build 49521"
  4999  000DC0  0E19               	movlw	25
  5000  000DC2  6E46               movwf	(??_main+0+0)&0ffh,c,f
  5001  000DC4  0E5C               	movlw	92
  5002  000DC6                     u2817:
  5003  000DC6  2EE8               	decfsz	wreg,f
  5004  000DC8  D7FE               	goto	u2817
  5005  000DCA  2E46               	decfsz	(??_main+0+0)&0ffh,c,f
  5006  000DCC  D7FC               	goto	u2817
  5007  000DCE  D000               	nop2
  5008  000DD0  F000               	nop
  5009                           opt subtitle "HI-TECH Software Omniscient Code Generator (Lite mode) build 49521"
  5010  000DD2  D000               	goto	l2187
  5011                           opt subtitle "HI-TECH Software Omniscient Code Generator (Lite mode) build 49521"
  5012                           
  5013  000DD4                     l318:
  5014                           opt subtitle "HI-TECH Software Omniscient Code Generator (Lite mode) build 49521"
  5015                           
  5016  000DD4                     l2187:
  5017                           opt subtitle "HI-TECH Software Omniscient Code Generator (Lite mode) build 49521"
  5018                           
  5019  000DD4  501D               	movf	((c:_cutmode)),c,w
  5020  000DD6  0A02               	xorlw	2
  5021                           opt subtitle "HI-TECH Software Omniscient Code Generator (Lite mode) build 49521"
  5022  000DD8  A4D8               	btfss	status,2
  5023  000DDA  D001               	goto	u1191
  5024  000DDC  D001               	goto	u1190
  5025  000DDE                     u1191:
  5026  000DDE  D00C               	goto	l2193
  5027  000DE0                     u1190:
  5028                           opt subtitle "HI-TECH Software Omniscient Code Generator (Lite mode) build 49521"
  5029                           
  5030  000DE0                     l2189:
  5031                           opt subtitle "HI-TECH Software Omniscient Code Generator (Lite mode) build 49521"
  5032                           
  5033  000DE0  0EF0               	movlw	low(0F0h)
  5034  000DE2  6E06               	movwf	(0+((c:_values)+05h)),c	;volatile
  5035                           opt subtitle "HI-TECH Software Omniscient Code Generator (Lite mode) build 49521"
  5036                           
  5037  000DE4                     l2191:
  5038                           opt subtitle "HI-TECH Software Omniscient Code Generator (Lite mode) build 49521"
  5039  000DE4  0E19               	movlw	25
  5040  000DE6  6E46               movwf	(??_main+0+0)&0ffh,c,f
  5041  000DE8  0E5C               	movlw	92
  5042  000DEA                     u2827:
  5043  000DEA  2EE8               	decfsz	wreg,f
  5044  000DEC  D7FE               	goto	u2827
  5045  000DEE  2E46               	decfsz	(??_main+0+0)&0ffh,c,f
  5046  000DF0  D7FC               	goto	u2827
  5047  000DF2  D000               	nop2
  5048  000DF4  F000               	nop
  5049                           opt subtitle "HI-TECH Software Omniscient Code Generator (Lite mode) build 49521"
  5050  000DF6  D000               	goto	l2193
  5051                           opt subtitle "HI-TECH Software Omniscient Code Generator (Lite mode) build 49521"
  5052                           
  5053  000DF8                     l319:
  5054                           opt subtitle "HI-TECH Software Omniscient Code Generator (Lite mode) build 49521"
  5055                           
  5056  000DF8                     l2193:
  5057                           opt subtitle "HI-TECH Software Omniscient Code Generator (Lite mode) build 49521"
  5058                           
  5059  000DF8  501D               	movf	((c:_cutmode)),c,w
  5060  000DFA  0A03               	xorlw	3
  5061                           opt subtitle "HI-TECH Software Omniscient Code Generator (Lite mode) build 49521"
  5062  000DFC  A4D8               	btfss	status,2
  5063  000DFE  D001               	goto	u1201
  5064  000E00  D001               	goto	u1200
  5065  000E02                     u1201:
  5066  000E02  D00C               	goto	l2199
  5067  000E04                     u1200:
  5068                           opt subtitle "HI-TECH Software Omniscient Code Generator (Lite mode) build 49521"
  5069                           
  5070  000E04                     l2195:
  5071                           opt subtitle "HI-TECH Software Omniscient Code Generator (Lite mode) build 49521"
  5072                           
  5073  000E04  0E70               	movlw	low(070h)
  5074  000E06  6E05               	movwf	(0+((c:_values)+04h)),c	;volatile
  5075                           opt subtitle "HI-TECH Software Omniscient Code Generator (Lite mode) build 49521"
  5076                           
  5077  000E08                     l2197:
  5078                           opt subtitle "HI-TECH Software Omniscient Code Generator (Lite mode) build 49521"
  5079  000E08  0E19               	movlw	25
  5080  000E0A  6E46               movwf	(??_main+0+0)&0ffh,c,f
  5081  000E0C  0E5C               	movlw	92
  5082  000E0E                     u2837:
  5083  000E0E  2EE8               	decfsz	wreg,f
  5084  000E10  D7FE               	goto	u2837
  5085  000E12  2E46               	decfsz	(??_main+0+0)&0ffh,c,f
  5086  000E14  D7FC               	goto	u2837
  5087  000E16  D000               	nop2
  5088  000E18  F000               	nop
  5089                           opt subtitle "HI-TECH Software Omniscient Code Generator (Lite mode) build 49521"
  5090  000E1A  D000               	goto	l2199
  5091                           opt subtitle "HI-TECH Software Omniscient Code Generator (Lite mode) build 49521"
  5092                           
  5093  000E1C                     l320:
  5094                           opt subtitle "HI-TECH Software Omniscient Code Generator (Lite mode) build 49521"
  5095                           
  5096  000E1C                     l2199:
  5097                           opt subtitle "HI-TECH Software Omniscient Code Generator (Lite mode) build 49521"
  5098                           
  5099  000E1C  501D               	movf	((c:_cutmode)),c,w
  5100  000E1E  0A04               	xorlw	4
  5101                           opt subtitle "HI-TECH Software Omniscient Code Generator (Lite mode) build 49521"
  5102  000E20  A4D8               	btfss	status,2
  5103  000E22  D001               	goto	u1211
  5104  000E24  D001               	goto	u1210
  5105  000E26                     u1211:
  5106  000E26  D00B               	goto	l2205
  5107  000E28                     u1210:
  5108                           opt subtitle "HI-TECH Software Omniscient Code Generator (Lite mode) build 49521"
  5109                           
  5110  000E28                     l2201:
  5111                           opt subtitle "HI-TECH Software Omniscient Code Generator (Lite mode) build 49521"
  5112                           
  5113  000E28  681D               	setf	((c:_cutmode)),c
  5114                           opt subtitle "HI-TECH Software Omniscient Code Generator (Lite mode) build 49521"
  5115                           
  5116  000E2A                     l2203:
  5117                           opt subtitle "HI-TECH Software Omniscient Code Generator (Lite mode) build 49521"
  5118  000E2A  0E19               	movlw	25
  5119  000E2C  6E46               movwf	(??_main+0+0)&0ffh,c,f
  5120  000E2E  0E5C               	movlw	92
  5121  000E30                     u2847:
  5122  000E30  2EE8               	decfsz	wreg,f
  5123  000E32  D7FE               	goto	u2847
  5124  000E34  2E46               	decfsz	(??_main+0+0)&0ffh,c,f
  5125  000E36  D7FC               	goto	u2847
  5126  000E38  D000               	nop2
  5127  000E3A  F000               	nop
  5128                           opt subtitle "HI-TECH Software Omniscient Code Generator (Lite mode) build 49521"
  5129  000E3C  D000               	goto	l2205
  5130                           opt subtitle "HI-TECH Software Omniscient Code Generator (Lite mode) build 49521"
  5131                           
  5132  000E3E                     l321:
  5133                           opt subtitle "HI-TECH Software Omniscient Code Generator (Lite mode) build 49521"
  5134                           
  5135  000E3E                     l2205:
  5136                           opt subtitle "HI-TECH Software Omniscient Code Generator (Lite mode) build 49521"
  5137                           
  5138  000E3E  6E46               	movwf	(??_main+0+0)&0ffh,c
  5139  000E40  0E00               	movlw	low(0)
  5140  000E42  6E22               	movwf	((c:_debounce)),c
  5141  000E44  5046               	movf	(??_main+0+0)&0ffh,c,w
  5142                           opt subtitle "HI-TECH Software Omniscient Code Generator (Lite mode) build 49521"
  5143  000E46                     l2207:
  5144  000E46  0EC8               	movlw	(0C9h-1)
  5145  000E48  6422               	cpfsgt	((c:_debounce)),c
  5146  000E4A  D001               	goto	u1221
  5147  000E4C  D001               	goto	u1220
  5148  000E4E                     u1221:
  5149  000E4E  D002               	goto	l2211
  5150  000E50                     u1220:
  5151  000E50  D011               	goto	l316
  5152                           opt subtitle "HI-TECH Software Omniscient Code Generator (Lite mode) build 49521"
  5153  000E52                     l2209:
  5154  000E52  D010               	goto	l316
  5155                           opt subtitle "HI-TECH Software Omniscient Code Generator (Lite mode) build 49521"
  5156                           
  5157  000E54                     l322:
  5158                           opt subtitle "HI-TECH Software Omniscient Code Generator (Lite mode) build 49521"
  5159                           
  5160  000E54                     l2211:
  5161                           opt subtitle "HI-TECH Software Omniscient Code Generator (Lite mode) build 49521"
  5162                           
  5163  000E54  0E19               	movlw	25
  5164  000E56  6E46               movwf	(??_main+0+0)&0ffh,c,f
  5165  000E58  0E5C               	movlw	92
  5166  000E5A                     u2857:
  5167  000E5A  2EE8               	decfsz	wreg,f
  5168  000E5C  D7FE               	goto	u2857
  5169  000E5E  2E46               	decfsz	(??_main+0+0)&0ffh,c,f
  5170  000E60  D7FC               	goto	u2857
  5171  000E62  D000               	nop2
  5172  000E64  F000               	nop
  5173                           opt subtitle "HI-TECH Software Omniscient Code Generator (Lite mode) build 49521"
  5174                           
  5175                           opt pagewidth 120
  5176  000E66                     l2213:
  5177  000E66  2A22               	incf	((c:_debounce)),c
  5178                           opt subtitle "HI-TECH Software Omniscient Code Generator (Lite mode) build 49521"
  5179  000E68                     l2215:
  5180  000E68  0EC8               	movlw	(0C9h-1)
  5181  000E6A  6422               	cpfsgt	((c:_debounce)),c
  5182  000E6C  D001               	goto	u1231
  5183  000E6E  D001               	goto	u1230
  5184  000E70                     u1231:
  5185  000E70  D7F1               	goto	l2211
  5186  000E72                     u1230:
  5187  000E72  D000               	goto	l316
  5188                           opt subtitle "HI-TECH Software Omniscient Code Generator (Lite mode) build 49521"
  5189  000E74                     l323:
  5190                           opt subtitle "HI-TECH Software Omniscient Code Generator (Lite mode) build 49521"
  5191                           
  5192  000E74                     l316:
  5193                           opt subtitle "HI-TECH Software Omniscient Code Generator (Lite mode) build 49521"
  5194                           
  5195                           opt pagewidth 120
  5196                           
  5197                           	opt lm
  5198  000E74  B283               	btfsc	c:(31769/8),(31769)&7	;volatile
  5199  000E76  D001               	goto	u1241
  5200  000E78  D001               	goto	u1240
  5201  000E7A                     u1241:
  5202  000E7A  D07F               	goto	l324
  5203  000E7C                     u1240:
  5204                           opt subtitle "HI-TECH Software Omniscient Code Generator (Lite mode) build 49521"
  5205                           
  5206  000E7C                     l2217:
  5207                           opt subtitle "HI-TECH Software Omniscient Code Generator (Lite mode) build 49521"
  5208                           
  5209  000E7C  0E96               	movlw	(096h)&0ffh
  5210  000E7E  601B               	cpfslt	((c:_coagpower)),c
  5211  000E80  D001               	goto	u1251
  5212  000E82  D001               	goto	u1250
  5213  000E84                     u1251:
  5214  000E84  D03D               	goto	l2243
  5215  000E86                     u1250:
  5216                           opt subtitle "HI-TECH Software Omniscient Code Generator (Lite mode) build 49521"
  5217                           
  5218  000E86                     l2219:
  5219                           opt subtitle "HI-TECH Software Omniscient Code Generator (Lite mode) build 49521"
  5220                           
  5221  000E86  281B               	incf	((c:_coagpower)),c,w
  5222  000E88  6E1B               	movwf	((c:_coagpower)),c
  5223                           opt subtitle "HI-TECH Software Omniscient Code Generator (Lite mode) build 49521"
  5224                           
  5225  000E8A                     l2221:
  5226                           opt subtitle "HI-TECH Software Omniscient Code Generator (Lite mode) build 49521"
  5227  000E8A  C01B  F03D         	movff	(c:_coagpower),(c:?___awdiv)
  5228  000E8E  6A3E               	clrf	((c:?___awdiv+1)),c
  5229  000E90  0E00               	movlw	high(064h)
  5230  000E92  6E40               	movwf	(1+((c:?___awdiv)+02h)),c
  5231  000E94  0E64               	movlw	low(064h)
  5232  000E96  6E3F               	movwf	(0+((c:?___awdiv)+02h)),c
  5233  000E98  EC8C  F00B         	call	___awdiv	;wreg free
  5234  000E9C  503D               	movf	(0+?___awdiv),c,w
  5235  000E9E  6E24               	movwf	((c:_hundreds)),c
  5236                           opt subtitle "HI-TECH Software Omniscient Code Generator (Lite mode) build 49521"
  5237                           
  5238  000EA0                     l2223:
  5239                           opt subtitle "HI-TECH Software Omniscient Code Generator (Lite mode) build 49521"
  5240  000EA0  5024               	movf	((c:_hundreds)),c,w
  5241  000EA2  0D64               	mullw	064h
  5242  000EA4  50F3               	movf	(prodl),c,w
  5243  000EA6  0800               	sublw	0
  5244  000EA8  241B               	addwf	((c:_coagpower)),c,w
  5245  000EAA  6E2A               	movwf	((c:_temp)),c
  5246                           opt subtitle "HI-TECH Software Omniscient Code Generator (Lite mode) build 49521"
  5247                           
  5248  000EAC                     l2225:
  5249                           opt subtitle "HI-TECH Software Omniscient Code Generator (Lite mode) build 49521"
  5250  000EAC  C02A  F03D         	movff	(c:_temp),(c:?___awmod)
  5251  000EB0  6A3E               	clrf	((c:?___awmod+1)),c
  5252  000EB2  0E00               	movlw	high(0Ah)
  5253  000EB4  6E40               	movwf	(1+((c:?___awmod)+02h)),c
  5254  000EB6  0E0A               	movlw	low(0Ah)
  5255  000EB8  6E3F               	movwf	(0+((c:?___awmod)+02h)),c
  5256  000EBA  EC42  F00C         	call	___awmod	;wreg free
  5257  000EBE  503D               	movf	(0+?___awmod),c,w
  5258  000EC0  6E2D               	movwf	((c:_units)),c
  5259                           opt subtitle "HI-TECH Software Omniscient Code Generator (Lite mode) build 49521"
  5260                           
  5261  000EC2                     l2227:
  5262                           opt subtitle "HI-TECH Software Omniscient Code Generator (Lite mode) build 49521"
  5263  000EC2  382D               	swapf	((c:_units)),c,w
  5264  000EC4  0BF0               	andlw	(0ffh shl 4) & 0ffh
  5265  000EC6  6E2D               	movwf	((c:_units)),c
  5266                           opt subtitle "HI-TECH Software Omniscient Code Generator (Lite mode) build 49521"
  5267                           
  5268  000EC8                     l2229:
  5269                           opt subtitle "HI-TECH Software Omniscient Code Generator (Lite mode) build 49521"
  5270  000EC8  C02D  F00D         	movff	(c:_units),0+((c:_values)+0Ch)	;volatile
  5271                           opt subtitle "HI-TECH Software Omniscient Code Generator (Lite mode) build 49521"
  5272                           
  5273  000ECC                     l2231:
  5274                           opt subtitle "HI-TECH Software Omniscient Code Generator (Lite mode) build 49521"
  5275  000ECC  C02A  F03D         	movff	(c:_temp),(c:?___awdiv)
  5276  000ED0  6A3E               	clrf	((c:?___awdiv+1)),c
  5277  000ED2  0E00               	movlw	high(0Ah)
  5278  000ED4  6E40               	movwf	(1+((c:?___awdiv)+02h)),c
  5279  000ED6  0E0A               	movlw	low(0Ah)
  5280  000ED8  6E3F               	movwf	(0+((c:?___awdiv)+02h)),c
  5281  000EDA  EC8C  F00B         	call	___awdiv	;wreg free
  5282  000EDE  503D               	movf	(0+?___awdiv),c,w
  5283  000EE0  6E2B               	movwf	((c:_tens)),c
  5284                           opt subtitle "HI-TECH Software Omniscient Code Generator (Lite mode) build 49521"
  5285                           
  5286  000EE2                     l2233:
  5287                           opt subtitle "HI-TECH Software Omniscient Code Generator (Lite mode) build 49521"
  5288  000EE2  382B               	swapf	((c:_tens)),c,w
  5289  000EE4  0BF0               	andlw	(0ffh shl 4) & 0ffh
  5290  000EE6  6E2B               	movwf	((c:_tens)),c
  5291                           opt subtitle "HI-TECH Software Omniscient Code Generator (Lite mode) build 49521"
  5292                           
  5293  000EE8                     l2235:
  5294                           opt subtitle "HI-TECH Software Omniscient Code Generator (Lite mode) build 49521"
  5295  000EE8  C02B  F00B         	movff	(c:_tens),0+((c:_values)+0Ah)	;volatile
  5296                           opt subtitle "HI-TECH Software Omniscient Code Generator (Lite mode) build 49521"
  5297                           
  5298  000EEC                     l2237:
  5299                           opt subtitle "HI-TECH Software Omniscient Code Generator (Lite mode) build 49521"
  5300  000EEC  3824               	swapf	((c:_hundreds)),c,w
  5301  000EEE  0BF0               	andlw	(0ffh shl 4) & 0ffh
  5302  000EF0  6E24               	movwf	((c:_hundreds)),c
  5303                           opt subtitle "HI-TECH Software Omniscient Code Generator (Lite mode) build 49521"
  5304                           
  5305  000EF2                     l2239:
  5306                           opt subtitle "HI-TECH Software Omniscient Code Generator (Lite mode) build 49521"
  5307  000EF2  C024  F00A         	movff	(c:_hundreds),0+((c:_values)+09h)	;volatile
  5308                           opt subtitle "HI-TECH Software Omniscient Code Generator (Lite mode) build 49521"
  5309                           
  5310  000EF6                     l2241:
  5311                           opt subtitle "HI-TECH Software Omniscient Code Generator (Lite mode) build 49521"
  5312  000EF6  6E46               	movwf	(??_main+0+0)&0ffh,c
  5313  000EF8  0E01               	movlw	low(01h)
  5314  000EFA  6E2E               	movwf	((c:_wrfl)),c
  5315  000EFC  5046               	movf	(??_main+0+0)&0ffh,c,w
  5316  000EFE  D000               	goto	l2243
  5317                           opt subtitle "HI-TECH Software Omniscient Code Generator (Lite mode) build 49521"
  5318                           
  5319  000F00                     l325:
  5320                           opt subtitle "HI-TECH Software Omniscient Code Generator (Lite mode) build 49521"
  5321                           
  5322  000F00                     l2243:
  5323                           opt subtitle "HI-TECH Software Omniscient Code Generator (Lite mode) build 49521"
  5324                           
  5325  000F00  6619               	tstfsz	((c:_cnt)),c
  5326  000F02  D001               	goto	u1261
  5327  000F04  D001               	goto	u1260
  5328  000F06                     u1261:
  5329  000F06  D01D               	goto	l2259
  5330  000F08                     u1260:
  5331                           opt subtitle "HI-TECH Software Omniscient Code Generator (Lite mode) build 49521"
  5332                           
  5333  000F08                     l2245:
  5334                           opt subtitle "HI-TECH Software Omniscient Code Generator (Lite mode) build 49521"
  5335                           
  5336  000F08  6E46               	movwf	(??_main+0+0)&0ffh,c
  5337  000F0A  0E00               	movlw	low(0)
  5338  000F0C  6E22               	movwf	((c:_debounce)),c
  5339  000F0E  5046               	movf	(??_main+0+0)&0ffh,c,w
  5340                           opt subtitle "HI-TECH Software Omniscient Code Generator (Lite mode) build 49521"
  5341  000F10                     l2247:
  5342  000F10  0EC8               	movlw	(0C9h-1)
  5343  000F12  6422               	cpfsgt	((c:_debounce)),c
  5344  000F14  D001               	goto	u1271
  5345  000F16  D001               	goto	u1270
  5346  000F18                     u1271:
  5347  000F18  D002               	goto	l2251
  5348  000F1A                     u1270:
  5349  000F1A  D010               	goto	l2257
  5350                           opt subtitle "HI-TECH Software Omniscient Code Generator (Lite mode) build 49521"
  5351  000F1C                     l2249:
  5352  000F1C  D00F               	goto	l2257
  5353                           opt subtitle "HI-TECH Software Omniscient Code Generator (Lite mode) build 49521"
  5354                           
  5355  000F1E                     l327:
  5356                           opt subtitle "HI-TECH Software Omniscient Code Generator (Lite mode) build 49521"
  5357                           
  5358  000F1E                     l2251:
  5359                           opt subtitle "HI-TECH Software Omniscient Code Generator (Lite mode) build 49521"
  5360                           
  5361  000F1E  0E14               	movlw	20
  5362  000F20  6E46               movwf	(??_main+0+0)&0ffh,c,f
  5363  000F22  0E7D               	movlw	125
  5364  000F24                     u2867:
  5365  000F24  2EE8               	decfsz	wreg,f
  5366  000F26  D7FE               	goto	u2867
  5367  000F28  2E46               	decfsz	(??_main+0+0)&0ffh,c,f
  5368  000F2A  D7FC               	goto	u2867
  5369  000F2C  F000               	nop
  5370                           opt subtitle "HI-TECH Software Omniscient Code Generator (Lite mode) build 49521"
  5371                           
  5372                           opt pagewidth 120
  5373  000F2E                     l2253:
  5374  000F2E  2A22               	incf	((c:_debounce)),c
  5375                           opt subtitle "HI-TECH Software Omniscient Code Generator (Lite mode) build 49521"
  5376  000F30                     l2255:
  5377  000F30  0EC8               	movlw	(0C9h-1)
  5378  000F32  6422               	cpfsgt	((c:_debounce)),c
  5379  000F34  D001               	goto	u1281
  5380  000F36  D001               	goto	u1280
  5381  000F38                     u1281:
  5382  000F38  D7F2               	goto	l2251
  5383  000F3A                     u1280:
  5384  000F3A  D000               	goto	l2257
  5385                           opt subtitle "HI-TECH Software Omniscient Code Generator (Lite mode) build 49521"
  5386  000F3C                     l328:
  5387                           opt subtitle "HI-TECH Software Omniscient Code Generator (Lite mode) build 49521"
  5388                           
  5389  000F3C                     l2257:
  5390                           opt subtitle "HI-TECH Software Omniscient Code Generator (Lite mode) build 49521"
  5391                           
  5392  000F3C  2819               	incf	((c:_cnt)),c,w
  5393  000F3E  6E19               	movwf	((c:_cnt)),c
  5394                           opt subtitle "HI-TECH Software Omniscient Code Generator (Lite mode) build 49521"
  5395                           
  5396  000F40  D01C               	goto	l324
  5397                           opt subtitle "HI-TECH Software Omniscient Code Generator (Lite mode) build 49521"
  5398                           
  5399  000F42                     l326:
  5400                           opt subtitle "HI-TECH Software Omniscient Code Generator (Lite mode) build 49521"
  5401                           
  5402  000F42                     l2259:
  5403                           opt subtitle "HI-TECH Software Omniscient Code Generator (Lite mode) build 49521"
  5404                           
  5405                           opt pagewidth 120
  5406  000F42  6E46               	movwf	(??_main+0+0)&0ffh,c
  5407  000F44  0E00               	movlw	low(0)
  5408  000F46  6E22               	movwf	((c:_debounce)),c
  5409  000F48  5046               	movf	(??_main+0+0)&0ffh,c,w
  5410                           opt subtitle "HI-TECH Software Omniscient Code Generator (Lite mode) build 49521"
  5411  000F4A                     l2261:
  5412  000F4A  0E64               	movlw	(065h-1)
  5413  000F4C  6422               	cpfsgt	((c:_debounce)),c
  5414  000F4E  D001               	goto	u1291
  5415  000F50  D001               	goto	u1290
  5416  000F52                     u1291:
  5417  000F52  D002               	goto	l2265
  5418  000F54                     u1290:
  5419  000F54  D012               	goto	l324
  5420                           opt subtitle "HI-TECH Software Omniscient Code Generator (Lite mode) build 49521"
  5421  000F56                     l2263:
  5422  000F56  D011               	goto	l324
  5423                           opt subtitle "HI-TECH Software Omniscient Code Generator (Lite mode) build 49521"
  5424                           
  5425  000F58                     l330:
  5426                           opt subtitle "HI-TECH Software Omniscient Code Generator (Lite mode) build 49521"
  5427                           
  5428  000F58                     l2265:
  5429                           opt subtitle "HI-TECH Software Omniscient Code Generator (Lite mode) build 49521"
  5430                           
  5431  000F58  0E03               	movlw	3
  5432  000F5A  6E46               movwf	(??_main+0+0)&0ffh,c,f
  5433  000F5C  0EEB               	movlw	235
  5434  000F5E                     u2877:
  5435  000F5E  2EE8               	decfsz	wreg,f
  5436  000F60  D7FE               	goto	u2877
  5437  000F62  2E46               	decfsz	(??_main+0+0)&0ffh,c,f
  5438  000F64  D7FC               	goto	u2877
  5439  000F66  D000               	nop2
  5440  000F68  F000               	nop
  5441                           opt subtitle "HI-TECH Software Omniscient Code Generator (Lite mode) build 49521"
  5442                           
  5443                           opt pagewidth 120
  5444  000F6A                     l2267:
  5445  000F6A  2A22               	incf	((c:_debounce)),c
  5446                           opt subtitle "HI-TECH Software Omniscient Code Generator (Lite mode) build 49521"
  5447  000F6C                     l2269:
  5448  000F6C  0E64               	movlw	(065h-1)
  5449  000F6E  6422               	cpfsgt	((c:_debounce)),c
  5450  000F70  D001               	goto	u1301
  5451  000F72  D001               	goto	u1300
  5452  000F74                     u1301:
  5453  000F74  D7F1               	goto	l2265
  5454  000F76                     u1300:
  5455  000F76  D001               	goto	l324
  5456                           opt subtitle "HI-TECH Software Omniscient Code Generator (Lite mode) build 49521"
  5457  000F78                     l331:
  5458  000F78  D000               	goto	l324
  5459                           opt subtitle "HI-TECH Software Omniscient Code Generator (Lite mode) build 49521"
  5460                           
  5461  000F7A                     l329:
  5462                           opt subtitle "HI-TECH Software Omniscient Code Generator (Lite mode) build 49521"
  5463                           
  5464  000F7A                     l324:
  5465                           opt subtitle "HI-TECH Software Omniscient Code Generator (Lite mode) build 49521"
  5466                           
  5467                           opt pagewidth 120
  5468                           
  5469                           	opt lm
  5470  000F7A  B483               	btfsc	c:(31770/8),(31770)&7	;volatile
  5471  000F7C  D001               	goto	u1311
  5472  000F7E  D001               	goto	u1310
  5473  000F80                     u1311:
  5474  000F80  D07F               	goto	l332
  5475  000F82                     u1310:
  5476                           opt subtitle "HI-TECH Software Omniscient Code Generator (Lite mode) build 49521"
  5477                           
  5478  000F82                     l2271:
  5479                           opt subtitle "HI-TECH Software Omniscient Code Generator (Lite mode) build 49521"
  5480                           
  5481  000F82  501B               	movf	((c:_coagpower)),c,w
  5482  000F84  B4D8               	btfsc	status,2
  5483  000F86  D001               	goto	u1321
  5484  000F88  D001               	goto	u1320
  5485  000F8A                     u1321:
  5486  000F8A  D03D               	goto	l2297
  5487  000F8C                     u1320:
  5488                           opt subtitle "HI-TECH Software Omniscient Code Generator (Lite mode) build 49521"
  5489                           
  5490  000F8C                     l2273:
  5491                           opt subtitle "HI-TECH Software Omniscient Code Generator (Lite mode) build 49521"
  5492                           
  5493  000F8C  041B               	decf	((c:_coagpower)),c,w
  5494  000F8E  6E1B               	movwf	((c:_coagpower)),c
  5495                           opt subtitle "HI-TECH Software Omniscient Code Generator (Lite mode) build 49521"
  5496                           
  5497  000F90                     l2275:
  5498                           opt subtitle "HI-TECH Software Omniscient Code Generator (Lite mode) build 49521"
  5499  000F90  C01B  F03D         	movff	(c:_coagpower),(c:?___awdiv)
  5500  000F94  6A3E               	clrf	((c:?___awdiv+1)),c
  5501  000F96  0E00               	movlw	high(064h)
  5502  000F98  6E40               	movwf	(1+((c:?___awdiv)+02h)),c
  5503  000F9A  0E64               	movlw	low(064h)
  5504  000F9C  6E3F               	movwf	(0+((c:?___awdiv)+02h)),c
  5505  000F9E  EC8C  F00B         	call	___awdiv	;wreg free
  5506  000FA2  503D               	movf	(0+?___awdiv),c,w
  5507  000FA4  6E24               	movwf	((c:_hundreds)),c
  5508                           opt subtitle "HI-TECH Software Omniscient Code Generator (Lite mode) build 49521"
  5509                           
  5510  000FA6                     l2277:
  5511                           opt subtitle "HI-TECH Software Omniscient Code Generator (Lite mode) build 49521"
  5512  000FA6  5024               	movf	((c:_hundreds)),c,w
  5513  000FA8  0D64               	mullw	064h
  5514  000FAA  50F3               	movf	(prodl),c,w
  5515  000FAC  0800               	sublw	0
  5516  000FAE  241B               	addwf	((c:_coagpower)),c,w
  5517  000FB0  6E2A               	movwf	((c:_temp)),c
  5518                           opt subtitle "HI-TECH Software Omniscient Code Generator (Lite mode) build 49521"
  5519                           
  5520  000FB2                     l2279:
  5521                           opt subtitle "HI-TECH Software Omniscient Code Generator (Lite mode) build 49521"
  5522  000FB2  C02A  F03D         	movff	(c:_temp),(c:?___awmod)
  5523  000FB6  6A3E               	clrf	((c:?___awmod+1)),c
  5524  000FB8  0E00               	movlw	high(0Ah)
  5525  000FBA  6E40               	movwf	(1+((c:?___awmod)+02h)),c
  5526  000FBC  0E0A               	movlw	low(0Ah)
  5527  000FBE  6E3F               	movwf	(0+((c:?___awmod)+02h)),c
  5528  000FC0  EC42  F00C         	call	___awmod	;wreg free
  5529  000FC4  503D               	movf	(0+?___awmod),c,w
  5530  000FC6  6E2D               	movwf	((c:_units)),c
  5531                           opt subtitle "HI-TECH Software Omniscient Code Generator (Lite mode) build 49521"
  5532                           
  5533  000FC8                     l2281:
  5534                           opt subtitle "HI-TECH Software Omniscient Code Generator (Lite mode) build 49521"
  5535  000FC8  382D               	swapf	((c:_units)),c,w
  5536  000FCA  0BF0               	andlw	(0ffh shl 4) & 0ffh
  5537  000FCC  6E2D               	movwf	((c:_units)),c
  5538                           opt subtitle "HI-TECH Software Omniscient Code Generator (Lite mode) build 49521"
  5539                           
  5540  000FCE                     l2283:
  5541                           opt subtitle "HI-TECH Software Omniscient Code Generator (Lite mode) build 49521"
  5542  000FCE  C02D  F00D         	movff	(c:_units),0+((c:_values)+0Ch)	;volatile
  5543                           opt subtitle "HI-TECH Software Omniscient Code Generator (Lite mode) build 49521"
  5544                           
  5545  000FD2                     l2285:
  5546                           opt subtitle "HI-TECH Software Omniscient Code Generator (Lite mode) build 49521"
  5547  000FD2  C02A  F03D         	movff	(c:_temp),(c:?___awdiv)
  5548  000FD6  6A3E               	clrf	((c:?___awdiv+1)),c
  5549  000FD8  0E00               	movlw	high(0Ah)
  5550  000FDA  6E40               	movwf	(1+((c:?___awdiv)+02h)),c
  5551  000FDC  0E0A               	movlw	low(0Ah)
  5552  000FDE  6E3F               	movwf	(0+((c:?___awdiv)+02h)),c
  5553  000FE0  EC8C  F00B         	call	___awdiv	;wreg free
  5554  000FE4  503D               	movf	(0+?___awdiv),c,w
  5555  000FE6  6E2B               	movwf	((c:_tens)),c
  5556                           opt subtitle "HI-TECH Software Omniscient Code Generator (Lite mode) build 49521"
  5557                           
  5558  000FE8                     l2287:
  5559                           opt subtitle "HI-TECH Software Omniscient Code Generator (Lite mode) build 49521"
  5560  000FE8  382B               	swapf	((c:_tens)),c,w
  5561  000FEA  0BF0               	andlw	(0ffh shl 4) & 0ffh
  5562  000FEC  6E2B               	movwf	((c:_tens)),c
  5563                           opt subtitle "HI-TECH Software Omniscient Code Generator (Lite mode) build 49521"
  5564                           
  5565  000FEE                     l2289:
  5566                           opt subtitle "HI-TECH Software Omniscient Code Generator (Lite mode) build 49521"
  5567  000FEE  C02B  F00B         	movff	(c:_tens),0+((c:_values)+0Ah)	;volatile
  5568                           opt subtitle "HI-TECH Software Omniscient Code Generator (Lite mode) build 49521"
  5569                           
  5570  000FF2                     l2291:
  5571                           opt subtitle "HI-TECH Software Omniscient Code Generator (Lite mode) build 49521"
  5572  000FF2  3824               	swapf	((c:_hundreds)),c,w
  5573  000FF4  0BF0               	andlw	(0ffh shl 4) & 0ffh
  5574  000FF6  6E24               	movwf	((c:_hundreds)),c
  5575                           opt subtitle "HI-TECH Software Omniscient Code Generator (Lite mode) build 49521"
  5576                           
  5577  000FF8                     l2293:
  5578                           opt subtitle "HI-TECH Software Omniscient Code Generator (Lite mode) build 49521"
  5579  000FF8  C024  F00A         	movff	(c:_hundreds),0+((c:_values)+09h)	;volatile
  5580                           opt subtitle "HI-TECH Software Omniscient Code Generator (Lite mode) build 49521"
  5581                           
  5582  000FFC                     l2295:
  5583                           opt subtitle "HI-TECH Software Omniscient Code Generator (Lite mode) build 49521"
  5584  000FFC  6E46               	movwf	(??_main+0+0)&0ffh,c
  5585  000FFE  0E01               	movlw	low(01h)
  5586  001000  6E2E               	movwf	((c:_wrfl)),c
  5587  001002  5046               	movf	(??_main+0+0)&0ffh,c,w
  5588  001004  D000               	goto	l2297
  5589                           opt subtitle "HI-TECH Software Omniscient Code Generator (Lite mode) build 49521"
  5590                           
  5591  001006                     l333:
  5592                           opt subtitle "HI-TECH Software Omniscient Code Generator (Lite mode) build 49521"
  5593                           
  5594  001006                     l2297:
  5595                           opt subtitle "HI-TECH Software Omniscient Code Generator (Lite mode) build 49521"
  5596                           
  5597  001006  6619               	tstfsz	((c:_cnt)),c
  5598  001008  D001               	goto	u1331
  5599  00100A  D001               	goto	u1330
  5600  00100C                     u1331:
  5601  00100C  D01D               	goto	l2313
  5602  00100E                     u1330:
  5603                           opt subtitle "HI-TECH Software Omniscient Code Generator (Lite mode) build 49521"
  5604                           
  5605  00100E                     l2299:
  5606                           opt subtitle "HI-TECH Software Omniscient Code Generator (Lite mode) build 49521"
  5607                           
  5608  00100E  6E46               	movwf	(??_main+0+0)&0ffh,c
  5609  001010  0E00               	movlw	low(0)
  5610  001012  6E22               	movwf	((c:_debounce)),c
  5611  001014  5046               	movf	(??_main+0+0)&0ffh,c,w
  5612                           opt subtitle "HI-TECH Software Omniscient Code Generator (Lite mode) build 49521"
  5613  001016                     l2301:
  5614  001016  0EC8               	movlw	(0C9h-1)
  5615  001018  6422               	cpfsgt	((c:_debounce)),c
  5616  00101A  D001               	goto	u1341
  5617  00101C  D001               	goto	u1340
  5618  00101E                     u1341:
  5619  00101E  D002               	goto	l2305
  5620  001020                     u1340:
  5621  001020  D010               	goto	l2311
  5622                           opt subtitle "HI-TECH Software Omniscient Code Generator (Lite mode) build 49521"
  5623  001022                     l2303:
  5624  001022  D00F               	goto	l2311
  5625                           opt subtitle "HI-TECH Software Omniscient Code Generator (Lite mode) build 49521"
  5626                           
  5627  001024                     l335:
  5628                           opt subtitle "HI-TECH Software Omniscient Code Generator (Lite mode) build 49521"
  5629                           
  5630  001024                     l2305:
  5631                           opt subtitle "HI-TECH Software Omniscient Code Generator (Lite mode) build 49521"
  5632                           
  5633  001024  0E14               	movlw	20
  5634  001026  6E46               movwf	(??_main+0+0)&0ffh,c,f
  5635  001028  0E7D               	movlw	125
  5636  00102A                     u2887:
  5637  00102A  2EE8               	decfsz	wreg,f
  5638  00102C  D7FE               	goto	u2887
  5639  00102E  2E46               	decfsz	(??_main+0+0)&0ffh,c,f
  5640  001030  D7FC               	goto	u2887
  5641  001032  F000               	nop
  5642                           opt subtitle "HI-TECH Software Omniscient Code Generator (Lite mode) build 49521"
  5643                           
  5644                           opt pagewidth 120
  5645  001034                     l2307:
  5646  001034  2A22               	incf	((c:_debounce)),c
  5647                           opt subtitle "HI-TECH Software Omniscient Code Generator (Lite mode) build 49521"
  5648  001036                     l2309:
  5649  001036  0EC8               	movlw	(0C9h-1)
  5650  001038  6422               	cpfsgt	((c:_debounce)),c
  5651  00103A  D001               	goto	u1351
  5652  00103C  D001               	goto	u1350
  5653  00103E                     u1351:
  5654  00103E  D7F2               	goto	l2305
  5655  001040                     u1350:
  5656  001040  D000               	goto	l2311
  5657                           opt subtitle "HI-TECH Software Omniscient Code Generator (Lite mode) build 49521"
  5658  001042                     l336:
  5659                           opt subtitle "HI-TECH Software Omniscient Code Generator (Lite mode) build 49521"
  5660                           
  5661  001042                     l2311:
  5662                           opt subtitle "HI-TECH Software Omniscient Code Generator (Lite mode) build 49521"
  5663                           
  5664  001042  2819               	incf	((c:_cnt)),c,w
  5665  001044  6E19               	movwf	((c:_cnt)),c
  5666                           opt subtitle "HI-TECH Software Omniscient Code Generator (Lite mode) build 49521"
  5667                           
  5668  001046  D01C               	goto	l332
  5669                           opt subtitle "HI-TECH Software Omniscient Code Generator (Lite mode) build 49521"
  5670                           
  5671  001048                     l334:
  5672                           opt subtitle "HI-TECH Software Omniscient Code Generator (Lite mode) build 49521"
  5673                           
  5674  001048                     l2313:
  5675                           opt subtitle "HI-TECH Software Omniscient Code Generator (Lite mode) build 49521"
  5676                           
  5677                           opt pagewidth 120
  5678  001048  6E46               	movwf	(??_main+0+0)&0ffh,c
  5679  00104A  0E00               	movlw	low(0)
  5680  00104C  6E22               	movwf	((c:_debounce)),c
  5681  00104E  5046               	movf	(??_main+0+0)&0ffh,c,w
  5682                           opt subtitle "HI-TECH Software Omniscient Code Generator (Lite mode) build 49521"
  5683  001050                     l2315:
  5684  001050  0E64               	movlw	(065h-1)
  5685  001052  6422               	cpfsgt	((c:_debounce)),c
  5686  001054  D001               	goto	u1361
  5687  001056  D001               	goto	u1360
  5688  001058                     u1361:
  5689  001058  D002               	goto	l2319
  5690  00105A                     u1360:
  5691  00105A  D012               	goto	l332
  5692                           opt subtitle "HI-TECH Software Omniscient Code Generator (Lite mode) build 49521"
  5693  00105C                     l2317:
  5694  00105C  D011               	goto	l332
  5695                           opt subtitle "HI-TECH Software Omniscient Code Generator (Lite mode) build 49521"
  5696                           
  5697  00105E                     l338:
  5698                           opt subtitle "HI-TECH Software Omniscient Code Generator (Lite mode) build 49521"
  5699                           
  5700  00105E                     l2319:
  5701                           opt subtitle "HI-TECH Software Omniscient Code Generator (Lite mode) build 49521"
  5702                           
  5703  00105E  0E03               	movlw	3
  5704  001060  6E46               movwf	(??_main+0+0)&0ffh,c,f
  5705  001062  0EEB               	movlw	235
  5706  001064                     u2897:
  5707  001064  2EE8               	decfsz	wreg,f
  5708  001066  D7FE               	goto	u2897
  5709  001068  2E46               	decfsz	(??_main+0+0)&0ffh,c,f
  5710  00106A  D7FC               	goto	u2897
  5711  00106C  D000               	nop2
  5712  00106E  F000               	nop
  5713                           opt subtitle "HI-TECH Software Omniscient Code Generator (Lite mode) build 49521"
  5714                           
  5715                           opt pagewidth 120
  5716  001070                     l2321:
  5717  001070  2A22               	incf	((c:_debounce)),c
  5718                           opt subtitle "HI-TECH Software Omniscient Code Generator (Lite mode) build 49521"
  5719  001072                     l2323:
  5720  001072  0E64               	movlw	(065h-1)
  5721  001074  6422               	cpfsgt	((c:_debounce)),c
  5722  001076  D001               	goto	u1371
  5723  001078  D001               	goto	u1370
  5724  00107A                     u1371:
  5725  00107A  D7F1               	goto	l2319
  5726  00107C                     u1370:
  5727  00107C  D001               	goto	l332
  5728                           opt subtitle "HI-TECH Software Omniscient Code Generator (Lite mode) build 49521"
  5729  00107E                     l339:
  5730  00107E  D000               	goto	l332
  5731                           opt subtitle "HI-TECH Software Omniscient Code Generator (Lite mode) build 49521"
  5732                           
  5733  001080                     l337:
  5734                           opt subtitle "HI-TECH Software Omniscient Code Generator (Lite mode) build 49521"
  5735                           
  5736  001080                     l332:
  5737                           opt subtitle "HI-TECH Software Omniscient Code Generator (Lite mode) build 49521"
  5738                           
  5739                           opt pagewidth 120
  5740                           
  5741                           	opt lm
  5742  001080  B683               	btfsc	c:(31771/8),(31771)&7	;volatile
  5743  001082  D001               	goto	u1381
  5744  001084  D001               	goto	u1380
  5745  001086                     u1381:
  5746  001086  D01F               	goto	l340
  5747  001088                     u1380:
  5748                           opt subtitle "HI-TECH Software Omniscient Code Generator (Lite mode) build 49521"
  5749  001088                     l2325:
  5750  001088  6619               	tstfsz	((c:_cnt)),c
  5751  00108A  D001               	goto	u1391
  5752  00108C  D001               	goto	u1390
  5753  00108E                     u1391:
  5754  00108E  D01B               	goto	l340
  5755  001090                     u1390:
  5756                           opt subtitle "HI-TECH Software Omniscient Code Generator (Lite mode) build 49521"
  5757                           
  5758  001090                     l2327:
  5759                           opt subtitle "HI-TECH Software Omniscient Code Generator (Lite mode) build 49521"
  5760                           
  5761  001090  6E46               	movwf	(??_main+0+0)&0ffh,c
  5762  001092  0E00               	movlw	low(0)
  5763  001094  6E22               	movwf	((c:_debounce)),c
  5764  001096  5046               	movf	(??_main+0+0)&0ffh,c,w
  5765                           opt subtitle "HI-TECH Software Omniscient Code Generator (Lite mode) build 49521"
  5766  001098                     l2329:
  5767  001098  0EC8               	movlw	(0C9h-1)
  5768  00109A  6422               	cpfsgt	((c:_debounce)),c
  5769  00109C  D001               	goto	u1401
  5770  00109E  D001               	goto	u1400
  5771  0010A0                     u1401:
  5772  0010A0  D002               	goto	l2333
  5773  0010A2                     u1400:
  5774  0010A2  D011               	goto	l340
  5775                           opt subtitle "HI-TECH Software Omniscient Code Generator (Lite mode) build 49521"
  5776  0010A4                     l2331:
  5777  0010A4  D010               	goto	l340
  5778                           opt subtitle "HI-TECH Software Omniscient Code Generator (Lite mode) build 49521"
  5779                           
  5780  0010A6                     l341:
  5781                           opt subtitle "HI-TECH Software Omniscient Code Generator (Lite mode) build 49521"
  5782                           
  5783  0010A6                     l2333:
  5784                           opt subtitle "HI-TECH Software Omniscient Code Generator (Lite mode) build 49521"
  5785                           
  5786  0010A6  0E19               	movlw	25
  5787  0010A8  6E46               movwf	(??_main+0+0)&0ffh,c,f
  5788  0010AA  0E5C               	movlw	92
  5789  0010AC                     u2907:
  5790  0010AC  2EE8               	decfsz	wreg,f
  5791  0010AE  D7FE               	goto	u2907
  5792  0010B0  2E46               	decfsz	(??_main+0+0)&0ffh,c,f
  5793  0010B2  D7FC               	goto	u2907
  5794  0010B4  D000               	nop2
  5795  0010B6  F000               	nop
  5796                           opt subtitle "HI-TECH Software Omniscient Code Generator (Lite mode) build 49521"
  5797                           
  5798                           opt pagewidth 120
  5799  0010B8                     l2335:
  5800  0010B8  2A22               	incf	((c:_debounce)),c
  5801                           opt subtitle "HI-TECH Software Omniscient Code Generator (Lite mode) build 49521"
  5802  0010BA                     l2337:
  5803  0010BA  0EC8               	movlw	(0C9h-1)
  5804  0010BC  6422               	cpfsgt	((c:_debounce)),c
  5805  0010BE  D001               	goto	u1411
  5806  0010C0  D001               	goto	u1410
  5807  0010C2                     u1411:
  5808  0010C2  D7F1               	goto	l2333
  5809  0010C4                     u1410:
  5810  0010C4  D000               	goto	l340
  5811                           opt subtitle "HI-TECH Software Omniscient Code Generator (Lite mode) build 49521"
  5812  0010C6                     l342:
  5813                           opt subtitle "HI-TECH Software Omniscient Code Generator (Lite mode) build 49521"
  5814                           
  5815  0010C6                     l340:
  5816                           opt subtitle "HI-TECH Software Omniscient Code Generator (Lite mode) build 49521"
  5817                           
  5818                           opt pagewidth 120
  5819                           
  5820  0010C6  B683               	btfsc	c:(31771/8),(31771)&7	;volatile
  5821  0010C8  D001               	goto	u1421
  5822  0010CA  D001               	goto	u1420
  5823  0010CC                     u1421:
  5824  0010CC  D047               	goto	l2365
  5825  0010CE                     u1420:
  5826                           opt subtitle "HI-TECH Software Omniscient Code Generator (Lite mode) build 49521"
  5827                           
  5828  0010CE                     l2339:
  5829                           opt subtitle "HI-TECH Software Omniscient Code Generator (Lite mode) build 49521"
  5830                           
  5831  0010CE  281A               	incf	((c:_coagmode)),c,w
  5832  0010D0  6E1A               	movwf	((c:_coagmode)),c
  5833                           opt subtitle "HI-TECH Software Omniscient Code Generator (Lite mode) build 49521"
  5834                           
  5835  0010D2                     l2341:
  5836                           opt subtitle "HI-TECH Software Omniscient Code Generator (Lite mode) build 49521"
  5837  0010D2  661A               	tstfsz	((c:_coagmode)),c
  5838  0010D4  D001               	goto	u1431
  5839  0010D6  D001               	goto	u1430
  5840  0010D8                     u1431:
  5841  0010D8  D00C               	goto	l2347
  5842  0010DA                     u1430:
  5843                           opt subtitle "HI-TECH Software Omniscient Code Generator (Lite mode) build 49521"
  5844                           
  5845  0010DA                     l2343:
  5846                           opt subtitle "HI-TECH Software Omniscient Code Generator (Lite mode) build 49521"
  5847                           
  5848  0010DA  0E40               	movlw	low(040h)
  5849  0010DC  6E05               	movwf	(0+((c:_values)+04h)),c	;volatile
  5850                           opt subtitle "HI-TECH Software Omniscient Code Generator (Lite mode) build 49521"
  5851                           
  5852  0010DE                     l2345:
  5853                           opt subtitle "HI-TECH Software Omniscient Code Generator (Lite mode) build 49521"
  5854  0010DE  0E19               	movlw	25
  5855  0010E0  6E46               movwf	(??_main+0+0)&0ffh,c,f
  5856  0010E2  0E5C               	movlw	92
  5857  0010E4                     u2917:
  5858  0010E4  2EE8               	decfsz	wreg,f
  5859  0010E6  D7FE               	goto	u2917
  5860  0010E8  2E46               	decfsz	(??_main+0+0)&0ffh,c,f
  5861  0010EA  D7FC               	goto	u2917
  5862  0010EC  D000               	nop2
  5863  0010EE  F000               	nop
  5864                           opt subtitle "HI-TECH Software Omniscient Code Generator (Lite mode) build 49521"
  5865  0010F0  D000               	goto	l2347
  5866                           opt subtitle "HI-TECH Software Omniscient Code Generator (Lite mode) build 49521"
  5867                           
  5868  0010F2                     l344:
  5869                           opt subtitle "HI-TECH Software Omniscient Code Generator (Lite mode) build 49521"
  5870                           
  5871  0010F2                     l2347:
  5872                           opt subtitle "HI-TECH Software Omniscient Code Generator (Lite mode) build 49521"
  5873                           
  5874  0010F2  041A               	decf	((c:_coagmode)),c,w
  5875                           opt subtitle "HI-TECH Software Omniscient Code Generator (Lite mode) build 49521"
  5876  0010F4  A4D8               	btfss	status,2
  5877  0010F6  D001               	goto	u1441
  5878  0010F8  D001               	goto	u1440
  5879  0010FA                     u1441:
  5880  0010FA  D00C               	goto	l2353
  5881  0010FC                     u1440:
  5882                           opt subtitle "HI-TECH Software Omniscient Code Generator (Lite mode) build 49521"
  5883                           
  5884  0010FC                     l2349:
  5885                           opt subtitle "HI-TECH Software Omniscient Code Generator (Lite mode) build 49521"
  5886                           
  5887  0010FC  0EF0               	movlw	low(0F0h)
  5888  0010FE  6E05               	movwf	(0+((c:_values)+04h)),c	;volatile
  5889                           opt subtitle "HI-TECH Software Omniscient Code Generator (Lite mode) build 49521"
  5890                           
  5891  001100                     l2351:
  5892                           opt subtitle "HI-TECH Software Omniscient Code Generator (Lite mode) build 49521"
  5893  001100  0E19               	movlw	25
  5894  001102  6E46               movwf	(??_main+0+0)&0ffh,c,f
  5895  001104  0E5C               	movlw	92
  5896  001106                     u2927:
  5897  001106  2EE8               	decfsz	wreg,f
  5898  001108  D7FE               	goto	u2927
  5899  00110A  2E46               	decfsz	(??_main+0+0)&0ffh,c,f
  5900  00110C  D7FC               	goto	u2927
  5901  00110E  D000               	nop2
  5902  001110  F000               	nop
  5903                           opt subtitle "HI-TECH Software Omniscient Code Generator (Lite mode) build 49521"
  5904  001112  D000               	goto	l2353
  5905                           opt subtitle "HI-TECH Software Omniscient Code Generator (Lite mode) build 49521"
  5906                           
  5907  001114                     l345:
  5908                           opt subtitle "HI-TECH Software Omniscient Code Generator (Lite mode) build 49521"
  5909                           
  5910  001114                     l2353:
  5911                           opt subtitle "HI-TECH Software Omniscient Code Generator (Lite mode) build 49521"
  5912                           
  5913  001114  501A               	movf	((c:_coagmode)),c,w
  5914  001116  0A02               	xorlw	2
  5915                           opt subtitle "HI-TECH Software Omniscient Code Generator (Lite mode) build 49521"
  5916  001118  A4D8               	btfss	status,2
  5917  00111A  D001               	goto	u1451
  5918  00111C  D001               	goto	u1450
  5919  00111E                     u1451:
  5920  00111E  D00C               	goto	l2359
  5921  001120                     u1450:
  5922                           opt subtitle "HI-TECH Software Omniscient Code Generator (Lite mode) build 49521"
  5923                           
  5924  001120                     l2355:
  5925                           opt subtitle "HI-TECH Software Omniscient Code Generator (Lite mode) build 49521"
  5926                           
  5927  001120  0E70               	movlw	low(070h)
  5928  001122  6E0C               	movwf	(0+((c:_values)+0Bh)),c	;volatile
  5929                           opt subtitle "HI-TECH Software Omniscient Code Generator (Lite mode) build 49521"
  5930                           
  5931  001124                     l2357:
  5932                           opt subtitle "HI-TECH Software Omniscient Code Generator (Lite mode) build 49521"
  5933  001124  0E19               	movlw	25
  5934  001126  6E46               movwf	(??_main+0+0)&0ffh,c,f
  5935  001128  0E5C               	movlw	92
  5936  00112A                     u2937:
  5937  00112A  2EE8               	decfsz	wreg,f
  5938  00112C  D7FE               	goto	u2937
  5939  00112E  2E46               	decfsz	(??_main+0+0)&0ffh,c,f
  5940  001130  D7FC               	goto	u2937
  5941  001132  D000               	nop2
  5942  001134  F000               	nop
  5943                           opt subtitle "HI-TECH Software Omniscient Code Generator (Lite mode) build 49521"
  5944  001136  D000               	goto	l2359
  5945                           opt subtitle "HI-TECH Software Omniscient Code Generator (Lite mode) build 49521"
  5946                           
  5947  001138                     l346:
  5948                           opt subtitle "HI-TECH Software Omniscient Code Generator (Lite mode) build 49521"
  5949                           
  5950  001138                     l2359:
  5951                           opt subtitle "HI-TECH Software Omniscient Code Generator (Lite mode) build 49521"
  5952                           
  5953  001138  501A               	movf	((c:_coagmode)),c,w
  5954  00113A  0A03               	xorlw	3
  5955                           opt subtitle "HI-TECH Software Omniscient Code Generator (Lite mode) build 49521"
  5956  00113C  A4D8               	btfss	status,2
  5957  00113E  D001               	goto	u1461
  5958  001140  D001               	goto	u1460
  5959  001142                     u1461:
  5960  001142  D00C               	goto	l2365
  5961  001144                     u1460:
  5962                           opt subtitle "HI-TECH Software Omniscient Code Generator (Lite mode) build 49521"
  5963                           
  5964  001144                     l2361:
  5965                           opt subtitle "HI-TECH Software Omniscient Code Generator (Lite mode) build 49521"
  5966                           
  5967  001144  681A               	setf	((c:_coagmode)),c
  5968                           opt subtitle "HI-TECH Software Omniscient Code Generator (Lite mode) build 49521"
  5969                           
  5970  001146                     l2363:
  5971                           opt subtitle "HI-TECH Software Omniscient Code Generator (Lite mode) build 49521"
  5972  001146  0E19               	movlw	25
  5973  001148  6E46               movwf	(??_main+0+0)&0ffh,c,f
  5974  00114A  0E5C               	movlw	92
  5975  00114C                     u2947:
  5976  00114C  2EE8               	decfsz	wreg,f
  5977  00114E  D7FE               	goto	u2947
  5978  001150  2E46               	decfsz	(??_main+0+0)&0ffh,c,f
  5979  001152  D7FC               	goto	u2947
  5980  001154  D000               	nop2
  5981  001156  F000               	nop
  5982                           opt subtitle "HI-TECH Software Omniscient Code Generator (Lite mode) build 49521"
  5983  001158  D001               	goto	l2365
  5984                           opt subtitle "HI-TECH Software Omniscient Code Generator (Lite mode) build 49521"
  5985                           
  5986  00115A                     l347:
  5987  00115A  D000               	goto	l2365
  5988                           opt subtitle "HI-TECH Software Omniscient Code Generator (Lite mode) build 49521"
  5989                           
  5990  00115C                     l343:
  5991                           opt subtitle "HI-TECH Software Omniscient Code Generator (Lite mode) build 49521"
  5992                           
  5993  00115C                     l2365:
  5994                           opt subtitle "HI-TECH Software Omniscient Code Generator (Lite mode) build 49521"
  5995                           
  5996                           opt pagewidth 120
  5997  00115C  B882               	btfsc	c:(31764/8),(31764)&7	;volatile
  5998  00115E  D001               	goto	u1471
  5999  001160  D001               	goto	u1470
  6000  001162                     u1471:
  6001  001162  D01A               	goto	l348
  6002  001164                     u1470:
  6003                           opt subtitle "HI-TECH Software Omniscient Code Generator (Lite mode) build 49521"
  6004  001164                     l2367:
  6005  001164  6619               	tstfsz	((c:_cnt)),c
  6006  001166  D001               	goto	u1481
  6007  001168  D001               	goto	u1480
  6008  00116A                     u1481:
  6009  00116A  D016               	goto	l348
  6010  00116C                     u1480:
  6011                           opt subtitle "HI-TECH Software Omniscient Code Generator (Lite mode) build 49521"
  6012                           
  6013  00116C                     l2369:
  6014                           opt subtitle "HI-TECH Software Omniscient Code Generator (Lite mode) build 49521"
  6015                           
  6016  00116C  6E46               	movwf	(??_main+0+0)&0ffh,c
  6017  00116E  0E00               	movlw	low(0)
  6018  001170  6E22               	movwf	((c:_debounce)),c
  6019  001172  5046               	movf	(??_main+0+0)&0ffh,c,w
  6020                           opt subtitle "HI-TECH Software Omniscient Code Generator (Lite mode) build 49521"
  6021  001174                     l2371:
  6022  001174  0E63               	movlw	(064h-1)
  6023  001176  6422               	cpfsgt	((c:_debounce)),c
  6024  001178  D001               	goto	u1491
  6025  00117A  D001               	goto	u1490
  6026  00117C                     u1491:
  6027  00117C  D002               	goto	l2375
  6028  00117E                     u1490:
  6029  00117E  D00C               	goto	l348
  6030                           opt subtitle "HI-TECH Software Omniscient Code Generator (Lite mode) build 49521"
  6031  001180                     l2373:
  6032  001180  D00B               	goto	l348
  6033                           opt subtitle "HI-TECH Software Omniscient Code Generator (Lite mode) build 49521"
  6034                           
  6035  001182                     l349:
  6036                           opt subtitle "HI-TECH Software Omniscient Code Generator (Lite mode) build 49521"
  6037                           
  6038  001182                     l2375:
  6039                           opt subtitle "HI-TECH Software Omniscient Code Generator (Lite mode) build 49521"
  6040                           
  6041  001182  0E32               	movlw	50
  6042  001184                     u2957:
  6043  001184  F000               	nop
  6044  001186  2EE8               decfsz	wreg,f
  6045  001188  D7FD               	goto	u2957
  6046                           opt subtitle "HI-TECH Software Omniscient Code Generator (Lite mode) build 49521"
  6047                           
  6048                           opt pagewidth 120
  6049  00118A                     l2377:
  6050  00118A  2A22               	incf	((c:_debounce)),c
  6051                           opt subtitle "HI-TECH Software Omniscient Code Generator (Lite mode) build 49521"
  6052  00118C                     l2379:
  6053  00118C  0E63               	movlw	(064h-1)
  6054  00118E  6422               	cpfsgt	((c:_debounce)),c
  6055  001190  D001               	goto	u1501
  6056  001192  D001               	goto	u1500
  6057  001194                     u1501:
  6058  001194  D7F6               	goto	l2375
  6059  001196                     u1500:
  6060  001196  D000               	goto	l348
  6061                           opt subtitle "HI-TECH Software Omniscient Code Generator (Lite mode) build 49521"
  6062  001198                     l350:
  6063                           opt subtitle "HI-TECH Software Omniscient Code Generator (Lite mode) build 49521"
  6064                           
  6065  001198                     l348:
  6066                           opt subtitle "HI-TECH Software Omniscient Code Generator (Lite mode) build 49521"
  6067                           
  6068                           opt pagewidth 120
  6069                           
  6070  001198  B882               	btfsc	c:(31764/8),(31764)&7	;volatile
  6071  00119A  D001               	goto	u1511
  6072  00119C  D001               	goto	u1510
  6073  00119E                     u1511:
  6074  00119E  D065               	goto	l351
  6075  0011A0                     u1510:
  6076                           opt subtitle "HI-TECH Software Omniscient Code Generator (Lite mode) build 49521"
  6077                           
  6078  0011A0                     l2381:
  6079                           opt subtitle "HI-TECH Software Omniscient Code Generator (Lite mode) build 49521"
  6080                           
  6081  0011A0  0E63               	movlw	(063h)&0ffh
  6082  0011A2  6018               	cpfslt	((c:_bipopower)),c
  6083  0011A4  D001               	goto	u1521
  6084  0011A6  D001               	goto	u1520
  6085  0011A8                     u1521:
  6086  0011A8  D023               	goto	l2395
  6087  0011AA                     u1520:
  6088                           opt subtitle "HI-TECH Software Omniscient Code Generator (Lite mode) build 49521"
  6089                           
  6090  0011AA                     l2383:
  6091                           opt subtitle "HI-TECH Software Omniscient Code Generator (Lite mode) build 49521"
  6092                           
  6093  0011AA  2818               	incf	((c:_bipopower)),c,w
  6094  0011AC  6E18               	movwf	((c:_bipopower)),c
  6095                           opt subtitle "HI-TECH Software Omniscient Code Generator (Lite mode) build 49521"
  6096                           
  6097  0011AE                     l2385:
  6098                           opt subtitle "HI-TECH Software Omniscient Code Generator (Lite mode) build 49521"
  6099  0011AE  C018  F03D         	movff	(c:_bipopower),(c:?___awdiv)
  6100  0011B2  6A3E               	clrf	((c:?___awdiv+1)),c
  6101  0011B4  0E00               	movlw	high(0Ah)
  6102  0011B6  6E40               	movwf	(1+((c:?___awdiv)+02h)),c
  6103  0011B8  0E0A               	movlw	low(0Ah)
  6104  0011BA  6E3F               	movwf	(0+((c:?___awdiv)+02h)),c
  6105  0011BC  EC8C  F00B         	call	___awdiv	;wreg free
  6106  0011C0  503D               	movf	(0+?___awdiv),c,w
  6107  0011C2  6E2B               	movwf	((c:_tens)),c
  6108                           opt subtitle "HI-TECH Software Omniscient Code Generator (Lite mode) build 49521"
  6109                           
  6110  0011C4                     l2387:
  6111                           opt subtitle "HI-TECH Software Omniscient Code Generator (Lite mode) build 49521"
  6112  0011C4  382B               	swapf	((c:_tens)),c,w
  6113  0011C6  0BF0               	andlw	(0ffh shl 4) & 0ffh
  6114  0011C8  6E2B               	movwf	((c:_tens)),c
  6115                           opt subtitle "HI-TECH Software Omniscient Code Generator (Lite mode) build 49521"
  6116                           
  6117  0011CA                     l2389:
  6118                           opt subtitle "HI-TECH Software Omniscient Code Generator (Lite mode) build 49521"
  6119  0011CA  C02B  F00E         	movff	(c:_tens),0+((c:_values)+0Dh)	;volatile
  6120                           opt subtitle "HI-TECH Software Omniscient Code Generator (Lite mode) build 49521"
  6121                           
  6122  0011CE  C018  F03D         	movff	(c:_bipopower),(c:?___awmod)
  6123  0011D2  6A3E               	clrf	((c:?___awmod+1)),c
  6124  0011D4  0E00               	movlw	high(0Ah)
  6125  0011D6  6E40               	movwf	(1+((c:?___awmod)+02h)),c
  6126  0011D8  0E0A               	movlw	low(0Ah)
  6127  0011DA  6E3F               	movwf	(0+((c:?___awmod)+02h)),c
  6128  0011DC  EC42  F00C         	call	___awmod	;wreg free
  6129  0011E0  503D               	movf	(0+?___awmod),c,w
  6130  0011E2  6E2D               	movwf	((c:_units)),c
  6131                           opt subtitle "HI-TECH Software Omniscient Code Generator (Lite mode) build 49521"
  6132                           
  6133  0011E4                     l2391:
  6134                           opt subtitle "HI-TECH Software Omniscient Code Generator (Lite mode) build 49521"
  6135  0011E4  382D               	swapf	((c:_units)),c,w
  6136  0011E6  0BF0               	andlw	(0ffh shl 4) & 0ffh
  6137  0011E8  6E2D               	movwf	((c:_units)),c
  6138                           opt subtitle "HI-TECH Software Omniscient Code Generator (Lite mode) build 49521"
  6139                           
  6140  0011EA                     l2393:
  6141                           opt subtitle "HI-TECH Software Omniscient Code Generator (Lite mode) build 49521"
  6142  0011EA  C02D  F007         	movff	(c:_units),0+((c:_values)+06h)	;volatile
  6143  0011EE  D000               	goto	l2395
  6144                           opt subtitle "HI-TECH Software Omniscient Code Generator (Lite mode) build 49521"
  6145                           
  6146  0011F0                     l352:
  6147                           opt subtitle "HI-TECH Software Omniscient Code Generator (Lite mode) build 49521"
  6148                           
  6149  0011F0                     l2395:
  6150                           opt subtitle "HI-TECH Software Omniscient Code Generator (Lite mode) build 49521"
  6151                           
  6152  0011F0  6619               	tstfsz	((c:_cnt)),c
  6153  0011F2  D001               	goto	u1531
  6154  0011F4  D001               	goto	u1530
  6155  0011F6                     u1531:
  6156  0011F6  D01D               	goto	l2411
  6157  0011F8                     u1530:
  6158                           opt subtitle "HI-TECH Software Omniscient Code Generator (Lite mode) build 49521"
  6159                           
  6160  0011F8                     l2397:
  6161                           opt subtitle "HI-TECH Software Omniscient Code Generator (Lite mode) build 49521"
  6162                           
  6163  0011F8  6E46               	movwf	(??_main+0+0)&0ffh,c
  6164  0011FA  0E00               	movlw	low(0)
  6165  0011FC  6E22               	movwf	((c:_debounce)),c
  6166  0011FE  5046               	movf	(??_main+0+0)&0ffh,c,w
  6167                           opt subtitle "HI-TECH Software Omniscient Code Generator (Lite mode) build 49521"
  6168  001200                     l2399:
  6169  001200  0EC8               	movlw	(0C9h-1)
  6170  001202  6422               	cpfsgt	((c:_debounce)),c
  6171  001204  D001               	goto	u1541
  6172  001206  D001               	goto	u1540
  6173  001208                     u1541:
  6174  001208  D002               	goto	l2403
  6175  00120A                     u1540:
  6176  00120A  D010               	goto	l2409
  6177                           opt subtitle "HI-TECH Software Omniscient Code Generator (Lite mode) build 49521"
  6178  00120C                     l2401:
  6179  00120C  D00F               	goto	l2409
  6180                           opt subtitle "HI-TECH Software Omniscient Code Generator (Lite mode) build 49521"
  6181                           
  6182  00120E                     l354:
  6183                           opt subtitle "HI-TECH Software Omniscient Code Generator (Lite mode) build 49521"
  6184                           
  6185  00120E                     l2403:
  6186                           opt subtitle "HI-TECH Software Omniscient Code Generator (Lite mode) build 49521"
  6187                           
  6188  00120E  0E14               	movlw	20
  6189  001210  6E46               movwf	(??_main+0+0)&0ffh,c,f
  6190  001212  0E7D               	movlw	125
  6191  001214                     u2967:
  6192  001214  2EE8               	decfsz	wreg,f
  6193  001216  D7FE               	goto	u2967
  6194  001218  2E46               	decfsz	(??_main+0+0)&0ffh,c,f
  6195  00121A  D7FC               	goto	u2967
  6196  00121C  F000               	nop
  6197                           opt subtitle "HI-TECH Software Omniscient Code Generator (Lite mode) build 49521"
  6198                           
  6199                           opt pagewidth 120
  6200  00121E                     l2405:
  6201  00121E  2A22               	incf	((c:_debounce)),c
  6202                           opt subtitle "HI-TECH Software Omniscient Code Generator (Lite mode) build 49521"
  6203  001220                     l2407:
  6204  001220  0EC8               	movlw	(0C9h-1)
  6205  001222  6422               	cpfsgt	((c:_debounce)),c
  6206  001224  D001               	goto	u1551
  6207  001226  D001               	goto	u1550
  6208  001228                     u1551:
  6209  001228  D7F2               	goto	l2403
  6210  00122A                     u1550:
  6211  00122A  D000               	goto	l2409
  6212                           opt subtitle "HI-TECH Software Omniscient Code Generator (Lite mode) build 49521"
  6213  00122C                     l355:
  6214                           opt subtitle "HI-TECH Software Omniscient Code Generator (Lite mode) build 49521"
  6215                           
  6216  00122C                     l2409:
  6217                           opt subtitle "HI-TECH Software Omniscient Code Generator (Lite mode) build 49521"
  6218                           
  6219  00122C  2819               	incf	((c:_cnt)),c,w
  6220  00122E  6E19               	movwf	((c:_cnt)),c
  6221                           opt subtitle "HI-TECH Software Omniscient Code Generator (Lite mode) build 49521"
  6222                           
  6223  001230  D01C               	goto	l351
  6224                           opt subtitle "HI-TECH Software Omniscient Code Generator (Lite mode) build 49521"
  6225                           
  6226  001232                     l353:
  6227                           opt subtitle "HI-TECH Software Omniscient Code Generator (Lite mode) build 49521"
  6228                           
  6229  001232                     l2411:
  6230                           opt subtitle "HI-TECH Software Omniscient Code Generator (Lite mode) build 49521"
  6231                           
  6232                           opt pagewidth 120
  6233  001232  6E46               	movwf	(??_main+0+0)&0ffh,c
  6234  001234  0E00               	movlw	low(0)
  6235  001236  6E22               	movwf	((c:_debounce)),c
  6236  001238  5046               	movf	(??_main+0+0)&0ffh,c,w
  6237                           opt subtitle "HI-TECH Software Omniscient Code Generator (Lite mode) build 49521"
  6238  00123A                     l2413:
  6239  00123A  0E64               	movlw	(065h-1)
  6240  00123C  6422               	cpfsgt	((c:_debounce)),c
  6241  00123E  D001               	goto	u1561
  6242  001240  D001               	goto	u1560
  6243  001242                     u1561:
  6244  001242  D002               	goto	l2417
  6245  001244                     u1560:
  6246  001244  D012               	goto	l351
  6247                           opt subtitle "HI-TECH Software Omniscient Code Generator (Lite mode) build 49521"
  6248  001246                     l2415:
  6249  001246  D011               	goto	l351
  6250                           opt subtitle "HI-TECH Software Omniscient Code Generator (Lite mode) build 49521"
  6251                           
  6252  001248                     l357:
  6253                           opt subtitle "HI-TECH Software Omniscient Code Generator (Lite mode) build 49521"
  6254                           
  6255  001248                     l2417:
  6256                           opt subtitle "HI-TECH Software Omniscient Code Generator (Lite mode) build 49521"
  6257                           
  6258  001248  0E03               	movlw	3
  6259  00124A  6E46               movwf	(??_main+0+0)&0ffh,c,f
  6260  00124C  0EEB               	movlw	235
  6261  00124E                     u2977:
  6262  00124E  2EE8               	decfsz	wreg,f
  6263  001250  D7FE               	goto	u2977
  6264  001252  2E46               	decfsz	(??_main+0+0)&0ffh,c,f
  6265  001254  D7FC               	goto	u2977
  6266  001256  D000               	nop2
  6267  001258  F000               	nop
  6268                           opt subtitle "HI-TECH Software Omniscient Code Generator (Lite mode) build 49521"
  6269                           
  6270                           opt pagewidth 120
  6271  00125A                     l2419:
  6272  00125A  2A22               	incf	((c:_debounce)),c
  6273                           opt subtitle "HI-TECH Software Omniscient Code Generator (Lite mode) build 49521"
  6274  00125C                     l2421:
  6275  00125C  0E64               	movlw	(065h-1)
  6276  00125E  6422               	cpfsgt	((c:_debounce)),c
  6277  001260  D001               	goto	u1571
  6278  001262  D001               	goto	u1570
  6279  001264                     u1571:
  6280  001264  D7F1               	goto	l2417
  6281  001266                     u1570:
  6282  001266  D001               	goto	l351
  6283                           opt subtitle "HI-TECH Software Omniscient Code Generator (Lite mode) build 49521"
  6284  001268                     l358:
  6285  001268  D000               	goto	l351
  6286                           opt subtitle "HI-TECH Software Omniscient Code Generator (Lite mode) build 49521"
  6287                           
  6288  00126A                     l356:
  6289                           opt subtitle "HI-TECH Software Omniscient Code Generator (Lite mode) build 49521"
  6290                           
  6291  00126A                     l351:
  6292                           opt subtitle "HI-TECH Software Omniscient Code Generator (Lite mode) build 49521"
  6293                           
  6294                           opt pagewidth 120
  6295                           
  6296                           	opt lm
  6297  00126A  BA82               	btfsc	c:(31765/8),(31765)&7	;volatile
  6298  00126C  D001               	goto	u1581
  6299  00126E  D001               	goto	u1580
  6300  001270                     u1581:
  6301  001270  D01A               	goto	l359
  6302  001272                     u1580:
  6303                           opt subtitle "HI-TECH Software Omniscient Code Generator (Lite mode) build 49521"
  6304  001272                     l2423:
  6305  001272  6619               	tstfsz	((c:_cnt)),c
  6306  001274  D001               	goto	u1591
  6307  001276  D001               	goto	u1590
  6308  001278                     u1591:
  6309  001278  D016               	goto	l359
  6310  00127A                     u1590:
  6311                           opt subtitle "HI-TECH Software Omniscient Code Generator (Lite mode) build 49521"
  6312                           
  6313  00127A                     l2425:
  6314                           opt subtitle "HI-TECH Software Omniscient Code Generator (Lite mode) build 49521"
  6315                           
  6316  00127A  6E46               	movwf	(??_main+0+0)&0ffh,c
  6317  00127C  0E00               	movlw	low(0)
  6318  00127E  6E22               	movwf	((c:_debounce)),c
  6319  001280  5046               	movf	(??_main+0+0)&0ffh,c,w
  6320                           opt subtitle "HI-TECH Software Omniscient Code Generator (Lite mode) build 49521"
  6321  001282                     l2427:
  6322  001282  0E63               	movlw	(064h-1)
  6323  001284  6422               	cpfsgt	((c:_debounce)),c
  6324  001286  D001               	goto	u1601
  6325  001288  D001               	goto	u1600
  6326  00128A                     u1601:
  6327  00128A  D002               	goto	l2431
  6328  00128C                     u1600:
  6329  00128C  D00C               	goto	l359
  6330                           opt subtitle "HI-TECH Software Omniscient Code Generator (Lite mode) build 49521"
  6331  00128E                     l2429:
  6332  00128E  D00B               	goto	l359
  6333                           opt subtitle "HI-TECH Software Omniscient Code Generator (Lite mode) build 49521"
  6334                           
  6335  001290                     l360:
  6336                           opt subtitle "HI-TECH Software Omniscient Code Generator (Lite mode) build 49521"
  6337                           
  6338  001290                     l2431:
  6339                           opt subtitle "HI-TECH Software Omniscient Code Generator (Lite mode) build 49521"
  6340                           
  6341  001290  0E32               	movlw	50
  6342  001292                     u2987:
  6343  001292  F000               	nop
  6344  001294  2EE8               decfsz	wreg,f
  6345  001296  D7FD               	goto	u2987
  6346                           opt subtitle "HI-TECH Software Omniscient Code Generator (Lite mode) build 49521"
  6347                           
  6348                           opt pagewidth 120
  6349  001298                     l2433:
  6350  001298  2A22               	incf	((c:_debounce)),c
  6351                           opt subtitle "HI-TECH Software Omniscient Code Generator (Lite mode) build 49521"
  6352  00129A                     l2435:
  6353  00129A  0E63               	movlw	(064h-1)
  6354  00129C  6422               	cpfsgt	((c:_debounce)),c
  6355  00129E  D001               	goto	u1611
  6356  0012A0  D001               	goto	u1610
  6357  0012A2                     u1611:
  6358  0012A2  D7F6               	goto	l2431
  6359  0012A4                     u1610:
  6360  0012A4  D000               	goto	l359
  6361                           opt subtitle "HI-TECH Software Omniscient Code Generator (Lite mode) build 49521"
  6362  0012A6                     l361:
  6363                           opt subtitle "HI-TECH Software Omniscient Code Generator (Lite mode) build 49521"
  6364                           
  6365  0012A6                     l359:
  6366                           opt subtitle "HI-TECH Software Omniscient Code Generator (Lite mode) build 49521"
  6367                           
  6368                           opt pagewidth 120
  6369                           
  6370  0012A6  BA82               	btfsc	c:(31765/8),(31765)&7	;volatile
  6371  0012A8  D001               	goto	u1621
  6372  0012AA  D001               	goto	u1620
  6373  0012AC                     u1621:
  6374  0012AC  D065               	goto	l362
  6375  0012AE                     u1620:
  6376                           opt subtitle "HI-TECH Software Omniscient Code Generator (Lite mode) build 49521"
  6377                           
  6378  0012AE                     l2437:
  6379                           opt subtitle "HI-TECH Software Omniscient Code Generator (Lite mode) build 49521"
  6380                           
  6381  0012AE  5018               	movf	((c:_bipopower)),c,w
  6382  0012B0  B4D8               	btfsc	status,2
  6383  0012B2  D001               	goto	u1631
  6384  0012B4  D001               	goto	u1630
  6385  0012B6                     u1631:
  6386  0012B6  D023               	goto	l2451
  6387  0012B8                     u1630:
  6388                           opt subtitle "HI-TECH Software Omniscient Code Generator (Lite mode) build 49521"
  6389                           
  6390  0012B8                     l2439:
  6391                           opt subtitle "HI-TECH Software Omniscient Code Generator (Lite mode) build 49521"
  6392                           
  6393  0012B8  0418               	decf	((c:_bipopower)),c,w
  6394  0012BA  6E18               	movwf	((c:_bipopower)),c
  6395                           opt subtitle "HI-TECH Software Omniscient Code Generator (Lite mode) build 49521"
  6396                           
  6397  0012BC                     l2441:
  6398                           opt subtitle "HI-TECH Software Omniscient Code Generator (Lite mode) build 49521"
  6399  0012BC  C018  F03D         	movff	(c:_bipopower),(c:?___awdiv)
  6400  0012C0  6A3E               	clrf	((c:?___awdiv+1)),c
  6401  0012C2  0E00               	movlw	high(0Ah)
  6402  0012C4  6E40               	movwf	(1+((c:?___awdiv)+02h)),c
  6403  0012C6  0E0A               	movlw	low(0Ah)
  6404  0012C8  6E3F               	movwf	(0+((c:?___awdiv)+02h)),c
  6405  0012CA  EC8C  F00B         	call	___awdiv	;wreg free
  6406  0012CE  503D               	movf	(0+?___awdiv),c,w
  6407  0012D0  6E2B               	movwf	((c:_tens)),c
  6408                           opt subtitle "HI-TECH Software Omniscient Code Generator (Lite mode) build 49521"
  6409                           
  6410  0012D2                     l2443:
  6411                           opt subtitle "HI-TECH Software Omniscient Code Generator (Lite mode) build 49521"
  6412  0012D2  382B               	swapf	((c:_tens)),c,w
  6413  0012D4  0BF0               	andlw	(0ffh shl 4) & 0ffh
  6414  0012D6  6E2B               	movwf	((c:_tens)),c
  6415                           opt subtitle "HI-TECH Software Omniscient Code Generator (Lite mode) build 49521"
  6416                           
  6417  0012D8                     l2445:
  6418                           opt subtitle "HI-TECH Software Omniscient Code Generator (Lite mode) build 49521"
  6419  0012D8  C02B  F00E         	movff	(c:_tens),0+((c:_values)+0Dh)	;volatile
  6420                           opt subtitle "HI-TECH Software Omniscient Code Generator (Lite mode) build 49521"
  6421                           
  6422  0012DC  C018  F03D         	movff	(c:_bipopower),(c:?___awmod)
  6423  0012E0  6A3E               	clrf	((c:?___awmod+1)),c
  6424  0012E2  0E00               	movlw	high(0Ah)
  6425  0012E4  6E40               	movwf	(1+((c:?___awmod)+02h)),c
  6426  0012E6  0E0A               	movlw	low(0Ah)
  6427  0012E8  6E3F               	movwf	(0+((c:?___awmod)+02h)),c
  6428  0012EA  EC42  F00C         	call	___awmod	;wreg free
  6429  0012EE  503D               	movf	(0+?___awmod),c,w
  6430  0012F0  6E2D               	movwf	((c:_units)),c
  6431                           opt subtitle "HI-TECH Software Omniscient Code Generator (Lite mode) build 49521"
  6432                           
  6433  0012F2                     l2447:
  6434                           opt subtitle "HI-TECH Software Omniscient Code Generator (Lite mode) build 49521"
  6435  0012F2  382D               	swapf	((c:_units)),c,w
  6436  0012F4  0BF0               	andlw	(0ffh shl 4) & 0ffh
  6437  0012F6  6E2D               	movwf	((c:_units)),c
  6438                           opt subtitle "HI-TECH Software Omniscient Code Generator (Lite mode) build 49521"
  6439                           
  6440  0012F8                     l2449:
  6441                           opt subtitle "HI-TECH Software Omniscient Code Generator (Lite mode) build 49521"
  6442  0012F8  C02D  F007         	movff	(c:_units),0+((c:_values)+06h)	;volatile
  6443  0012FC  D000               	goto	l2451
  6444                           opt subtitle "HI-TECH Software Omniscient Code Generator (Lite mode) build 49521"
  6445                           
  6446  0012FE                     l363:
  6447                           opt subtitle "HI-TECH Software Omniscient Code Generator (Lite mode) build 49521"
  6448                           
  6449  0012FE                     l2451:
  6450                           opt subtitle "HI-TECH Software Omniscient Code Generator (Lite mode) build 49521"
  6451                           
  6452  0012FE  6619               	tstfsz	((c:_cnt)),c
  6453  001300  D001               	goto	u1641
  6454  001302  D001               	goto	u1640
  6455  001304                     u1641:
  6456  001304  D01D               	goto	l2467
  6457  001306                     u1640:
  6458                           opt subtitle "HI-TECH Software Omniscient Code Generator (Lite mode) build 49521"
  6459                           
  6460  001306                     l2453:
  6461                           opt subtitle "HI-TECH Software Omniscient Code Generator (Lite mode) build 49521"
  6462                           
  6463  001306  6E46               	movwf	(??_main+0+0)&0ffh,c
  6464  001308  0E00               	movlw	low(0)
  6465  00130A  6E22               	movwf	((c:_debounce)),c
  6466  00130C  5046               	movf	(??_main+0+0)&0ffh,c,w
  6467                           opt subtitle "HI-TECH Software Omniscient Code Generator (Lite mode) build 49521"
  6468  00130E                     l2455:
  6469  00130E  0EC8               	movlw	(0C9h-1)
  6470  001310  6422               	cpfsgt	((c:_debounce)),c
  6471  001312  D001               	goto	u1651
  6472  001314  D001               	goto	u1650
  6473  001316                     u1651:
  6474  001316  D002               	goto	l2459
  6475  001318                     u1650:
  6476  001318  D010               	goto	l2465
  6477                           opt subtitle "HI-TECH Software Omniscient Code Generator (Lite mode) build 49521"
  6478  00131A                     l2457:
  6479  00131A  D00F               	goto	l2465
  6480                           opt subtitle "HI-TECH Software Omniscient Code Generator (Lite mode) build 49521"
  6481                           
  6482  00131C                     l365:
  6483                           opt subtitle "HI-TECH Software Omniscient Code Generator (Lite mode) build 49521"
  6484                           
  6485  00131C                     l2459:
  6486                           opt subtitle "HI-TECH Software Omniscient Code Generator (Lite mode) build 49521"
  6487                           
  6488  00131C  0E14               	movlw	20
  6489  00131E  6E46               movwf	(??_main+0+0)&0ffh,c,f
  6490  001320  0E7D               	movlw	125
  6491  001322                     u2997:
  6492  001322  2EE8               	decfsz	wreg,f
  6493  001324  D7FE               	goto	u2997
  6494  001326  2E46               	decfsz	(??_main+0+0)&0ffh,c,f
  6495  001328  D7FC               	goto	u2997
  6496  00132A  F000               	nop
  6497                           opt subtitle "HI-TECH Software Omniscient Code Generator (Lite mode) build 49521"
  6498                           
  6499                           opt pagewidth 120
  6500  00132C                     l2461:
  6501  00132C  2A22               	incf	((c:_debounce)),c
  6502                           opt subtitle "HI-TECH Software Omniscient Code Generator (Lite mode) build 49521"
  6503  00132E                     l2463:
  6504  00132E  0EC8               	movlw	(0C9h-1)
  6505  001330  6422               	cpfsgt	((c:_debounce)),c
  6506  001332  D001               	goto	u1661
  6507  001334  D001               	goto	u1660
  6508  001336                     u1661:
  6509  001336  D7F2               	goto	l2459
  6510  001338                     u1660:
  6511  001338  D000               	goto	l2465
  6512                           opt subtitle "HI-TECH Software Omniscient Code Generator (Lite mode) build 49521"
  6513  00133A                     l366:
  6514                           opt subtitle "HI-TECH Software Omniscient Code Generator (Lite mode) build 49521"
  6515                           
  6516  00133A                     l2465:
  6517                           opt subtitle "HI-TECH Software Omniscient Code Generator (Lite mode) build 49521"
  6518                           
  6519  00133A  2819               	incf	((c:_cnt)),c,w
  6520  00133C  6E19               	movwf	((c:_cnt)),c
  6521                           opt subtitle "HI-TECH Software Omniscient Code Generator (Lite mode) build 49521"
  6522                           
  6523  00133E  D01C               	goto	l362
  6524                           opt subtitle "HI-TECH Software Omniscient Code Generator (Lite mode) build 49521"
  6525                           
  6526  001340                     l364:
  6527                           opt subtitle "HI-TECH Software Omniscient Code Generator (Lite mode) build 49521"
  6528                           
  6529  001340                     l2467:
  6530                           opt subtitle "HI-TECH Software Omniscient Code Generator (Lite mode) build 49521"
  6531                           
  6532                           opt pagewidth 120
  6533  001340  6E46               	movwf	(??_main+0+0)&0ffh,c
  6534  001342  0E00               	movlw	low(0)
  6535  001344  6E22               	movwf	((c:_debounce)),c
  6536  001346  5046               	movf	(??_main+0+0)&0ffh,c,w
  6537                           opt subtitle "HI-TECH Software Omniscient Code Generator (Lite mode) build 49521"
  6538  001348                     l2469:
  6539  001348  0E64               	movlw	(065h-1)
  6540  00134A  6422               	cpfsgt	((c:_debounce)),c
  6541  00134C  D001               	goto	u1671
  6542  00134E  D001               	goto	u1670
  6543  001350                     u1671:
  6544  001350  D002               	goto	l2473
  6545  001352                     u1670:
  6546  001352  D012               	goto	l362
  6547                           opt subtitle "HI-TECH Software Omniscient Code Generator (Lite mode) build 49521"
  6548  001354                     l2471:
  6549  001354  D011               	goto	l362
  6550                           opt subtitle "HI-TECH Software Omniscient Code Generator (Lite mode) build 49521"
  6551                           
  6552  001356                     l368:
  6553                           opt subtitle "HI-TECH Software Omniscient Code Generator (Lite mode) build 49521"
  6554                           
  6555  001356                     l2473:
  6556                           opt subtitle "HI-TECH Software Omniscient Code Generator (Lite mode) build 49521"
  6557                           
  6558  001356  0E03               	movlw	3
  6559  001358  6E46               movwf	(??_main+0+0)&0ffh,c,f
  6560  00135A  0EEB               	movlw	235
  6561  00135C                     u3007:
  6562  00135C  2EE8               	decfsz	wreg,f
  6563  00135E  D7FE               	goto	u3007
  6564  001360  2E46               	decfsz	(??_main+0+0)&0ffh,c,f
  6565  001362  D7FC               	goto	u3007
  6566  001364  D000               	nop2
  6567  001366  F000               	nop
  6568                           opt subtitle "HI-TECH Software Omniscient Code Generator (Lite mode) build 49521"
  6569                           
  6570                           opt pagewidth 120
  6571  001368                     l2475:
  6572  001368  2A22               	incf	((c:_debounce)),c
  6573                           opt subtitle "HI-TECH Software Omniscient Code Generator (Lite mode) build 49521"
  6574  00136A                     l2477:
  6575  00136A  0E64               	movlw	(065h-1)
  6576  00136C  6422               	cpfsgt	((c:_debounce)),c
  6577  00136E  D001               	goto	u1681
  6578  001370  D001               	goto	u1680
  6579  001372                     u1681:
  6580  001372  D7F1               	goto	l2473
  6581  001374                     u1680:
  6582  001374  D001               	goto	l362
  6583                           opt subtitle "HI-TECH Software Omniscient Code Generator (Lite mode) build 49521"
  6584  001376                     l369:
  6585  001376  D000               	goto	l362
  6586                           opt subtitle "HI-TECH Software Omniscient Code Generator (Lite mode) build 49521"
  6587                           
  6588  001378                     l367:
  6589                           opt subtitle "HI-TECH Software Omniscient Code Generator (Lite mode) build 49521"
  6590                           
  6591  001378                     l362:
  6592                           opt subtitle "HI-TECH Software Omniscient Code Generator (Lite mode) build 49521"
  6593                           
  6594                           opt pagewidth 120
  6595                           
  6596                           	opt lm
  6597  001378  BC82               	btfsc	c:(31766/8),(31766)&7	;volatile
  6598  00137A  D001               	goto	u1691
  6599  00137C  D001               	goto	u1690
  6600  00137E                     u1691:
  6601  00137E  D01A               	goto	l370
  6602  001380                     u1690:
  6603                           opt subtitle "HI-TECH Software Omniscient Code Generator (Lite mode) build 49521"
  6604  001380                     l2479:
  6605  001380  6619               	tstfsz	((c:_cnt)),c
  6606  001382  D001               	goto	u1701
  6607  001384  D001               	goto	u1700
  6608  001386                     u1701:
  6609  001386  D016               	goto	l370
  6610  001388                     u1700:
  6611                           opt subtitle "HI-TECH Software Omniscient Code Generator (Lite mode) build 49521"
  6612                           
  6613  001388                     l2481:
  6614                           opt subtitle "HI-TECH Software Omniscient Code Generator (Lite mode) build 49521"
  6615                           
  6616  001388  6E46               	movwf	(??_main+0+0)&0ffh,c
  6617  00138A  0E00               	movlw	low(0)
  6618  00138C  6E22               	movwf	((c:_debounce)),c
  6619  00138E  5046               	movf	(??_main+0+0)&0ffh,c,w
  6620                           opt subtitle "HI-TECH Software Omniscient Code Generator (Lite mode) build 49521"
  6621  001390                     l2483:
  6622  001390  0E63               	movlw	(064h-1)
  6623  001392  6422               	cpfsgt	((c:_debounce)),c
  6624  001394  D001               	goto	u1711
  6625  001396  D001               	goto	u1710
  6626  001398                     u1711:
  6627  001398  D002               	goto	l2487
  6628  00139A                     u1710:
  6629  00139A  D00C               	goto	l370
  6630                           opt subtitle "HI-TECH Software Omniscient Code Generator (Lite mode) build 49521"
  6631  00139C                     l2485:
  6632  00139C  D00B               	goto	l370
  6633                           opt subtitle "HI-TECH Software Omniscient Code Generator (Lite mode) build 49521"
  6634                           
  6635  00139E                     l371:
  6636                           opt subtitle "HI-TECH Software Omniscient Code Generator (Lite mode) build 49521"
  6637                           
  6638  00139E                     l2487:
  6639                           opt subtitle "HI-TECH Software Omniscient Code Generator (Lite mode) build 49521"
  6640                           
  6641  00139E  0E32               	movlw	50
  6642  0013A0                     u3017:
  6643  0013A0  F000               	nop
  6644  0013A2  2EE8               decfsz	wreg,f
  6645  0013A4  D7FD               	goto	u3017
  6646                           opt subtitle "HI-TECH Software Omniscient Code Generator (Lite mode) build 49521"
  6647                           
  6648                           opt pagewidth 120
  6649  0013A6                     l2489:
  6650  0013A6  2A22               	incf	((c:_debounce)),c
  6651                           opt subtitle "HI-TECH Software Omniscient Code Generator (Lite mode) build 49521"
  6652  0013A8                     l2491:
  6653  0013A8  0E63               	movlw	(064h-1)
  6654  0013AA  6422               	cpfsgt	((c:_debounce)),c
  6655  0013AC  D001               	goto	u1721
  6656  0013AE  D001               	goto	u1720
  6657  0013B0                     u1721:
  6658  0013B0  D7F6               	goto	l2487
  6659  0013B2                     u1720:
  6660  0013B2  D000               	goto	l370
  6661                           opt subtitle "HI-TECH Software Omniscient Code Generator (Lite mode) build 49521"
  6662  0013B4                     l372:
  6663                           opt subtitle "HI-TECH Software Omniscient Code Generator (Lite mode) build 49521"
  6664                           
  6665  0013B4                     l370:
  6666                           opt subtitle "HI-TECH Software Omniscient Code Generator (Lite mode) build 49521"
  6667                           
  6668                           opt pagewidth 120
  6669                           
  6670  0013B4  BC82               	btfsc	c:(31766/8),(31766)&7	;volatile
  6671  0013B6  D001               	goto	u1731
  6672  0013B8  D002               	goto	u1730
  6673  0013BA                     u1731:
  6674  0013BA  EFC7  F000         	goto	l1521
  6675  0013BE                     u1730:
  6676                           opt subtitle "HI-TECH Software Omniscient Code Generator (Lite mode) build 49521"
  6677                           
  6678  0013BE                     l2493:
  6679                           opt subtitle "HI-TECH Software Omniscient Code Generator (Lite mode) build 49521"
  6680                           
  6681  0013BE  2817               	incf	((c:_bipomode)),c,w
  6682  0013C0  6E17               	movwf	((c:_bipomode)),c
  6683                           opt subtitle "HI-TECH Software Omniscient Code Generator (Lite mode) build 49521"
  6684                           
  6685  0013C2                     l2495:
  6686                           opt subtitle "HI-TECH Software Omniscient Code Generator (Lite mode) build 49521"
  6687  0013C2  6617               	tstfsz	((c:_bipomode)),c
  6688  0013C4  D001               	goto	u1741
  6689  0013C6  D001               	goto	u1740
  6690  0013C8                     u1741:
  6691  0013C8  D00C               	goto	l2501
  6692  0013CA                     u1740:
  6693                           opt subtitle "HI-TECH Software Omniscient Code Generator (Lite mode) build 49521"
  6694                           
  6695  0013CA                     l2497:
  6696                           opt subtitle "HI-TECH Software Omniscient Code Generator (Lite mode) build 49521"
  6697                           
  6698  0013CA  0E40               	movlw	low(040h)
  6699  0013CC  6E0C               	movwf	(0+((c:_values)+0Bh)),c	;volatile
  6700                           opt subtitle "HI-TECH Software Omniscient Code Generator (Lite mode) build 49521"
  6701                           
  6702  0013CE                     l2499:
  6703                           opt subtitle "HI-TECH Software Omniscient Code Generator (Lite mode) build 49521"
  6704  0013CE  0E19               	movlw	25
  6705  0013D0  6E46               movwf	(??_main+0+0)&0ffh,c,f
  6706  0013D2  0E5C               	movlw	92
  6707  0013D4                     u3027:
  6708  0013D4  2EE8               	decfsz	wreg,f
  6709  0013D6  D7FE               	goto	u3027
  6710  0013D8  2E46               	decfsz	(??_main+0+0)&0ffh,c,f
  6711  0013DA  D7FC               	goto	u3027
  6712  0013DC  D000               	nop2
  6713  0013DE  F000               	nop
  6714                           opt subtitle "HI-TECH Software Omniscient Code Generator (Lite mode) build 49521"
  6715  0013E0  D000               	goto	l2501
  6716                           opt subtitle "HI-TECH Software Omniscient Code Generator (Lite mode) build 49521"
  6717                           
  6718  0013E2                     l374:
  6719                           opt subtitle "HI-TECH Software Omniscient Code Generator (Lite mode) build 49521"
  6720                           
  6721  0013E2                     l2501:
  6722                           opt subtitle "HI-TECH Software Omniscient Code Generator (Lite mode) build 49521"
  6723                           
  6724  0013E2  0417               	decf	((c:_bipomode)),c,w
  6725                           opt subtitle "HI-TECH Software Omniscient Code Generator (Lite mode) build 49521"
  6726  0013E4  A4D8               	btfss	status,2
  6727  0013E6  D001               	goto	u1751
  6728  0013E8  D001               	goto	u1750
  6729  0013EA                     u1751:
  6730  0013EA  D00C               	goto	l2507
  6731  0013EC                     u1750:
  6732                           opt subtitle "HI-TECH Software Omniscient Code Generator (Lite mode) build 49521"
  6733                           
  6734  0013EC                     l2503:
  6735                           opt subtitle "HI-TECH Software Omniscient Code Generator (Lite mode) build 49521"
  6736                           
  6737  0013EC  0E70               	movlw	low(070h)
  6738  0013EE  6E08               	movwf	(0+((c:_values)+07h)),c	;volatile
  6739                           opt subtitle "HI-TECH Software Omniscient Code Generator (Lite mode) build 49521"
  6740                           
  6741  0013F0                     l2505:
  6742                           opt subtitle "HI-TECH Software Omniscient Code Generator (Lite mode) build 49521"
  6743  0013F0  0E19               	movlw	25
  6744  0013F2  6E46               movwf	(??_main+0+0)&0ffh,c,f
  6745  0013F4  0E5C               	movlw	92
  6746  0013F6                     u3037:
  6747  0013F6  2EE8               	decfsz	wreg,f
  6748  0013F8  D7FE               	goto	u3037
  6749  0013FA  2E46               	decfsz	(??_main+0+0)&0ffh,c,f
  6750  0013FC  D7FC               	goto	u3037
  6751  0013FE  D000               	nop2
  6752  001400  F000               	nop
  6753                           opt subtitle "HI-TECH Software Omniscient Code Generator (Lite mode) build 49521"
  6754  001402  D000               	goto	l2507
  6755                           opt subtitle "HI-TECH Software Omniscient Code Generator (Lite mode) build 49521"
  6756                           
  6757  001404                     l375:
  6758                           opt subtitle "HI-TECH Software Omniscient Code Generator (Lite mode) build 49521"
  6759                           
  6760  001404                     l2507:
  6761                           opt subtitle "HI-TECH Software Omniscient Code Generator (Lite mode) build 49521"
  6762                           
  6763  001404  5017               	movf	((c:_bipomode)),c,w
  6764  001406  0A02               	xorlw	2
  6765                           opt subtitle "HI-TECH Software Omniscient Code Generator (Lite mode) build 49521"
  6766  001408  A4D8               	btfss	status,2
  6767  00140A  D001               	goto	u1761
  6768  00140C  D001               	goto	u1760
  6769  00140E                     u1761:
  6770  00140E  D00C               	goto	l2513
  6771  001410                     u1760:
  6772                           opt subtitle "HI-TECH Software Omniscient Code Generator (Lite mode) build 49521"
  6773                           
  6774  001410                     l2509:
  6775                           opt subtitle "HI-TECH Software Omniscient Code Generator (Lite mode) build 49521"
  6776                           
  6777  001410  0E40               	movlw	low(040h)
  6778  001412  6E08               	movwf	(0+((c:_values)+07h)),c	;volatile
  6779                           opt subtitle "HI-TECH Software Omniscient Code Generator (Lite mode) build 49521"
  6780                           
  6781  001414                     l2511:
  6782                           opt subtitle "HI-TECH Software Omniscient Code Generator (Lite mode) build 49521"
  6783  001414  0E19               	movlw	25
  6784  001416  6E46               movwf	(??_main+0+0)&0ffh,c,f
  6785  001418  0E5C               	movlw	92
  6786  00141A                     u3047:
  6787  00141A  2EE8               	decfsz	wreg,f
  6788  00141C  D7FE               	goto	u3047
  6789  00141E  2E46               	decfsz	(??_main+0+0)&0ffh,c,f
  6790  001420  D7FC               	goto	u3047
  6791  001422  D000               	nop2
  6792  001424  F000               	nop
  6793                           opt subtitle "HI-TECH Software Omniscient Code Generator (Lite mode) build 49521"
  6794  001426  D000               	goto	l2513
  6795                           opt subtitle "HI-TECH Software Omniscient Code Generator (Lite mode) build 49521"
  6796                           
  6797  001428                     l376:
  6798                           opt subtitle "HI-TECH Software Omniscient Code Generator (Lite mode) build 49521"
  6799                           
  6800  001428                     l2513:
  6801                           opt subtitle "HI-TECH Software Omniscient Code Generator (Lite mode) build 49521"
  6802                           
  6803  001428  5017               	movf	((c:_bipomode)),c,w
  6804  00142A  0A03               	xorlw	3
  6805                           opt subtitle "HI-TECH Software Omniscient Code Generator (Lite mode) build 49521"
  6806  00142C  A4D8               	btfss	status,2
  6807  00142E  D001               	goto	u1771
  6808  001430  D001               	goto	u1770
  6809  001432                     u1771:
  6810  001432  D00B               	goto	l2519
  6811  001434                     u1770:
  6812                           opt subtitle "HI-TECH Software Omniscient Code Generator (Lite mode) build 49521"
  6813                           
  6814  001434                     l2515:
  6815                           opt subtitle "HI-TECH Software Omniscient Code Generator (Lite mode) build 49521"
  6816                           
  6817  001434  6817               	setf	((c:_bipomode)),c
  6818                           opt subtitle "HI-TECH Software Omniscient Code Generator (Lite mode) build 49521"
  6819                           
  6820  001436                     l2517:
  6821                           opt subtitle "HI-TECH Software Omniscient Code Generator (Lite mode) build 49521"
  6822  001436  0E19               	movlw	25
  6823  001438  6E46               movwf	(??_main+0+0)&0ffh,c,f
  6824  00143A  0E5C               	movlw	92
  6825  00143C                     u3057:
  6826  00143C  2EE8               	decfsz	wreg,f
  6827  00143E  D7FE               	goto	u3057
  6828  001440  2E46               	decfsz	(??_main+0+0)&0ffh,c,f
  6829  001442  D7FC               	goto	u3057
  6830  001444  D000               	nop2
  6831  001446  F000               	nop
  6832                           opt subtitle "HI-TECH Software Omniscient Code Generator (Lite mode) build 49521"
  6833  001448  D000               	goto	l2519
  6834                           opt subtitle "HI-TECH Software Omniscient Code Generator (Lite mode) build 49521"
  6835                           
  6836  00144A                     l377:
  6837                           opt subtitle "HI-TECH Software Omniscient Code Generator (Lite mode) build 49521"
  6838                           
  6839  00144A                     l2519:
  6840                           opt subtitle "HI-TECH Software Omniscient Code Generator (Lite mode) build 49521"
  6841                           
  6842  00144A  6E46               	movwf	(??_main+0+0)&0ffh,c
  6843  00144C  0E00               	movlw	low(0)
  6844  00144E  6E22               	movwf	((c:_debounce)),c
  6845  001450  5046               	movf	(??_main+0+0)&0ffh,c,w
  6846                           opt subtitle "HI-TECH Software Omniscient Code Generator (Lite mode) build 49521"
  6847  001452                     l2521:
  6848  001452  0EC8               	movlw	(0C9h-1)
  6849  001454  6422               	cpfsgt	((c:_debounce)),c
  6850  001456  D001               	goto	u1781
  6851  001458  D001               	goto	u1780
  6852  00145A                     u1781:
  6853  00145A  D004               	goto	l2525
  6854  00145C                     u1780:
  6855  00145C  EFC7  F000         	goto	l1521
  6856                           opt subtitle "HI-TECH Software Omniscient Code Generator (Lite mode) build 49521"
  6857  001460                     l2523:
  6858  001460  EFC7  F000         	goto	l1521
  6859                           opt subtitle "HI-TECH Software Omniscient Code Generator (Lite mode) build 49521"
  6860                           
  6861  001464                     l378:
  6862                           opt subtitle "HI-TECH Software Omniscient Code Generator (Lite mode) build 49521"
  6863                           
  6864  001464                     l2525:
  6865                           opt subtitle "HI-TECH Software Omniscient Code Generator (Lite mode) build 49521"
  6866                           
  6867  001464  0E19               	movlw	25
  6868  001466  6E46               movwf	(??_main+0+0)&0ffh,c,f
  6869  001468  0E5C               	movlw	92
  6870  00146A                     u3067:
  6871  00146A  2EE8               	decfsz	wreg,f
  6872  00146C  D7FE               	goto	u3067
  6873  00146E  2E46               	decfsz	(??_main+0+0)&0ffh,c,f
  6874  001470  D7FC               	goto	u3067
  6875  001472  D000               	nop2
  6876  001474  F000               	nop
  6877                           opt subtitle "HI-TECH Software Omniscient Code Generator (Lite mode) build 49521"
  6878                           
  6879                           opt pagewidth 120
  6880  001476                     l2527:
  6881  001476  2A22               	incf	((c:_debounce)),c
  6882                           opt subtitle "HI-TECH Software Omniscient Code Generator (Lite mode) build 49521"
  6883  001478                     l2529:
  6884  001478  0EC8               	movlw	(0C9h-1)
  6885  00147A  6422               	cpfsgt	((c:_debounce)),c
  6886  00147C  D001               	goto	u1791
  6887  00147E  D001               	goto	u1790
  6888  001480                     u1791:
  6889  001480  D7F1               	goto	l2525
  6890  001482                     u1790:
  6891  001482  EFC7  F000         	goto	l1521
  6892                           opt subtitle "HI-TECH Software Omniscient Code Generator (Lite mode) build 49521"
  6893  001486                     l379:
  6894  001486  EFC7  F000         	goto	l1521
  6895                           opt subtitle "HI-TECH Software Omniscient Code Generator (Lite mode) build 49521"
  6896                           
  6897  00148A                     l373:
  6898  00148A  EFC7  F000         	goto	l1521
  6899                           opt subtitle "HI-TECH Software Omniscient Code Generator (Lite mode) build 49521"
  6900                           
  6901  00148E                     l380:
  6902                           opt subtitle "HI-TECH Software Omniscient Code Generator (Lite mode) build 49521"
  6903  00148E  EFC7  F000         	goto	l1521
  6904                           opt subtitle "HI-TECH Software Omniscient Code Generator (Lite mode) build 49521"
  6905  001492                     l381:
  6906                           opt subtitle "HI-TECH Software Omniscient Code Generator (Lite mode) build 49521"
  6907                           
  6908  001492                     l382:
  6909                           opt subtitle "HI-TECH Software Omniscient Code Generator (Lite mode) build 49521"
  6910  001492  EF6E  F000         	goto	start
  6911                           opt subtitle "HI-TECH Software Omniscient Code Generator (Lite mode) build 49521"
  6912                           
  6913  001496                     	__end_of_main:
  6914                           opt subtitle "HI-TECH Software Omniscient Code Generator (Lite mode) build 49521"
  6915                           
  6916                           opt pagewidth 120
  6917                           
  6918                           	opt lm
  6919                           
  6920                           	processor	18F452
  6921                           porta	equ	0F80h
  6922                           portb	equ	0F81h
  6923                           portc	equ	0F82h
  6924                           portd	equ	0F83h
  6925                           porte	equ	0F84h
  6926                           lata	equ	0F89h
  6927                           latb	equ	0F8Ah
  6928                           latc	equ	0F8Bh
  6929                           latd	equ	0F8Ch
  6930                           late	equ	0F8Dh
  6931                           trisa	equ	0F92h
  6932                           trisb	equ	0F93h
  6933                           trisc	equ	0F94h
  6934                           trisd	equ	0F95h
  6935                           trise	equ	0F96h
  6936                           pie1	equ	0F9Dh
  6937                           pir1	equ	0F9Eh
  6938                           ipr1	equ	0F9Fh
  6939                           pie2	equ	0FA0h
  6940                           pir2	equ	0FA1h
  6941                           ipr2	equ	0FA2h
  6942                           t3con	equ	0FB1h
  6943                           tmr3l	equ	0FB2h
  6944                           tmr3h	equ	0FB3h
  6945                           ccp1con	equ	0FBDh
  6946                           ccpr1l	equ	0FBEh
  6947                           ccpr1h	equ	0FBFh
  6948                           adcon1	equ	0FC1h
  6949  001A0A                     __ptext1:
  6950                           opt subtitle "HI-TECH Software Omniscient Code Generator (Lite mode) build 49521"
  6951                           
  6952                           opt pagewidth 120
  6953                           
  6954  0000                     	__size_of_OpenI2C	equ	__end_of_OpenI2C-_OpenI2C
  6955                           opt subtitle "HI-TECH Software Omniscient Code Generator (Lite mode) build 49521"
  6956  001A0A                     _OpenI2C:
  6957                           opt subtitle "HI-TECH Software Omniscient Code Generator (Lite mode) build 49521"
  6958  001A0A  FFFF               	dw	0FFFFh
  6959                           opt subtitle "HI-TECH Software Omniscient Code Generator (Lite mode) build 49521"
  6960                           
  6961  001A0C                     l2531:
  6962  001A0C  0E3F               	movlw	(03Fh)&0ffh
  6963  001A0E  16C7               	andwf	((c:4039)),c	;volatile
  6964                           opt subtitle "HI-TECH Software Omniscient Code Generator (Lite mode) build 49521"
  6965                           
  6966  001A10                     l2533:
  6967  001A10  0E00               	movlw	low(0)
  6968  001A12  6EC6               	movwf	((c:4038)),c	;volatile
  6969                           opt subtitle "HI-TECH Software Omniscient Code Generator (Lite mode) build 49521"
  6970                           
  6971  001A14                     l2535:
  6972  001A14  0E00               	movlw	low(0)
  6973  001A16  6EC5               	movwf	((c:4037)),c	;volatile
  6974                           opt subtitle "HI-TECH Software Omniscient Code Generator (Lite mode) build 49521"
  6975  001A18  503D               	movf	((c:OpenI2C@sync_mode)),c,w
  6976  001A1A  12C6               	iorwf	((c:4038)),c	;volatile
  6977                           opt subtitle "HI-TECH Software Omniscient Code Generator (Lite mode) build 49521"
  6978  001A1C  503E               	movf	((c:OpenI2C@slew)),c,w
  6979  001A1E  12C7               	iorwf	((c:4039)),c	;volatile
  6980                           opt subtitle "HI-TECH Software Omniscient Code Generator (Lite mode) build 49521"
  6981                           
  6982  001A20                     l2537:
  6983  001A20  8694               	bsf	((c:3988)),c,3	;volatile
  6984                           opt subtitle "HI-TECH Software Omniscient Code Generator (Lite mode) build 49521"
  6985                           
  6986  001A22                     l2539:
  6987  001A22  8894               	bsf	((c:3988)),c,4	;volatile
  6988                           opt subtitle "HI-TECH Software Omniscient Code Generator (Lite mode) build 49521"
  6989                           
  6990  001A24                     l2541:
  6991  001A24  8AC6               	bsf	(0+(5/8)+(c:4038)),c,(5)&7	;volatile
  6992                           opt subtitle "HI-TECH Software Omniscient Code Generator (Lite mode) build 49521"
  6993                           
  6994  001A26                     l552:
  6995  001A26  0012               	return
  6996  001A28  FFFF               	dw	0FFFFh; errata NOP
  6997                           opt subtitle "HI-TECH Software Omniscient Code Generator (Lite mode) build 49521"
  6998                           
  6999  001A2A                     	__end_of_OpenI2C:
  7000                           opt subtitle "HI-TECH Software Omniscient Code Generator (Lite mode) build 49521"
  7001                           
  7002                           opt pagewidth 120
  7003                           
  7004                           	opt lm
  7005                           
  7006                           	processor	18F452
  7007                           porta	equ	0F80h
  7008                           portb	equ	0F81h
  7009                           portc	equ	0F82h
  7010                           portd	equ	0F83h
  7011                           porte	equ	0F84h
  7012                           lata	equ	0F89h
  7013                           latb	equ	0F8Ah
  7014                           latc	equ	0F8Bh
  7015                           latd	equ	0F8Ch
  7016                           late	equ	0F8Dh
  7017                           trisa	equ	0F92h
  7018                           trisb	equ	0F93h
  7019                           trisc	equ	0F94h
  7020                           trisd	equ	0F95h
  7021                           trise	equ	0F96h
  7022                           pie1	equ	0F9Dh
  7023                           pir1	equ	0F9Eh
  7024                           ipr1	equ	0F9Fh
  7025                           pie2	equ	0FA0h
  7026                           pir2	equ	0FA1h
  7027                           ipr2	equ	0FA2h
  7028                           t3con	equ	0FB1h
  7029                           tmr3l	equ	0FB2h
  7030                           tmr3h	equ	0FB3h
  7031                           ccp1con	equ	0FBDh
  7032                           ccpr1l	equ	0FBEh
  7033                           ccpr1h	equ	0FBFh
  7034                           adcon1	equ	0FC1h
  7035                           adcon0	equ	0FC2h
  7036                           adresl	equ	0FC3h
  7037  001630                     __ptext2:
  7038                           opt subtitle "HI-TECH Software Omniscient Code Generator (Lite mode) build 49521"
  7039                           
  7040                           opt pagewidth 120
  7041                           
  7042  0000                     	__size_of_EEByteWrite	equ	__end_of_EEByteWrite-_EEByteWrite
  7043                           opt subtitle "HI-TECH Software Omniscient Code Generator (Lite mode) build 49521"
  7044  001630                     _EEByteWrite:
  7045                           opt subtitle "HI-TECH Software Omniscient Code Generator (Lite mode) build 49521"
  7046  001630  FFFF               	dw	0FFFFh
  7047                           opt subtitle "HI-TECH Software Omniscient Code Generator (Lite mode) build 49521"
  7048                           
  7049  001632                     l2543:
  7050  001632  EC15  F00D         	call	_IdleI2C	;wreg free
  7051                           opt subtitle "HI-TECH Software Omniscient Code Generator (Lite mode) build 49521"
  7052                           
  7053  001636                     l2545:
  7054  001636  80C5               	bsf	((c:4037)),c,0	;volatile
  7055  001638  D000               	goto	l423
  7056                           opt subtitle "HI-TECH Software Omniscient Code Generator (Lite mode) build 49521"
  7057  00163A                     l424:
  7058                           opt subtitle "HI-TECH Software Omniscient Code Generator (Lite mode) build 49521"
  7059  00163A                     l423:
  7060                           opt subtitle "HI-TECH Software Omniscient Code Generator (Lite mode) build 49521"
  7061  00163A  B0C5               	btfsc	((c:4037)),c,0	;volatile
  7062  00163C  D001               	goto	u1801
  7063  00163E  D001               	goto	u1800
  7064  001640                     u1801:
  7065  001640  D7FC               	goto	l423
  7066  001642                     u1800:
  7067  001642  D001               	goto	l426
  7068                           opt subtitle "HI-TECH Software Omniscient Code Generator (Lite mode) build 49521"
  7069  001644                     l425:
  7070                           opt subtitle "HI-TECH Software Omniscient Code Generator (Lite mode) build 49521"
  7071  001644  D000               	goto	l426
  7072                           opt subtitle "HI-TECH Software Omniscient Code Generator (Lite mode) build 49521"
  7073  001646                     l427:
  7074                           opt subtitle "HI-TECH Software Omniscient Code Generator (Lite mode) build 49521"
  7075  001646                     l426:
  7076                           opt subtitle "HI-TECH Software Omniscient Code Generator (Lite mode) build 49521"
  7077  001646  B0C5               	btfsc	((c:4037)),c,0	;volatile
  7078  001648  D001               	goto	u1811
  7079  00164A  D001               	goto	u1810
  7080  00164C                     u1811:
  7081  00164C  D7FC               	goto	l426
  7082  00164E                     u1810:
  7083                           opt subtitle "HI-TECH Software Omniscient Code Generator (Lite mode) build 49521"
  7084  00164E                     l428:
  7085                           opt subtitle "HI-TECH Software Omniscient Code Generator (Lite mode) build 49521"
  7086                           
  7087  00164E  A6A1               	btfss	((c:4001)),c,3	;volatile
  7088  001650  D001               	goto	u1821
  7089  001652  D001               	goto	u1820
  7090  001654                     u1821:
  7091  001654  D003               	goto	l2551
  7092  001656                     u1820:
  7093  001656  D05E               	goto	l430
  7094                           opt subtitle "HI-TECH Software Omniscient Code Generator (Lite mode) build 49521"
  7095                           
  7096  001658                     l2547:
  7097                           opt subtitle "HI-TECH Software Omniscient Code Generator (Lite mode) build 49521"
  7098  001658  D05D               	goto	l430
  7099                           opt subtitle "HI-TECH Software Omniscient Code Generator (Lite mode) build 49521"
  7100                           
  7101  00165A                     l2549:
  7102  00165A  D04D               	goto	l431
  7103                           opt subtitle "HI-TECH Software Omniscient Code Generator (Lite mode) build 49521"
  7104                           
  7105  00165C                     l429:
  7106                           opt subtitle "HI-TECH Software Omniscient Code Generator (Lite mode) build 49521"
  7107                           
  7108  00165C                     l2551:
  7109  00165C  C03E  F03D         	movff	(c:EEByteWrite@control),(c:?_WriteI2C)
  7110  001660  ECEC  F00B         	call	_WriteI2C	;wreg free
  7111  001664  0900               	iorlw	0
  7112  001666  B4D8               	btfsc	status,2
  7113  001668  D001               	goto	u1831
  7114  00166A  D001               	goto	u1830
  7115  00166C                     u1831:
  7116  00166C  D008               	goto	l432
  7117  00166E                     u1830:
  7118                           opt subtitle "HI-TECH Software Omniscient Code Generator (Lite mode) build 49521"
  7119                           
  7120  00166E                     l2553:
  7121  00166E  84C5               	bsf	((c:4037)),c,2	;volatile
  7122  001670  D000               	goto	l433
  7123                           opt subtitle "HI-TECH Software Omniscient Code Generator (Lite mode) build 49521"
  7124  001672                     l434:
  7125                           opt subtitle "HI-TECH Software Omniscient Code Generator (Lite mode) build 49521"
  7126  001672                     l433:
  7127                           opt subtitle "HI-TECH Software Omniscient Code Generator (Lite mode) build 49521"
  7128  001672  B4C5               	btfsc	((c:4037)),c,2	;volatile
  7129  001674  D001               	goto	u1841
  7130  001676  D001               	goto	u1840
  7131  001678                     u1841:
  7132  001678  D7FC               	goto	l433
  7133  00167A                     u1840:
  7134  00167A  D04C               	goto	l430
  7135                           opt subtitle "HI-TECH Software Omniscient Code Generator (Lite mode) build 49521"
  7136  00167C                     l435:
  7137                           opt subtitle "HI-TECH Software Omniscient Code Generator (Lite mode) build 49521"
  7138                           
  7139  00167C  D04B               	goto	l430
  7140                           opt subtitle "HI-TECH Software Omniscient Code Generator (Lite mode) build 49521"
  7141                           
  7142  00167E                     l432:
  7143                           opt subtitle "HI-TECH Software Omniscient Code Generator (Lite mode) build 49521"
  7144                           
  7145  00167E  BCC5               	btfsc	((c:4037)),c,6	;volatile
  7146  001680  D001               	goto	u1851
  7147  001682  D001               	goto	u1850
  7148  001684                     u1851:
  7149  001684  D030               	goto	l436
  7150  001686                     u1850:
  7151                           opt subtitle "HI-TECH Software Omniscient Code Generator (Lite mode) build 49521"
  7152                           
  7153  001686                     l2555:
  7154  001686  C03F  F03D         	movff	(c:EEByteWrite@address),(c:?_WriteI2C)
  7155  00168A  ECEC  F00B         	call	_WriteI2C	;wreg free
  7156  00168E  0900               	iorlw	0
  7157  001690  B4D8               	btfsc	status,2
  7158  001692  D001               	goto	u1861
  7159  001694  D001               	goto	u1860
  7160  001696                     u1861:
  7161  001696  D008               	goto	l437
  7162  001698                     u1860:
  7163                           opt subtitle "HI-TECH Software Omniscient Code Generator (Lite mode) build 49521"
  7164                           
  7165  001698                     l2557:
  7166  001698  84C5               	bsf	((c:4037)),c,2	;volatile
  7167  00169A  D000               	goto	l438
  7168                           opt subtitle "HI-TECH Software Omniscient Code Generator (Lite mode) build 49521"
  7169  00169C                     l439:
  7170                           opt subtitle "HI-TECH Software Omniscient Code Generator (Lite mode) build 49521"
  7171  00169C                     l438:
  7172                           opt subtitle "HI-TECH Software Omniscient Code Generator (Lite mode) build 49521"
  7173  00169C  B4C5               	btfsc	((c:4037)),c,2	;volatile
  7174  00169E  D001               	goto	u1871
  7175  0016A0  D001               	goto	u1870
  7176  0016A2                     u1871:
  7177  0016A2  D7FC               	goto	l438
  7178  0016A4                     u1870:
  7179  0016A4  D037               	goto	l430
  7180                           opt subtitle "HI-TECH Software Omniscient Code Generator (Lite mode) build 49521"
  7181  0016A6                     l440:
  7182                           opt subtitle "HI-TECH Software Omniscient Code Generator (Lite mode) build 49521"
  7183                           
  7184  0016A6  D036               	goto	l430
  7185                           opt subtitle "HI-TECH Software Omniscient Code Generator (Lite mode) build 49521"
  7186                           
  7187  0016A8                     l437:
  7188                           opt subtitle "HI-TECH Software Omniscient Code Generator (Lite mode) build 49521"
  7189                           
  7190  0016A8  BCC5               	btfsc	((c:4037)),c,6	;volatile
  7191  0016AA  D001               	goto	u1881
  7192  0016AC  D001               	goto	u1880
  7193  0016AE                     u1881:
  7194  0016AE  D012               	goto	l441
  7195  0016B0                     u1880:
  7196                           opt subtitle "HI-TECH Software Omniscient Code Generator (Lite mode) build 49521"
  7197                           
  7198  0016B0                     l2559:
  7199  0016B0  C040  F03D         	movff	(c:EEByteWrite@data),(c:?_WriteI2C)
  7200  0016B4  ECEC  F00B         	call	_WriteI2C	;wreg free
  7201  0016B8  0900               	iorlw	0
  7202  0016BA  B4D8               	btfsc	status,2
  7203  0016BC  D001               	goto	u1891
  7204  0016BE  D001               	goto	u1890
  7205  0016C0                     u1891:
  7206  0016C0  D01A               	goto	l431
  7207  0016C2                     u1890:
  7208                           opt subtitle "HI-TECH Software Omniscient Code Generator (Lite mode) build 49521"
  7209                           
  7210  0016C2                     l2561:
  7211  0016C2  84C5               	bsf	((c:4037)),c,2	;volatile
  7212  0016C4  D000               	goto	l443
  7213                           opt subtitle "HI-TECH Software Omniscient Code Generator (Lite mode) build 49521"
  7214  0016C6                     l444:
  7215                           opt subtitle "HI-TECH Software Omniscient Code Generator (Lite mode) build 49521"
  7216  0016C6                     l443:
  7217                           opt subtitle "HI-TECH Software Omniscient Code Generator (Lite mode) build 49521"
  7218  0016C6  B4C5               	btfsc	((c:4037)),c,2	;volatile
  7219  0016C8  D001               	goto	u1901
  7220  0016CA  D001               	goto	u1900
  7221  0016CC                     u1901:
  7222  0016CC  D7FC               	goto	l443
  7223  0016CE                     u1900:
  7224  0016CE  D022               	goto	l430
  7225                           opt subtitle "HI-TECH Software Omniscient Code Generator (Lite mode) build 49521"
  7226  0016D0                     l445:
  7227                           opt subtitle "HI-TECH Software Omniscient Code Generator (Lite mode) build 49521"
  7228                           
  7229  0016D0  D021               	goto	l430
  7230                           opt subtitle "HI-TECH Software Omniscient Code Generator (Lite mode) build 49521"
  7231                           
  7232  0016D2                     l442:
  7233                           opt subtitle "HI-TECH Software Omniscient Code Generator (Lite mode) build 49521"
  7234  0016D2  D011               	goto	l431
  7235                           opt subtitle "HI-TECH Software Omniscient Code Generator (Lite mode) build 49521"
  7236                           
  7237  0016D4                     l441:
  7238                           opt subtitle "HI-TECH Software Omniscient Code Generator (Lite mode) build 49521"
  7239  0016D4  84C5               	bsf	((c:4037)),c,2	;volatile
  7240  0016D6  D000               	goto	l447
  7241                           opt subtitle "HI-TECH Software Omniscient Code Generator (Lite mode) build 49521"
  7242  0016D8                     l448:
  7243                           opt subtitle "HI-TECH Software Omniscient Code Generator (Lite mode) build 49521"
  7244  0016D8                     l447:
  7245                           opt subtitle "HI-TECH Software Omniscient Code Generator (Lite mode) build 49521"
  7246  0016D8  B4C5               	btfsc	((c:4037)),c,2	;volatile
  7247  0016DA  D001               	goto	u1911
  7248  0016DC  D001               	goto	u1910
  7249  0016DE                     u1911:
  7250  0016DE  D7FC               	goto	l447
  7251  0016E0                     u1910:
  7252  0016E0  D019               	goto	l430
  7253                           opt subtitle "HI-TECH Software Omniscient Code Generator (Lite mode) build 49521"
  7254  0016E2                     l449:
  7255                           opt subtitle "HI-TECH Software Omniscient Code Generator (Lite mode) build 49521"
  7256                           
  7257  0016E2  D018               	goto	l430
  7258                           opt subtitle "HI-TECH Software Omniscient Code Generator (Lite mode) build 49521"
  7259                           
  7260  0016E4                     l446:
  7261                           opt subtitle "HI-TECH Software Omniscient Code Generator (Lite mode) build 49521"
  7262  0016E4  D008               	goto	l431
  7263                           opt subtitle "HI-TECH Software Omniscient Code Generator (Lite mode) build 49521"
  7264                           
  7265  0016E6                     l436:
  7266                           opt subtitle "HI-TECH Software Omniscient Code Generator (Lite mode) build 49521"
  7267  0016E6  84C5               	bsf	((c:4037)),c,2	;volatile
  7268  0016E8  D000               	goto	l451
  7269                           opt subtitle "HI-TECH Software Omniscient Code Generator (Lite mode) build 49521"
  7270  0016EA                     l452:
  7271                           opt subtitle "HI-TECH Software Omniscient Code Generator (Lite mode) build 49521"
  7272  0016EA                     l451:
  7273                           opt subtitle "HI-TECH Software Omniscient Code Generator (Lite mode) build 49521"
  7274  0016EA  B4C5               	btfsc	((c:4037)),c,2	;volatile
  7275  0016EC  D001               	goto	u1921
  7276  0016EE  D001               	goto	u1920
  7277  0016F0                     u1921:
  7278  0016F0  D7FC               	goto	l451
  7279  0016F2                     u1920:
  7280  0016F2  D010               	goto	l430
  7281                           opt subtitle "HI-TECH Software Omniscient Code Generator (Lite mode) build 49521"
  7282  0016F4                     l453:
  7283                           opt subtitle "HI-TECH Software Omniscient Code Generator (Lite mode) build 49521"
  7284                           
  7285  0016F4  D00F               	goto	l430
  7286                           opt subtitle "HI-TECH Software Omniscient Code Generator (Lite mode) build 49521"
  7287                           
  7288  0016F6                     l450:
  7289                           opt subtitle "HI-TECH Software Omniscient Code Generator (Lite mode) build 49521"
  7290                           
  7291  0016F6                     l431:
  7292                           opt subtitle "HI-TECH Software Omniscient Code Generator (Lite mode) build 49521"
  7293  0016F6  84C5               	bsf	((c:4037)),c,2	;volatile
  7294  0016F8  D000               	goto	l454
  7295                           opt subtitle "HI-TECH Software Omniscient Code Generator (Lite mode) build 49521"
  7296  0016FA                     l455:
  7297                           opt subtitle "HI-TECH Software Omniscient Code Generator (Lite mode) build 49521"
  7298  0016FA                     l454:
  7299                           opt subtitle "HI-TECH Software Omniscient Code Generator (Lite mode) build 49521"
  7300  0016FA  B4C5               	btfsc	((c:4037)),c,2	;volatile
  7301  0016FC  D001               	goto	u1931
  7302  0016FE  D001               	goto	u1930
  7303  001700                     u1931:
  7304  001700  D7FC               	goto	l454
  7305  001702                     u1930:
  7306  001702  D001               	goto	l457
  7307                           opt subtitle "HI-TECH Software Omniscient Code Generator (Lite mode) build 49521"
  7308  001704                     l456:
  7309                           opt subtitle "HI-TECH Software Omniscient Code Generator (Lite mode) build 49521"
  7310  001704  D000               	goto	l457
  7311                           opt subtitle "HI-TECH Software Omniscient Code Generator (Lite mode) build 49521"
  7312  001706                     l458:
  7313                           opt subtitle "HI-TECH Software Omniscient Code Generator (Lite mode) build 49521"
  7314  001706                     l457:
  7315                           opt subtitle "HI-TECH Software Omniscient Code Generator (Lite mode) build 49521"
  7316  001706  B4C5               	btfsc	((c:4037)),c,2	;volatile
  7317  001708  D001               	goto	u1941
  7318  00170A  D001               	goto	u1940
  7319  00170C                     u1941:
  7320  00170C  D7FC               	goto	l457
  7321  00170E                     u1940:
  7322                           opt subtitle "HI-TECH Software Omniscient Code Generator (Lite mode) build 49521"
  7323  00170E                     l459:
  7324                           opt subtitle "HI-TECH Software Omniscient Code Generator (Lite mode) build 49521"
  7325  00170E  50A1               	movf	((c:4001)),c,w	;volatile
  7326  001710  D001               	goto	l430
  7327                           opt subtitle "HI-TECH Software Omniscient Code Generator (Lite mode) build 49521"
  7328                           
  7329  001712                     l2563:
  7330                           opt subtitle "HI-TECH Software Omniscient Code Generator (Lite mode) build 49521"
  7331  001712  D000               	goto	l430
  7332                           opt subtitle "HI-TECH Software Omniscient Code Generator (Lite mode) build 49521"
  7333                           
  7334  001714                     l460:
  7335                           opt subtitle "HI-TECH Software Omniscient Code Generator (Lite mode) build 49521"
  7336                           
  7337                           opt pagewidth 120
  7338  001714                     l430:
  7339  001714  0012               	return
  7340  001716  FFFF               	dw	0FFFFh; errata NOP
  7341                           opt subtitle "HI-TECH Software Omniscient Code Generator (Lite mode) build 49521"
  7342                           
  7343  001718                     	__end_of_EEByteWrite:
  7344                           opt subtitle "HI-TECH Software Omniscient Code Generator (Lite mode) build 49521"
  7345                           
  7346                           opt pagewidth 120
  7347                           
  7348                           	opt lm
  7349                           
  7350                           	processor	18F452
  7351                           porta	equ	0F80h
  7352                           portb	equ	0F81h
  7353                           portc	equ	0F82h
  7354                           portd	equ	0F83h
  7355                           porte	equ	0F84h
  7356                           lata	equ	0F89h
  7357                           latb	equ	0F8Ah
  7358                           latc	equ	0F8Bh
  7359                           latd	equ	0F8Ch
  7360                           late	equ	0F8Dh
  7361                           trisa	equ	0F92h
  7362                           trisb	equ	0F93h
  7363                           trisc	equ	0F94h
  7364                           trisd	equ	0F95h
  7365                           trise	equ	0F96h
  7366                           pie1	equ	0F9Dh
  7367                           pir1	equ	0F9Eh
  7368                           ipr1	equ	0F9Fh
  7369                           pie2	equ	0FA0h
  7370                           pir2	equ	0FA1h
  7371                           ipr2	equ	0FA2h
  7372                           t3con	equ	0FB1h
  7373                           tmr3l	equ	0FB2h
  7374                           tmr3h	equ	0FB3h
  7375                           ccp1con	equ	0FBDh
  7376                           ccpr1l	equ	0FBEh
  7377                           ccpr1h	equ	0FBFh
  7378                           adcon1	equ	0FC1h
  7379                           adcon0	equ	0FC2h
  7380  001496                     __ptext3:
  7381                           opt subtitle "HI-TECH Software Omniscient Code Generator (Lite mode) build 49521"
  7382                           
  7383                           opt pagewidth 120
  7384                           
  7385  0000                     	__size_of_EERandomRead	equ	__end_of_EERandomRead-_EERandomRead
  7386                           opt subtitle "HI-TECH Software Omniscient Code Generator (Lite mode) build 49521"
  7387  001496                     _EERandomRead:
  7388                           opt subtitle "HI-TECH Software Omniscient Code Generator (Lite mode) build 49521"
  7389  001496  FFFF               	dw	0FFFFh
  7390                           opt subtitle "HI-TECH Software Omniscient Code Generator (Lite mode) build 49521"
  7391                           
  7392  001498                     l2565:
  7393  001498  EC15  F00D         	call	_IdleI2C	;wreg free
  7394                           opt subtitle "HI-TECH Software Omniscient Code Generator (Lite mode) build 49521"
  7395                           
  7396  00149C                     l2567:
  7397  00149C  80C5               	bsf	((c:4037)),c,0	;volatile
  7398  00149E  D000               	goto	l473
  7399                           opt subtitle "HI-TECH Software Omniscient Code Generator (Lite mode) build 49521"
  7400  0014A0                     l474:
  7401                           opt subtitle "HI-TECH Software Omniscient Code Generator (Lite mode) build 49521"
  7402  0014A0                     l473:
  7403                           opt subtitle "HI-TECH Software Omniscient Code Generator (Lite mode) build 49521"
  7404  0014A0  B0C5               	btfsc	((c:4037)),c,0	;volatile
  7405  0014A2  D001               	goto	u1951
  7406  0014A4  D001               	goto	u1950
  7407  0014A6                     u1951:
  7408  0014A6  D7FC               	goto	l473
  7409  0014A8                     u1950:
  7410  0014A8  D001               	goto	l476
  7411                           opt subtitle "HI-TECH Software Omniscient Code Generator (Lite mode) build 49521"
  7412  0014AA                     l475:
  7413                           opt subtitle "HI-TECH Software Omniscient Code Generator (Lite mode) build 49521"
  7414  0014AA  D000               	goto	l476
  7415                           opt subtitle "HI-TECH Software Omniscient Code Generator (Lite mode) build 49521"
  7416  0014AC                     l477:
  7417                           opt subtitle "HI-TECH Software Omniscient Code Generator (Lite mode) build 49521"
  7418  0014AC                     l476:
  7419                           opt subtitle "HI-TECH Software Omniscient Code Generator (Lite mode) build 49521"
  7420  0014AC  B0C5               	btfsc	((c:4037)),c,0	;volatile
  7421  0014AE  D001               	goto	u1961
  7422  0014B0  D001               	goto	u1960
  7423  0014B2                     u1961:
  7424  0014B2  D7FC               	goto	l476
  7425  0014B4                     u1960:
  7426                           opt subtitle "HI-TECH Software Omniscient Code Generator (Lite mode) build 49521"
  7427  0014B4                     l478:
  7428                           opt subtitle "HI-TECH Software Omniscient Code Generator (Lite mode) build 49521"
  7429                           
  7430  0014B4  A6A1               	btfss	((c:4001)),c,3	;volatile
  7431  0014B6  D001               	goto	u1971
  7432  0014B8  D001               	goto	u1970
  7433  0014BA                     u1971:
  7434  0014BA  D004               	goto	l2573
  7435  0014BC                     u1970:
  7436                           opt subtitle "HI-TECH Software Omniscient Code Generator (Lite mode) build 49521"
  7437                           
  7438  0014BC                     l2569:
  7439  0014BC  683E               	setf	((c:?_EERandomRead)),c
  7440  0014BE  683F               	setf	((c:?_EERandomRead+1)),c
  7441  0014C0  D0B5               	goto	l480
  7442                           opt subtitle "HI-TECH Software Omniscient Code Generator (Lite mode) build 49521"
  7443                           
  7444  0014C2                     l2571:
  7445  0014C2  D0B1               	goto	l481
  7446                           opt subtitle "HI-TECH Software Omniscient Code Generator (Lite mode) build 49521"
  7447                           
  7448  0014C4                     l479:
  7449                           opt subtitle "HI-TECH Software Omniscient Code Generator (Lite mode) build 49521"
  7450                           
  7451  0014C4                     l2573:
  7452  0014C4  C03E  F03D         	movff	(c:EERandomRead@control),(c:?_WriteI2C)
  7453  0014C8  ECEC  F00B         	call	_WriteI2C	;wreg free
  7454  0014CC  0900               	iorlw	0
  7455  0014CE  B4D8               	btfsc	status,2
  7456  0014D0  D001               	goto	u1981
  7457  0014D2  D001               	goto	u1980
  7458  0014D4                     u1981:
  7459  0014D4  D00D               	goto	l482
  7460  0014D6                     u1980:
  7461                           opt subtitle "HI-TECH Software Omniscient Code Generator (Lite mode) build 49521"
  7462                           
  7463  0014D6                     l2575:
  7464  0014D6  84C5               	bsf	((c:4037)),c,2	;volatile
  7465  0014D8  D000               	goto	l483
  7466                           opt subtitle "HI-TECH Software Omniscient Code Generator (Lite mode) build 49521"
  7467  0014DA                     l484:
  7468                           opt subtitle "HI-TECH Software Omniscient Code Generator (Lite mode) build 49521"
  7469  0014DA                     l483:
  7470                           opt subtitle "HI-TECH Software Omniscient Code Generator (Lite mode) build 49521"
  7471  0014DA  B4C5               	btfsc	((c:4037)),c,2	;volatile
  7472  0014DC  D001               	goto	u1991
  7473  0014DE  D001               	goto	u1990
  7474  0014E0                     u1991:
  7475  0014E0  D7FC               	goto	l483
  7476  0014E2                     u1990:
  7477  0014E2  D000               	goto	l2577
  7478                           opt subtitle "HI-TECH Software Omniscient Code Generator (Lite mode) build 49521"
  7479  0014E4                     l485:
  7480                           opt subtitle "HI-TECH Software Omniscient Code Generator (Lite mode) build 49521"
  7481                           
  7482  0014E4                     l2577:
  7483  0014E4  0EFF               	movlw	high(-3)
  7484  0014E6  6E3F               	movwf	((c:?_EERandomRead+1)),c
  7485  0014E8  0EFD               	movlw	low(-3)
  7486  0014EA  6E3E               	movwf	((c:?_EERandomRead)),c
  7487  0014EC  D09F               	goto	l480
  7488                           opt subtitle "HI-TECH Software Omniscient Code Generator (Lite mode) build 49521"
  7489  0014EE                     l2579:
  7490  0014EE  D09E               	goto	l480
  7491                           opt subtitle "HI-TECH Software Omniscient Code Generator (Lite mode) build 49521"
  7492                           
  7493  0014F0                     l482:
  7494                           opt subtitle "HI-TECH Software Omniscient Code Generator (Lite mode) build 49521"
  7495                           
  7496  0014F0  BCC5               	btfsc	((c:4037)),c,6	;volatile
  7497  0014F2  D001               	goto	u2001
  7498  0014F4  D001               	goto	u2000
  7499  0014F6                     u2001:
  7500  0014F6  D08A               	goto	l486
  7501  0014F8                     u2000:
  7502                           opt subtitle "HI-TECH Software Omniscient Code Generator (Lite mode) build 49521"
  7503                           
  7504  0014F8                     l2581:
  7505  0014F8  C03F  F03D         	movff	(c:EERandomRead@address),(c:?_WriteI2C)
  7506  0014FC  ECEC  F00B         	call	_WriteI2C	;wreg free
  7507  001500  0900               	iorlw	0
  7508  001502  B4D8               	btfsc	status,2
  7509  001504  D001               	goto	u2011
  7510  001506  D001               	goto	u2010
  7511  001508                     u2011:
  7512  001508  D00D               	goto	l487
  7513  00150A                     u2010:
  7514                           opt subtitle "HI-TECH Software Omniscient Code Generator (Lite mode) build 49521"
  7515                           
  7516  00150A                     l2583:
  7517  00150A  84C5               	bsf	((c:4037)),c,2	;volatile
  7518  00150C  D000               	goto	l488
  7519                           opt subtitle "HI-TECH Software Omniscient Code Generator (Lite mode) build 49521"
  7520  00150E                     l489:
  7521                           opt subtitle "HI-TECH Software Omniscient Code Generator (Lite mode) build 49521"
  7522  00150E                     l488:
  7523                           opt subtitle "HI-TECH Software Omniscient Code Generator (Lite mode) build 49521"
  7524  00150E  B4C5               	btfsc	((c:4037)),c,2	;volatile
  7525  001510  D001               	goto	u2021
  7526  001512  D001               	goto	u2020
  7527  001514                     u2021:
  7528  001514  D7FC               	goto	l488
  7529  001516                     u2020:
  7530  001516  D000               	goto	l2585
  7531                           opt subtitle "HI-TECH Software Omniscient Code Generator (Lite mode) build 49521"
  7532  001518                     l490:
  7533                           opt subtitle "HI-TECH Software Omniscient Code Generator (Lite mode) build 49521"
  7534                           
  7535  001518                     l2585:
  7536  001518  0EFF               	movlw	high(-3)
  7537  00151A  6E3F               	movwf	((c:?_EERandomRead+1)),c
  7538  00151C  0EFD               	movlw	low(-3)
  7539  00151E  6E3E               	movwf	((c:?_EERandomRead)),c
  7540  001520  D085               	goto	l480
  7541                           opt subtitle "HI-TECH Software Omniscient Code Generator (Lite mode) build 49521"
  7542  001522                     l2587:
  7543  001522  D084               	goto	l480
  7544                           opt subtitle "HI-TECH Software Omniscient Code Generator (Lite mode) build 49521"
  7545                           
  7546  001524                     l487:
  7547                           opt subtitle "HI-TECH Software Omniscient Code Generator (Lite mode) build 49521"
  7548                           
  7549  001524  BCC5               	btfsc	((c:4037)),c,6	;volatile
  7550  001526  D001               	goto	u2031
  7551  001528  D001               	goto	u2030
  7552  00152A                     u2031:
  7553  00152A  D062               	goto	l491
  7554  00152C                     u2030:
  7555                           opt subtitle "HI-TECH Software Omniscient Code Generator (Lite mode) build 49521"
  7556                           
  7557  00152C                     l2589:
  7558  00152C  82C5               	bsf	((c:4037)),c,1	;volatile
  7559  00152E  D000               	goto	l492
  7560                           opt subtitle "HI-TECH Software Omniscient Code Generator (Lite mode) build 49521"
  7561  001530                     l493:
  7562                           opt subtitle "HI-TECH Software Omniscient Code Generator (Lite mode) build 49521"
  7563  001530                     l492:
  7564                           opt subtitle "HI-TECH Software Omniscient Code Generator (Lite mode) build 49521"
  7565  001530  B2C5               	btfsc	((c:4037)),c,1	;volatile
  7566  001532  D001               	goto	u2041
  7567  001534  D001               	goto	u2040
  7568  001536                     u2041:
  7569  001536  D7FC               	goto	l492
  7570  001538                     u2040:
  7571  001538  D001               	goto	l495
  7572                           opt subtitle "HI-TECH Software Omniscient Code Generator (Lite mode) build 49521"
  7573  00153A                     l494:
  7574                           opt subtitle "HI-TECH Software Omniscient Code Generator (Lite mode) build 49521"
  7575  00153A  D000               	goto	l495
  7576                           opt subtitle "HI-TECH Software Omniscient Code Generator (Lite mode) build 49521"
  7577  00153C                     l496:
  7578                           opt subtitle "HI-TECH Software Omniscient Code Generator (Lite mode) build 49521"
  7579  00153C                     l495:
  7580                           opt subtitle "HI-TECH Software Omniscient Code Generator (Lite mode) build 49521"
  7581  00153C  B2C5               	btfsc	((c:4037)),c,1	;volatile
  7582  00153E  D001               	goto	u2051
  7583  001540  D001               	goto	u2050
  7584  001542                     u2051:
  7585  001542  D7FC               	goto	l495
  7586  001544                     u2050:
  7587                           opt subtitle "HI-TECH Software Omniscient Code Generator (Lite mode) build 49521"
  7588  001544                     l497:
  7589                           opt subtitle "HI-TECH Software Omniscient Code Generator (Lite mode) build 49521"
  7590                           
  7591  001544  A6A1               	btfss	((c:4001)),c,3	;volatile
  7592  001546  D001               	goto	u2061
  7593  001548  D001               	goto	u2060
  7594  00154A                     u2061:
  7595  00154A  D003               	goto	l2593
  7596  00154C                     u2060:
  7597                           opt subtitle "HI-TECH Software Omniscient Code Generator (Lite mode) build 49521"
  7598                           
  7599  00154C                     l2591:
  7600  00154C  683E               	setf	((c:?_EERandomRead)),c
  7601  00154E  683F               	setf	((c:?_EERandomRead+1)),c
  7602  001550  D06D               	goto	l480
  7603                           opt subtitle "HI-TECH Software Omniscient Code Generator (Lite mode) build 49521"
  7604                           
  7605  001552                     l498:
  7606                           opt subtitle "HI-TECH Software Omniscient Code Generator (Lite mode) build 49521"
  7607                           
  7608  001552                     l2593:
  7609  001552  283E               	incf	((c:EERandomRead@control)),c,w
  7610  001554  6E3D               	movwf	((c:?_WriteI2C)),c
  7611  001556  ECEC  F00B         	call	_WriteI2C	;wreg free
  7612  00155A  0900               	iorlw	0
  7613  00155C  B4D8               	btfsc	status,2
  7614  00155E  D001               	goto	u2071
  7615  001560  D001               	goto	u2070
  7616  001562                     u2071:
  7617  001562  D00D               	goto	l499
  7618  001564                     u2070:
  7619                           opt subtitle "HI-TECH Software Omniscient Code Generator (Lite mode) build 49521"
  7620                           
  7621  001564                     l2595:
  7622  001564  84C5               	bsf	((c:4037)),c,2	;volatile
  7623  001566  D000               	goto	l500
  7624                           opt subtitle "HI-TECH Software Omniscient Code Generator (Lite mode) build 49521"
  7625  001568                     l501:
  7626                           opt subtitle "HI-TECH Software Omniscient Code Generator (Lite mode) build 49521"
  7627  001568                     l500:
  7628                           opt subtitle "HI-TECH Software Omniscient Code Generator (Lite mode) build 49521"
  7629  001568  B4C5               	btfsc	((c:4037)),c,2	;volatile
  7630  00156A  D001               	goto	u2081
  7631  00156C  D001               	goto	u2080
  7632  00156E                     u2081:
  7633  00156E  D7FC               	goto	l500
  7634  001570                     u2080:
  7635  001570  D000               	goto	l2597
  7636                           opt subtitle "HI-TECH Software Omniscient Code Generator (Lite mode) build 49521"
  7637  001572                     l502:
  7638                           opt subtitle "HI-TECH Software Omniscient Code Generator (Lite mode) build 49521"
  7639                           
  7640  001572                     l2597:
  7641  001572  0EFF               	movlw	high(-3)
  7642  001574  6E3F               	movwf	((c:?_EERandomRead+1)),c
  7643  001576  0EFD               	movlw	low(-3)
  7644  001578  6E3E               	movwf	((c:?_EERandomRead)),c
  7645  00157A  D058               	goto	l480
  7646                           opt subtitle "HI-TECH Software Omniscient Code Generator (Lite mode) build 49521"
  7647  00157C                     l2599:
  7648  00157C  D057               	goto	l480
  7649                           opt subtitle "HI-TECH Software Omniscient Code Generator (Lite mode) build 49521"
  7650                           
  7651  00157E                     l499:
  7652                           opt subtitle "HI-TECH Software Omniscient Code Generator (Lite mode) build 49521"
  7653                           
  7654  00157E  BCC5               	btfsc	((c:4037)),c,6	;volatile
  7655  001580  D001               	goto	u2091
  7656  001582  D001               	goto	u2090
  7657  001584                     u2091:
  7658  001584  D027               	goto	l503
  7659  001586                     u2090:
  7660                           opt subtitle "HI-TECH Software Omniscient Code Generator (Lite mode) build 49521"
  7661                           
  7662  001586                     l2601:
  7663  001586  86C5               	bsf	((c:4037)),c,3	;volatile
  7664                           opt subtitle "HI-TECH Software Omniscient Code Generator (Lite mode) build 49521"
  7665  001588  D000               	goto	l504
  7666                           opt subtitle "HI-TECH Software Omniscient Code Generator (Lite mode) build 49521"
  7667  00158A                     l505:
  7668                           opt subtitle "HI-TECH Software Omniscient Code Generator (Lite mode) build 49521"
  7669  00158A                     l504:
  7670                           opt subtitle "HI-TECH Software Omniscient Code Generator (Lite mode) build 49521"
  7671  00158A  B6C5               	btfsc	((c:4037)),c,3	;volatile
  7672  00158C  D001               	goto	u2101
  7673  00158E  D001               	goto	u2100
  7674  001590                     u2101:
  7675  001590  D7FC               	goto	l504
  7676  001592                     u2100:
  7677                           opt subtitle "HI-TECH Software Omniscient Code Generator (Lite mode) build 49521"
  7678  001592                     l506:
  7679                           opt subtitle "HI-TECH Software Omniscient Code Generator (Lite mode) build 49521"
  7680  001592  8AC5               	bsf	((c:4037)),c,5	;volatile
  7681  001594  88C5               	bsf	((c:4037)),c,4	;volatile
  7682  001596  D000               	goto	l507
  7683                           opt subtitle "HI-TECH Software Omniscient Code Generator (Lite mode) build 49521"
  7684  001598                     l508:
  7685                           opt subtitle "HI-TECH Software Omniscient Code Generator (Lite mode) build 49521"
  7686  001598                     l507:
  7687                           opt subtitle "HI-TECH Software Omniscient Code Generator (Lite mode) build 49521"
  7688  001598  B8C5               	btfsc	((c:4037)),c,4	;volatile
  7689  00159A  D001               	goto	u2111
  7690  00159C  D001               	goto	u2110
  7691  00159E                     u2111:
  7692  00159E  D7FC               	goto	l507
  7693  0015A0                     u2110:
  7694  0015A0  D001               	goto	l510
  7695                           opt subtitle "HI-TECH Software Omniscient Code Generator (Lite mode) build 49521"
  7696  0015A2                     l509:
  7697                           opt subtitle "HI-TECH Software Omniscient Code Generator (Lite mode) build 49521"
  7698  0015A2  D000               	goto	l510
  7699                           opt subtitle "HI-TECH Software Omniscient Code Generator (Lite mode) build 49521"
  7700  0015A4                     l511:
  7701                           opt subtitle "HI-TECH Software Omniscient Code Generator (Lite mode) build 49521"
  7702  0015A4                     l510:
  7703                           opt subtitle "HI-TECH Software Omniscient Code Generator (Lite mode) build 49521"
  7704  0015A4  B8C5               	btfsc	((c:4037)),c,4	;volatile
  7705  0015A6  D001               	goto	u2121
  7706  0015A8  D001               	goto	u2120
  7707  0015AA                     u2121:
  7708  0015AA  D7FC               	goto	l510
  7709  0015AC                     u2120:
  7710                           opt subtitle "HI-TECH Software Omniscient Code Generator (Lite mode) build 49521"
  7711  0015AC                     l512:
  7712                           opt subtitle "HI-TECH Software Omniscient Code Generator (Lite mode) build 49521"
  7713  0015AC  84C5               	bsf	((c:4037)),c,2	;volatile
  7714  0015AE  D000               	goto	l513
  7715                           opt subtitle "HI-TECH Software Omniscient Code Generator (Lite mode) build 49521"
  7716  0015B0                     l514:
  7717                           opt subtitle "HI-TECH Software Omniscient Code Generator (Lite mode) build 49521"
  7718  0015B0                     l513:
  7719                           opt subtitle "HI-TECH Software Omniscient Code Generator (Lite mode) build 49521"
  7720  0015B0  B4C5               	btfsc	((c:4037)),c,2	;volatile
  7721  0015B2  D001               	goto	u2131
  7722  0015B4  D001               	goto	u2130
  7723  0015B6                     u2131:
  7724  0015B6  D7FC               	goto	l513
  7725  0015B8                     u2130:
  7726  0015B8  D001               	goto	l516
  7727                           opt subtitle "HI-TECH Software Omniscient Code Generator (Lite mode) build 49521"
  7728  0015BA                     l515:
  7729                           opt subtitle "HI-TECH Software Omniscient Code Generator (Lite mode) build 49521"
  7730  0015BA  D000               	goto	l516
  7731                           opt subtitle "HI-TECH Software Omniscient Code Generator (Lite mode) build 49521"
  7732  0015BC                     l517:
  7733                           opt subtitle "HI-TECH Software Omniscient Code Generator (Lite mode) build 49521"
  7734  0015BC                     l516:
  7735                           opt subtitle "HI-TECH Software Omniscient Code Generator (Lite mode) build 49521"
  7736  0015BC  B4C5               	btfsc	((c:4037)),c,2	;volatile
  7737  0015BE  D001               	goto	u2141
  7738  0015C0  D001               	goto	u2140
  7739  0015C2                     u2141:
  7740  0015C2  D7FC               	goto	l516
  7741  0015C4                     u2140:
  7742                           opt subtitle "HI-TECH Software Omniscient Code Generator (Lite mode) build 49521"
  7743  0015C4                     l518:
  7744                           opt subtitle "HI-TECH Software Omniscient Code Generator (Lite mode) build 49521"
  7745                           
  7746  0015C4  A6A1               	btfss	((c:4001)),c,3	;volatile
  7747  0015C6  D001               	goto	u2151
  7748  0015C8  D001               	goto	u2150
  7749  0015CA                     u2151:
  7750  0015CA  D02D               	goto	l481
  7751  0015CC                     u2150:
  7752                           opt subtitle "HI-TECH Software Omniscient Code Generator (Lite mode) build 49521"
  7753                           
  7754  0015CC                     l2603:
  7755  0015CC  683E               	setf	((c:?_EERandomRead)),c
  7756  0015CE  683F               	setf	((c:?_EERandomRead+1)),c
  7757  0015D0  D02D               	goto	l480
  7758                           opt subtitle "HI-TECH Software Omniscient Code Generator (Lite mode) build 49521"
  7759                           
  7760  0015D2                     l519:
  7761                           opt subtitle "HI-TECH Software Omniscient Code Generator (Lite mode) build 49521"
  7762  0015D2  D029               	goto	l481
  7763                           opt subtitle "HI-TECH Software Omniscient Code Generator (Lite mode) build 49521"
  7764                           
  7765  0015D4                     l503:
  7766                           opt subtitle "HI-TECH Software Omniscient Code Generator (Lite mode) build 49521"
  7767  0015D4  84C5               	bsf	((c:4037)),c,2	;volatile
  7768  0015D6  D000               	goto	l521
  7769                           opt subtitle "HI-TECH Software Omniscient Code Generator (Lite mode) build 49521"
  7770  0015D8                     l522:
  7771                           opt subtitle "HI-TECH Software Omniscient Code Generator (Lite mode) build 49521"
  7772  0015D8                     l521:
  7773                           opt subtitle "HI-TECH Software Omniscient Code Generator (Lite mode) build 49521"
  7774  0015D8  B4C5               	btfsc	((c:4037)),c,2	;volatile
  7775  0015DA  D001               	goto	u2161
  7776  0015DC  D001               	goto	u2160
  7777  0015DE                     u2161:
  7778  0015DE  D7FC               	goto	l521
  7779  0015E0                     u2160:
  7780  0015E0  D000               	goto	l2605
  7781                           opt subtitle "HI-TECH Software Omniscient Code Generator (Lite mode) build 49521"
  7782  0015E2                     l523:
  7783                           opt subtitle "HI-TECH Software Omniscient Code Generator (Lite mode) build 49521"
  7784                           
  7785  0015E2                     l2605:
  7786  0015E2  0EFF               	movlw	high(-2)
  7787  0015E4  6E3F               	movwf	((c:?_EERandomRead+1)),c
  7788  0015E6  0EFE               	movlw	low(-2)
  7789  0015E8  6E3E               	movwf	((c:?_EERandomRead)),c
  7790  0015EA  D020               	goto	l480
  7791                           opt subtitle "HI-TECH Software Omniscient Code Generator (Lite mode) build 49521"
  7792  0015EC                     l2607:
  7793  0015EC  D01F               	goto	l480
  7794                           opt subtitle "HI-TECH Software Omniscient Code Generator (Lite mode) build 49521"
  7795                           
  7796  0015EE                     l520:
  7797                           opt subtitle "HI-TECH Software Omniscient Code Generator (Lite mode) build 49521"
  7798  0015EE  D01B               	goto	l481
  7799                           opt subtitle "HI-TECH Software Omniscient Code Generator (Lite mode) build 49521"
  7800                           
  7801  0015F0                     l491:
  7802                           opt subtitle "HI-TECH Software Omniscient Code Generator (Lite mode) build 49521"
  7803  0015F0  84C5               	bsf	((c:4037)),c,2	;volatile
  7804  0015F2  D000               	goto	l525
  7805                           opt subtitle "HI-TECH Software Omniscient Code Generator (Lite mode) build 49521"
  7806  0015F4                     l526:
  7807                           opt subtitle "HI-TECH Software Omniscient Code Generator (Lite mode) build 49521"
  7808  0015F4                     l525:
  7809                           opt subtitle "HI-TECH Software Omniscient Code Generator (Lite mode) build 49521"
  7810  0015F4  B4C5               	btfsc	((c:4037)),c,2	;volatile
  7811  0015F6  D001               	goto	u2171
  7812  0015F8  D001               	goto	u2170
  7813  0015FA                     u2171:
  7814  0015FA  D7FC               	goto	l525
  7815  0015FC                     u2170:
  7816  0015FC  D000               	goto	l2609
  7817                           opt subtitle "HI-TECH Software Omniscient Code Generator (Lite mode) build 49521"
  7818  0015FE                     l527:
  7819                           opt subtitle "HI-TECH Software Omniscient Code Generator (Lite mode) build 49521"
  7820                           
  7821  0015FE                     l2609:
  7822  0015FE  0EFF               	movlw	high(-2)
  7823  001600  6E3F               	movwf	((c:?_EERandomRead+1)),c
  7824  001602  0EFE               	movlw	low(-2)
  7825  001604  6E3E               	movwf	((c:?_EERandomRead)),c
  7826  001606  D012               	goto	l480
  7827                           opt subtitle "HI-TECH Software Omniscient Code Generator (Lite mode) build 49521"
  7828  001608                     l2611:
  7829  001608  D011               	goto	l480
  7830                           opt subtitle "HI-TECH Software Omniscient Code Generator (Lite mode) build 49521"
  7831                           
  7832  00160A                     l524:
  7833                           opt subtitle "HI-TECH Software Omniscient Code Generator (Lite mode) build 49521"
  7834  00160A  D00D               	goto	l481
  7835                           opt subtitle "HI-TECH Software Omniscient Code Generator (Lite mode) build 49521"
  7836                           
  7837  00160C                     l486:
  7838                           opt subtitle "HI-TECH Software Omniscient Code Generator (Lite mode) build 49521"
  7839  00160C  84C5               	bsf	((c:4037)),c,2	;volatile
  7840  00160E  D000               	goto	l529
  7841                           opt subtitle "HI-TECH Software Omniscient Code Generator (Lite mode) build 49521"
  7842  001610                     l530:
  7843                           opt subtitle "HI-TECH Software Omniscient Code Generator (Lite mode) build 49521"
  7844  001610                     l529:
  7845                           opt subtitle "HI-TECH Software Omniscient Code Generator (Lite mode) build 49521"
  7846  001610  B4C5               	btfsc	((c:4037)),c,2	;volatile
  7847  001612  D001               	goto	u2181
  7848  001614  D001               	goto	u2180
  7849  001616                     u2181:
  7850  001616  D7FC               	goto	l529
  7851  001618                     u2180:
  7852  001618  D000               	goto	l2613
  7853                           opt subtitle "HI-TECH Software Omniscient Code Generator (Lite mode) build 49521"
  7854  00161A                     l531:
  7855                           opt subtitle "HI-TECH Software Omniscient Code Generator (Lite mode) build 49521"
  7856                           
  7857  00161A                     l2613:
  7858  00161A  0EFF               	movlw	high(-2)
  7859  00161C  6E3F               	movwf	((c:?_EERandomRead+1)),c
  7860  00161E  0EFE               	movlw	low(-2)
  7861  001620  6E3E               	movwf	((c:?_EERandomRead)),c
  7862  001622  D004               	goto	l480
  7863                           opt subtitle "HI-TECH Software Omniscient Code Generator (Lite mode) build 49521"
  7864  001624                     l2615:
  7865  001624  D003               	goto	l480
  7866                           opt subtitle "HI-TECH Software Omniscient Code Generator (Lite mode) build 49521"
  7867                           
  7868  001626                     l528:
  7869                           opt subtitle "HI-TECH Software Omniscient Code Generator (Lite mode) build 49521"
  7870                           
  7871  001626                     l481:
  7872                           opt subtitle "HI-TECH Software Omniscient Code Generator (Lite mode) build 49521"
  7873  001626  CFC9 F03E          	movff	(c:4041),(c:?_EERandomRead)	;volatile
  7874  00162A  6A3F               	clrf	((c:?_EERandomRead+1)),c
  7875                           opt subtitle "HI-TECH Software Omniscient Code Generator (Lite mode) build 49521"
  7876                           
  7877  00162C                     l480:
  7878  00162C  0012               	return
  7879  00162E  FFFF               	dw	0FFFFh; errata NOP
  7880                           opt subtitle "HI-TECH Software Omniscient Code Generator (Lite mode) build 49521"
  7881                           
  7882  001630                     	__end_of_EERandomRead:
  7883                           opt subtitle "HI-TECH Software Omniscient Code Generator (Lite mode) build 49521"
  7884                           
  7885                           opt pagewidth 120
  7886                           
  7887                           	opt lm
  7888                           
  7889                           	processor	18F452
  7890                           porta	equ	0F80h
  7891                           portb	equ	0F81h
  7892                           portc	equ	0F82h
  7893                           portd	equ	0F83h
  7894                           porte	equ	0F84h
  7895                           lata	equ	0F89h
  7896                           latb	equ	0F8Ah
  7897                           latc	equ	0F8Bh
  7898                           latd	equ	0F8Ch
  7899                           late	equ	0F8Dh
  7900                           trisa	equ	0F92h
  7901                           trisb	equ	0F93h
  7902                           trisc	equ	0F94h
  7903                           trisd	equ	0F95h
  7904                           trise	equ	0F96h
  7905                           pie1	equ	0F9Dh
  7906                           pir1	equ	0F9Eh
  7907                           ipr1	equ	0F9Fh
  7908                           pie2	equ	0FA0h
  7909                           pir2	equ	0FA1h
  7910                           ipr2	equ	0FA2h
  7911                           t3con	equ	0FB1h
  7912                           tmr3l	equ	0FB2h
  7913                           tmr3h	equ	0FB3h
  7914                           ccp1con	equ	0FBDh
  7915                           ccpr1l	equ	0FBEh
  7916                           ccpr1h	equ	0FBFh
  7917                           adcon1	equ	0FC1h
  7918  0019A0                     __ptext4:
  7919                           opt subtitle "HI-TECH Software Omniscient Code Generator (Lite mode) build 49521"
  7920                           
  7921                           opt pagewidth 120
  7922                           
  7923  0000                     	__size_of_Write_b_eep	equ	__end_of_Write_b_eep-_Write_b_eep
  7924                           opt subtitle "HI-TECH Software Omniscient Code Generator (Lite mode) build 49521"
  7925  0019A0                     _Write_b_eep:
  7926                           opt subtitle "HI-TECH Software Omniscient Code Generator (Lite mode) build 49521"
  7927  0019A0  FFFF               	dw	0FFFFh
  7928                           opt subtitle "HI-TECH Software Omniscient Code Generator (Lite mode) build 49521"
  7929                           
  7930  0019A2                     l2617:
  7931  0019A2  6E40               	movwf	(??_Write_b_eep+0+0)&0ffh,c
  7932  0019A4  0E00               	movlw	low(0)
  7933  0019A6  6E41               	movwf	((c:Write_b_eep@GIE_BIT_VAL)),c
  7934  0019A8  5040               	movf	(??_Write_b_eep+0+0)&0ffh,c,w
  7935                           opt subtitle "HI-TECH Software Omniscient Code Generator (Lite mode) build 49521"
  7936                           
  7937  0019AA                     l2619:
  7938  0019AA  C03D  FFA9         	movff	(c:Write_b_eep@badd),(c:4009)	;volatile
  7939                           opt subtitle "HI-TECH Software Omniscient Code Generator (Lite mode) build 49521"
  7940                           
  7941  0019AE                     l2621:
  7942  0019AE  C03F  FFA8         	movff	(c:Write_b_eep@bdat),(c:4008)	;volatile
  7943                           opt subtitle "HI-TECH Software Omniscient Code Generator (Lite mode) build 49521"
  7944                           
  7945  0019B2                     l2623:
  7946  0019B2  9EA6               	bcf	((c:4006)),c,7	;volatile
  7947                           opt subtitle "HI-TECH Software Omniscient Code Generator (Lite mode) build 49521"
  7948                           
  7949  0019B4                     l2625:
  7950  0019B4  9CA6               	bcf	((c:4006)),c,6	;volatile
  7951                           opt subtitle "HI-TECH Software Omniscient Code Generator (Lite mode) build 49521"
  7952                           
  7953  0019B6                     l2627:
  7954  0019B6  84A6               	bsf	((c:4006)),c,2	;volatile
  7955                           opt subtitle "HI-TECH Software Omniscient Code Generator (Lite mode) build 49521"
  7956                           
  7957  0019B8                     l2629:
  7958  0019B8  0E00               	movlw	0
  7959  0019BA  BEF2               	btfsc	((c:4082)),c,7	;volatile
  7960  0019BC  0E01               	movlw	1
  7961  0019BE  6E41               	movwf	((c:Write_b_eep@GIE_BIT_VAL)),c
  7962                           opt subtitle "HI-TECH Software Omniscient Code Generator (Lite mode) build 49521"
  7963                           
  7964  0019C0                     l2631:
  7965  0019C0  9EF2               	bcf	((c:4082)),c,7	;volatile
  7966                           opt subtitle "HI-TECH Software Omniscient Code Generator (Lite mode) build 49521"
  7967  0019C2  0E55               	movlw	low(055h)
  7968  0019C4  6EA7               	movwf	((c:4007)),c	;volatile
  7969                           opt subtitle "HI-TECH Software Omniscient Code Generator (Lite mode) build 49521"
  7970  0019C6  0EAA               	movlw	low(0AAh)
  7971  0019C8  6EA7               	movwf	((c:4007)),c	;volatile
  7972                           opt subtitle "HI-TECH Software Omniscient Code Generator (Lite mode) build 49521"
  7973                           
  7974  0019CA                     l2633:
  7975  0019CA  82A6               	bsf	((c:4006)),c,1	;volatile
  7976                           opt subtitle "HI-TECH Software Omniscient Code Generator (Lite mode) build 49521"
  7977  0019CC  D000               	goto	l409
  7978                           opt subtitle "HI-TECH Software Omniscient Code Generator (Lite mode) build 49521"
  7979  0019CE                     l410:
  7980                           opt subtitle "HI-TECH Software Omniscient Code Generator (Lite mode) build 49521"
  7981  0019CE                     l409:
  7982                           opt subtitle "HI-TECH Software Omniscient Code Generator (Lite mode) build 49521"
  7983  0019CE  B2A6               	btfsc	((c:4006)),c,1	;volatile
  7984  0019D0  D001               	goto	u2191
  7985  0019D2  D001               	goto	u2190
  7986  0019D4                     u2191:
  7987  0019D4  D7FC               	goto	l409
  7988  0019D6                     u2190:
  7989                           opt subtitle "HI-TECH Software Omniscient Code Generator (Lite mode) build 49521"
  7990  0019D6                     l411:
  7991                           opt subtitle "HI-TECH Software Omniscient Code Generator (Lite mode) build 49521"
  7992  0019D6  B041               	btfsc	(c:Write_b_eep@GIE_BIT_VAL),c,0
  7993  0019D8  D002               	bra	u2205
  7994  0019DA  9EF2               	bcf	((c:4082)),c,7	;volatile
  7995  0019DC  D001               	bra	u2206
  7996  0019DE                     	u2205:
  7997  0019DE  8EF2               	bsf	((c:4082)),c,7	;volatile
  7998  0019E0                     	u2206:
  7999                           opt subtitle "HI-TECH Software Omniscient Code Generator (Lite mode) build 49521"
  8000                           
  8001  0019E0  94A6               	bcf	((c:4006)),c,2	;volatile
  8002                           opt subtitle "HI-TECH Software Omniscient Code Generator (Lite mode) build 49521"
  8003                           
  8004  0019E2                     l412:
  8005  0019E2  0012               	return
  8006  0019E4  FFFF               	dw	0FFFFh; errata NOP
  8007                           opt subtitle "HI-TECH Software Omniscient Code Generator (Lite mode) build 49521"
  8008                           
  8009  0019E6                     	__end_of_Write_b_eep:
  8010                           opt subtitle "HI-TECH Software Omniscient Code Generator (Lite mode) build 49521"
  8011                           
  8012                           opt pagewidth 120
  8013                           
  8014                           	opt lm
  8015                           
  8016                           	processor	18F452
  8017                           porta	equ	0F80h
  8018                           portb	equ	0F81h
  8019                           portc	equ	0F82h
  8020                           portd	equ	0F83h
  8021                           porte	equ	0F84h
  8022                           lata	equ	0F89h
  8023                           latb	equ	0F8Ah
  8024                           latc	equ	0F8Bh
  8025                           latd	equ	0F8Ch
  8026                           late	equ	0F8Dh
  8027                           trisa	equ	0F92h
  8028                           trisb	equ	0F93h
  8029                           trisc	equ	0F94h
  8030                           trisd	equ	0F95h
  8031                           trise	equ	0F96h
  8032                           pie1	equ	0F9Dh
  8033                           pir1	equ	0F9Eh
  8034                           ipr1	equ	0F9Fh
  8035                           pie2	equ	0FA0h
  8036                           pir2	equ	0FA1h
  8037                           ipr2	equ	0FA2h
  8038                           t3con	equ	0FB1h
  8039                           tmr3l	equ	0FB2h
  8040                           tmr3h	equ	0FB3h
  8041                           ccp1con	equ	0FBDh
  8042                           ccpr1l	equ	0FBEh
  8043                           ccpr1h	equ	0FBFh
  8044  001A4A                     __ptext5:
  8045                           opt subtitle "HI-TECH Software Omniscient Code Generator (Lite mode) build 49521"
  8046                           
  8047                           opt pagewidth 120
  8048                           
  8049  0000                     	__size_of_Read_b_eep	equ	__end_of_Read_b_eep-_Read_b_eep
  8050                           opt subtitle "HI-TECH Software Omniscient Code Generator (Lite mode) build 49521"
  8051  001A4A                     _Read_b_eep:
  8052                           opt subtitle "HI-TECH Software Omniscient Code Generator (Lite mode) build 49521"
  8053  001A4A  FFFF               	dw	0FFFFh
  8054                           opt subtitle "HI-TECH Software Omniscient Code Generator (Lite mode) build 49521"
  8055                           
  8056  001A4C                     l2635:
  8057  001A4C  C03D  FFA9         	movff	(c:Read_b_eep@badd),(c:4009)	;volatile
  8058                           opt subtitle "HI-TECH Software Omniscient Code Generator (Lite mode) build 49521"
  8059  001A50  9CA6               	bcf	((c:4006)),c,6	;volatile
  8060                           opt subtitle "HI-TECH Software Omniscient Code Generator (Lite mode) build 49521"
  8061  001A52  9EA6               	bcf	((c:4006)),c,7	;volatile
  8062                           opt subtitle "HI-TECH Software Omniscient Code Generator (Lite mode) build 49521"
  8063  001A54  80A6               	bsf	((c:4006)),c,0	;volatile
  8064                           opt subtitle "HI-TECH Software Omniscient Code Generator (Lite mode) build 49521"
  8065                           
  8066  001A56  F000               nop ;# 
  8067                           opt subtitle "HI-TECH Software Omniscient Code Generator (Lite mode) build 49521"
  8068                           
  8069  001A58  F000               nop ;# 
  8070                           opt subtitle "HI-TECH Software Omniscient Code Generator (Lite mode) build 49521"
  8071                           
  8072                           opt pagewidth 120
  8073  001A5A                     l2637:
  8074  001A5A  50A8               	movf	((c:4008)),c,w	;volatile
  8075  001A5C  D000               	goto	l396
  8076                           opt subtitle "HI-TECH Software Omniscient Code Generator (Lite mode) build 49521"
  8077  001A5E                     l2639:
  8078                           opt subtitle "HI-TECH Software Omniscient Code Generator (Lite mode) build 49521"
  8079                           
  8080  001A5E                     l396:
  8081  001A5E  0012               	return
  8082  001A60  FFFF               	dw	0FFFFh; errata NOP
  8083                           opt subtitle "HI-TECH Software Omniscient Code Generator (Lite mode) build 49521"
  8084                           
  8085  001A62                     	__end_of_Read_b_eep:
  8086                           opt subtitle "HI-TECH Software Omniscient Code Generator (Lite mode) build 49521"
  8087                           
  8088                           opt pagewidth 120
  8089                           
  8090                           	opt lm
  8091                           
  8092                           	processor	18F452
  8093                           porta	equ	0F80h
  8094                           portb	equ	0F81h
  8095                           portc	equ	0F82h
  8096                           portd	equ	0F83h
  8097                           porte	equ	0F84h
  8098                           lata	equ	0F89h
  8099                           latb	equ	0F8Ah
  8100                           latc	equ	0F8Bh
  8101                           latd	equ	0F8Ch
  8102                           late	equ	0F8Dh
  8103                           trisa	equ	0F92h
  8104                           trisb	equ	0F93h
  8105                           trisc	equ	0F94h
  8106                           trisd	equ	0F95h
  8107                           trise	equ	0F96h
  8108                           pie1	equ	0F9Dh
  8109                           pir1	equ	0F9Eh
  8110                           ipr1	equ	0F9Fh
  8111                           pie2	equ	0FA0h
  8112                           pir2	equ	0FA1h
  8113                           ipr2	equ	0FA2h
  8114                           t3con	equ	0FB1h
  8115                           tmr3l	equ	0FB2h
  8116                           tmr3h	equ	0FB3h
  8117                           ccp1con	equ	0FBDh
  8118                           ccpr1l	equ	0FBEh
  8119                           ccpr1h	equ	0FBFh
  8120                           adcon1	equ	0FC1h
  8121  0017D8                     __ptext6:
  8122                           opt subtitle "HI-TECH Software Omniscient Code Generator (Lite mode) build 49521"
  8123                           
  8124                           opt pagewidth 120
  8125                           
  8126  0000                     	__size_of_WriteI2C	equ	__end_of_WriteI2C-_WriteI2C
  8127                           opt subtitle "HI-TECH Software Omniscient Code Generator (Lite mode) build 49521"
  8128  0017D8                     _WriteI2C:
  8129                           opt subtitle "HI-TECH Software Omniscient Code Generator (Lite mode) build 49521"
  8130  0017D8  FFFF               	dw	0FFFFh
  8131                           opt subtitle "HI-TECH Software Omniscient Code Generator (Lite mode) build 49521"
  8132                           
  8133  0017DA                     l2675:
  8134  0017DA  C03D  FFC9         	movff	(c:WriteI2C@data_out),(c:4041)	;volatile
  8135                           opt subtitle "HI-TECH Software Omniscient Code Generator (Lite mode) build 49521"
  8136                           
  8137  0017DE  AEC6               	btfss	((c:4038)),c,7	;volatile
  8138  0017E0  D001               	goto	u2251
  8139  0017E2  D001               	goto	u2250
  8140  0017E4                     u2251:
  8141  0017E4  D004               	goto	l2683
  8142  0017E6                     u2250:
  8143                           opt subtitle "HI-TECH Software Omniscient Code Generator (Lite mode) build 49521"
  8144                           
  8145  0017E6                     l2677:
  8146  0017E6  0EFF               	movlw	(-1)&0ffh
  8147  0017E8  D04B               	goto	l570
  8148                           opt subtitle "HI-TECH Software Omniscient Code Generator (Lite mode) build 49521"
  8149  0017EA                     l2679:
  8150  0017EA  D04A               	goto	l570
  8151                           opt subtitle "HI-TECH Software Omniscient Code Generator (Lite mode) build 49521"
  8152  0017EC                     l2681:
  8153  0017EC  D049               	goto	l570
  8154                           opt subtitle "HI-TECH Software Omniscient Code Generator (Lite mode) build 49521"
  8155                           
  8156  0017EE                     l569:
  8157                           opt subtitle "HI-TECH Software Omniscient Code Generator (Lite mode) build 49521"
  8158                           
  8159  0017EE                     l2683:
  8160  0017EE  50C6               	movf	((c:4038)),c,w	;volatile
  8161  0017F0  0B0F               	andlw	low(0Fh)
  8162  0017F2  0A08               	xorlw	08h
  8163  0017F4  B4D8               	btfsc	status,2
  8164  0017F6  D001               	goto	u2261
  8165  0017F8  D001               	goto	u2260
  8166  0017FA                     u2261:
  8167  0017FA  D01D               	goto	l2701
  8168  0017FC                     u2260:
  8169                           opt subtitle "HI-TECH Software Omniscient Code Generator (Lite mode) build 49521"
  8170  0017FC                     l2685:
  8171  0017FC  50C6               	movf	((c:4038)),c,w	;volatile
  8172  0017FE  0B0F               	andlw	low(0Fh)
  8173  001800  0A0B               	xorlw	0Bh
  8174  001802  B4D8               	btfsc	status,2
  8175  001804  D001               	goto	u2271
  8176  001806  D001               	goto	u2270
  8177  001808                     u2271:
  8178  001808  D016               	goto	l2701
  8179  00180A                     u2270:
  8180                           opt subtitle "HI-TECH Software Omniscient Code Generator (Lite mode) build 49521"
  8181                           
  8182  00180A                     l2687:
  8183  00180A  88C6               	bsf	((c:4038)),c,4	;volatile
  8184                           opt subtitle "HI-TECH Software Omniscient Code Generator (Lite mode) build 49521"
  8185  00180C  D000               	goto	l573
  8186                           opt subtitle "HI-TECH Software Omniscient Code Generator (Lite mode) build 49521"
  8187  00180E                     l574:
  8188                           opt subtitle "HI-TECH Software Omniscient Code Generator (Lite mode) build 49521"
  8189  00180E                     l573:
  8190                           opt subtitle "HI-TECH Software Omniscient Code Generator (Lite mode) build 49521"
  8191  00180E  A69E               	btfss	((c:3998)),c,3	;volatile
  8192  001810  D001               	goto	u2281
  8193  001812  D001               	goto	u2280
  8194  001814                     u2281:
  8195  001814  D7FC               	goto	l573
  8196  001816                     u2280:
  8197                           opt subtitle "HI-TECH Software Omniscient Code Generator (Lite mode) build 49521"
  8198  001816                     l575:
  8199                           opt subtitle "HI-TECH Software Omniscient Code Generator (Lite mode) build 49521"
  8200                           
  8201  001816  B4C7               	btfsc	((c:4039)),c,2	;volatile
  8202  001818  D001               	goto	u2291
  8203  00181A  D001               	goto	u2290
  8204  00181C                     u2291:
  8205  00181C  D008               	goto	l2697
  8206  00181E                     u2290:
  8207                           opt subtitle "HI-TECH Software Omniscient Code Generator (Lite mode) build 49521"
  8208  00181E                     l2689:
  8209                           opt subtitle "HI-TECH Software Omniscient Code Generator (Lite mode) build 49521"
  8210  00181E  B0C7               	btfsc	((c:4039)),c,0	;volatile
  8211  001820  D001               	goto	u2301
  8212  001822  D001               	goto	u2300
  8213  001824                     u2301:
  8214  001824  D004               	goto	l2697
  8215  001826                     u2300:
  8216                           opt subtitle "HI-TECH Software Omniscient Code Generator (Lite mode) build 49521"
  8217                           
  8218  001826                     l2691:
  8219  001826  0EFE               	movlw	(-2)&0ffh
  8220  001828  D02B               	goto	l570
  8221                           opt subtitle "HI-TECH Software Omniscient Code Generator (Lite mode) build 49521"
  8222  00182A                     l2693:
  8223  00182A  D02A               	goto	l570
  8224                           opt subtitle "HI-TECH Software Omniscient Code Generator (Lite mode) build 49521"
  8225                           
  8226  00182C                     l2695:
  8227  00182C  D029               	goto	l570
  8228                           opt subtitle "HI-TECH Software Omniscient Code Generator (Lite mode) build 49521"
  8229                           
  8230  00182E                     l576:
  8231                           opt subtitle "HI-TECH Software Omniscient Code Generator (Lite mode) build 49521"
  8232                           
  8233  00182E                     l2697:
  8234  00182E  0E00               	movlw	(0)&0ffh
  8235  001830  D027               	goto	l570
  8236                           opt subtitle "HI-TECH Software Omniscient Code Generator (Lite mode) build 49521"
  8237  001832                     l2699:
  8238  001832  D026               	goto	l570
  8239                           opt subtitle "HI-TECH Software Omniscient Code Generator (Lite mode) build 49521"
  8240                           
  8241  001834                     l577:
  8242                           opt subtitle "HI-TECH Software Omniscient Code Generator (Lite mode) build 49521"
  8243  001834  D025               	goto	l570
  8244                           opt subtitle "HI-TECH Software Omniscient Code Generator (Lite mode) build 49521"
  8245                           
  8246  001836                     l572:
  8247                           opt subtitle "HI-TECH Software Omniscient Code Generator (Lite mode) build 49521"
  8248  001836                     l2701:
  8249  001836  50C6               	movf	((c:4038)),c,w	;volatile
  8250  001838  0B0F               	andlw	low(0Fh)
  8251  00183A  0A08               	xorlw	08h
  8252  00183C  B4D8               	btfsc	status,2
  8253  00183E  D001               	goto	u2311
  8254  001840  D001               	goto	u2310
  8255  001842                     u2311:
  8256  001842  D009               	goto	l582
  8257  001844                     u2310:
  8258                           opt subtitle "HI-TECH Software Omniscient Code Generator (Lite mode) build 49521"
  8259  001844                     l2703:
  8260  001844  50C6               	movf	((c:4038)),c,w	;volatile
  8261  001846  0B0F               	andlw	low(0Fh)
  8262  001848  0A0B               	xorlw	0Bh
  8263  00184A  A4D8               	btfss	status,2
  8264  00184C  D001               	goto	u2321
  8265  00184E  D001               	goto	u2320
  8266  001850                     u2321:
  8267  001850  D017               	goto	l570
  8268  001852                     u2320:
  8269  001852  D001               	goto	l582
  8270                           opt subtitle "HI-TECH Software Omniscient Code Generator (Lite mode) build 49521"
  8271  001854                     l581:
  8272                           opt subtitle "HI-TECH Software Omniscient Code Generator (Lite mode) build 49521"
  8273  001854  D000               	goto	l582
  8274                           opt subtitle "HI-TECH Software Omniscient Code Generator (Lite mode) build 49521"
  8275  001856                     l583:
  8276                           opt subtitle "HI-TECH Software Omniscient Code Generator (Lite mode) build 49521"
  8277  001856                     l582:
  8278                           opt subtitle "HI-TECH Software Omniscient Code Generator (Lite mode) build 49521"
  8279  001856  B0C7               	btfsc	((c:4039)),c,0	;volatile
  8280  001858  D001               	goto	u2331
  8281  00185A  D001               	goto	u2330
  8282  00185C                     u2331:
  8283  00185C  D7FC               	goto	l582
  8284  00185E                     u2330:
  8285  00185E  D000               	goto	l2705
  8286                           opt subtitle "HI-TECH Software Omniscient Code Generator (Lite mode) build 49521"
  8287  001860                     l584:
  8288                           opt subtitle "HI-TECH Software Omniscient Code Generator (Lite mode) build 49521"
  8289                           
  8290  001860                     l2705:
  8291  001860  EC15  F00D         	call	_IdleI2C	;wreg free
  8292                           opt subtitle "HI-TECH Software Omniscient Code Generator (Lite mode) build 49521"
  8293                           
  8294  001864                     l2707:
  8295                           opt subtitle "HI-TECH Software Omniscient Code Generator (Lite mode) build 49521"
  8296  001864  ACC5               	btfss	((c:4037)),c,6	;volatile
  8297  001866  D001               	goto	u2341
  8298  001868  D001               	goto	u2340
  8299  00186A                     u2341:
  8300  00186A  D004               	goto	l2715
  8301  00186C                     u2340:
  8302                           opt subtitle "HI-TECH Software Omniscient Code Generator (Lite mode) build 49521"
  8303                           
  8304  00186C                     l2709:
  8305  00186C  0EFE               	movlw	(-2)&0ffh
  8306  00186E  D008               	goto	l570
  8307                           opt subtitle "HI-TECH Software Omniscient Code Generator (Lite mode) build 49521"
  8308  001870                     l2711:
  8309  001870  D007               	goto	l570
  8310                           opt subtitle "HI-TECH Software Omniscient Code Generator (Lite mode) build 49521"
  8311  001872                     l2713:
  8312  001872  D006               	goto	l570
  8313                           opt subtitle "HI-TECH Software Omniscient Code Generator (Lite mode) build 49521"
  8314                           
  8315  001874                     l585:
  8316                           opt subtitle "HI-TECH Software Omniscient Code Generator (Lite mode) build 49521"
  8317  001874                     l2715:
  8318  001874  0E00               	movlw	(0)&0ffh
  8319  001876  D004               	goto	l570
  8320                           opt subtitle "HI-TECH Software Omniscient Code Generator (Lite mode) build 49521"
  8321  001878                     l2717:
  8322  001878  D003               	goto	l570
  8323                           opt subtitle "HI-TECH Software Omniscient Code Generator (Lite mode) build 49521"
  8324  00187A                     l586:
  8325  00187A  D002               	goto	l570
  8326                           opt subtitle "HI-TECH Software Omniscient Code Generator (Lite mode) build 49521"
  8327                           
  8328  00187C                     l579:
  8329  00187C  D001               	goto	l570
  8330                           opt subtitle "HI-TECH Software Omniscient Code Generator (Lite mode) build 49521"
  8331                           
  8332  00187E                     l578:
  8333  00187E  D000               	goto	l570
  8334                           opt subtitle "HI-TECH Software Omniscient Code Generator (Lite mode) build 49521"
  8335  001880                     l571:
  8336                           opt subtitle "HI-TECH Software Omniscient Code Generator (Lite mode) build 49521"
  8337                           
  8338  001880                     l570:
  8339  001880  0012               	return
  8340  001882  FFFF               	dw	0FFFFh; errata NOP
  8341                           opt subtitle "HI-TECH Software Omniscient Code Generator (Lite mode) build 49521"
  8342                           
  8343  001884                     	__end_of_WriteI2C:
  8344                           opt subtitle "HI-TECH Software Omniscient Code Generator (Lite mode) build 49521"
  8345                           
  8346                           opt pagewidth 120
  8347                           
  8348                           	opt lm
  8349                           
  8350                           	processor	18F452
  8351                           porta	equ	0F80h
  8352                           portb	equ	0F81h
  8353                           portc	equ	0F82h
  8354                           portd	equ	0F83h
  8355                           porte	equ	0F84h
  8356                           lata	equ	0F89h
  8357                           latb	equ	0F8Ah
  8358                           latc	equ	0F8Bh
  8359                           latd	equ	0F8Ch
  8360                           late	equ	0F8Dh
  8361                           trisa	equ	0F92h
  8362                           trisb	equ	0F93h
  8363                           trisc	equ	0F94h
  8364                           trisd	equ	0F95h
  8365                           trise	equ	0F96h
  8366                           pie1	equ	0F9Dh
  8367                           pir1	equ	0F9Eh
  8368                           ipr1	equ	0F9Fh
  8369                           pie2	equ	0FA0h
  8370                           pir2	equ	0FA1h
  8371                           ipr2	equ	0FA2h
  8372                           t3con	equ	0FB1h
  8373                           tmr3l	equ	0FB2h
  8374                           tmr3h	equ	0FB3h
  8375                           ccp1con	equ	0FBDh
  8376                           ccpr1l	equ	0FBEh
  8377                           ccpr1h	equ	0FBFh
  8378                           adcon1	equ	0FC1h
  8379                           adcon0	equ	0FC2h
  8380  001A2A                     __ptext7:
  8381                           opt subtitle "HI-TECH Software Omniscient Code Generator (Lite mode) build 49521"
  8382                           
  8383                           opt pagewidth 120
  8384                           
  8385  0000                     	__size_of_IdleI2C	equ	__end_of_IdleI2C-_IdleI2C
  8386                           opt subtitle "HI-TECH Software Omniscient Code Generator (Lite mode) build 49521"
  8387  001A2A                     _IdleI2C:
  8388                           opt subtitle "HI-TECH Software Omniscient Code Generator (Lite mode) build 49521"
  8389  001A2A  FFFF               	dw	0FFFFh
  8390                           opt subtitle "HI-TECH Software Omniscient Code Generator (Lite mode) build 49521"
  8391                           
  8392  001A2C                     l2669:
  8393  001A2C  D001               	goto	l2671
  8394                           opt subtitle "HI-TECH Software Omniscient Code Generator (Lite mode) build 49521"
  8395  001A2E                     l539:
  8396                           opt subtitle "HI-TECH Software Omniscient Code Generator (Lite mode) build 49521"
  8397  001A2E  D000               	goto	l2671
  8398                           opt subtitle "HI-TECH Software Omniscient Code Generator (Lite mode) build 49521"
  8399  001A30                     l538:
  8400                           opt subtitle "HI-TECH Software Omniscient Code Generator (Lite mode) build 49521"
  8401                           
  8402  001A30                     l2671:
  8403  001A30  50C5               	movf	((c:4037)),c,w	;volatile
  8404  001A32  0B1F               	andlw	low(01Fh)
  8405  001A34  A4D8               	btfss	status,2
  8406  001A36  D001               	goto	u2231
  8407  001A38  D001               	goto	u2230
  8408  001A3A                     u2231:
  8409  001A3A  D7FA               	goto	l2671
  8410  001A3C                     u2230:
  8411                           opt subtitle "HI-TECH Software Omniscient Code Generator (Lite mode) build 49521"
  8412  001A3C                     l2673:
  8413                           opt subtitle "HI-TECH Software Omniscient Code Generator (Lite mode) build 49521"
  8414  001A3C  B4C7               	btfsc	((c:4039)),c,2	;volatile
  8415  001A3E  D001               	goto	u2241
  8416  001A40  D001               	goto	u2240
  8417  001A42                     u2241:
  8418  001A42  D7F6               	goto	l2671
  8419  001A44                     u2240:
  8420  001A44  D000               	goto	l541
  8421                           opt subtitle "HI-TECH Software Omniscient Code Generator (Lite mode) build 49521"
  8422  001A46                     l540:
  8423                           opt subtitle "HI-TECH Software Omniscient Code Generator (Lite mode) build 49521"
  8424                           
  8425  001A46                     l541:
  8426  001A46  0012               	return
  8427  001A48  FFFF               	dw	0FFFFh; errata NOP
  8428                           opt subtitle "HI-TECH Software Omniscient Code Generator (Lite mode) build 49521"
  8429                           
  8430  001A4A                     	__end_of_IdleI2C:
  8431                           opt subtitle "HI-TECH Software Omniscient Code Generator (Lite mode) build 49521"
  8432                           
  8433                           opt pagewidth 120
  8434                           
  8435                           	opt lm
  8436                           
  8437                           	processor	18F452
  8438                           porta	equ	0F80h
  8439                           portb	equ	0F81h
  8440                           portc	equ	0F82h
  8441                           portd	equ	0F83h
  8442                           porte	equ	0F84h
  8443                           lata	equ	0F89h
  8444                           latb	equ	0F8Ah
  8445                           latc	equ	0F8Bh
  8446                           latd	equ	0F8Ch
  8447                           late	equ	0F8Dh
  8448                           trisa	equ	0F92h
  8449                           trisb	equ	0F93h
  8450                           trisc	equ	0F94h
  8451                           trisd	equ	0F95h
  8452                           trise	equ	0F96h
  8453                           pie1	equ	0F9Dh
  8454                           pir1	equ	0F9Eh
  8455                           ipr1	equ	0F9Fh
  8456                           pie2	equ	0FA0h
  8457                           pir2	equ	0FA1h
  8458                           ipr2	equ	0FA2h
  8459                           t3con	equ	0FB1h
  8460                           tmr3l	equ	0FB2h
  8461                           tmr3h	equ	0FB3h
  8462                           ccp1con	equ	0FBDh
  8463                           ccpr1l	equ	0FBEh
  8464                           ccpr1h	equ	0FBFh
  8465                           adcon1	equ	0FC1h
  8466                           adcon0	equ	0FC2h
  8467                           adresl	equ	0FC3h
  8468  001718                     __ptext8:
  8469                           opt subtitle "HI-TECH Software Omniscient Code Generator (Lite mode) build 49521"
  8470                           
  8471                           opt pagewidth 120
  8472                           
  8473  0000                     	__size_of___awdiv	equ	__end_of___awdiv-___awdiv
  8474                           opt subtitle "HI-TECH Software Omniscient Code Generator (Lite mode) build 49521"
  8475  001718                     ___awdiv:
  8476                           opt subtitle "HI-TECH Software Omniscient Code Generator (Lite mode) build 49521"
  8477  001718  FFFF               	dw	0FFFFh
  8478                           opt subtitle "HI-TECH Software Omniscient Code Generator (Lite mode) build 49521"
  8479                           
  8480  00171A                     l2719:
  8481  00171A  6E41               	movwf	(??___awdiv+0+0)&0ffh,c
  8482  00171C  0E00               	movlw	low(0)
  8483  00171E  6E43               	movwf	((c:___awdiv@sign)),c
  8484  001720  5041               	movf	(??___awdiv+0+0)&0ffh,c,w
  8485                           opt subtitle "HI-TECH Software Omniscient Code Generator (Lite mode) build 49521"
  8486                           
  8487  001722                     l2721:
  8488  001722  AE40               	btfss	((c:___awdiv@divisor+1)),c,7
  8489  001724  D001               	goto	u2351
  8490  001726  D001               	goto	u2350
  8491  001728                     u2351:
  8492  001728  D009               	goto	l2727
  8493  00172A                     u2350:
  8494                           opt subtitle "HI-TECH Software Omniscient Code Generator (Lite mode) build 49521"
  8495                           
  8496  00172A                     l2723:
  8497  00172A  6C3F               	negf	((c:___awdiv@divisor)),c
  8498  00172C  1E40               	comf	((c:___awdiv@divisor+1)),c
  8499  00172E  B0D8               	btfsc	status,0
  8500  001730  2A40               	incf	((c:___awdiv@divisor+1)),c
  8501                           opt subtitle "HI-TECH Software Omniscient Code Generator (Lite mode) build 49521"
  8502                           
  8503  001732                     l2725:
  8504  001732  6E41               	movwf	(??___awdiv+0+0)&0ffh,c
  8505  001734  0E01               	movlw	low(01h)
  8506  001736  6E43               	movwf	((c:___awdiv@sign)),c
  8507  001738  5041               	movf	(??___awdiv+0+0)&0ffh,c,w
  8508  00173A  D000               	goto	l2727
  8509                           opt subtitle "HI-TECH Software Omniscient Code Generator (Lite mode) build 49521"
  8510                           
  8511  00173C                     l706:
  8512                           opt subtitle "HI-TECH Software Omniscient Code Generator (Lite mode) build 49521"
  8513                           
  8514  00173C                     l2727:
  8515  00173C  AE3E               	btfss	((c:___awdiv@dividend+1)),c,7
  8516  00173E  D001               	goto	u2361
  8517  001740  D001               	goto	u2360
  8518  001742                     u2361:
  8519  001742  D007               	goto	l2733
  8520  001744                     u2360:
  8521                           opt subtitle "HI-TECH Software Omniscient Code Generator (Lite mode) build 49521"
  8522                           
  8523  001744                     l2729:
  8524  001744  6C3D               	negf	((c:___awdiv@dividend)),c
  8525  001746  1E3E               	comf	((c:___awdiv@dividend+1)),c
  8526  001748  B0D8               	btfsc	status,0
  8527  00174A  2A3E               	incf	((c:___awdiv@dividend+1)),c
  8528                           opt subtitle "HI-TECH Software Omniscient Code Generator (Lite mode) build 49521"
  8529                           
  8530  00174C                     l2731:
  8531  00174C  0E01               	movlw	(01h)&0ffh
  8532  00174E  1A43               	xorwf	((c:___awdiv@sign)),c
  8533  001750  D000               	goto	l2733
  8534                           opt subtitle "HI-TECH Software Omniscient Code Generator (Lite mode) build 49521"
  8535                           
  8536  001752                     l707:
  8537                           opt subtitle "HI-TECH Software Omniscient Code Generator (Lite mode) build 49521"
  8538                           
  8539  001752                     l2733:
  8540  001752  0E00               	movlw	high(0)
  8541  001754  6E45               	movwf	((c:___awdiv@quotient+1)),c
  8542  001756  0E00               	movlw	low(0)
  8543  001758  6E44               	movwf	((c:___awdiv@quotient)),c
  8544                           opt subtitle "HI-TECH Software Omniscient Code Generator (Lite mode) build 49521"
  8545                           
  8546  00175A                     l2735:
  8547  00175A  5040               	movf	((c:___awdiv@divisor+1)),c,w
  8548  00175C  103F               	iorwf ((c:___awdiv@divisor)),c,w
  8549                           opt subtitle "HI-TECH Software Omniscient Code Generator (Lite mode) build 49521"
  8550  00175E  B4D8               	btfsc	status,2
  8551  001760  D001               	goto	u2371
  8552  001762  D001               	goto	u2370
  8553  001764                     u2371:
  8554  001764  D028               	goto	l2755
  8555  001766                     u2370:
  8556                           opt subtitle "HI-TECH Software Omniscient Code Generator (Lite mode) build 49521"
  8557                           
  8558  001766                     l2737:
  8559  001766  6E41               	movwf	(??___awdiv+0+0)&0ffh,c
  8560  001768  0E01               	movlw	low(01h)
  8561  00176A  6E42               	movwf	((c:___awdiv@counter)),c
  8562  00176C  5041               	movf	(??___awdiv+0+0)&0ffh,c,w
  8563                           opt subtitle "HI-TECH Software Omniscient Code Generator (Lite mode) build 49521"
  8564  00176E  D005               	goto	l2741
  8565                           opt subtitle "HI-TECH Software Omniscient Code Generator (Lite mode) build 49521"
  8566  001770                     l710:
  8567                           opt subtitle "HI-TECH Software Omniscient Code Generator (Lite mode) build 49521"
  8568                           
  8569  001770                     l2739:
  8570  001770  90D8               	bcf	status,0
  8571  001772  363F               	rlcf	((c:___awdiv@divisor)),c
  8572  001774  3640               	rlcf	((c:___awdiv@divisor+1)),c
  8573                           opt subtitle "HI-TECH Software Omniscient Code Generator (Lite mode) build 49521"
  8574  001776  2A42               	incf	((c:___awdiv@counter)),c
  8575  001778  D000               	goto	l2741
  8576                           opt subtitle "HI-TECH Software Omniscient Code Generator (Lite mode) build 49521"
  8577                           
  8578  00177A                     l709:
  8579                           opt subtitle "HI-TECH Software Omniscient Code Generator (Lite mode) build 49521"
  8580                           
  8581  00177A                     l2741:
  8582                           opt subtitle "HI-TECH Software Omniscient Code Generator (Lite mode) build 49521"
  8583  00177A  AE40               	btfss	((c:___awdiv@divisor+1)),c,(15)&7
  8584  00177C  D001               	goto	u2381
  8585  00177E  D001               	goto	u2380
  8586  001780                     u2381:
  8587  001780  D7F7               	goto	l2739
  8588  001782                     u2380:
  8589  001782  D001               	goto	l2743
  8590                           opt subtitle "HI-TECH Software Omniscient Code Generator (Lite mode) build 49521"
  8591  001784                     l711:
  8592  001784  D000               	goto	l2743
  8593                           opt subtitle "HI-TECH Software Omniscient Code Generator (Lite mode) build 49521"
  8594                           
  8595  001786                     l712:
  8596                           opt subtitle "HI-TECH Software Omniscient Code Generator (Lite mode) build 49521"
  8597                           
  8598  001786                     l2743:
  8599  001786  90D8               	bcf	status,0
  8600  001788  3644               	rlcf	((c:___awdiv@quotient)),c
  8601  00178A  3645               	rlcf	((c:___awdiv@quotient+1)),c
  8602                           opt subtitle "HI-TECH Software Omniscient Code Generator (Lite mode) build 49521"
  8603                           
  8604  00178C                     l2745:
  8605  00178C  503F               	movf	((c:___awdiv@divisor)),c,w
  8606  00178E  5C3D               	subwf	((c:___awdiv@dividend)),c,w
  8607  001790  5040               	movf	((c:___awdiv@divisor+1)),c,w
  8608  001792  583E               	subwfb	((c:___awdiv@dividend+1)),c,w
  8609  001794  A0D8               	btfss	status,0
  8610  001796  D001               	goto	u2391
  8611  001798  D001               	goto	u2390
  8612  00179A                     u2391:
  8613  00179A  D006               	goto	l2751
  8614  00179C                     u2390:
  8615                           opt subtitle "HI-TECH Software Omniscient Code Generator (Lite mode) build 49521"
  8616                           
  8617  00179C                     l2747:
  8618  00179C  503F               	movf	((c:___awdiv@divisor)),c,w
  8619  00179E  5E3D               	subwf	((c:___awdiv@dividend)),c
  8620  0017A0  5040               	movf	((c:___awdiv@divisor+1)),c,w
  8621  0017A2  5A3E               	subwfb	((c:___awdiv@dividend+1)),c
  8622                           opt subtitle "HI-TECH Software Omniscient Code Generator (Lite mode) build 49521"
  8623                           
  8624                           opt pagewidth 120
  8625  0017A4                     l2749:
  8626  0017A4  8044               	bsf	(0+(0/8)+(c:___awdiv@quotient)),c,(0)&7
  8627  0017A6  D000               	goto	l2751
  8628                           opt subtitle "HI-TECH Software Omniscient Code Generator (Lite mode) build 49521"
  8629                           
  8630  0017A8                     l713:
  8631                           opt subtitle "HI-TECH Software Omniscient Code Generator (Lite mode) build 49521"
  8632                           
  8633  0017A8                     l2751:
  8634  0017A8  90D8               	bcf	status,0
  8635  0017AA  3240               	rrcf	((c:___awdiv@divisor+1)),c
  8636  0017AC  323F               	rrcf	((c:___awdiv@divisor)),c
  8637                           opt subtitle "HI-TECH Software Omniscient Code Generator (Lite mode) build 49521"
  8638                           
  8639  0017AE                     l2753:
  8640  0017AE  2E42               	decfsz	((c:___awdiv@counter)),c
  8641                           opt subtitle "HI-TECH Software Omniscient Code Generator (Lite mode) build 49521"
  8642  0017B0  D7EA               	goto	l2743
  8643  0017B2  D001               	goto	l2755
  8644                           opt subtitle "HI-TECH Software Omniscient Code Generator (Lite mode) build 49521"
  8645  0017B4                     l714:
  8646  0017B4  D000               	goto	l2755
  8647                           opt subtitle "HI-TECH Software Omniscient Code Generator (Lite mode) build 49521"
  8648                           
  8649  0017B6                     l708:
  8650                           opt subtitle "HI-TECH Software Omniscient Code Generator (Lite mode) build 49521"
  8651                           
  8652  0017B6                     l2755:
  8653  0017B6  5043               	movf	((c:___awdiv@sign)),c,w
  8654  0017B8  B4D8               	btfsc	status,2
  8655  0017BA  D001               	goto	u2401
  8656  0017BC  D001               	goto	u2400
  8657  0017BE                     u2401:
  8658  0017BE  D005               	goto	l2759
  8659  0017C0                     u2400:
  8660                           opt subtitle "HI-TECH Software Omniscient Code Generator (Lite mode) build 49521"
  8661                           
  8662  0017C0                     l2757:
  8663  0017C0  6C44               	negf	((c:___awdiv@quotient)),c
  8664  0017C2  1E45               	comf	((c:___awdiv@quotient+1)),c
  8665  0017C4  B0D8               	btfsc	status,0
  8666  0017C6  2A45               	incf	((c:___awdiv@quotient+1)),c
  8667  0017C8  D000               	goto	l2759
  8668                           opt subtitle "HI-TECH Software Omniscient Code Generator (Lite mode) build 49521"
  8669  0017CA                     l715:
  8670                           opt subtitle "HI-TECH Software Omniscient Code Generator (Lite mode) build 49521"
  8671                           
  8672  0017CA                     l2759:
  8673  0017CA  C044  F03D         	movff	(c:___awdiv@quotient),(c:?___awdiv)
  8674  0017CE  C045  F03E         	movff	(c:___awdiv@quotient+1),(c:?___awdiv+1)
  8675  0017D2  D000               	goto	l716
  8676                           opt subtitle "HI-TECH Software Omniscient Code Generator (Lite mode) build 49521"
  8677  0017D4                     l2761:
  8678                           opt subtitle "HI-TECH Software Omniscient Code Generator (Lite mode) build 49521"
  8679                           
  8680  0017D4                     l716:
  8681  0017D4  0012               	return
  8682  0017D6  FFFF               	dw	0FFFFh; errata NOP
  8683                           opt subtitle "HI-TECH Software Omniscient Code Generator (Lite mode) build 49521"
  8684                           
  8685  0017D8                     	__end_of___awdiv:
  8686                           opt subtitle "HI-TECH Software Omniscient Code Generator (Lite mode) build 49521"
  8687                           
  8688                           opt pagewidth 120
  8689                           
  8690                           	opt lm
  8691                           
  8692                           	processor	18F452
  8693                           porta	equ	0F80h
  8694                           portb	equ	0F81h
  8695                           portc	equ	0F82h
  8696                           portd	equ	0F83h
  8697                           porte	equ	0F84h
  8698                           lata	equ	0F89h
  8699                           latb	equ	0F8Ah
  8700                           latc	equ	0F8Bh
  8701                           latd	equ	0F8Ch
  8702                           late	equ	0F8Dh
  8703                           trisa	equ	0F92h
  8704                           trisb	equ	0F93h
  8705                           trisc	equ	0F94h
  8706                           trisd	equ	0F95h
  8707                           trise	equ	0F96h
  8708                           pie1	equ	0F9Dh
  8709                           pir1	equ	0F9Eh
  8710                           ipr1	equ	0F9Fh
  8711                           pie2	equ	0FA0h
  8712                           pir2	equ	0FA1h
  8713                           ipr2	equ	0FA2h
  8714                           t3con	equ	0FB1h
  8715                           tmr3l	equ	0FB2h
  8716                           tmr3h	equ	0FB3h
  8717                           ccp1con	equ	0FBDh
  8718                           ccpr1l	equ	0FBEh
  8719                           ccpr1h	equ	0FBFh
  8720                           adcon1	equ	0FC1h
  8721                           adcon0	equ	0FC2h
  8722  001884                     __ptext9:
  8723                           opt subtitle "HI-TECH Software Omniscient Code Generator (Lite mode) build 49521"
  8724                           
  8725                           opt pagewidth 120
  8726                           
  8727  0000                     	__size_of___awmod	equ	__end_of___awmod-___awmod
  8728                           opt subtitle "HI-TECH Software Omniscient Code Generator (Lite mode) build 49521"
  8729  001884                     ___awmod:
  8730                           opt subtitle "HI-TECH Software Omniscient Code Generator (Lite mode) build 49521"
  8731  001884  FFFF               	dw	0FFFFh
  8732                           opt subtitle "HI-TECH Software Omniscient Code Generator (Lite mode) build 49521"
  8733                           
  8734  001886                     l2763:
  8735  001886  6E41               	movwf	(??___awmod+0+0)&0ffh,c
  8736  001888  0E00               	movlw	low(0)
  8737  00188A  6E43               	movwf	((c:___awmod@sign)),c
  8738  00188C  5041               	movf	(??___awmod+0+0)&0ffh,c,w
  8739                           opt subtitle "HI-TECH Software Omniscient Code Generator (Lite mode) build 49521"
  8740                           
  8741  00188E                     l2765:
  8742  00188E  AE3E               	btfss	((c:___awmod@dividend+1)),c,7
  8743  001890  D001               	goto	u2411
  8744  001892  D001               	goto	u2410
  8745  001894                     u2411:
  8746  001894  D009               	goto	l2771
  8747  001896                     u2410:
  8748                           opt subtitle "HI-TECH Software Omniscient Code Generator (Lite mode) build 49521"
  8749                           
  8750  001896                     l2767:
  8751  001896  6C3D               	negf	((c:___awmod@dividend)),c
  8752  001898  1E3E               	comf	((c:___awmod@dividend+1)),c
  8753  00189A  B0D8               	btfsc	status,0
  8754  00189C  2A3E               	incf	((c:___awmod@dividend+1)),c
  8755                           opt subtitle "HI-TECH Software Omniscient Code Generator (Lite mode) build 49521"
  8756                           
  8757  00189E                     l2769:
  8758  00189E  6E41               	movwf	(??___awmod+0+0)&0ffh,c
  8759  0018A0  0E01               	movlw	low(01h)
  8760  0018A2  6E43               	movwf	((c:___awmod@sign)),c
  8761  0018A4  5041               	movf	(??___awmod+0+0)&0ffh,c,w
  8762  0018A6  D000               	goto	l2771
  8763                           opt subtitle "HI-TECH Software Omniscient Code Generator (Lite mode) build 49521"
  8764                           
  8765  0018A8                     l719:
  8766                           opt subtitle "HI-TECH Software Omniscient Code Generator (Lite mode) build 49521"
  8767                           
  8768  0018A8                     l2771:
  8769  0018A8  AE40               	btfss	((c:___awmod@divisor+1)),c,7
  8770  0018AA  D001               	goto	u2421
  8771  0018AC  D001               	goto	u2420
  8772  0018AE                     u2421:
  8773  0018AE  D005               	goto	l2775
  8774  0018B0                     u2420:
  8775                           opt subtitle "HI-TECH Software Omniscient Code Generator (Lite mode) build 49521"
  8776                           
  8777  0018B0                     l2773:
  8778  0018B0  6C3F               	negf	((c:___awmod@divisor)),c
  8779  0018B2  1E40               	comf	((c:___awmod@divisor+1)),c
  8780  0018B4  B0D8               	btfsc	status,0
  8781  0018B6  2A40               	incf	((c:___awmod@divisor+1)),c
  8782  0018B8  D000               	goto	l2775
  8783                           opt subtitle "HI-TECH Software Omniscient Code Generator (Lite mode) build 49521"
  8784  0018BA                     l720:
  8785                           opt subtitle "HI-TECH Software Omniscient Code Generator (Lite mode) build 49521"
  8786                           
  8787  0018BA                     l2775:
  8788  0018BA  5040               	movf	((c:___awmod@divisor+1)),c,w
  8789  0018BC  103F               	iorwf ((c:___awmod@divisor)),c,w
  8790                           opt subtitle "HI-TECH Software Omniscient Code Generator (Lite mode) build 49521"
  8791  0018BE  B4D8               	btfsc	status,2
  8792  0018C0  D001               	goto	u2431
  8793  0018C2  D001               	goto	u2430
  8794  0018C4                     u2431:
  8795  0018C4  D024               	goto	l2791
  8796  0018C6                     u2430:
  8797                           opt subtitle "HI-TECH Software Omniscient Code Generator (Lite mode) build 49521"
  8798                           
  8799  0018C6                     l2777:
  8800  0018C6  6E41               	movwf	(??___awmod+0+0)&0ffh,c
  8801  0018C8  0E01               	movlw	low(01h)
  8802  0018CA  6E42               	movwf	((c:___awmod@counter)),c
  8803  0018CC  5041               	movf	(??___awmod+0+0)&0ffh,c,w
  8804                           opt subtitle "HI-TECH Software Omniscient Code Generator (Lite mode) build 49521"
  8805  0018CE  D005               	goto	l2781
  8806                           opt subtitle "HI-TECH Software Omniscient Code Generator (Lite mode) build 49521"
  8807  0018D0                     l723:
  8808                           opt subtitle "HI-TECH Software Omniscient Code Generator (Lite mode) build 49521"
  8809                           
  8810  0018D0                     l2779:
  8811  0018D0  90D8               	bcf	status,0
  8812  0018D2  363F               	rlcf	((c:___awmod@divisor)),c
  8813  0018D4  3640               	rlcf	((c:___awmod@divisor+1)),c
  8814                           opt subtitle "HI-TECH Software Omniscient Code Generator (Lite mode) build 49521"
  8815  0018D6  2A42               	incf	((c:___awmod@counter)),c
  8816  0018D8  D000               	goto	l2781
  8817                           opt subtitle "HI-TECH Software Omniscient Code Generator (Lite mode) build 49521"
  8818                           
  8819  0018DA                     l722:
  8820                           opt subtitle "HI-TECH Software Omniscient Code Generator (Lite mode) build 49521"
  8821                           
  8822  0018DA                     l2781:
  8823                           opt subtitle "HI-TECH Software Omniscient Code Generator (Lite mode) build 49521"
  8824  0018DA  AE40               	btfss	((c:___awmod@divisor+1)),c,(15)&7
  8825  0018DC  D001               	goto	u2441
  8826  0018DE  D001               	goto	u2440
  8827  0018E0                     u2441:
  8828  0018E0  D7F7               	goto	l2779
  8829  0018E2                     u2440:
  8830  0018E2  D001               	goto	l2783
  8831                           opt subtitle "HI-TECH Software Omniscient Code Generator (Lite mode) build 49521"
  8832  0018E4                     l724:
  8833  0018E4  D000               	goto	l2783
  8834                           opt subtitle "HI-TECH Software Omniscient Code Generator (Lite mode) build 49521"
  8835                           
  8836  0018E6                     l725:
  8837                           opt subtitle "HI-TECH Software Omniscient Code Generator (Lite mode) build 49521"
  8838                           
  8839  0018E6                     l2783:
  8840  0018E6  503F               	movf	((c:___awmod@divisor)),c,w
  8841  0018E8  5C3D               	subwf	((c:___awmod@dividend)),c,w
  8842  0018EA  5040               	movf	((c:___awmod@divisor+1)),c,w
  8843  0018EC  583E               	subwfb	((c:___awmod@dividend+1)),c,w
  8844  0018EE  A0D8               	btfss	status,0
  8845  0018F0  D001               	goto	u2451
  8846  0018F2  D001               	goto	u2450
  8847  0018F4                     u2451:
  8848  0018F4  D005               	goto	l2787
  8849  0018F6                     u2450:
  8850                           opt subtitle "HI-TECH Software Omniscient Code Generator (Lite mode) build 49521"
  8851                           
  8852  0018F6                     l2785:
  8853  0018F6  503F               	movf	((c:___awmod@divisor)),c,w
  8854  0018F8  5E3D               	subwf	((c:___awmod@dividend)),c
  8855  0018FA  5040               	movf	((c:___awmod@divisor+1)),c,w
  8856  0018FC  5A3E               	subwfb	((c:___awmod@dividend+1)),c
  8857                           opt subtitle "HI-TECH Software Omniscient Code Generator (Lite mode) build 49521"
  8858  0018FE  D000               	goto	l2787
  8859                           opt subtitle "HI-TECH Software Omniscient Code Generator (Lite mode) build 49521"
  8860  001900                     l726:
  8861                           opt subtitle "HI-TECH Software Omniscient Code Generator (Lite mode) build 49521"
  8862                           
  8863  001900                     l2787:
  8864  001900  90D8               	bcf	status,0
  8865  001902  3240               	rrcf	((c:___awmod@divisor+1)),c
  8866  001904  323F               	rrcf	((c:___awmod@divisor)),c
  8867                           opt subtitle "HI-TECH Software Omniscient Code Generator (Lite mode) build 49521"
  8868                           
  8869  001906                     l2789:
  8870  001906  2E42               	decfsz	((c:___awmod@counter)),c
  8871                           opt subtitle "HI-TECH Software Omniscient Code Generator (Lite mode) build 49521"
  8872  001908  D7EE               	goto	l2783
  8873  00190A  D001               	goto	l2791
  8874                           opt subtitle "HI-TECH Software Omniscient Code Generator (Lite mode) build 49521"
  8875  00190C                     l727:
  8876  00190C  D000               	goto	l2791
  8877                           opt subtitle "HI-TECH Software Omniscient Code Generator (Lite mode) build 49521"
  8878                           
  8879  00190E                     l721:
  8880                           opt subtitle "HI-TECH Software Omniscient Code Generator (Lite mode) build 49521"
  8881                           
  8882  00190E                     l2791:
  8883  00190E  5043               	movf	((c:___awmod@sign)),c,w
  8884  001910  B4D8               	btfsc	status,2
  8885  001912  D001               	goto	u2461
  8886  001914  D001               	goto	u2460
  8887  001916                     u2461:
  8888  001916  D005               	goto	l2795
  8889  001918                     u2460:
  8890                           opt subtitle "HI-TECH Software Omniscient Code Generator (Lite mode) build 49521"
  8891                           
  8892  001918                     l2793:
  8893  001918  6C3D               	negf	((c:___awmod@dividend)),c
  8894  00191A  1E3E               	comf	((c:___awmod@dividend+1)),c
  8895  00191C  B0D8               	btfsc	status,0
  8896  00191E  2A3E               	incf	((c:___awmod@dividend+1)),c
  8897  001920  D000               	goto	l2795
  8898                           opt subtitle "HI-TECH Software Omniscient Code Generator (Lite mode) build 49521"
  8899  001922                     l728:
  8900                           opt subtitle "HI-TECH Software Omniscient Code Generator (Lite mode) build 49521"
  8901                           
  8902  001922                     l2795:
  8903  001922  C03D  F03D         	movff	(c:___awmod@dividend),(c:?___awmod)
  8904  001926  C03E  F03E         	movff	(c:___awmod@dividend+1),(c:?___awmod+1)
  8905  00192A  D000               	goto	l729
  8906                           opt subtitle "HI-TECH Software Omniscient Code Generator (Lite mode) build 49521"
  8907  00192C                     l2797:
  8908                           opt subtitle "HI-TECH Software Omniscient Code Generator (Lite mode) build 49521"
  8909                           
  8910  00192C                     l729:
  8911  00192C  0012               	return
  8912  00192E  FFFF               	dw	0FFFFh; errata NOP
  8913                           opt subtitle "HI-TECH Software Omniscient Code Generator (Lite mode) build 49521"
  8914                           
  8915  001930                     	__end_of___awmod:
  8916                           opt subtitle "HI-TECH Software Omniscient Code Generator (Lite mode) build 49521"
  8917                           
  8918                           opt pagewidth 120
  8919                           
  8920                           	opt lm
  8921                           
  8922                           	processor	18F452
  8923                           porta	equ	0F80h
  8924                           portb	equ	0F81h
  8925                           portc	equ	0F82h
  8926                           portd	equ	0F83h
  8927                           porte	equ	0F84h
  8928                           lata	equ	0F89h
  8929                           latb	equ	0F8Ah
  8930                           latc	equ	0F8Bh
  8931                           latd	equ	0F8Ch
  8932                           late	equ	0F8Dh
  8933                           trisa	equ	0F92h
  8934                           trisb	equ	0F93h
  8935                           trisc	equ	0F94h
  8936                           trisd	equ	0F95h
  8937                           trise	equ	0F96h
  8938                           pie1	equ	0F9Dh
  8939                           pir1	equ	0F9Eh
  8940                           ipr1	equ	0F9Fh
  8941                           pie2	equ	0FA0h
  8942                           pir2	equ	0FA1h
  8943                           ipr2	equ	0FA2h
  8944                           t3con	equ	0FB1h
  8945                           tmr3l	equ	0FB2h
  8946                           tmr3h	equ	0FB3h
  8947                           ccp1con	equ	0FBDh
  8948                           ccpr1l	equ	0FBEh
  8949                           ccpr1h	equ	0FBFh
  8950                           adcon1	equ	0FC1h
  8951                           adcon0	equ	0FC2h
  8952  001930                     __ptext10:
  8953                           opt subtitle "HI-TECH Software Omniscient Code Generator (Lite mode) build 49521"
  8954                           
  8955                           opt pagewidth 120
  8956                           
  8957  0000                     	__size_of___lwdiv	equ	__end_of___lwdiv-___lwdiv
  8958                           opt subtitle "HI-TECH Software Omniscient Code Generator (Lite mode) build 49521"
  8959  001930                     ___lwdiv:
  8960                           opt subtitle "HI-TECH Software Omniscient Code Generator (Lite mode) build 49521"
  8961  001930  FFFF               	dw	0FFFFh
  8962                           opt subtitle "HI-TECH Software Omniscient Code Generator (Lite mode) build 49521"
  8963                           
  8964  001932                     l2799:
  8965  001932  0E00               	movlw	high(0)
  8966  001934  6E43               	movwf	((c:___lwdiv@quotient+1)),c
  8967  001936  0E00               	movlw	low(0)
  8968  001938  6E42               	movwf	((c:___lwdiv@quotient)),c
  8969                           opt subtitle "HI-TECH Software Omniscient Code Generator (Lite mode) build 49521"
  8970                           
  8971  00193A                     l2801:
  8972  00193A  5040               	movf	((c:___lwdiv@divisor+1)),c,w
  8973  00193C  103F               	iorwf ((c:___lwdiv@divisor)),c,w
  8974                           opt subtitle "HI-TECH Software Omniscient Code Generator (Lite mode) build 49521"
  8975  00193E  B4D8               	btfsc	status,2
  8976  001940  D001               	goto	u2471
  8977  001942  D001               	goto	u2470
  8978  001944                     u2471:
  8979  001944  D027               	goto	l1047
  8980  001946                     u2470:
  8981                           opt subtitle "HI-TECH Software Omniscient Code Generator (Lite mode) build 49521"
  8982                           
  8983  001946                     l2803:
  8984  001946  6E41               	movwf	(??___lwdiv+0+0)&0ffh,c
  8985  001948  0E01               	movlw	low(01h)
  8986  00194A  6E44               	movwf	((c:___lwdiv@counter)),c
  8987  00194C  5041               	movf	(??___lwdiv+0+0)&0ffh,c,w
  8988                           opt subtitle "HI-TECH Software Omniscient Code Generator (Lite mode) build 49521"
  8989  00194E  D005               	goto	l2807
  8990                           opt subtitle "HI-TECH Software Omniscient Code Generator (Lite mode) build 49521"
  8991  001950                     l1049:
  8992                           opt subtitle "HI-TECH Software Omniscient Code Generator (Lite mode) build 49521"
  8993                           
  8994  001950                     l2805:
  8995  001950  90D8               	bcf	status,0
  8996  001952  363F               	rlcf	((c:___lwdiv@divisor)),c
  8997  001954  3640               	rlcf	((c:___lwdiv@divisor+1)),c
  8998                           opt subtitle "HI-TECH Software Omniscient Code Generator (Lite mode) build 49521"
  8999  001956  2A44               	incf	((c:___lwdiv@counter)),c
  9000  001958  D000               	goto	l2807
  9001                           opt subtitle "HI-TECH Software Omniscient Code Generator (Lite mode) build 49521"
  9002                           
  9003  00195A                     l1048:
  9004                           opt subtitle "HI-TECH Software Omniscient Code Generator (Lite mode) build 49521"
  9005                           
  9006  00195A                     l2807:
  9007                           opt subtitle "HI-TECH Software Omniscient Code Generator (Lite mode) build 49521"
  9008  00195A  AE40               	btfss	((c:___lwdiv@divisor+1)),c,(15)&7
  9009  00195C  D001               	goto	u2481
  9010  00195E  D001               	goto	u2480
  9011  001960                     u2481:
  9012  001960  D7F7               	goto	l2805
  9013  001962                     u2480:
  9014  001962  D001               	goto	l2809
  9015                           opt subtitle "HI-TECH Software Omniscient Code Generator (Lite mode) build 49521"
  9016  001964                     l1050:
  9017  001964  D000               	goto	l2809
  9018                           opt subtitle "HI-TECH Software Omniscient Code Generator (Lite mode) build 49521"
  9019                           
  9020  001966                     l1051:
  9021                           opt subtitle "HI-TECH Software Omniscient Code Generator (Lite mode) build 49521"
  9022                           
  9023  001966                     l2809:
  9024  001966  90D8               	bcf	status,0
  9025  001968  3642               	rlcf	((c:___lwdiv@quotient)),c
  9026  00196A  3643               	rlcf	((c:___lwdiv@quotient+1)),c
  9027                           opt subtitle "HI-TECH Software Omniscient Code Generator (Lite mode) build 49521"
  9028                           
  9029  00196C                     l2811:
  9030  00196C  503F               	movf	((c:___lwdiv@divisor)),c,w
  9031  00196E  5C3D               	subwf	((c:___lwdiv@dividend)),c,w
  9032  001970  5040               	movf	((c:___lwdiv@divisor+1)),c,w
  9033  001972  583E               	subwfb	((c:___lwdiv@dividend+1)),c,w
  9034  001974  A0D8               	btfss	status,0
  9035  001976  D001               	goto	u2491
  9036  001978  D001               	goto	u2490
  9037  00197A                     u2491:
  9038  00197A  D006               	goto	l2817
  9039  00197C                     u2490:
  9040                           opt subtitle "HI-TECH Software Omniscient Code Generator (Lite mode) build 49521"
  9041                           
  9042  00197C                     l2813:
  9043  00197C  503F               	movf	((c:___lwdiv@divisor)),c,w
  9044  00197E  5E3D               	subwf	((c:___lwdiv@dividend)),c
  9045  001980  5040               	movf	((c:___lwdiv@divisor+1)),c,w
  9046  001982  5A3E               	subwfb	((c:___lwdiv@dividend+1)),c
  9047                           opt subtitle "HI-TECH Software Omniscient Code Generator (Lite mode) build 49521"
  9048                           
  9049                           opt pagewidth 120
  9050  001984                     l2815:
  9051  001984  8042               	bsf	(0+(0/8)+(c:___lwdiv@quotient)),c,(0)&7
  9052  001986  D000               	goto	l2817
  9053                           opt subtitle "HI-TECH Software Omniscient Code Generator (Lite mode) build 49521"
  9054                           
  9055  001988                     l1052:
  9056                           opt subtitle "HI-TECH Software Omniscient Code Generator (Lite mode) build 49521"
  9057                           
  9058  001988                     l2817:
  9059  001988  90D8               	bcf	status,0
  9060  00198A  3240               	rrcf	((c:___lwdiv@divisor+1)),c
  9061  00198C  323F               	rrcf	((c:___lwdiv@divisor)),c
  9062                           opt subtitle "HI-TECH Software Omniscient Code Generator (Lite mode) build 49521"
  9063                           
  9064  00198E                     l2819:
  9065  00198E  2E44               	decfsz	((c:___lwdiv@counter)),c
  9066                           opt subtitle "HI-TECH Software Omniscient Code Generator (Lite mode) build 49521"
  9067  001990  D7EA               	goto	l2809
  9068  001992  D000               	goto	l1047
  9069                           opt subtitle "HI-TECH Software Omniscient Code Generator (Lite mode) build 49521"
  9070  001994                     l1053:
  9071                           opt subtitle "HI-TECH Software Omniscient Code Generator (Lite mode) build 49521"
  9072                           
  9073  001994                     l1047:
  9074                           opt subtitle "HI-TECH Software Omniscient Code Generator (Lite mode) build 49521"
  9075  001994  C042  F03D         	movff	(c:___lwdiv@quotient),(c:?___lwdiv)
  9076  001998  C043  F03E         	movff	(c:___lwdiv@quotient+1),(c:?___lwdiv+1)
  9077                           opt subtitle "HI-TECH Software Omniscient Code Generator (Lite mode) build 49521"
  9078                           
  9079  00199C                     l1054:
  9080  00199C  0012               	return
  9081  00199E  FFFF               	dw	0FFFFh; errata NOP
  9082                           opt subtitle "HI-TECH Software Omniscient Code Generator (Lite mode) build 49521"
  9083                           
  9084  0019A0                     	__end_of___lwdiv:
  9085                           opt subtitle "HI-TECH Software Omniscient Code Generator (Lite mode) build 49521"
  9086                           
  9087                           opt pagewidth 120
  9088                           
  9089                           	opt lm
  9090                           
  9091                           	processor	18F452
  9092                           porta	equ	0F80h
  9093                           portb	equ	0F81h
  9094                           portc	equ	0F82h
  9095                           portd	equ	0F83h
  9096                           porte	equ	0F84h
  9097                           lata	equ	0F89h
  9098                           latb	equ	0F8Ah
  9099                           latc	equ	0F8Bh
  9100                           latd	equ	0F8Ch
  9101                           late	equ	0F8Dh
  9102                           trisa	equ	0F92h
  9103                           trisb	equ	0F93h
  9104                           trisc	equ	0F94h
  9105                           trisd	equ	0F95h
  9106                           trise	equ	0F96h
  9107                           pie1	equ	0F9Dh
  9108                           pir1	equ	0F9Eh
  9109                           ipr1	equ	0F9Fh
  9110                           pie2	equ	0FA0h
  9111                           pir2	equ	0FA1h
  9112                           ipr2	equ	0FA2h
  9113                           t3con	equ	0FB1h
  9114                           tmr3l	equ	0FB2h
  9115                           tmr3h	equ	0FB3h
  9116                           ccp1con	equ	0FBDh
  9117                           ccpr1l	equ	0FBEh
  9118  000008                     __pintcode:
  9119                           opt subtitle "HI-TECH Software Omniscient Code Generator (Lite mode) build 49521"
  9120                           
  9121                           opt pagewidth 120
  9122                           
  9123  0000                     	__size_of_tmr_int	equ	__end_of_tmr_int-_tmr_int
  9124                           opt subtitle "HI-TECH Software Omniscient Code Generator (Lite mode) build 49521"
  9125  000008                     _tmr_int:
  9126                           opt subtitle "HI-TECH Software Omniscient Code Generator (Lite mode) build 49521"
  9127  000008  FFFF               	dw	0FFFFh; errata NOP
  9128  00000A  CFFA F02F          	movff	pclat+0,??_tmr_int+0
  9129  00000E  CFFB F030          	movff	pclat+1,??_tmr_int+1
  9130  000012  CFE9 F031          	movff	fsr0l+0,??_tmr_int+2
  9131  000016  CFEA F032          	movff	fsr0h+0,??_tmr_int+3
  9132  00001A  CFE1 F033          	movff	fsr1l+0,??_tmr_int+4
  9133  00001E  CFE2 F034          	movff	fsr1h+0,??_tmr_int+5
  9134  000022  CFD9 F035          	movff	fsr2l+0,??_tmr_int+6
  9135  000026  CFDA F036          	movff	fsr2h+0,??_tmr_int+7
  9136  00002A  CFF3 F037          	movff	prodl+0,??_tmr_int+8
  9137  00002E  CFF4 F038          	movff	prodh+0,??_tmr_int+9
  9138  000032  CFF6 F039          	movff	tblptrl+0,??_tmr_int+10
  9139  000036  CFF7 F03A          	movff	tblptrh+0,??_tmr_int+11
  9140  00003A  CFF8 F03B          	movff	tblptru+0,??_tmr_int+12
  9141  00003E  CFF5 F03C          	movff	tablat+0,??_tmr_int+13
  9142                           opt subtitle "HI-TECH Software Omniscient Code Generator (Lite mode) build 49521"
  9143                           
  9144  000042                     i2l2641:
  9145                           opt subtitle "HI-TECH Software Omniscient Code Generator (Lite mode) build 49521"
  9146  000042  5016               	movf	((c:_adr)),c,w	;volatile
  9147  000044  0A07               	xorlw	7
  9148                           opt subtitle "HI-TECH Software Omniscient Code Generator (Lite mode) build 49521"
  9149  000046  A4D8               	btfss	status,2
  9150  000048  D001               	goto	i2u221_41
  9151  00004A  D001               	goto	i2u221_40
  9152  00004C                     i2u221_41:
  9153  00004C  D004               	goto	i2l2647
  9154  00004E                     i2u221_40:
  9155                           opt subtitle "HI-TECH Software Omniscient Code Generator (Lite mode) build 49521"
  9156                           
  9157  00004E                     i2l2643:
  9158                           opt subtitle "HI-TECH Software Omniscient Code Generator (Lite mode) build 49521"
  9159                           
  9160  00004E  7081               	btg	c:(31752/8),(31752)&7	;volatile
  9161                           opt subtitle "HI-TECH Software Omniscient Code Generator (Lite mode) build 49521"
  9162                           
  9163  000050                     i2l2645:
  9164                           opt subtitle "HI-TECH Software Omniscient Code Generator (Lite mode) build 49521"
  9165  000050  0E00               	movlw	low(0)
  9166  000052  6E16               	movwf	((c:_adr)),c	;volatile
  9167  000054  D000               	goto	i2l2647
  9168                           opt subtitle "HI-TECH Software Omniscient Code Generator (Lite mode) build 49521"
  9169                           
  9170  000056                     i2l385:
  9171                           opt subtitle "HI-TECH Software Omniscient Code Generator (Lite mode) build 49521"
  9172                           
  9173  000056                     i2l2647:
  9174                           opt subtitle "HI-TECH Software Omniscient Code Generator (Lite mode) build 49521"
  9175                           
  9176  000056  C016  FF84         	movff	(c:_adr),(c:3972)	;volatile
  9177                           opt subtitle "HI-TECH Software Omniscient Code Generator (Lite mode) build 49521"
  9178                           
  9179  00005A                     i2l2649:
  9180                           opt subtitle "HI-TECH Software Omniscient Code Generator (Lite mode) build 49521"
  9181  00005A  5081               	movf	((c:3969)),c,w	;volatile
  9182  00005C  0B0F               	andlw	low(0Fh)
  9183  00005E  6E81               	movwf	((c:3969)),c	;volatile
  9184                           opt subtitle "HI-TECH Software Omniscient Code Generator (Lite mode) build 49521"
  9185                           
  9186  000060                     i2l2651:
  9187                           opt subtitle "HI-TECH Software Omniscient Code Generator (Lite mode) build 49521"
  9188  000060  501C               	movf	((c:_count)),c,w	;volatile
  9189  000062  0D01               	mullw	01h
  9190  000064  0E01               	movlw	low((c:_values))	;volatile
  9191  000066  24F3               	addwf	(prodl),c,w
  9192  000068  6ED9               	movwf	c:fsr2l
  9193  00006A  0E00               	movlw	high((c:_values))	;volatile
  9194  00006C  20F4               	addwfc	prod+1,w
  9195  00006E  6EDA               	movwf	1+c:fsr2l
  9196  000070  50DF               	movf	indf2,w
  9197  000072  1081               	iorwf	((c:3969)),c,w	;volatile
  9198  000074  6E81               	movwf	((c:3969)),c	;volatile
  9199                           opt subtitle "HI-TECH Software Omniscient Code Generator (Lite mode) build 49521"
  9200                           
  9201  000076                     i2l2653:
  9202                           opt subtitle "HI-TECH Software Omniscient Code Generator (Lite mode) build 49521"
  9203  000076  2816               	incf	((c:_adr)),c,w	;volatile
  9204  000078  6E16               	movwf	((c:_adr)),c	;volatile
  9205                           opt subtitle "HI-TECH Software Omniscient Code Generator (Lite mode) build 49521"
  9206                           
  9207  00007A                     i2l2655:
  9208                           opt subtitle "HI-TECH Software Omniscient Code Generator (Lite mode) build 49521"
  9209  00007A  281C               	incf	((c:_count)),c,w	;volatile
  9210  00007C  6E1C               	movwf	((c:_count)),c	;volatile
  9211                           opt subtitle "HI-TECH Software Omniscient Code Generator (Lite mode) build 49521"
  9212                           
  9213  00007E                     i2l2657:
  9214                           opt subtitle "HI-TECH Software Omniscient Code Generator (Lite mode) build 49521"
  9215  00007E  501C               	movf	((c:_count)),c,w	;volatile
  9216  000080  0A0E               	xorlw	14
  9217                           opt subtitle "HI-TECH Software Omniscient Code Generator (Lite mode) build 49521"
  9218  000082  A4D8               	btfss	status,2
  9219  000084  D001               	goto	i2u222_41
  9220  000086  D001               	goto	i2u222_40
  9221  000088                     i2u222_41:
  9222  000088  D003               	goto	i2l2661
  9223  00008A                     i2u222_40:
  9224                           opt subtitle "HI-TECH Software Omniscient Code Generator (Lite mode) build 49521"
  9225                           
  9226  00008A                     i2l2659:
  9227                           opt subtitle "HI-TECH Software Omniscient Code Generator (Lite mode) build 49521"
  9228                           
  9229  00008A  0E00               	movlw	low(0)
  9230  00008C  6E1C               	movwf	((c:_count)),c	;volatile
  9231  00008E  D000               	goto	i2l2661
  9232                           opt subtitle "HI-TECH Software Omniscient Code Generator (Lite mode) build 49521"
  9233                           
  9234  000090                     i2l386:
  9235                           opt subtitle "HI-TECH Software Omniscient Code Generator (Lite mode) build 49521"
  9236                           
  9237  000090                     i2l2661:
  9238                           opt subtitle "HI-TECH Software Omniscient Code Generator (Lite mode) build 49521"
  9239                           
  9240  000090  0423               	decf	((c:_hold)),c,w
  9241  000092  6E23               	movwf	((c:_hold)),c	;volatile
  9242                           opt subtitle "HI-TECH Software Omniscient Code Generator (Lite mode) build 49521"
  9243                           
  9244  000094                     i2l2663:
  9245                           opt subtitle "HI-TECH Software Omniscient Code Generator (Lite mode) build 49521"
  9246  000094  94F2               	bcf	c:(32658/8),(32658)&7	;volatile
  9247                           opt subtitle "HI-TECH Software Omniscient Code Generator (Lite mode) build 49521"
  9248                           
  9249  000096                     i2l2665:
  9250                           opt subtitle "HI-TECH Software Omniscient Code Generator (Lite mode) build 49521"
  9251  000096  0E00               	movlw	high(0)
  9252  000098  6ED7               	movwf	((c:4054+1)),c	;volatile
  9253  00009A  0E00               	movlw	low(0)
  9254  00009C  6ED6               	movwf	((c:4054)),c	;volatile
  9255  00009E  D000               	goto	i2l387
  9256                           opt subtitle "HI-TECH Software Omniscient Code Generator (Lite mode) build 49521"
  9257                           
  9258  0000A0                     i2l2667:
  9259                           opt subtitle "HI-TECH Software Omniscient Code Generator (Lite mode) build 49521"
  9260                           
  9261                           opt pagewidth 120
  9262  0000A0                     i2l387:
  9263  0000A0  C03C  FFF5         	movff	??_tmr_int+13,tablat+0
  9264  0000A4  C03B  FFF8         	movff	??_tmr_int+12,tblptru+0
  9265  0000A8  C03A  FFF7         	movff	??_tmr_int+11,tblptrh+0
  9266  0000AC  C039  FFF6         	movff	??_tmr_int+10,tblptrl+0
  9267  0000B0  C038  FFF4         	movff	??_tmr_int+9,prodh+0
  9268  0000B4  C037  FFF3         	movff	??_tmr_int+8,prodl+0
  9269  0000B8  C036  FFDA         	movff	??_tmr_int+7,fsr2h+0
  9270  0000BC  C035  FFD9         	movff	??_tmr_int+6,fsr2l+0
  9271  0000C0  C034  FFE2         	movff	??_tmr_int+5,fsr1h+0
  9272  0000C4  C033  FFE1         	movff	??_tmr_int+4,fsr1l+0
  9273  0000C8  C032  FFEA         	movff	??_tmr_int+3,fsr0h+0
  9274  0000CC  C031  FFE9         	movff	??_tmr_int+2,fsr0l+0
  9275  0000D0  C030  FFFB         	movff	??_tmr_int+1,pclat+1
  9276  0000D4  C02F  FFFA         	movff	??_tmr_int+0,pclat+0
  9277  0000D8  0011               	retfie f
  9278  0000DA  FFFF               	dw	0FFFFh; errata NOP
  9279                           opt subtitle "HI-TECH Software Omniscient Code Generator (Lite mode) build 49521"
  9280                           
  9281  0000DC                     	__end_of_tmr_int:
  9282                           opt subtitle "HI-TECH Software Omniscient Code Generator (Lite mode) build 49521"
  9283                           
  9284  0000                     __activetblptr	EQU	0
  9285                           opt subtitle "HI-TECH Software Omniscient Code Generator (Lite mode) build 49521"
  9286                           
  9287                           opt pagewidth 120
  9288                           
  9289                           	opt lm
  9290                           
  9291                           	processor	18F452
  9292  0000                     __Lparam	EQU	__Lrparam
  9293  0000                     __Hparam	EQU	__Hrparam


Data Sizes:
    Strings     0
    Constant    0
    Data        1
    BSS         46
    Persistent  0
    Stack       0

Auto Spaces:
    Space          Size  Autos    Used
    COMRAM          127     26      73
    BANK0           128      0       0
    BANK1           256      0       0
    BANK2           256      0       0
    BANK3           256      0       0
    BANK4           256      0       0
    BANK5           256      0       0

Pointer List with Targets:

    ?___lwdiv	unsigned int  size(2) Largest target is 0

    ?___awmod	int  size(2) Largest target is 0

    ?___awdiv	int  size(2) Largest target is 0

    ?_EERandomRead	int  size(2) Largest target is 0


Critical Paths under _main in COMRAM

    _main->___awdiv
    _EEByteWrite->_WriteI2C
    _EERandomRead->_WriteI2C

Critical Paths under _tmr_int in COMRAM

    None.

Critical Paths under _main in BANK0

    None.

Critical Paths under _tmr_int in BANK0

    None.

Critical Paths under _main in BANK1

    None.

Critical Paths under _tmr_int in BANK1

    None.

Critical Paths under _main in BANK2

    None.

Critical Paths under _tmr_int in BANK2

    None.

Critical Paths under _main in BANK3

    None.

Critical Paths under _tmr_int in BANK3

    None.

Critical Paths under _main in BANK4

    None.

Critical Paths under _tmr_int in BANK4

    None.

Critical Paths under _main in BANK5

    None.

Critical Paths under _tmr_int in BANK5

    None.

Call Graph Tables:

 ---------------------------------------------------------------------------------
 (Depth) Function   	        Calls       Base Space   Used Autos Params    Refs
 ---------------------------------------------------------------------------------
 (0) _main                                                 3     3      0     705
                                             23 COMRAM     3     3      0
                            _OpenI2C
                        _EEByteWrite
                       _EERandomRead
                        _Write_b_eep
                         _Read_b_eep
                            ___awdiv
                            ___awmod
                            ___lwdiv
 ---------------------------------------------------------------------------------
 (1) _OpenI2C                                              2     0      2      30
                                             14 COMRAM     2     0      2
 ---------------------------------------------------------------------------------
 (1) _EEByteWrite                                          3     0      3      60
                                             15 COMRAM     3     0      3
                            _IdleI2C
                           _WriteI2C
 ---------------------------------------------------------------------------------
 (1) _EERandomRead                                         2     0      2      60
                                             15 COMRAM     2     0      2
                            _IdleI2C
                           _WriteI2C
 ---------------------------------------------------------------------------------
 (1) _Write_b_eep                                          5     2      3      45
                                             14 COMRAM     5     2      3
 ---------------------------------------------------------------------------------
 (1) _Read_b_eep                                           2     0      2      15
                                             14 COMRAM     2     0      2
 ---------------------------------------------------------------------------------
 (2) _WriteI2C                                             1     0      1      15
                                             14 COMRAM     1     0      1
                            _IdleI2C
 ---------------------------------------------------------------------------------
 (3) _IdleI2C                                              0     0      0       0
 ---------------------------------------------------------------------------------
 (1) ___awdiv                                              9     5      4     195
                                             14 COMRAM     9     5      4
 ---------------------------------------------------------------------------------
 (1) ___awmod                                              7     3      4     195
                                             14 COMRAM     7     3      4
 ---------------------------------------------------------------------------------
 (1) ___lwdiv                                              8     4      4     105
                                             14 COMRAM     8     4      4
 ---------------------------------------------------------------------------------
 Estimated maximum stack depth 3
 ---------------------------------------------------------------------------------
 (Depth) Function   	        Calls       Base Space   Used Autos Params    Refs
 ---------------------------------------------------------------------------------
 (4) _tmr_int                                             14    14      0       0
                                              0 COMRAM    14    14      0
 ---------------------------------------------------------------------------------
 Estimated maximum stack depth 4
 ---------------------------------------------------------------------------------

 Call Graph Graphs:

 _main (ROOT)
   _OpenI2C
   _EEByteWrite
     _IdleI2C
     _WriteI2C
       _IdleI2C
   _EERandomRead
     _IdleI2C
     _WriteI2C
       _IdleI2C
   _Write_b_eep
   _Read_b_eep
   ___awdiv
   ___awmod
   ___lwdiv

 _tmr_int (ROOT)

 Address spaces:
Name               Size   Autos  Total    Cost      Usage
BIGRAM             5FF      0       0      17        0.0%
EEDATA             100      0       0       0        0.0%
BITBANK5           100      0       0      16        0.0%
BANK5              100      0       0      14        0.0%
BITBANK4           100      0       0      12        0.0%
BANK4              100      0       0      13        0.0%
BITBANK3           100      0       0      10        0.0%
BANK3              100      0       0      11        0.0%
BITBANK2           100      0       0       8        0.0%
BANK2              100      0       0       9        0.0%
BITBANK1           100      0       0       6        0.0%
BANK1              100      0       0       7        0.0%
BITBANK0            80      0       0       4        0.0%
BANK0               80      0       0       5        0.0%
BITCOMRAM           7F      0       0       0        0.0%
COMRAM              7F     1A      49       1       57.5%
BITSFR               0      0       0      40        0.0%
SFR                  0      0       0      40        0.0%
STACK                0      0       3       2        0.0%
NULL                 0      0       0       0        0.0%
ABS                  0      0      49      15        0.0%
DATA                 0      0      4C       3        0.0%
CODE                 0      0       0       0        0.0%


Microchip Technology PIC18 Macro Assembler V1.12 build 49521 
Symbol Table                                                                                   Tue Aug 13 13:52:48 2013

                      _i 0025                        _j 0026              _SSPSTATbits 000FC7  
                     _R1 0049                       _R2 0013                       u10 0198  
                     u11 0196                       u20 01A0                       u21 019E  
                     u30 01A8                       u31 01A6                       u40 01D4  
                     u41 01D2                       u50 01DC                       u51 01DA  
                     u60 01E4                       u61 01E2                       u70 0278  
                     u71 0276                       u80 0282                       u81 0280  
                     u90 028A                       u91 0288             ___awdiv@sign 0043  
                    l200 048E                      l201 0472                      l210 0506  
                    l202 0474                      l211 04F6                      l203 04AC  
                    l300 0BDA                      l220 057C                      l212 0512  
                    l204 04D8                      l301 0BFA                      l221 05CE  
                    l213 052C                      l205 04BE                      l310 0D4A  
                    l302 0C38                      l230 073E                      l222 05C2  
                    l214 057E                      l206 04C0                      l311 0D28  
                    l303 0C22                      l231 0626                      l223 0594  
                    l215 0572                      l207 052E                      l320 0E1C  
                    l312 0D48                      l304 0C38                      l240 06E8  
                    l232 0654                      l224 05A6                      l216 0542  
                    l208 0522                      l321 0E3E                      l313 0D86  
                    l305 0D4A                      l241 06BA                      l233 0638  
                    l225 0596                      l217 0554                      l209 04F4  
                    l410 19CE                      l330 0F58                      l322 0E54  
                    l314 0D70                      l306 0CD0                      l250 070A  
                    l242 06CC                      l234 063A                      l226 05B2  
                    l218 0544                      l170 027A                      l411 19D6  
                    l331 0F78                      l323 0E74                      l315 0D86  
                    l307 0D12                      l251 0726                      l243 06BC  
                    l235 0672                      l227 05CC                      l219 0560  
                    l171 028C                      l163 018E                      l412 19E2  
                    l500 1568                      l340 10C6                      l332 1080  
                    l324 0F7A                      l316 0E74                      l308 0CEE  
                    l260 07DC                      l252 073A                      l244 06D8  
                    l236 069E                      l228 073E                      l180 0306  
                    l164 01CA                      l501 1568                      l341 10A6  
                    l333 1006                      l325 0F00                      l317 0DB2  
                    l309 0D0C                      l253 0850                      l261 07DE  
                    l245 06F2                      l237 0684                      l229 05EE  
                    l181 033E                      l173 028A                      l510 15A4  
                    l502 1572                      l430 1714                      l350 1198  
                    l342 10C6                      l334 1048                      l326 0F42  
                    l318 0DD4                      l270 08A4                      l262 0844  
                    l254 077E                      l246 073C                      l238 0686  
                    l190 039E                      l182 036A                      l174 0414  
                    l166 01AA                      l511 15A4                      l503 15D4  
                    l431 16F6                      l423 163A                      l351 126A  
                    l343 115C                      l335 1024                      l327 0F1E  
                    l319 0DF8                      l271 08BA                      l263 0814  
                    l255 07AC                      l247 0730                      l239 06F4  
                    l191 03BA                      l183 0350                      l175 02A8  
                    l167 0270                      l520 15EE                      l512 15AC  
                    l504 158A                      l440 16A6                      l432 167E  
                    l424 163A                      l360 1290                      l352 11F0  
                    l344 10F2                      l336 1042                      l328 0F3C  
                    l280 09D0                      l272 0994                      l264 0826  
                    l256 0790                      l248 0708                      l176 0414  
                    l192 03D4                      l184 0352                      l409 19CE  
                    l521 15D8                      l513 15B0                      l505 158A  
                    l441 16D4                      l433 1672                      l425 1644  
                    l361 12A6                      l353 1232                      l345 1114  
                    l337 1080                      l329 0F7A                      l281 09BA  
                    l273 091A                      l265 0816                      l257 0792  
                    l249 071A                      l193 03EA                      l185 03D8  
                    l177 02F2                      l169 01E6                      l530 1610  
                    l522 15D8                      l514 15B0                      l506 1592  
                    l450 16F6                      l442 16D2                      l434 1672  
                    l426 1646                      l370 13B4                      l362 1378  
                    l354 120E                      l346 1138                      l338 105E  
                    l290 0AA8                      l282 09D0                      l274 095C  
                    l266 0832                      l258 07CA                      l194 03FE  
                    l186 03D6                      l178 0320                      l531 161A  
                    l523 15E2                      l515 15BA                      l507 1598  
                    l451 16EA                      l443 16C6                      l435 167C  
                    l427 1646                      l371 139E                      l363 12FE  
                    l355 122C                      l347 115A                      l339 107E  
                    l291 0AE6                      l283 0AAA                      l275 0938  
                    l267 084E                      l259 07F6                      l195 0412  
                    l187 03CA                      l179 0304                      l540 1A46  
                    l524 160A                      l516 15BC                      l508 1598  
                    l460 1714                      l452 16EA                      l444 16C6  
                    l436 16E6                      l428 164E                      l380 148E  
                    l372 13B4                      l364 1340                      l356 126A  
                    l348 1198                      l292 0AD0                      l284 0A30  
                    l276 0956                      l268 087E                      l196 05D0  
                    l188 039C                      l541 1A46                      l525 15F4  
                    l517 15BC                      l509 15A2                      l453 16F4  
                    l445 16D0                      l437 16A8                      l429 165C  
                    l381 1492                      l373 148A                      l365 131C  
                    l357 1248                      l349 1182                      l293 0AE6  
                    l285 0A72                      l277 0994                      l269 08BA  
                    l197 0428                      l189 03AE                      l710 1770  
                    l526 15F4                      l518 15C4                      l454 16FA  
                    l446 16E4                      l438 169C                      l382 1492  
                    l374 13E2                      l366 133A                      l358 1268  
                    l294 0BFC                      l286 0A4E                      l278 0972  
                    l198 05D0                      l711 1784                      l527 15FE  
                    l519 15D2                      l455 16FA                      l447 16D8  
                    l439 169C                      l375 1404                      l367 1378  
                    l359 12A6                      l295 0B82                      l287 0A6C  
                    l279 0992                      l199 0460                      l720 18BA  
                    l712 1786                      l528 1626                      l480 162C  
                    l456 1704                      l448 16D8                      l552 1A26  
                    l376 1428                      l368 1356                      l296 0BC4  
                    l288 0AAA                      l721 190E                      l713 17A8  
                    l529 1610                      l481 1626                      l473 14A0  
                    l457 1706                      l449 16E2                      l377 144A  
                    l369 1376                      l297 0BA0                      l289 0A88  
                    l722 18DA                      l714 17B4                      l706 173C  
                    l538 1A30                      l570 1880                      l490 1518  
                    l482 14F0                      l474 14A0                      l458 1706  
                    l378 1464                      l298 0BBE                      l723 18D0  
                    l715 17CA                      l707 1752                      l539 1A2E  
                    l571 1880                      l491 15F0                      l483 14DA  
                    l475 14AA                      l459 170E                      l379 1486  
                    l299 0BFC                      l724 18E4                      l716 17D4  
                    l708 17B6                      l572 1836                      l396 1A5E  
                    l492 1530                      l484 14DA                      l476 14AC  
                    l725 18E6                      l709 177A                      l581 1854  
                    l573 180E                      l493 1530                      l485 14E4  
                    l477 14AC                      l726 1900                      l582 1856  
                    l574 180E                      l494 153A                      l486 160C  
                    l478 14B4                      l727 190C                      l719 18A8  
                    l583 1856                      l575 1816                      l495 153C  
                    l487 1524                      l479 14C4                      l728 1922  
                    l584 1860                      l576 182E                      l496 153C  
                    l488 150E                      l729 192C                      l585 1874  
                    l577 1834                      l569 17EE                      l497 1544  
                    l489 150E                      l578 187E                      l586 187A  
                    l498 1552                      l579 187C                      l499 157E  
                    _RA0 007C00                      _RA1 007C01                      _RB0 007C08  
                    _RA2 007C02                      _RB1 007C09                      _RA3 007C03  
          ?_EERandomRead 003E                      _RC0 007C10                      _RB2 007C0A  
                    _RA4 007C04                      _RC1 007C11                      _RB3 007C0B  
                    _RD0 007C18                      _RC2 007C12                      _RD1 007C19  
                    _RC3 007C13                      _RD2 007C1A                      _RC4 007C14  
                    _RD3 007C1B                      _RC5 007C15                      u100 0296  
                    _RD4 007C1C                      _RC6 007C16                      u101 0294  
                    _RD5 007C1D                      _RC7 007C17                      u110 029E  
                    _RD6 007C1E                      u111 029C                      _RD7 007C1F  
                    u200 0392                      u120 02EE                      u201 0390  
                    u121 02EC                      u210 03B8                      u130 0300  
                    u211 03B6                      u131 02FE                      u300 048C  
                    u220 03D2                      u140 031E                      u301 048A  
                    u221 03D0                      u141 031C                      u310 04A8  
                    u230 03E2                      u150 033A                      u311 04A6  
                    u231 03E0                      u151 0338                      u400 058A  
                    u320 04BA                      u240 03F6                      u160 034C  
                    u401 0588                      u321 04B8                      u241 03F4  
                    u161 034A                      u410 05B0                      u330 04D8  
                    u250 040A                      u170 036A                      u411 05AE  
                    u331 04D6                      u251 0408                      u171 0368  
                    u500 069E                      u420 05CA                      u340 04EA  
                    u260 041C                      u180 037C                      u501 069C  
                    u421 05C8                      u341 04E8                      u261 041A  
                    u181 037A                      u510 06B0                      u430 05D8  
                    u350 0510                      u270 0424                      u190 0384  
                    u511 06AE                      u431 05D6                      u351 050E  
                    u271 0422                      u191 0382                      u600 07AA  
                    u520 06D6                      u440 05E4                      u360 052A  
                    u280 045C                      u601 07A8                      u521 06D4  
                    u441 05E2                      u361 0528                      u281 045A  
                    u610 07C6                      u530 06F0                      u450 0622  
                    u370 0538                      u290 046E                      u611 07C4  
                    u531 06EE                      u451 0620                      u371 0536  
                    u291 046C                      u700 08A0                      u620 07D8  
                    u540 06FE                      u460 0634                      u380 055E  
                    u701 089E                      u621 07D6                      u541 06FC  
                    u461 0632                      u381 055C                      u710 08B8  
                    u630 07F6                      u550 0724                      u470 0652  
                    u390 057A                      u711 08B6                      u631 07F4  
                    u551 0722                      u471 0650                      u391 0578  
                    u800 09A4                      u720 08C2                      u640 0830  
                    u560 0738                      u480 066E                      u801 09A2  
                    u721 08C0                      u641 082E                      u561 0736  
                    u481 066C                      u810 09B6                      u730 08CC  
                    u650 084C                      u570 0746                      u490 0680  
                    u811 09B4                      u731 08CA                      u651 084A  
                    u571 0744                      u491 067E                      u900 0AB2  
                    u820 09CE                      u740 0922                      u660 0868  
                    u580 077A                      u901 0AB0                      u821 09CC  
                    u741 0920                      u661 0866                      u581 0778  
                    u910 0ABA                      u830 09D8                      u750 0934  
                    u670 0874                      u590 078C                      u911 0AB8  
                    u831 09D6                      u751 0932                      u671 0872  
                    u591 078A                      u920 0ACC                      u840 09E2  
                    u760 0954                      u680 0886                      u921 0ACA  
                    u841 09E0                      u761 0952                      u681 0884  
                    u930 0AE4                      u850 0A38                      u770 096E  
                    u690 088E                      u931 0AE2                      u851 0A36  
                    u771 096C                      u691 088C                      u940 0AEE  
                    u860 0A4A                      u780 0990                      u941 0AEC  
                    u861 0A48                      u781 098E                      u950 0AFE  
                    u870 0A6A                      u790 099C                      u951 0AFC  
                    u871 0A68                      u791 099A                      u960 0B8A  
                    u880 0A84                      u961 0B88                      u881 0A82  
                    u970 0B9C                      u890 0AA6                      u971 0B9A  
                    u891 0AA4                      u980 0BBC                      u981 0BBA  
                    u990 0BD6                      u991 0BD4                      _adr 0016  
                    _cnt 0019     __size_of_Write_b_eep 0046             ___awmod@sign 0043  
                    prod 000FF3                      wreg 000FE8                     l2001 0A5E  
                   l1050 1964                     l1051 1966                     l2011 0A86  
                   l2003 0A60                     l1052 1988                     l1053 1994  
                   l2101 0C2C                     l2021 0ABA                     l2013 0A88  
                   l2005 0A6C                     l1054 199C                     l1047 1994  
                   l2111 0C7C                     l2103 0C40                     l2031 0ADA  
                   l2023 0AC2                     l2015 0A9A                     l2007 0A72  
                   l1048 195A                     l1049 1950                     l2201 0E28  
                   l2121 0CB8                     l2113 0C92                     l2105 0C4C  
                   l2041 0B2E                     l2033 0AEE                     l2025 0ACE  
                   l2017 0A9C                     l2009 0A7A                     l2211 0E54  
                   l2203 0E2A                     l2123 0CBC                     l2115 0C98  
                   l2107 0C58                     l2131 0CD0                     l2051 0B6A  
                   l2043 0B44                     l2035 0AFE                     l2027 0AD0  
                   l2019 0AB2                     l2301 1016                     l2221 0E8A  
                   l2213 0E66                     l2205 0E3E                     l2141 0CFE  
                   l2133 0CD8                     l2125 0CC2                     l2117 0C9C  
                   l2109 0C70                     l2053 0B6E                     l2045 0B4A  
                   l2037 0B0A                     l2061 0B82                     l2029 0AD8  
                   l1501 013C                     l2303 1022                     l2311 1042  
                   l2231 0ECC                     l2223 0EA0                     l2215 0E68  
                   l2207 0E46                     l2151 0D26                     l2143 0D00  
                   l2135 0CE0                     l2127 0CC6                     l2119 0CB2  
                   l2071 0BB0                     l2063 0B8A                     l2055 0B74  
                   l2047 0B4E                     l2039 0B22                     l1511 0182  
                   l1503 0158                     l2401 120C                     l2321 1070  
                   l2305 1024                     l2313 1048                     l2241 0EF6  
                   l2233 0EE2                     l2225 0EAC                     l2217 0E7C  
                   l2209 0E52                     l2161 0D5A                     l2153 0D28  
                   l2137 0CEC                     l2145 0D0C                     l2129 0CCA  
                   l2081 0BD8                     l2073 0BB2                     l2065 0B92  
                   l2057 0B78                     l2049 0B64                     l1601 0314  
                   l1521 018E                     l1513 0184                     l1505 0170  
                   l2403 120E                     l2411 1232                     l2331 10A4  
                   l2323 1072                     l2315 1050                     l2307 1034  
                   l2251 0F1E                     l2235 0EE8                     l2227 0EC2  
                   l2219 0E86                     l2243 0F00                     l2171 0D7A  
                   l2163 0D62                     l2155 0D3A                     l2139 0CEE  
                   l2147 0D12                     l2091 0C0C                     l2083 0BDA  
                   l2067 0B9E                     l2075 0BBE                     l2059 0B7C  
                   l1611 0344                     l1603 0320                     l1531 01C0  
                   l1523 0198                     l1515 0186                     l1507 017E  
                   l2501 13E2                     l2421 125C                     l2413 123A  
                   l2405 121E                     l2341 10D2                     l2333 10A6  
                   l2325 1088                     l2317 105C                     l2309 1036  
                   l2261 0F4A                     l2253 0F2E                     l2245 0F08  
                   l2237 0EEC                     l2229 0EC8                     l2181 0DB2  
                   l2173 0D8E                     l2165 0D6E                     l2157 0D3C  
                   l2149 0D1A                     l2093 0C14                     l2085 0BEC  
                   l2069 0BA0                     l2077 0BC4                     l1701 04DA  
                   l1621 0374                     l1613 034C                     l1605 0330  
                   l1541 01F2                     l1525 01A0                     l1533 01CA  
                   l1517 0188                     l1509 0180                     l2511 1414  
                   l2503 13EC                     l2431 1290                     l2423 1272  
                   l2415 1246                     l2407 1220                     l2351 1100  
                   l2343 10DA                     l2335 10B8                     l2327 1090  
                   l2319 105E                     l2271 0F82                     l2263 0F56  
                   l2255 0F30                     l2247 0F10                     l2239 0EF2  
                   l2191 0DE4                     l2183 0DBC                     l2175 0D92  
                   l2167 0D70                     l2159 0D52                     l2095 0C20  
                   l2087 0BEE                     l2079 0BCC                     l1711 0506  
                   l1703 04E2                     l1631 03AA                     l1623 037C  
                   l1615 035E                     l1607 033C                     l1551 0238  
                   l1543 01FA                     l1535 01D4                     l1527 01AA  
                   l1519 018A                     l2601 1586                     l2521 1452  
                   l2513 1428                     l2505 13F0                     l2441 12BC  
                   l2433 1298                     l2425 127A                     l2417 1248  
                   l2409 122C                     l2361 1144                     l2353 1114  
                   l2345 10DE                     l2337 10BA                     l2329 1098  
                   l2281 0FC8                     l2273 0F8C                     l2265 0F58  
                   l2249 0F1C                     l2257 0F3C                     l2193 0DF8  
                   l2185 0DC0                     l2177 0D9A                     l2169 0D78  
                   l2097 0C22                     l2089 0C04                     l1801 06A8  
                   l1721 0538                     l1713 0512                     l1705 04EA  
                   l1633 03AE                     l1625 0384                     l1641 03D8  
                   l1617 0360                     l1609 033E                     l1561 0262  
                   l1553 023C                     l1545 0210                     l1537 01DC  
                   l1529 01B8                     l2611 1608                     l2603 15CC  
                   l2531 1A0C                     l2523 1460                     l2515 1434  
                   l2507 1404                     l2443 12D2                     l2451 12FE  
                   l2435 129A                     l2427 1282                     l2419 125A  
                   l2371 1174                     l2363 1146                     l2355 1120  
                   l2347 10F2                     l2339 10CE                     l2291 0FF2  
                   l2283 0FCE                     l2275 0F90                     l2267 0F6A  
                   l2259 0F42                     l2195 0E04                     l2187 0DD4  
                   l2179 0D9E                     l2099 0C2A                     l1811 06D8  
                   l1803 06B0                     l1731 0568                     l1723 054C  
                   l1715 0518                     l1707 04FE                     l1651 040A  
                   l1643 03E2                     l1635 03BA                     l1627 0392  
                   l1619 036C                     l1571 0296                     l1563 0266  
                   l1555 0252                     l1547 021C                     l1539 01E6  
                   l1491 010C                     l2701 1836                     l2621 19AE  
                   l2613 161A                     l2605 15E2                     l2541 1A24  
                   l2533 1A10                     l2525 1464                     l2517 1436  
                   l2509 1410                     l2461 132C                     l2453 1306  
                   l2445 12D8                     l2437 12AE                     l2429 128E  
                   l2381 11A0                     l2373 1180                     l2357 1124  
                   l2349 10FC                     l2365 115C                     l2293 0FF8  
                   l2285 0FD2                     l2277 0FA6                     l2269 0F6C  
                   l2197 0E08                     l2189 0DE0                     l1901 087E  
                   l1821 0712                     l1813 06DE                     l1805 06C4  
                   l1741 05A2                     l1725 0550                     l1733 0572  
                   l1709 0502                     l1717 0522                     l1661 0436  
                   l1653 041C                     l1645 03EA                     l1637 03C0  
                   l1629 03A6                     l1581 02CA                     l1573 029E  
                   l1557 0258                     l1549 0232                     l1565 0270  
                   l1493 0114                     l2711 1870                     l2703 1844  
                   l2631 19C0                     l2623 19B2                     l2615 1624  
                   l2607 15EC                     l2551 165C                     l2543 1632  
                   l2535 1A14                     l2527 1476                     l2519 144A  
                   l2471 1354                     l2463 132E                     l2455 130E  
                   l2447 12F2                     l2439 12B8                     l2391 11E4  
                   l2383 11AA                     l2375 1182                     l2367 1164  
                   l2359 1138                     l2295 0FFC                     l2287 0FE8  
                   l2279 0FB2                     l2199 0E1C                     l1911 08A4  
                   l1903 0886                     l1831 0746                     l1823 0716  
                   l1807 06C8                     l1815 06E8                     l1751 05D8  
                   l1743 05A6                     l1727 0554                     l1735 057E  
                   l1719 052E                     l1671 0452                     l1663 0438  
                   l1655 0424                     l1647 03F6                     l1639 03CA  
                   l1591 02F0                     l1583 02CC                     l1575 02A0  
                   l1567 0278                     l1559 025C                     l1495 011C  
                   l1487 00E2                     l2801 193A                     l2721 1722  
                   l2713 1872                     l2705 1860                     l2633 19CA  
                   l2625 19B4                     l2617 19A2                     l2609 15FE  
                   l2561 16C2                     l2553 166E                     l2545 1636  
                   l2537 1A20                     l2529 1478                     l2481 1388  
                   l2473 1356                     l2457 131A                     l2465 133A  
                   l2449 12F8                     l2393 11EA                     l2385 11AE  
                   l2377 118A                     l2369 116C                     l2289 0FEE  
                   l2297 1006                     l1921 08D0                     l1913 08AC  
                   l1905 088E                     l1841 075E                     l1833 074E  
                   l1825 071A                     l1809 06CC                     l1817 06F4  
                   l1761 05FE                     l1753 05E4                     l1745 05B2  
                   l1737 058A                     l1729 0560                     l1681 0480  
                   l1673 045E                     l1665 043A                     l1657 042A  
                   l1649 03FE                     l1593 02F2                     l1585 02D4  
                   l1577 02A8                     l1569 0282                     l1497 0124  
                   l1489 00E4                     l2811 196C                     l2803 1946  
                   l2731 174C                     l2723 172A                     l2715 1874  
                   l2707 1864                     l2635 1A4C                     l2627 19B6  
                   l2619 19AA                     l2571 14C2                     l2563 1712  
                   l2555 1686                     l2547 1658                     l2539 1A22  
                   l2491 13A8                     l2483 1390                     l2475 1368  
                   l2459 131C                     l2467 1340                     l2387 11C4  
                   l2395 11F0                     l2379 118C                     l2299 100E  
                   l1931 0910                     l1923 08E6                     l1915 08AE  
                   l1907 0896                     l1851 077E                     l1843 0760  
                   l1835 0750                     l1827 0726                     l1819 06FE  
                   l1771 0624                     l1763 0600                     l1755 05F0  
                   l1747 05B8                     l1739 059E                     l1691 04AC  
                   l1683 0482                     l1675 0460                     l1667 0442  
                   l1659 0432                     l1595 02F8                     l1587 02DC  
                   l1579 02C4                     l1499 0138                     l2813 197C  
                   l2805 1950                     l2741 177A                     l2733 1752  
                   l2725 1732                     l2717 1878                     l2709 186C  
                   l2637 1A5A                     l2629 19B8                     l2581 14F8  
                   l2573 14C4                     l2565 1498                     l2557 1698  
                   l2549 165A                     l2493 13BE                     l2485 139C  
                   l2477 136A                     l2469 1348                     l2397 11F8  
                   l2389 11CA                     l1941 0938                     l1925 08EC  
                   l1933 091A                     l1917 08C2                     l1909 08A2  
                   l1853 0784                     l1861 07AC                     l1845 0768  
                   l1837 0758                     l1829 0730                     l1781 0648  
                   l1773 0626                     l1765 0608                     l1757 05F8  
                   l1749 05C2                     l1693 04B2                     l1677 0466  
                   l1685 048E                     l1669 044A                     l1597 0300  
                   l1589 02E4                     l2815 1984                     l2807 195A  
                   l2751 17A8                     l2743 1786                     l2735 175A  
                   l2727 173C                     l2719 171A                     l2671 1A30  
                   l2639 1A5E                     l2591 154C                     l2583 150A  
                   l2575 14D6                     l2567 149C                     l2559 16B0  
                   l2495 13C2                     l2487 139E                     l2479 1380  
                   l2399 1200                     l1951 0964                     l1943 0948  
                   l1935 0922                     l1927 0906                     l1919 08CC  
                   l1871 07D8                     l1863 07BC                     l1855 078C  
                   l1847 0770                     l1839 075C                     l1791 0678  
                   l1775 062C                     l1783 0654                     l1767 0610  
                   l1759 05FC                     l1695 04BA                     l1687 049E  
                   l1679 046E                     l1599 0312                     l2817 1988  
                   l2809 1966                     l2761 17D4                     l2753 17AE  
                   l2745 178C                     l2737 1766                     l2729 1744  
                   l2673 1A3C                     l2681 17EC                     l2593 1552  
                   l2585 1518                     l2577 14E4                     l2569 14BC  
                   l2497 13CA                     l2489 13A6                     l1961 099C  
                   l1953 0970                     l1945 094A                     l1937 092A  
                   l1929 090C                     l1881 080A                     l1873 07EA  
                   l1865 07C8                     l1857 079E                     l1849 077C  
                   l1793 0680                     l1785 0664                     l1777 0634  
                   l1769 0618                     l1697 04CC                     l1689 04AA  
                   l2819 198E                     l2771 18A8                     l2763 1886  
                   l2747 179C                     l2739 1770                     l2755 17B6  
                   l2691 1826                     l2683 17EE                     l2675 17DA  
                   l2595 1564                     l2587 1522                     l2579 14EE  
                   l2499 13CE                     l1971 09C2                     l1963 09A4  
                   l1955 0972                     l1939 0936                     l1947 0956  
                   l1891 083A                     l1883 081E                     l1875 07EC  
                   l1867 07CA                     l1859 07A0                     l1795 0692  
                   l1787 0670                     l1779 0646                     l1699 04CE  
                   l2781 18DA                     l2773 18B0                     l2765 188E  
                   l2757 17C0                     l2749 17A4                     l2669 1A2C  
                   l2693 182A                     l2685 17FC                     l2677 17E6  
                   l2597 1572                     l2589 152C                     l1981 09FC  
                   l1973 09C4                     l1965 09AC                     l1957 0984  
                   l1949 095C                     l1885 0822                     l1893 0844  
                   l1877 07FA                     l1869 07D0                     l1797 0694  
                   l1789 0672                     l2783 18E6                     l2791 190E  
                   l2775 18BA                     l2767 1896                     l2759 17CA  
                   l2695 182C                     l2687 180A                     l2679 17EA  
                   l2599 157C                     l1983 0A02                     l1991 0A30  
                   l1975 09D8                     l1967 09B8                     l1959 0986  
                   l1887 0826                     l1879 0802                     l1895 0850  
                   l1799 06A0                     l2793 1918                     l2785 18F6  
                   l2777 18C6                     l2769 189E                     l2689 181E  
                   l2697 182E                     l1993 0A38                     l1985 0A1C  
                   l1977 09E2                     l1969 09BA                     l1897 0868  
                   l1889 0832                     l2795 1922                     l2787 1900  
                   l2779 18D0                     l2699 1832                     l1995 0A40  
                   l1987 0A22                     l1979 09E6                     l1899 0874  
                   l2797 192C                     l2789 1906                     l1997 0A4C  
                   l1989 0A26                     l2799 1932                     l1999 0A4E  
                   u1000 0BF8                     _T0IF 007F92                     u1001 0BF6  
                   u1010 0C04                     u1011 0C02                     u1100 0D24  
                   u1020 0C0C                     u1101 0D22                     u1021 0C0A  
                   u1110 0D46                     u1030 0C1E                     u1111 0D44  
                   u1031 0C1C                     u2000 14F8                     u1200 0E04  
                   u1120 0D52                     u1040 0C36                     u2001 14F6  
                   u1201 0E02                     u1121 0D50                     u1041 0C34  
                   u2010 150A                     u1210 0E28                     u1130 0D5A  
                   u1050 0C40                     u2011 1508                     u1211 0E26  
                   u1131 0D58                     u1051 0C3E                     u2100 1592  
                   u2020 1516                     u1300 0F76                     u1220 0E50  
                   u1140 0D6C                     u1060 0C4C                     u2101 1590  
                   u2021 1514                     u1301 0F74                     u1221 0E4E  
                   u1141 0D6A                     u1061 0C4A                     u2110 15A0  
                   u2030 152C                     u1310 0F82                     u1230 0E72  
                   u1150 0D84                     u1070 0CD8                     u2111 159E  
                   u2031 152A                     u1311 0F80                     u1231 0E70  
                   u1151 0D82                     u1071 0CD6                     u2120 15AC  
                   u2040 1538                     u1400 10A2                     u1320 0F8C  
                   u1240 0E7C                     u1160 0D8E                     u1080 0CEA  
                   u2121 15AA                     u2041 1536                     u1401 10A0  
                   u1321 0F8A                     u1241 0E7A                     u1161 0D8C  
                   u1081 0CE8                     u2130 15B8                     u2050 1544  
                   u1410 10C4                     u1330 100E                     u1250 0E86  
                   u1170 0D9A                     u1090 0D0A                     u2131 15B6  
                   u2051 1542                     u1411 10C2                     u1331 100C  
                   u1251 0E84                     u1171 0D98                     u1091 0D08  
                   u2300 1826                     u2140 15C4                     u2060 154C  
                   u1500 1196                     u1420 10CE                     u1340 1020  
                   u1260 0F08                     u1180 0DBC                     u2301 1824  
                   u2205 19DE                     u2141 15C2                     u2061 154A  
                   u1501 1194                     u1421 10CC                     u1341 101E  
                   u1261 0F06                     u1181 0DBA                     u2230 1A3C  
                   u2310 1844                     u2206 19E0                     u2150 15CC  
                   u2070 1564                     u1510 11A0                     u1430 10DA  
                   u1350 1040                     u1270 0F1A                     u1190 0DE0  
                   u2231 1A3A                     u2311 1842                     u2151 15CA  
                   u2071 1562                     u3007 135C                     u1511 119E  
                   u1431 10D8                     u1351 103E                     u1271 0F18  
                   u1191 0DDE                     u2400 17C0                     u2240 1A44  
                   u2320 1852                     u2160 15E0                     u2080 1570  
                   u1600 128C                     u1520 11AA                     u1440 10FC  
                   u1360 105A                     u1280 0F3A                     u2401 17BE  
                   u2241 1A42                     u2321 1850                     u2161 15DE  
                   u2081 156E                     u3017 13A0                     u1601 128A  
                   u1521 11A8                     u1441 10FA                     u1361 1058  
                   u1281 0F38                     u2410 1896                     u2330 185E  
                   u2250 17E6                     u2170 15FC                     u2090 1586  
                   u1610 12A4                     u1530 11F8                     u1450 1120  
                   u1370 107C                     u1290 0F54                     u2411 1894  
                   u2331 185C                     u2251 17E4                     u2171 15FA  
                   u2091 1584                     u3027 13D4                     u1611 12A2  
                   u1531 11F6                     u1451 111E                     u1371 107A  
                   u1291 0F52                     u2420 18B0                     u2340 186C  
                   u2260 17FC                     u2180 1618                     u1700 1388  
                   u1620 12AE                     u1540 120A                     u1460 1144  
                   u1380 1088                     u2421 18AE                     u2341 186A  
                   u2261 17FA                     u2181 1616                     u3037 13F6  
                   u1701 1386                     u1621 12AC                     u1541 1208  
                   u1461 1142                     u1381 1086                     u2430 18C6  
                   u2350 172A                     u2270 180A                     u2190 19D6  
                   u1710 139A                     u1630 12B8                     u1550 122A  
                   u1470 1164                     u1390 1090                     u2431 18C4  
                   u2351 1728                     u2271 1808                     u2191 19D4  
                   u3047 141A                     u1711 1398                     u1631 12B6  
                   u1551 1228                     u1471 1162                     u1391 108E  
                   u2440 18E2                     u2360 1744                     u2280 1816  
                   u1800 1642                     u1720 13B2                     u1640 1306  
                   u1560 1244                     u1480 116C                     u2441 18E0  
                   u2361 1742                     u2281 1814                     u1801 1640  
                   u3057 143C                     u1721 13B0                     u1641 1304  
                   u1561 1242                     u1481 116A                     u2450 18F6  
                   u2370 1766                     u2290 181E                     u1810 164E  
                   u1730 13BE                     u1650 1318                     u1570 1266  
                   u1490 117E                     u2451 18F4                     u2371 1764  
                   u2291 181C                     u1811 164C                     u3067 146A  
                   u1731 13BA                     u1651 1316                     u1571 1264  
                   u1491 117C                     u2507 01BA                     u2460 1918  
                   u2380 1782                     u1900 16CE                     u1820 1656  
                   u1740 13CA                     u1660 1338                     u1580 1272  
                   u2461 1916                     u2381 1780                     u1901 16CC  
                   u1821 1654                     u1741 13C8                     u1661 1336  
                   u1581 1270                     u2517 01F4                     u2470 1946  
                   u2390 179C                     u1910 16E0                     u1830 166E  
                   u1750 13EC                     u1670 1352                     u1590 127A  
                   u2471 1944                     u2391 179A                     u1911 16DE  
                   u1831 166C                     u1751 13EA                     u1671 1350  
                   u1591 1278                     u2607 05F2                     u2527 02A2  
                   u2480 1962                     u1920 16F2                     u1840 167A  
                   u1760 1410                     u1680 1374                     u2481 1960  
                   u1921 16F0                     u1841 1678                     u1761 140E  
                   u1681 1372                     u2617 0602                     u2537 02CE  
                   u2490 197C                     u1930 1702                     u1850 1686  
                   u1770 1434                     u1690 1380                     u2491 197A  
                   u1931 1700                     u1851 1684                     u1771 1432  
                   u1691 137E                     u2707 09BC                     u2627 06DA  
                   u2547 03BC                     u1940 170E                     u1860 1698  
                   u1780 145C                     u1941 170C                     u1861 1696  
                   u1781 145A                     u2717 0A54                     u2637 0728  
                   u2557 042C                     u1950 14A8                     u1870 16A4  
                   u1790 1482                     u1951 14A6                     u1871 16A2  
                   u1791 1480                     u2807 0DA4                     u2727 0A8E  
                   u2647 0752                     u2567 043C                     u1960 14B4  
                   u1880 16B0                     u1961 14B2                     u1881 16AE  
                   u2817 0DC6                     u2737 0AD2                     u2657 07FC  
                   u2577 0514                     u1970 14BC                     u1890 16C2  
                   u1971 14BA                     u1891 16C0                     u2907 10AC  
                   u2827 0DEA                     u2747 0BA6                     u2667 0834  
                   u2587 0562                     u1980 14D6                     u1981 14D4  
                   u2917 10E4                     u2837 0E0E                     u2757 0BE0  
                   u2677 08A6                     u2597 05B4                     u1990 14E2  
                   u1991 14E0                     u2927 1106                     u2847 0E30  
                   u2767 0C24                     u2687 093E                     u2937 112A  
                   u2857 0E5A                     u2777 0CF4                     u2697 0978  
                   u2947 114C                     u2867 0F24                     u2787 0D2E  
                   u2957 1184                     u2877 0F5E                     u2797 0D72  
                   u2967 1214                     u2887 102A                     u2977 124E  
                   u2897 1064                     u2987 1292                     u2997 1322  
                   _RCON 000FD0                     _TMR0 000FD6                     _main 00E0  
                   _hold 0023                     _rdfl 0028                     _temp 002A  
                   _tens 002B                     fsr0h 000FEA                     fsr1h 000FE2  
                   fsr0l 000FE9                     fsr2h 000FDA                     fsr1l 000FE1  
                   indf2 000FDF                     fsr2l 000FD9                     _wrfl 002E  
                   pclat 000FFA                     prodh 000FF4                     prodl 000FF3  
                   start 00DC          __end_of_IdleI2C 1A4A          __end_of_OpenI2C 1A2A  
         ??_EERandomRead 0040                    ?_main 002F          __end_of___awdiv 17D8  
                  _EEADR 000FA9          __end_of___awmod 1930                    _CARRY 007EC0  
                  _T0CON 000FD5          ___awdiv@divisor 003F          __end_of___lwdiv 19A0  
                  i2l385 0056                    i2l386 0090                    i2l387 00A0  
        ___awdiv@counter 0042                    _PORTB 000F81                    _PORTC 000F82  
                  _PORTD 000F83                    _PORTE 000F84                    _TRISA 000F92  
                  _TRISB 000F93                    _TRISC 000F94                    _TRISD 000F95  
                  _TRISE 000F96           Read_b_eep@badd 003D                    _addrh 0014  
                  _addrl 0015                    _datai 0020                    _datao 0021  
 Write_b_eep@GIE_BIT_VAL 0041                    _count 001C                    _rxbuf 0029  
                  _units 002D                    _txbuf 002C                    tablat 000FF5  
        __end_of_tmr_int 00DC                    status 000FD8          __initialization 19E6  
           __end_of_main 1496               _Read_b_eep 1A4A                   ??_main 0046  
          __activetblptr 000000                   _ADCON1 000FC1                   _EEDATA 000FA8  
                 _EECON2 000FA7         ___awdiv@dividend 003D         __end_of_WriteI2C 1884  
            OpenI2C@slew 003E                   i2l2641 0042                   i2l2651 0060  
                 i2l2643 004E                   i2l2661 0090                   i2l2653 0076  
                 i2l2645 0050                   i2l2663 0094                   i2l2655 007A  
                 i2l2647 0056                   i2l2665 0096                   i2l2657 007E  
                 i2l2649 005A                   i2l2667 00A0                   i2l2659 008A  
                 _INTCON 000FF2                ??_IdleI2C 003D                   _SSPADD 000FC8  
                 _SSPBUF 000FC9                ??_OpenI2C 003F                ??___awdiv 0041  
              ??___awmod 0041     __size_of_EEByteWrite 00E8                ??___lwdiv 0041  
                 clear_0 19EC         ___awdiv@quotient 0044          ___awmod@divisor 003F  
                 _temp_a 0011                   _values 0001          ___awmod@counter 0042  
                 _progno 0027             __pdataCOMRAM 0049                   tblptrh 000FF7  
                 tblptrl 000FF6                   tblptru 000FF8                ??_tmr_int 002F  
             __accesstop 0080  __end_of__initialization 1A04     __end_of_EERandomRead 1630  
         __pcstackCOMRAM 002F              ?_Read_b_eep 003D                ?_WriteI2C 003D  
          ??_Write_b_eep 0040                  _SSPCON1 000FC6                  _SSPCON2 000FC5  
                _SSPSTAT 000FC7      __size_of_Read_b_eep 0018                  _IdleI2C 1A2A  
                _OpenI2C 1A0A                  __Hparam 0000                  __Lparam 0000  
                ___awdiv 1718                  ___awmod 1884                  ___lwdiv 1930  
                __pcinit 19E6               ??_WriteI2C 003E                  __ramtop 0600  
                __ptext0 00E0                  __ptext1 1A0A                  __ptext2 1630  
                __ptext3 1496                  __ptext4 19A0                  __ptext5 1A4A  
                __ptext6 17D8                  __ptext7 1A2A                  __ptext8 1718  
                __ptext9 1884                  _cutmode 001D         ___awmod@dividend 003D  
    __end_of_Write_b_eep 19E6                  _tmr_int 0008    __size_of_EERandomRead 019A  
   end_of_initialization 1A04                  postinc0 000FEE             _EERandomRead 1496  
        EEByteWrite@data 0040                _TRISCbits 000F94            ??_EEByteWrite 0041  
           ??_Read_b_eep 003F            __pidataCOMRAM 1A62              _Write_b_eep 19A0  
    start_initialization 19E6         WriteI2C@data_out 003D       __end_of_Read_b_eep 1A62  
    __end_of_EEByteWrite 1718        __size_of_WriteI2C 00AC              __pbssCOMRAM 0001  
               ?_IdleI2C 002F                 ?_OpenI2C 003D         ___lwdiv@dividend 003D  
              __pintcode 0008                 ?___awdiv 003D                 ?___awmod 003D  
              _coagpower 001B                 ?___lwdiv 003D                _bipopower 0018  
               ?_tmr_int 002F         ___lwdiv@quotient 0042                _cutpowerh 001E  
              _cutpowerl 001F                 i2u221_40 004E                 i2u221_41 004C  
               i2u222_40 008A                 i2u222_41 0088              _EEByteWrite 1630  
               _PIR1bits 000F9E                 _PIR2bits 000FA1          Write_b_eep@badd 003D  
        Write_b_eep@bdat 003F         OpenI2C@sync_mode 003D         __size_of_IdleI2C 0020  
             _EECON1bits 000FA6                 __Hrparam 0000         __size_of_OpenI2C 0020  
               __Lrparam 0000         __size_of___awdiv 00C0         __size_of___awmod 00AC  
       __size_of___lwdiv 0070                 _WriteI2C 17D8             ?_Write_b_eep 003D  
               _debounce 0022          ___lwdiv@divisor 003F                 _coagmode 001A  
        ___lwdiv@counter 0044                 __ptext10 1930                 _bipomode 0017  
       __size_of_tmr_int 00D4            __size_of_main 13B6                 _cutpower 000F  
               _hundreds 0024               _INTCONbits 000FF2                 intlevel2 0000  
     EEByteWrite@address 003F      EERandomRead@address 003F       EEByteWrite@control 003E  
    EERandomRead@control 003E              _SSPCON1bits 000FC6              _SSPCON2bits 000FC5  
           ?_EEByteWrite 003E  
