opt subtitle "Microchip Technology Omniscient Code Generator (Lite mode) build 59893"

opt pagewidth 120

	opt lm

	processor	16F876A
clrc	macro
	bcf	3,0
	endm
clrz	macro
	bcf	3,2
	endm
setc	macro
	bsf	3,0
	endm
setz	macro
	bsf	3,2
	endm
skipc	macro
	btfss	3,0
	endm
skipz	macro
	btfss	3,2
	endm
skipnc	macro
	btfsc	3,0
	endm
skipnz	macro
	btfsc	3,2
	endm
indf	equ	0
indf0	equ	0
pc	equ	2
pcl	equ	2
status	equ	3
fsr	equ	4
fsr0	equ	4
c	equ	1
z	equ	0
pclath	equ	10
# 49 "C:\Program Files (x86)\Microchip\xc8\v1.33\include\pic16f876a.h"
INDF equ 00h ;# 
# 55 "C:\Program Files (x86)\Microchip\xc8\v1.33\include\pic16f876a.h"
TMR0 equ 01h ;# 
# 61 "C:\Program Files (x86)\Microchip\xc8\v1.33\include\pic16f876a.h"
PCL equ 02h ;# 
# 67 "C:\Program Files (x86)\Microchip\xc8\v1.33\include\pic16f876a.h"
STATUS equ 03h ;# 
# 154 "C:\Program Files (x86)\Microchip\xc8\v1.33\include\pic16f876a.h"
FSR equ 04h ;# 
# 160 "C:\Program Files (x86)\Microchip\xc8\v1.33\include\pic16f876a.h"
PORTA equ 05h ;# 
# 209 "C:\Program Files (x86)\Microchip\xc8\v1.33\include\pic16f876a.h"
PORTB equ 06h ;# 
# 270 "C:\Program Files (x86)\Microchip\xc8\v1.33\include\pic16f876a.h"
PORTC equ 07h ;# 
# 331 "C:\Program Files (x86)\Microchip\xc8\v1.33\include\pic16f876a.h"
PCLATH equ 0Ah ;# 
# 350 "C:\Program Files (x86)\Microchip\xc8\v1.33\include\pic16f876a.h"
INTCON equ 0Bh ;# 
# 427 "C:\Program Files (x86)\Microchip\xc8\v1.33\include\pic16f876a.h"
PIR1 equ 0Ch ;# 
# 482 "C:\Program Files (x86)\Microchip\xc8\v1.33\include\pic16f876a.h"
PIR2 equ 0Dh ;# 
# 521 "C:\Program Files (x86)\Microchip\xc8\v1.33\include\pic16f876a.h"
TMR1 equ 0Eh ;# 
# 527 "C:\Program Files (x86)\Microchip\xc8\v1.33\include\pic16f876a.h"
TMR1L equ 0Eh ;# 
# 533 "C:\Program Files (x86)\Microchip\xc8\v1.33\include\pic16f876a.h"
TMR1H equ 0Fh ;# 
# 539 "C:\Program Files (x86)\Microchip\xc8\v1.33\include\pic16f876a.h"
T1CON equ 010h ;# 
# 613 "C:\Program Files (x86)\Microchip\xc8\v1.33\include\pic16f876a.h"
TMR2 equ 011h ;# 
# 619 "C:\Program Files (x86)\Microchip\xc8\v1.33\include\pic16f876a.h"
T2CON equ 012h ;# 
# 689 "C:\Program Files (x86)\Microchip\xc8\v1.33\include\pic16f876a.h"
SSPBUF equ 013h ;# 
# 695 "C:\Program Files (x86)\Microchip\xc8\v1.33\include\pic16f876a.h"
SSPCON equ 014h ;# 
# 764 "C:\Program Files (x86)\Microchip\xc8\v1.33\include\pic16f876a.h"
CCPR1 equ 015h ;# 
# 770 "C:\Program Files (x86)\Microchip\xc8\v1.33\include\pic16f876a.h"
CCPR1L equ 015h ;# 
# 776 "C:\Program Files (x86)\Microchip\xc8\v1.33\include\pic16f876a.h"
CCPR1H equ 016h ;# 
# 782 "C:\Program Files (x86)\Microchip\xc8\v1.33\include\pic16f876a.h"
CCP1CON equ 017h ;# 
# 839 "C:\Program Files (x86)\Microchip\xc8\v1.33\include\pic16f876a.h"
RCSTA equ 018h ;# 
# 933 "C:\Program Files (x86)\Microchip\xc8\v1.33\include\pic16f876a.h"
TXREG equ 019h ;# 
# 939 "C:\Program Files (x86)\Microchip\xc8\v1.33\include\pic16f876a.h"
RCREG equ 01Ah ;# 
# 945 "C:\Program Files (x86)\Microchip\xc8\v1.33\include\pic16f876a.h"
CCPR2 equ 01Bh ;# 
# 951 "C:\Program Files (x86)\Microchip\xc8\v1.33\include\pic16f876a.h"
CCPR2L equ 01Bh ;# 
# 957 "C:\Program Files (x86)\Microchip\xc8\v1.33\include\pic16f876a.h"
CCPR2H equ 01Ch ;# 
# 963 "C:\Program Files (x86)\Microchip\xc8\v1.33\include\pic16f876a.h"
CCP2CON equ 01Dh ;# 
# 1020 "C:\Program Files (x86)\Microchip\xc8\v1.33\include\pic16f876a.h"
ADRESH equ 01Eh ;# 
# 1026 "C:\Program Files (x86)\Microchip\xc8\v1.33\include\pic16f876a.h"
ADCON0 equ 01Fh ;# 
# 1121 "C:\Program Files (x86)\Microchip\xc8\v1.33\include\pic16f876a.h"
OPTION_REG equ 081h ;# 
# 1190 "C:\Program Files (x86)\Microchip\xc8\v1.33\include\pic16f876a.h"
TRISA equ 085h ;# 
# 1239 "C:\Program Files (x86)\Microchip\xc8\v1.33\include\pic16f876a.h"
TRISB equ 086h ;# 
# 1300 "C:\Program Files (x86)\Microchip\xc8\v1.33\include\pic16f876a.h"
TRISC equ 087h ;# 
# 1361 "C:\Program Files (x86)\Microchip\xc8\v1.33\include\pic16f876a.h"
PIE1 equ 08Ch ;# 
# 1416 "C:\Program Files (x86)\Microchip\xc8\v1.33\include\pic16f876a.h"
PIE2 equ 08Dh ;# 
# 1455 "C:\Program Files (x86)\Microchip\xc8\v1.33\include\pic16f876a.h"
PCON equ 08Eh ;# 
# 1488 "C:\Program Files (x86)\Microchip\xc8\v1.33\include\pic16f876a.h"
SSPCON2 equ 091h ;# 
# 1549 "C:\Program Files (x86)\Microchip\xc8\v1.33\include\pic16f876a.h"
PR2 equ 092h ;# 
# 1555 "C:\Program Files (x86)\Microchip\xc8\v1.33\include\pic16f876a.h"
SSPADD equ 093h ;# 
# 1561 "C:\Program Files (x86)\Microchip\xc8\v1.33\include\pic16f876a.h"
SSPSTAT equ 094h ;# 
# 1729 "C:\Program Files (x86)\Microchip\xc8\v1.33\include\pic16f876a.h"
TXSTA equ 098h ;# 
# 1809 "C:\Program Files (x86)\Microchip\xc8\v1.33\include\pic16f876a.h"
SPBRG equ 099h ;# 
# 1815 "C:\Program Files (x86)\Microchip\xc8\v1.33\include\pic16f876a.h"
CMCON equ 09Ch ;# 
# 1884 "C:\Program Files (x86)\Microchip\xc8\v1.33\include\pic16f876a.h"
CVRCON equ 09Dh ;# 
# 1948 "C:\Program Files (x86)\Microchip\xc8\v1.33\include\pic16f876a.h"
ADRESL equ 09Eh ;# 
# 1954 "C:\Program Files (x86)\Microchip\xc8\v1.33\include\pic16f876a.h"
ADCON1 equ 09Fh ;# 
# 2012 "C:\Program Files (x86)\Microchip\xc8\v1.33\include\pic16f876a.h"
EEDATA equ 010Ch ;# 
# 2018 "C:\Program Files (x86)\Microchip\xc8\v1.33\include\pic16f876a.h"
EEADR equ 010Dh ;# 
# 2024 "C:\Program Files (x86)\Microchip\xc8\v1.33\include\pic16f876a.h"
EEDATH equ 010Eh ;# 
# 2030 "C:\Program Files (x86)\Microchip\xc8\v1.33\include\pic16f876a.h"
EEADRH equ 010Fh ;# 
# 2036 "C:\Program Files (x86)\Microchip\xc8\v1.33\include\pic16f876a.h"
EECON1 equ 018Ch ;# 
# 2080 "C:\Program Files (x86)\Microchip\xc8\v1.33\include\pic16f876a.h"
EECON2 equ 018Dh ;# 
# 49 "C:\Program Files (x86)\Microchip\xc8\v1.33\include\pic16f876a.h"
INDF equ 00h ;# 
# 55 "C:\Program Files (x86)\Microchip\xc8\v1.33\include\pic16f876a.h"
TMR0 equ 01h ;# 
# 61 "C:\Program Files (x86)\Microchip\xc8\v1.33\include\pic16f876a.h"
PCL equ 02h ;# 
# 67 "C:\Program Files (x86)\Microchip\xc8\v1.33\include\pic16f876a.h"
STATUS equ 03h ;# 
# 154 "C:\Program Files (x86)\Microchip\xc8\v1.33\include\pic16f876a.h"
FSR equ 04h ;# 
# 160 "C:\Program Files (x86)\Microchip\xc8\v1.33\include\pic16f876a.h"
PORTA equ 05h ;# 
# 209 "C:\Program Files (x86)\Microchip\xc8\v1.33\include\pic16f876a.h"
PORTB equ 06h ;# 
# 270 "C:\Program Files (x86)\Microchip\xc8\v1.33\include\pic16f876a.h"
PORTC equ 07h ;# 
# 331 "C:\Program Files (x86)\Microchip\xc8\v1.33\include\pic16f876a.h"
PCLATH equ 0Ah ;# 
# 350 "C:\Program Files (x86)\Microchip\xc8\v1.33\include\pic16f876a.h"
INTCON equ 0Bh ;# 
# 427 "C:\Program Files (x86)\Microchip\xc8\v1.33\include\pic16f876a.h"
PIR1 equ 0Ch ;# 
# 482 "C:\Program Files (x86)\Microchip\xc8\v1.33\include\pic16f876a.h"
PIR2 equ 0Dh ;# 
# 521 "C:\Program Files (x86)\Microchip\xc8\v1.33\include\pic16f876a.h"
TMR1 equ 0Eh ;# 
# 527 "C:\Program Files (x86)\Microchip\xc8\v1.33\include\pic16f876a.h"
TMR1L equ 0Eh ;# 
# 533 "C:\Program Files (x86)\Microchip\xc8\v1.33\include\pic16f876a.h"
TMR1H equ 0Fh ;# 
# 539 "C:\Program Files (x86)\Microchip\xc8\v1.33\include\pic16f876a.h"
T1CON equ 010h ;# 
# 613 "C:\Program Files (x86)\Microchip\xc8\v1.33\include\pic16f876a.h"
TMR2 equ 011h ;# 
# 619 "C:\Program Files (x86)\Microchip\xc8\v1.33\include\pic16f876a.h"
T2CON equ 012h ;# 
# 689 "C:\Program Files (x86)\Microchip\xc8\v1.33\include\pic16f876a.h"
SSPBUF equ 013h ;# 
# 695 "C:\Program Files (x86)\Microchip\xc8\v1.33\include\pic16f876a.h"
SSPCON equ 014h ;# 
# 764 "C:\Program Files (x86)\Microchip\xc8\v1.33\include\pic16f876a.h"
CCPR1 equ 015h ;# 
# 770 "C:\Program Files (x86)\Microchip\xc8\v1.33\include\pic16f876a.h"
CCPR1L equ 015h ;# 
# 776 "C:\Program Files (x86)\Microchip\xc8\v1.33\include\pic16f876a.h"
CCPR1H equ 016h ;# 
# 782 "C:\Program Files (x86)\Microchip\xc8\v1.33\include\pic16f876a.h"
CCP1CON equ 017h ;# 
# 839 "C:\Program Files (x86)\Microchip\xc8\v1.33\include\pic16f876a.h"
RCSTA equ 018h ;# 
# 933 "C:\Program Files (x86)\Microchip\xc8\v1.33\include\pic16f876a.h"
TXREG equ 019h ;# 
# 939 "C:\Program Files (x86)\Microchip\xc8\v1.33\include\pic16f876a.h"
RCREG equ 01Ah ;# 
# 945 "C:\Program Files (x86)\Microchip\xc8\v1.33\include\pic16f876a.h"
CCPR2 equ 01Bh ;# 
# 951 "C:\Program Files (x86)\Microchip\xc8\v1.33\include\pic16f876a.h"
CCPR2L equ 01Bh ;# 
# 957 "C:\Program Files (x86)\Microchip\xc8\v1.33\include\pic16f876a.h"
CCPR2H equ 01Ch ;# 
# 963 "C:\Program Files (x86)\Microchip\xc8\v1.33\include\pic16f876a.h"
CCP2CON equ 01Dh ;# 
# 1020 "C:\Program Files (x86)\Microchip\xc8\v1.33\include\pic16f876a.h"
ADRESH equ 01Eh ;# 
# 1026 "C:\Program Files (x86)\Microchip\xc8\v1.33\include\pic16f876a.h"
ADCON0 equ 01Fh ;# 
# 1121 "C:\Program Files (x86)\Microchip\xc8\v1.33\include\pic16f876a.h"
OPTION_REG equ 081h ;# 
# 1190 "C:\Program Files (x86)\Microchip\xc8\v1.33\include\pic16f876a.h"
TRISA equ 085h ;# 
# 1239 "C:\Program Files (x86)\Microchip\xc8\v1.33\include\pic16f876a.h"
TRISB equ 086h ;# 
# 1300 "C:\Program Files (x86)\Microchip\xc8\v1.33\include\pic16f876a.h"
TRISC equ 087h ;# 
# 1361 "C:\Program Files (x86)\Microchip\xc8\v1.33\include\pic16f876a.h"
PIE1 equ 08Ch ;# 
# 1416 "C:\Program Files (x86)\Microchip\xc8\v1.33\include\pic16f876a.h"
PIE2 equ 08Dh ;# 
# 1455 "C:\Program Files (x86)\Microchip\xc8\v1.33\include\pic16f876a.h"
PCON equ 08Eh ;# 
# 1488 "C:\Program Files (x86)\Microchip\xc8\v1.33\include\pic16f876a.h"
SSPCON2 equ 091h ;# 
# 1549 "C:\Program Files (x86)\Microchip\xc8\v1.33\include\pic16f876a.h"
PR2 equ 092h ;# 
# 1555 "C:\Program Files (x86)\Microchip\xc8\v1.33\include\pic16f876a.h"
SSPADD equ 093h ;# 
# 1561 "C:\Program Files (x86)\Microchip\xc8\v1.33\include\pic16f876a.h"
SSPSTAT equ 094h ;# 
# 1729 "C:\Program Files (x86)\Microchip\xc8\v1.33\include\pic16f876a.h"
TXSTA equ 098h ;# 
# 1809 "C:\Program Files (x86)\Microchip\xc8\v1.33\include\pic16f876a.h"
SPBRG equ 099h ;# 
# 1815 "C:\Program Files (x86)\Microchip\xc8\v1.33\include\pic16f876a.h"
CMCON equ 09Ch ;# 
# 1884 "C:\Program Files (x86)\Microchip\xc8\v1.33\include\pic16f876a.h"
CVRCON equ 09Dh ;# 
# 1948 "C:\Program Files (x86)\Microchip\xc8\v1.33\include\pic16f876a.h"
ADRESL equ 09Eh ;# 
# 1954 "C:\Program Files (x86)\Microchip\xc8\v1.33\include\pic16f876a.h"
ADCON1 equ 09Fh ;# 
# 2012 "C:\Program Files (x86)\Microchip\xc8\v1.33\include\pic16f876a.h"
EEDATA equ 010Ch ;# 
# 2018 "C:\Program Files (x86)\Microchip\xc8\v1.33\include\pic16f876a.h"
EEADR equ 010Dh ;# 
# 2024 "C:\Program Files (x86)\Microchip\xc8\v1.33\include\pic16f876a.h"
EEDATH equ 010Eh ;# 
# 2030 "C:\Program Files (x86)\Microchip\xc8\v1.33\include\pic16f876a.h"
EEADRH equ 010Fh ;# 
# 2036 "C:\Program Files (x86)\Microchip\xc8\v1.33\include\pic16f876a.h"
EECON1 equ 018Ch ;# 
# 2080 "C:\Program Files (x86)\Microchip\xc8\v1.33\include\pic16f876a.h"
EECON2 equ 018Dh ;# 
# 49 "C:\Program Files (x86)\Microchip\xc8\v1.33\include\pic16f876a.h"
INDF equ 00h ;# 
# 55 "C:\Program Files (x86)\Microchip\xc8\v1.33\include\pic16f876a.h"
TMR0 equ 01h ;# 
# 61 "C:\Program Files (x86)\Microchip\xc8\v1.33\include\pic16f876a.h"
PCL equ 02h ;# 
# 67 "C:\Program Files (x86)\Microchip\xc8\v1.33\include\pic16f876a.h"
STATUS equ 03h ;# 
# 154 "C:\Program Files (x86)\Microchip\xc8\v1.33\include\pic16f876a.h"
FSR equ 04h ;# 
# 160 "C:\Program Files (x86)\Microchip\xc8\v1.33\include\pic16f876a.h"
PORTA equ 05h ;# 
# 209 "C:\Program Files (x86)\Microchip\xc8\v1.33\include\pic16f876a.h"
PORTB equ 06h ;# 
# 270 "C:\Program Files (x86)\Microchip\xc8\v1.33\include\pic16f876a.h"
PORTC equ 07h ;# 
# 331 "C:\Program Files (x86)\Microchip\xc8\v1.33\include\pic16f876a.h"
PCLATH equ 0Ah ;# 
# 350 "C:\Program Files (x86)\Microchip\xc8\v1.33\include\pic16f876a.h"
INTCON equ 0Bh ;# 
# 427 "C:\Program Files (x86)\Microchip\xc8\v1.33\include\pic16f876a.h"
PIR1 equ 0Ch ;# 
# 482 "C:\Program Files (x86)\Microchip\xc8\v1.33\include\pic16f876a.h"
PIR2 equ 0Dh ;# 
# 521 "C:\Program Files (x86)\Microchip\xc8\v1.33\include\pic16f876a.h"
TMR1 equ 0Eh ;# 
# 527 "C:\Program Files (x86)\Microchip\xc8\v1.33\include\pic16f876a.h"
TMR1L equ 0Eh ;# 
# 533 "C:\Program Files (x86)\Microchip\xc8\v1.33\include\pic16f876a.h"
TMR1H equ 0Fh ;# 
# 539 "C:\Program Files (x86)\Microchip\xc8\v1.33\include\pic16f876a.h"
T1CON equ 010h ;# 
# 613 "C:\Program Files (x86)\Microchip\xc8\v1.33\include\pic16f876a.h"
TMR2 equ 011h ;# 
# 619 "C:\Program Files (x86)\Microchip\xc8\v1.33\include\pic16f876a.h"
T2CON equ 012h ;# 
# 689 "C:\Program Files (x86)\Microchip\xc8\v1.33\include\pic16f876a.h"
SSPBUF equ 013h ;# 
# 695 "C:\Program Files (x86)\Microchip\xc8\v1.33\include\pic16f876a.h"
SSPCON equ 014h ;# 
# 764 "C:\Program Files (x86)\Microchip\xc8\v1.33\include\pic16f876a.h"
CCPR1 equ 015h ;# 
# 770 "C:\Program Files (x86)\Microchip\xc8\v1.33\include\pic16f876a.h"
CCPR1L equ 015h ;# 
# 776 "C:\Program Files (x86)\Microchip\xc8\v1.33\include\pic16f876a.h"
CCPR1H equ 016h ;# 
# 782 "C:\Program Files (x86)\Microchip\xc8\v1.33\include\pic16f876a.h"
CCP1CON equ 017h ;# 
# 839 "C:\Program Files (x86)\Microchip\xc8\v1.33\include\pic16f876a.h"
RCSTA equ 018h ;# 
# 933 "C:\Program Files (x86)\Microchip\xc8\v1.33\include\pic16f876a.h"
TXREG equ 019h ;# 
# 939 "C:\Program Files (x86)\Microchip\xc8\v1.33\include\pic16f876a.h"
RCREG equ 01Ah ;# 
# 945 "C:\Program Files (x86)\Microchip\xc8\v1.33\include\pic16f876a.h"
CCPR2 equ 01Bh ;# 
# 951 "C:\Program Files (x86)\Microchip\xc8\v1.33\include\pic16f876a.h"
CCPR2L equ 01Bh ;# 
# 957 "C:\Program Files (x86)\Microchip\xc8\v1.33\include\pic16f876a.h"
CCPR2H equ 01Ch ;# 
# 963 "C:\Program Files (x86)\Microchip\xc8\v1.33\include\pic16f876a.h"
CCP2CON equ 01Dh ;# 
# 1020 "C:\Program Files (x86)\Microchip\xc8\v1.33\include\pic16f876a.h"
ADRESH equ 01Eh ;# 
# 1026 "C:\Program Files (x86)\Microchip\xc8\v1.33\include\pic16f876a.h"
ADCON0 equ 01Fh ;# 
# 1121 "C:\Program Files (x86)\Microchip\xc8\v1.33\include\pic16f876a.h"
OPTION_REG equ 081h ;# 
# 1190 "C:\Program Files (x86)\Microchip\xc8\v1.33\include\pic16f876a.h"
TRISA equ 085h ;# 
# 1239 "C:\Program Files (x86)\Microchip\xc8\v1.33\include\pic16f876a.h"
TRISB equ 086h ;# 
# 1300 "C:\Program Files (x86)\Microchip\xc8\v1.33\include\pic16f876a.h"
TRISC equ 087h ;# 
# 1361 "C:\Program Files (x86)\Microchip\xc8\v1.33\include\pic16f876a.h"
PIE1 equ 08Ch ;# 
# 1416 "C:\Program Files (x86)\Microchip\xc8\v1.33\include\pic16f876a.h"
PIE2 equ 08Dh ;# 
# 1455 "C:\Program Files (x86)\Microchip\xc8\v1.33\include\pic16f876a.h"
PCON equ 08Eh ;# 
# 1488 "C:\Program Files (x86)\Microchip\xc8\v1.33\include\pic16f876a.h"
SSPCON2 equ 091h ;# 
# 1549 "C:\Program Files (x86)\Microchip\xc8\v1.33\include\pic16f876a.h"
PR2 equ 092h ;# 
# 1555 "C:\Program Files (x86)\Microchip\xc8\v1.33\include\pic16f876a.h"
SSPADD equ 093h ;# 
# 1561 "C:\Program Files (x86)\Microchip\xc8\v1.33\include\pic16f876a.h"
SSPSTAT equ 094h ;# 
# 1729 "C:\Program Files (x86)\Microchip\xc8\v1.33\include\pic16f876a.h"
TXSTA equ 098h ;# 
# 1809 "C:\Program Files (x86)\Microchip\xc8\v1.33\include\pic16f876a.h"
SPBRG equ 099h ;# 
# 1815 "C:\Program Files (x86)\Microchip\xc8\v1.33\include\pic16f876a.h"
CMCON equ 09Ch ;# 
# 1884 "C:\Program Files (x86)\Microchip\xc8\v1.33\include\pic16f876a.h"
CVRCON equ 09Dh ;# 
# 1948 "C:\Program Files (x86)\Microchip\xc8\v1.33\include\pic16f876a.h"
ADRESL equ 09Eh ;# 
# 1954 "C:\Program Files (x86)\Microchip\xc8\v1.33\include\pic16f876a.h"
ADCON1 equ 09Fh ;# 
# 2012 "C:\Program Files (x86)\Microchip\xc8\v1.33\include\pic16f876a.h"
EEDATA equ 010Ch ;# 
# 2018 "C:\Program Files (x86)\Microchip\xc8\v1.33\include\pic16f876a.h"
EEADR equ 010Dh ;# 
# 2024 "C:\Program Files (x86)\Microchip\xc8\v1.33\include\pic16f876a.h"
EEDATH equ 010Eh ;# 
# 2030 "C:\Program Files (x86)\Microchip\xc8\v1.33\include\pic16f876a.h"
EEADRH equ 010Fh ;# 
# 2036 "C:\Program Files (x86)\Microchip\xc8\v1.33\include\pic16f876a.h"
EECON1 equ 018Ch ;# 
# 2080 "C:\Program Files (x86)\Microchip\xc8\v1.33\include\pic16f876a.h"
EECON2 equ 018Dh ;# 
# 49 "C:\Program Files (x86)\Microchip\xc8\v1.33\include\pic16f876a.h"
INDF equ 00h ;# 
# 55 "C:\Program Files (x86)\Microchip\xc8\v1.33\include\pic16f876a.h"
TMR0 equ 01h ;# 
# 61 "C:\Program Files (x86)\Microchip\xc8\v1.33\include\pic16f876a.h"
PCL equ 02h ;# 
# 67 "C:\Program Files (x86)\Microchip\xc8\v1.33\include\pic16f876a.h"
STATUS equ 03h ;# 
# 154 "C:\Program Files (x86)\Microchip\xc8\v1.33\include\pic16f876a.h"
FSR equ 04h ;# 
# 160 "C:\Program Files (x86)\Microchip\xc8\v1.33\include\pic16f876a.h"
PORTA equ 05h ;# 
# 209 "C:\Program Files (x86)\Microchip\xc8\v1.33\include\pic16f876a.h"
PORTB equ 06h ;# 
# 270 "C:\Program Files (x86)\Microchip\xc8\v1.33\include\pic16f876a.h"
PORTC equ 07h ;# 
# 331 "C:\Program Files (x86)\Microchip\xc8\v1.33\include\pic16f876a.h"
PCLATH equ 0Ah ;# 
# 350 "C:\Program Files (x86)\Microchip\xc8\v1.33\include\pic16f876a.h"
INTCON equ 0Bh ;# 
# 427 "C:\Program Files (x86)\Microchip\xc8\v1.33\include\pic16f876a.h"
PIR1 equ 0Ch ;# 
# 482 "C:\Program Files (x86)\Microchip\xc8\v1.33\include\pic16f876a.h"
PIR2 equ 0Dh ;# 
# 521 "C:\Program Files (x86)\Microchip\xc8\v1.33\include\pic16f876a.h"
TMR1 equ 0Eh ;# 
# 527 "C:\Program Files (x86)\Microchip\xc8\v1.33\include\pic16f876a.h"
TMR1L equ 0Eh ;# 
# 533 "C:\Program Files (x86)\Microchip\xc8\v1.33\include\pic16f876a.h"
TMR1H equ 0Fh ;# 
# 539 "C:\Program Files (x86)\Microchip\xc8\v1.33\include\pic16f876a.h"
T1CON equ 010h ;# 
# 613 "C:\Program Files (x86)\Microchip\xc8\v1.33\include\pic16f876a.h"
TMR2 equ 011h ;# 
# 619 "C:\Program Files (x86)\Microchip\xc8\v1.33\include\pic16f876a.h"
T2CON equ 012h ;# 
# 689 "C:\Program Files (x86)\Microchip\xc8\v1.33\include\pic16f876a.h"
SSPBUF equ 013h ;# 
# 695 "C:\Program Files (x86)\Microchip\xc8\v1.33\include\pic16f876a.h"
SSPCON equ 014h ;# 
# 764 "C:\Program Files (x86)\Microchip\xc8\v1.33\include\pic16f876a.h"
CCPR1 equ 015h ;# 
# 770 "C:\Program Files (x86)\Microchip\xc8\v1.33\include\pic16f876a.h"
CCPR1L equ 015h ;# 
# 776 "C:\Program Files (x86)\Microchip\xc8\v1.33\include\pic16f876a.h"
CCPR1H equ 016h ;# 
# 782 "C:\Program Files (x86)\Microchip\xc8\v1.33\include\pic16f876a.h"
CCP1CON equ 017h ;# 
# 839 "C:\Program Files (x86)\Microchip\xc8\v1.33\include\pic16f876a.h"
RCSTA equ 018h ;# 
# 933 "C:\Program Files (x86)\Microchip\xc8\v1.33\include\pic16f876a.h"
TXREG equ 019h ;# 
# 939 "C:\Program Files (x86)\Microchip\xc8\v1.33\include\pic16f876a.h"
RCREG equ 01Ah ;# 
# 945 "C:\Program Files (x86)\Microchip\xc8\v1.33\include\pic16f876a.h"
CCPR2 equ 01Bh ;# 
# 951 "C:\Program Files (x86)\Microchip\xc8\v1.33\include\pic16f876a.h"
CCPR2L equ 01Bh ;# 
# 957 "C:\Program Files (x86)\Microchip\xc8\v1.33\include\pic16f876a.h"
CCPR2H equ 01Ch ;# 
# 963 "C:\Program Files (x86)\Microchip\xc8\v1.33\include\pic16f876a.h"
CCP2CON equ 01Dh ;# 
# 1020 "C:\Program Files (x86)\Microchip\xc8\v1.33\include\pic16f876a.h"
ADRESH equ 01Eh ;# 
# 1026 "C:\Program Files (x86)\Microchip\xc8\v1.33\include\pic16f876a.h"
ADCON0 equ 01Fh ;# 
# 1121 "C:\Program Files (x86)\Microchip\xc8\v1.33\include\pic16f876a.h"
OPTION_REG equ 081h ;# 
# 1190 "C:\Program Files (x86)\Microchip\xc8\v1.33\include\pic16f876a.h"
TRISA equ 085h ;# 
# 1239 "C:\Program Files (x86)\Microchip\xc8\v1.33\include\pic16f876a.h"
TRISB equ 086h ;# 
# 1300 "C:\Program Files (x86)\Microchip\xc8\v1.33\include\pic16f876a.h"
TRISC equ 087h ;# 
# 1361 "C:\Program Files (x86)\Microchip\xc8\v1.33\include\pic16f876a.h"
PIE1 equ 08Ch ;# 
# 1416 "C:\Program Files (x86)\Microchip\xc8\v1.33\include\pic16f876a.h"
PIE2 equ 08Dh ;# 
# 1455 "C:\Program Files (x86)\Microchip\xc8\v1.33\include\pic16f876a.h"
PCON equ 08Eh ;# 
# 1488 "C:\Program Files (x86)\Microchip\xc8\v1.33\include\pic16f876a.h"
SSPCON2 equ 091h ;# 
# 1549 "C:\Program Files (x86)\Microchip\xc8\v1.33\include\pic16f876a.h"
PR2 equ 092h ;# 
# 1555 "C:\Program Files (x86)\Microchip\xc8\v1.33\include\pic16f876a.h"
SSPADD equ 093h ;# 
# 1561 "C:\Program Files (x86)\Microchip\xc8\v1.33\include\pic16f876a.h"
SSPSTAT equ 094h ;# 
# 1729 "C:\Program Files (x86)\Microchip\xc8\v1.33\include\pic16f876a.h"
TXSTA equ 098h ;# 
# 1809 "C:\Program Files (x86)\Microchip\xc8\v1.33\include\pic16f876a.h"
SPBRG equ 099h ;# 
# 1815 "C:\Program Files (x86)\Microchip\xc8\v1.33\include\pic16f876a.h"
CMCON equ 09Ch ;# 
# 1884 "C:\Program Files (x86)\Microchip\xc8\v1.33\include\pic16f876a.h"
CVRCON equ 09Dh ;# 
# 1948 "C:\Program Files (x86)\Microchip\xc8\v1.33\include\pic16f876a.h"
ADRESL equ 09Eh ;# 
# 1954 "C:\Program Files (x86)\Microchip\xc8\v1.33\include\pic16f876a.h"
ADCON1 equ 09Fh ;# 
# 2012 "C:\Program Files (x86)\Microchip\xc8\v1.33\include\pic16f876a.h"
EEDATA equ 010Ch ;# 
# 2018 "C:\Program Files (x86)\Microchip\xc8\v1.33\include\pic16f876a.h"
EEADR equ 010Dh ;# 
# 2024 "C:\Program Files (x86)\Microchip\xc8\v1.33\include\pic16f876a.h"
EEDATH equ 010Eh ;# 
# 2030 "C:\Program Files (x86)\Microchip\xc8\v1.33\include\pic16f876a.h"
EEADRH equ 010Fh ;# 
# 2036 "C:\Program Files (x86)\Microchip\xc8\v1.33\include\pic16f876a.h"
EECON1 equ 018Ch ;# 
# 2080 "C:\Program Files (x86)\Microchip\xc8\v1.33\include\pic16f876a.h"
EECON2 equ 018Dh ;# 
	FNCALL	_main,_SIM300Cmd
	FNCALL	_main,_SIM300Init
	FNCALL	_main,_SIM300SendMsg
	FNCALL	_main,_SIM300WaitForValidCall
	FNCALL	_main,_SMSCommunication
	FNCALL	_main,_USARTFlushBuffer
	FNCALL	_main,_eeprom_read
	FNCALL	_main,_eeprom_write
	FNCALL	_main,_phase_check
	FNCALL	_main,_start
	FNCALL	_main,_stop
	FNCALL	_SMSCommunication,_SIM300SendMsg
	FNCALL	_SMSCommunication,_SIM300WaitForValidMsg
	FNCALL	_SMSCommunication,_USARTFlushBuffer
	FNCALL	_SMSCommunication,_eeprom_read
	FNCALL	_SMSCommunication,_phase_check
	FNCALL	_SMSCommunication,_strcat
	FNCALL	_SMSCommunication,_strcpy
	FNCALL	_SMSCommunication,_strlen
	FNCALL	_SIM300WaitForValidMsg,_SIM300DeleteMsg
	FNCALL	_SIM300WaitForValidMsg,_SIM300ReadValidMsg
	FNCALL	_SIM300WaitForValidMsg,_USARTFlushBuffer
	FNCALL	_SIM300WaitForValidMsg,_strnicmp
	FNCALL	_SIM300ReadValidMsg,_SIM300Cmd
	FNCALL	_SIM300ReadValidMsg,_SIM300WaitForResponse
	FNCALL	_SIM300ReadValidMsg,_USARTFlushBuffer
	FNCALL	_SIM300ReadValidMsg,_sprintf
	FNCALL	_SIM300ReadValidMsg,_strichr
	FNCALL	_SIM300ReadValidMsg,_strrichr
	FNCALL	_SIM300ReadValidMsg,_strstr
	FNCALL	_strstr,_strchr
	FNCALL	_strstr,_strlen
	FNCALL	_strstr,_strncmp
	FNCALL	_SIM300SendMsg,_SIM300Cmd
	FNCALL	_SIM300SendMsg,_SIM300DeleteMsg
	FNCALL	_SIM300SendMsg,_SIM300WaitForResponse
	FNCALL	_SIM300SendMsg,_USARTDataAvailable
	FNCALL	_SIM300SendMsg,_USARTFlushBuffer
	FNCALL	_SIM300SendMsg,_USARTReadBuffer
	FNCALL	_SIM300SendMsg,_USARTWriteChar
	FNCALL	_SIM300SendMsg,_USARTWriteString
	FNCALL	_SIM300SendMsg,_atoi
	FNCALL	_SIM300SendMsg,_sprintf
	FNCALL	_SIM300SendMsg,_strlen
	FNCALL	_SIM300SendMsg,_strnicmp
	FNCALL	_atoi,___wmul
	FNCALL	_atoi,_isdigit
	FNCALL	_SIM300DeleteMsg,_SIM300Cmd
	FNCALL	_SIM300DeleteMsg,_SIM300WaitForResponse
	FNCALL	_SIM300DeleteMsg,_USARTFlushBuffer
	FNCALL	_SIM300DeleteMsg,_sprintf
	FNCALL	_SIM300DeleteMsg,_strnicmp
	FNCALL	_sprintf,___lwdiv
	FNCALL	_sprintf,___lwmod
	FNCALL	_SIM300WaitForResponse,_USARTDataAvailable
	FNCALL	_SIM300WaitForResponse,_USARTFlushBuffer
	FNCALL	_SIM300WaitForResponse,_USARTReadData
	FNCALL	_SIM300WaitForValidCall,_SIM300RingResponse
	FNCALL	_SIM300WaitForValidCall,_USARTFlushBuffer
	FNCALL	_SIM300WaitForValidCall,_strichr
	FNCALL	_SIM300WaitForValidCall,_strnicmp
	FNCALL	_SIM300WaitForValidCall,_strrichr
	FNCALL	_strrichr,_toupper
	FNCALL	_strnicmp,_toupper
	FNCALL	_strichr,_toupper
	FNCALL	_SIM300RingResponse,_USARTDataAvailable
	FNCALL	_SIM300RingResponse,_USARTFlushBuffer
	FNCALL	_SIM300RingResponse,_USARTReadData
	FNCALL	_USARTFlushBuffer,_USARTDataAvailable
	FNCALL	_USARTFlushBuffer,_USARTReadData
	FNCALL	_SIM300Init,_SIM300CheckResponse
	FNCALL	_SIM300Init,_SIM300Cmd
	FNCALL	_SIM300Init,_USARTDataAvailable
	FNCALL	_SIM300Init,_USARTInit
	FNCALL	_SIM300Init,_USARTReadBuffer
	FNCALL	_SIM300Cmd,_USARTDataAvailable
	FNCALL	_SIM300Cmd,_USARTReadBuffer
	FNCALL	_SIM300Cmd,_USARTWriteChar
	FNCALL	_SIM300Cmd,_USARTWriteString
	FNCALL	_SIM300Cmd,___wmul
	FNCALL	_SIM300Cmd,_strlen
	FNCALL	_USARTWriteString,_USARTWriteChar
	FNCALL	_USARTReadBuffer,_USARTReadData
	FNROOT	_main
	FNCALL	_ISR,_USARTHandleRxInt
	FNCALL	intlevel1,_ISR
	global	intlevel1
	FNROOT	intlevel1
	global	_REQUIRED_RING_COUNT
	global	_phone_number
psect	idataBANK1,class=CODE,space=0,delta=2,noexec
global __pidataBANK1
__pidataBANK1:
	file	"E:\Study Material\XC8 PROJECTS\Modem Advance\MobileAdv.c"
	line	27

;initializer for _REQUIRED_RING_COUNT
	retlw	01h
	line	29

;initializer for _phone_number
	retlw	041h
	retlw	054h
	retlw	044h
	retlw	0
	retlw	0
	retlw	0
	retlw	0
	retlw	0
	retlw	0
	retlw	0
	retlw	0
	retlw	0
	retlw	0
	retlw	0
	retlw	0
	retlw	0
	retlw	0
	retlw	0
	retlw	0
	retlw	0
	retlw	0
	retlw	0
	retlw	0
	retlw	0
	retlw	0
	retlw	0
	retlw	0
	retlw	0
	retlw	0
	retlw	0
	retlw	0
	retlw	0
	retlw	0
	retlw	0
	retlw	0
	retlw	0
	retlw	0
	retlw	0
	retlw	0
	retlw	0
	global	_dpowers
psect	strings,class=STRING,delta=2,noexec
global __pstrings
__pstrings:
stringtab:
	global    __stringtab
__stringtab:
;	String table - string pointers are 1 byte each
	btfsc	(btemp+1),7
	ljmp	stringcode
	bcf	status,7
	btfsc	(btemp+1),0
	bsf	status,7
	movf	indf,w
	incf fsr
skipnz
incf btemp+1
	return
stringcode:stringdir:
movlw high(stringdir)
movwf pclath
movf fsr,w
incf fsr
	addwf pc
	global __stringbase
__stringbase:
	retlw	0
psect	strings
	global    __end_of__stringtab
__end_of__stringtab:
	file	"C:\Program Files (x86)\Microchip\xc8\v1.33\sources\common\doprnt.c"
	line	354
_dpowers:
	retlw	01h
	retlw	0

	retlw	0Ah
	retlw	0

	retlw	064h
	retlw	0

	retlw	0E8h
	retlw	03h

	retlw	010h
	retlw	027h

	global __end_of_dpowers
__end_of_dpowers:
	global	_dpowers
	global	_UQEnd
	global	_UQFront
	global	_LP_FLAG
	global	_MOTOR_FLAG
	global	USARTWriteInt@F1040
	global	_Dry_Run_Timer
	global	_RING_COUNT
	global	_Timer
	global	_WRONG_NUMBER
	global	_count
	global	_URBuff
	global	_sim300_buffer
	global	_MSG_number
	global	_PIR1bits
_PIR1bits	set	0xC
	global	_RCREG
_RCREG	set	0x1A
	global	_RCSTAbits
_RCSTAbits	set	0x18
	global	_TXREG
_TXREG	set	0x19
	global	_CARRY
_CARRY	set	0x18
	global	_GIE
_GIE	set	0x5F
	global	_PEIE
_PEIE	set	0x5E
	global	_RA5
_RA5	set	0x2D
	global	_RB1
_RB1	set	0x31
	global	_RB7
_RB7	set	0x37
	global	_RC0
_RC0	set	0x38
	global	_RC1
_RC1	set	0x39
	global	_RC2
_RC2	set	0x3A
	global	_RC3
_RC3	set	0x3B
	global	_RC4
_RC4	set	0x3C
	global	_RC5
_RC5	set	0x3D
	global	_RCIF
_RCIF	set	0x65
	global	_ADCON1
_ADCON1	set	0x9F
	global	_SPBRG
_SPBRG	set	0x99
	global	_TRISA
_TRISA	set	0x85
	global	_TRISB
_TRISB	set	0x86
	global	_TRISC
_TRISC	set	0x87
	global	_TXSTAbits
_TXSTAbits	set	0x98
	global	_RCIE
_RCIE	set	0x465
	global	_EEADR
_EEADR	set	0x10D
	global	_EEDATA
_EEDATA	set	0x10C
	global	_EECON1
_EECON1	set	0x18C
	global	_EECON2
_EECON2	set	0x18D
	global	_RD
_RD	set	0xC60
	global	_WR
_WR	set	0xC61
	global	_WREN
_WREN	set	0xC62
	global __stringdata
__stringdata:
	
STR_18:	
	retlw	80	;'P'
	retlw	79	;'O'
	retlw	87	;'W'
	retlw	69	;'E'
	retlw	82	;'R'
	retlw	32	;' '
	retlw	70	;'F'
	retlw	65	;'A'
	retlw	73	;'I'
	retlw	76	;'L'
	retlw	32	;' '
	retlw	79	;'O'
	retlw	78	;'N'
	retlw	32	;' '
	retlw	80	;'P'
	retlw	72	;'H'
	retlw	65	;'A'
	retlw	83	;'S'
	retlw	69	;'E'
	retlw	32	;' '
	retlw	0
psect	strings
	
STR_7:	
	retlw	83	;'S'
	retlw	84	;'T'
	retlw	65	;'A'
	retlw	82	;'R'
	retlw	84	;'T'
	retlw	69	;'E'
	retlw	82	;'R'
	retlw	32	;' '
	retlw	80	;'P'
	retlw	82	;'R'
	retlw	79	;'O'
	retlw	66	;'B'
	retlw	76	;'L'
	retlw	69	;'E'
	retlw	77	;'M'
	retlw	46	;'.'
	retlw	46	;'.'
	retlw	46	;'.'
	retlw	33	;'!'
	retlw	0
psect	strings
	
STR_29:	
	retlw	73	;'I'
	retlw	110	;'n'
	retlw	118	;'v'
	retlw	97	;'a'
	retlw	108	;'l'
	retlw	105	;'i'
	retlw	100	;'d'
	retlw	32	;' '
	retlw	75	;'K'
	retlw	101	;'e'
	retlw	121	;'y'
	retlw	119	;'w'
	retlw	111	;'o'
	retlw	114	;'r'
	retlw	100	;'d'
	retlw	0
psect	strings
	
STR_24:	
	retlw	77	;'M'
	retlw	79	;'O'
	retlw	84	;'T'
	retlw	79	;'O'
	retlw	82	;'R'
	retlw	32	;' '
	retlw	79	;'O'
	retlw	70	;'F'
	retlw	70	;'F'
	retlw	32	;' '
	retlw	66	;'B'
	retlw	89	;'Y'
	retlw	58	;':'
	retlw	32	;' '
	retlw	0
psect	strings
	
STR_13:	
	retlw	77	;'M'
	retlw	79	;'O'
	retlw	84	;'T'
	retlw	79	;'O'
	retlw	82	;'R'
	retlw	32	;' '
	retlw	79	;'O'
	retlw	78	;'N'
	retlw	32	;' '
	retlw	66	;'B'
	retlw	89	;'Y'
	retlw	58	;':'
	retlw	32	;' '
	retlw	0
psect	strings
	
STR_26:	
	retlw	10
	retlw	80	;'P'
	retlw	79	;'O'
	retlw	87	;'W'
	retlw	69	;'E'
	retlw	82	;'R'
	retlw	32	;' '
	retlw	70	;'F'
	retlw	65	;'A'
	retlw	73	;'I'
	retlw	76	;'L'
	retlw	33	;'!'
	retlw	0
psect	strings
	
STR_37:	
	retlw	65	;'A'
	retlw	84	;'T'
	retlw	43	;'+'
	retlw	67	;'C'
	retlw	77	;'M'
	retlw	71	;'G'
	retlw	83	;'S'
	retlw	61	;'='
	retlw	32	;' '
	retlw	37	;'%'
	retlw	115	;'s'
	retlw	0
psect	strings
	
STR_32:	
	retlw	65	;'A'
	retlw	84	;'T'
	retlw	43	;'+'
	retlw	67	;'C'
	retlw	77	;'M'
	retlw	71	;'G'
	retlw	68	;'D'
	retlw	61	;'='
	retlw	37	;'%'
	retlw	100	;'d'
	retlw	0
psect	strings
	
STR_35:	
	retlw	65	;'A'
	retlw	84	;'T'
	retlw	43	;'+'
	retlw	67	;'C'
	retlw	77	;'M'
	retlw	71	;'G'
	retlw	82	;'R'
	retlw	61	;'='
	retlw	37	;'%'
	retlw	100	;'d'
	retlw	0
psect	strings
	
STR_14:	
	retlw	10
	retlw	80	;'P'
	retlw	79	;'O'
	retlw	87	;'W'
	retlw	69	;'E'
	retlw	82	;'R'
	retlw	32	;' '
	retlw	79	;'O'
	retlw	75	;'K'
	retlw	33	;'!'
	retlw	0
psect	strings
	
STR_3:	
	retlw	65	;'A'
	retlw	84	;'T'
	retlw	43	;'+'
	retlw	67	;'C'
	retlw	77	;'M'
	retlw	71	;'G'
	retlw	68	;'D'
	retlw	61	;'='
	retlw	49	;'1'
	retlw	0
psect	strings
	
STR_2:	
	retlw	65	;'A'
	retlw	84	;'T'
	retlw	43	;'+'
	retlw	67	;'C'
	retlw	77	;'M'
	retlw	71	;'G'
	retlw	70	;'F'
	retlw	61	;'='
	retlw	49	;'1'
	retlw	0
psect	strings
	
STR_1:	
	retlw	65	;'A'
	retlw	84	;'T'
	retlw	43	;'+'
	retlw	67	;'C'
	retlw	76	;'L'
	retlw	73	;'I'
	retlw	80	;'P'
	retlw	61	;'='
	retlw	49	;'1'
	retlw	0
psect	strings
	
STR_22:	
	retlw	68	;'D'
	retlw	82	;'R'
	retlw	89	;'Y'
	retlw	32	;' '
	retlw	82	;'R'
	retlw	85	;'U'
	retlw	78	;'N'
	retlw	46	;'.'
	retlw	0
psect	strings
	
STR_39:	
	retlw	40	;'('
	retlw	110	;'n'
	retlw	117	;'u'
	retlw	108	;'l'
	retlw	108	;'l'
	retlw	41	;')'
	retlw	0
psect	strings
	
STR_34:	
	retlw	43	;'+'
	retlw	67	;'C'
	retlw	77	;'M'
	retlw	84	;'T'
	retlw	73	;'I'
	retlw	58	;':'
	retlw	0
psect	strings
	
STR_11:	
	retlw	43	;'+'
	retlw	67	;'C'
	retlw	76	;'L'
	retlw	73	;'I'
	retlw	80	;'P'
	retlw	58	;':'
	retlw	0
psect	strings
	
STR_38:	
	retlw	67	;'C'
	retlw	77	;'M'
	retlw	71	;'G'
	retlw	83	;'S'
	retlw	58	;':'
	retlw	0
psect	strings
	
STR_36:	
	retlw	69	;'E'
	retlw	71	;'G'
	retlw	76	;'L'
	retlw	0
psect	strings
	
STR_16:	
	retlw	65	;'A'
	retlw	84	;'T'
	retlw	68	;'D'
	retlw	0
psect	strings
	
STR_4:	
	retlw	65	;'A'
	retlw	84	;'T'
	retlw	72	;'H'
	retlw	0
psect	strings
	
STR_31:	
	retlw	79	;'O'
	retlw	75	;'K'
	retlw	0
psect	strings
	
STR_30:	
	retlw	65	;'A'
	retlw	84	;'T'
	retlw	0
psect	strings
STR_33	equ	STR_31+0
STR_5	equ	STR_4+0
STR_6	equ	STR_4+0
STR_8	equ	STR_4+0
STR_9	equ	STR_4+0
STR_10	equ	STR_4+0
STR_20	equ	STR_16+0
STR_28	equ	STR_16+0
STR_25	equ	STR_14+0
STR_12	equ	STR_24+14
STR_15	equ	STR_24+14
STR_17	equ	STR_24+14
STR_19	equ	STR_24+14
STR_21	equ	STR_24+14
STR_23	equ	STR_24+14
STR_27	equ	STR_24+14
	global __end_of__stringdata
__end_of__stringdata:
; #config settings
	file	"ModemAdv.as"
	line	#
psect cinit,class=CODE,delta=2
global start_initialization
start_initialization:

global __initialization
__initialization:
psect	bssCOMMON,class=COMMON,space=1,noexec
global __pbssCOMMON
__pbssCOMMON:
_UQEnd:
       ds      1

_UQFront:
       ds      1

psect	bssBANK0,class=BANK0,space=1,noexec
global __pbssBANK0
__pbssBANK0:
_LP_FLAG:
       ds      1

_MOTOR_FLAG:
       ds      1

psect	bssBANK1,class=BANK1,space=1,noexec
global __pbssBANK1
__pbssBANK1:
USARTWriteInt@F1040:
       ds      5

_Dry_Run_Timer:
       ds      1

_RING_COUNT:
       ds      1

_Timer:
       ds      1

_WRONG_NUMBER:
       ds      1

_count:
       ds      1

psect	dataBANK1,class=BANK1,space=1,noexec
global __pdataBANK1
__pdataBANK1:
	file	"E:\Study Material\XC8 PROJECTS\Modem Advance\MobileAdv.c"
	line	27
_REQUIRED_RING_COUNT:
       ds      1

psect	dataBANK1
	file	"E:\Study Material\XC8 PROJECTS\Modem Advance\MobileAdv.c"
	line	29
_phone_number:
       ds      40

psect	bssBANK3,class=BANK3,space=1,noexec
global __pbssBANK3
__pbssBANK3:
_sim300_buffer:
       ds      70

_MSG_number:
       ds      15

psect	bssBANK2,class=BANK2,space=1,noexec
global __pbssBANK2
__pbssBANK2:
_URBuff:
       ds      64

	file	"ModemAdv.as"
	line	#
psect clrtext,class=CODE,delta=2
global clear_ram0
;	Called with FSR containing the base address, and
;	W with the last address+1
clear_ram0:
	clrwdt			;clear the watchdog before getting into this loop
clrloop0:
	clrf	indf		;clear RAM location pointed to by FSR
	incf	fsr,f		;increment pointer
	xorwf	fsr,w		;XOR with final address
	btfsc	status,2	;have we reached the end yet?
	retlw	0		;all done for this memory range, return
	xorwf	fsr,w		;XOR again to restore value
	goto	clrloop0		;do the next byte

; Clear objects allocated to COMMON
psect cinit,class=CODE,delta=2,merge=1
	clrf	((__pbssCOMMON)+0)&07Fh
	clrf	((__pbssCOMMON)+1)&07Fh
; Clear objects allocated to BANK0
psect cinit,class=CODE,delta=2,merge=1
	clrf	((__pbssBANK0)+0)&07Fh
	clrf	((__pbssBANK0)+1)&07Fh
; Clear objects allocated to BANK1
psect cinit,class=CODE,delta=2,merge=1
	bcf	status, 7	;select IRP bank0
	movlw	low(__pbssBANK1)
	movwf	fsr
	movlw	low((__pbssBANK1)+0Ah)
	fcall	clear_ram0
; Clear objects allocated to BANK3
psect cinit,class=CODE,delta=2,merge=1
	bsf	status, 7	;select IRP bank2
	movlw	low(__pbssBANK3)
	movwf	fsr
	movlw	low((__pbssBANK3)+055h)
	fcall	clear_ram0
; Clear objects allocated to BANK2
psect cinit,class=CODE,delta=2,merge=1
	movlw	low(__pbssBANK2)
	movwf	fsr
	movlw	low((__pbssBANK2)+040h)
	fcall	clear_ram0
	line	#
global btemp
psect inittext,class=CODE,delta=2
global init_fetch0,btemp
;	Called with low address in FSR and high address in W
init_fetch0:
	movf btemp,w
	movwf pclath
	movf btemp+1,w
	movwf pc
global init_ram0
;Called with:
;	high address of idata address in btemp 
;	low address of idata address in btemp+1 
;	low address of data in FSR
;	high address + 1 of data in btemp-1
init_ram0:
	fcall init_fetch0
	movwf indf,f
	incf fsr,f
	movf fsr,w
	xorwf btemp-1,w
	btfsc status,2
	retlw 0
	incf btemp+1,f
	btfsc status,2
	incf btemp,f
	goto init_ram0
; Initialize objects allocated to BANK1
psect cinit,class=CODE,delta=2,merge=1
global init_ram0, __pidataBANK1
	bcf	status, 7	;select IRP bank0
	movlw low(__pdataBANK1+41)
	movwf btemp-1,f
	movlw high(__pidataBANK1)
	movwf btemp,f
	movlw low(__pidataBANK1)
	movwf btemp+1,f
	movlw low(__pdataBANK1)
	movwf fsr,f
	fcall init_ram0
psect cinit,class=CODE,delta=2,merge=1
global end_of_initialization,__end_of__initialization

;End of C runtime variable initialization code

end_of_initialization:
__end_of__initialization:clrf status
ljmp _main	;jump to C main() function
psect	cstackBANK1,class=BANK1,space=1,noexec
global __pcstackBANK1
__pcstackBANK1:
	global	SIM300SendMsg@cmd
SIM300SendMsg@cmd:	; 25 bytes @ 0x0
	ds	25
	global	SIM300SendMsg@len
SIM300SendMsg@len:	; 1 bytes @ 0x19
	ds	1
	global	SIM300SendMsg@num
SIM300SendMsg@num:	; 1 bytes @ 0x1A
	ds	1
	global	SIM300SendMsg@n
SIM300SendMsg@n:	; 1 bytes @ 0x1B
	ds	1
psect	cstackCOMMON,class=COMMON,space=1,noexec
global __pcstackCOMMON
__pcstackCOMMON:
?_USARTHandleRxInt:	; 0 bytes @ 0x0
??_USARTHandleRxInt:	; 0 bytes @ 0x0
?_start:	; 0 bytes @ 0x0
?_stop:	; 0 bytes @ 0x0
?_SMSCommunication:	; 0 bytes @ 0x0
?_USARTWriteChar:	; 0 bytes @ 0x0
?_isdigit:	; 1 bit 
?_ISR:	; 0 bytes @ 0x0
?_main:	; 0 bytes @ 0x0
?_eeprom_read:	; 1 bytes @ 0x0
?_SIM300Init:	; 1 bytes @ 0x0
?_phase_check:	; 1 bytes @ 0x0
?_SIM300WaitForValidCall:	; 1 bytes @ 0x0
?_SIM300WaitForValidMsg:	; 1 bytes @ 0x0
?_USARTDataAvailable:	; 1 bytes @ 0x0
?_USARTReadData:	; 1 bytes @ 0x0
?_SIM300ReadValidMsg:	; 1 bytes @ 0x0
?_toupper:	; 1 bytes @ 0x0
?_SIM300DeleteMsg:	; 1 bytes @ 0x0
?_USARTFlushBuffer:	; 2 bytes @ 0x0
	ds	4
	global	USARTHandleRxInt@data
USARTHandleRxInt@data:	; 1 bytes @ 0x4
	ds	1
??_ISR:	; 0 bytes @ 0x5
	ds	4
psect	cstackBANK0,class=BANK0,space=1,noexec
global __pcstackBANK0
__pcstackBANK0:
??_eeprom_read:	; 0 bytes @ 0x0
??_phase_check:	; 0 bytes @ 0x0
??_start:	; 0 bytes @ 0x0
??_stop:	; 0 bytes @ 0x0
?_eeprom_write:	; 0 bytes @ 0x0
?_USARTInit:	; 0 bytes @ 0x0
??_USARTDataAvailable:	; 0 bytes @ 0x0
??_USARTWriteChar:	; 0 bytes @ 0x0
??_USARTReadData:	; 0 bytes @ 0x0
??_isdigit:	; 0 bytes @ 0x0
??_toupper:	; 0 bytes @ 0x0
?_strcpy:	; 1 bytes @ 0x0
?_strcat:	; 1 bytes @ 0x0
?_SIM300CheckResponse:	; 1 bytes @ 0x0
?_strchr:	; 1 bytes @ 0x0
	global	?_strlen
?_strlen:	; 2 bytes @ 0x0
	global	?___wmul
?___wmul:	; 2 bytes @ 0x0
	global	?___lwdiv
?___lwdiv:	; 2 bytes @ 0x0
	global	SIM300CheckResponse@check
SIM300CheckResponse@check:	; 1 bytes @ 0x0
	global	USARTWriteChar@ch
USARTWriteChar@ch:	; 1 bytes @ 0x0
	global	eeprom_write@value
eeprom_write@value:	; 1 bytes @ 0x0
	global	_isdigit$733
_isdigit$733:	; 1 bytes @ 0x0
	global	strcat@from
strcat@from:	; 1 bytes @ 0x0
	global	strcpy@from
strcpy@from:	; 1 bytes @ 0x0
	global	USARTInit@baud_rate
USARTInit@baud_rate:	; 2 bytes @ 0x0
	global	___wmul@multiplier
___wmul@multiplier:	; 2 bytes @ 0x0
	global	___lwdiv@divisor
___lwdiv@divisor:	; 2 bytes @ 0x0
	global	strlen@s
strlen@s:	; 2 bytes @ 0x0
	global	strchr@chr
strchr@chr:	; 2 bytes @ 0x0
	ds	1
??_eeprom_write:	; 0 bytes @ 0x1
??_strcpy:	; 0 bytes @ 0x1
??_strcat:	; 0 bytes @ 0x1
?_USARTWriteString:	; 0 bytes @ 0x1
	global	SIM300CheckResponse@len
SIM300CheckResponse@len:	; 1 bytes @ 0x1
	global	USARTReadData@data
USARTReadData@data:	; 1 bytes @ 0x1
	global	eeprom_read@addr
eeprom_read@addr:	; 1 bytes @ 0x1
	global	isdigit@c
isdigit@c:	; 1 bytes @ 0x1
	global	toupper@c
toupper@c:	; 1 bytes @ 0x1
	global	USARTWriteString@str
USARTWriteString@str:	; 2 bytes @ 0x1
	ds	1
??_USARTFlushBuffer:	; 0 bytes @ 0x2
??_strlen:	; 0 bytes @ 0x2
??_USARTInit:	; 0 bytes @ 0x2
??_SIM300CheckResponse:	; 0 bytes @ 0x2
??_strchr:	; 0 bytes @ 0x2
?_SIM300RingResponse:	; 1 bytes @ 0x2
?_strrichr:	; 1 bytes @ 0x2
?_strichr:	; 1 bytes @ 0x2
?_SIM300WaitForResponse:	; 1 bytes @ 0x2
	global	?_strnicmp
?_strnicmp:	; 2 bytes @ 0x2
	global	eeprom_write@addr
eeprom_write@addr:	; 1 bytes @ 0x2
	global	strcat@to
strcat@to:	; 1 bytes @ 0x2
	global	strcpy@cp
strcpy@cp:	; 1 bytes @ 0x2
	global	strnicmp@s2
strnicmp@s2:	; 1 bytes @ 0x2
	global	strchr@ptr
strchr@ptr:	; 1 bytes @ 0x2
	global	SIM300WaitForResponse@timeout
SIM300WaitForResponse@timeout:	; 2 bytes @ 0x2
	global	SIM300RingResponse@timeout
SIM300RingResponse@timeout:	; 2 bytes @ 0x2
	global	___wmul@multiplicand
___wmul@multiplicand:	; 2 bytes @ 0x2
	global	___lwdiv@dividend
___lwdiv@dividend:	; 2 bytes @ 0x2
	global	strichr@chr
strichr@chr:	; 2 bytes @ 0x2
	global	strrichr@chr
strrichr@chr:	; 2 bytes @ 0x2
	ds	1
??_USARTWriteString:	; 0 bytes @ 0x3
	global	strcat@cp
strcat@cp:	; 1 bytes @ 0x3
	global	strcpy@to
strcpy@to:	; 1 bytes @ 0x3
	global	strnicmp@len
strnicmp@len:	; 2 bytes @ 0x3
	ds	1
??_SIM300RingResponse:	; 0 bytes @ 0x4
??_strrichr:	; 0 bytes @ 0x4
??_strichr:	; 0 bytes @ 0x4
??_SIM300WaitForResponse:	; 0 bytes @ 0x4
??___wmul:	; 0 bytes @ 0x4
??___lwdiv:	; 0 bytes @ 0x4
	global	SIM300CheckResponse@i
SIM300CheckResponse@i:	; 1 bytes @ 0x4
	global	___wmul@product
___wmul@product:	; 2 bytes @ 0x4
	global	strlen@cp
strlen@cp:	; 2 bytes @ 0x4
	ds	1
??_strnicmp:	; 0 bytes @ 0x5
	global	SIM300CheckResponse@response
SIM300CheckResponse@response:	; 1 bytes @ 0x5
	global	SIM300WaitForResponse@n
SIM300WaitForResponse@n:	; 2 bytes @ 0x5
	global	SIM300RingResponse@n
SIM300RingResponse@n:	; 2 bytes @ 0x5
	global	___lwdiv@quotient
___lwdiv@quotient:	; 2 bytes @ 0x5
	ds	1
?_USARTReadBuffer:	; 0 bytes @ 0x6
	global	?_atoi
?_atoi:	; 2 bytes @ 0x6
	global	?_strncmp
?_strncmp:	; 2 bytes @ 0x6
	global	strichr@ptr
strichr@ptr:	; 1 bytes @ 0x6
	global	strrichr@cp
strrichr@cp:	; 1 bytes @ 0x6
	global	strncmp@s2
strncmp@s2:	; 1 bytes @ 0x6
	global	USARTReadBuffer@len
USARTReadBuffer@len:	; 2 bytes @ 0x6
	ds	1
	global	SIM300WaitForResponse@i
SIM300WaitForResponse@i:	; 1 bytes @ 0x7
	global	SIM300RingResponse@i
SIM300RingResponse@i:	; 1 bytes @ 0x7
	global	___lwdiv@counter
___lwdiv@counter:	; 1 bytes @ 0x7
	global	strnicmp@r
strnicmp@r:	; 1 bytes @ 0x7
	global	strrichr@ptr
strrichr@ptr:	; 1 bytes @ 0x7
	global	strncmp@len
strncmp@len:	; 2 bytes @ 0x7
	ds	1
??_USARTReadBuffer:	; 0 bytes @ 0x8
??_atoi:	; 0 bytes @ 0x8
	global	?___lwmod
?___lwmod:	; 2 bytes @ 0x8
	global	strnicmp@s1
strnicmp@s1:	; 1 bytes @ 0x8
	global	___lwmod@divisor
___lwmod@divisor:	; 2 bytes @ 0x8
	ds	1
??_SIM300WaitForValidCall:	; 0 bytes @ 0x9
??_strncmp:	; 0 bytes @ 0x9
	ds	1
	global	SIM300WaitForValidCall@len
SIM300WaitForValidCall@len:	; 1 bytes @ 0xA
	global	USARTReadBuffer@buff
USARTReadBuffer@buff:	; 1 bytes @ 0xA
	global	atoi@sign
atoi@sign:	; 1 bytes @ 0xA
	global	___lwmod@dividend
___lwmod@dividend:	; 2 bytes @ 0xA
	ds	1
	global	SIM300WaitForValidCall@start
SIM300WaitForValidCall@start:	; 1 bytes @ 0xB
	global	strncmp@s1
strncmp@s1:	; 1 bytes @ 0xB
	global	USARTReadBuffer@i
USARTReadBuffer@i:	; 2 bytes @ 0xB
	global	atoi@a
atoi@a:	; 2 bytes @ 0xB
	ds	1
??___lwmod:	; 0 bytes @ 0xC
?_strstr:	; 1 bytes @ 0xC
	global	SIM300WaitForValidCall@i
SIM300WaitForValidCall@i:	; 1 bytes @ 0xC
	global	strstr@s2
strstr@s2:	; 1 bytes @ 0xC
	ds	1
??_strstr:	; 0 bytes @ 0xD
?_SIM300Cmd:	; 1 bytes @ 0xD
	global	atoi@s
atoi@s:	; 1 bytes @ 0xD
	global	___lwmod@counter
___lwmod@counter:	; 1 bytes @ 0xD
	global	SIM300Cmd@cmd
SIM300Cmd@cmd:	; 2 bytes @ 0xD
	ds	1
	global	?_sprintf
?_sprintf:	; 2 bytes @ 0xE
	global	sprintf@f
sprintf@f:	; 1 bytes @ 0xE
	ds	1
??_SIM300Cmd:	; 0 bytes @ 0xF
	ds	1
	global	strstr@s1
strstr@s1:	; 1 bytes @ 0x10
	ds	1
??_sprintf:	; 0 bytes @ 0x11
	global	SIM300Cmd@i
SIM300Cmd@i:	; 2 bytes @ 0x11
	ds	2
	global	SIM300Cmd@len
SIM300Cmd@len:	; 1 bytes @ 0x13
	ds	1
??_SIM300Init:	; 0 bytes @ 0x14
	global	sprintf@flag
sprintf@flag:	; 1 bytes @ 0x14
	ds	1
	global	sprintf@prec
sprintf@prec:	; 1 bytes @ 0x15
	ds	1
	global	sprintf@ap
sprintf@ap:	; 1 bytes @ 0x16
	global	SIM300Init@i
SIM300Init@i:	; 2 bytes @ 0x16
	ds	1
	global	sprintf@sp
sprintf@sp:	; 1 bytes @ 0x17
	ds	1
	global	sprintf@_val
sprintf@_val:	; 4 bytes @ 0x18
	ds	4
	global	sprintf@c
sprintf@c:	; 1 bytes @ 0x1C
	ds	1
??_SIM300ReadValidMsg:	; 0 bytes @ 0x1D
??_SIM300DeleteMsg:	; 0 bytes @ 0x1D
	ds	3
	global	SIM300DeleteMsg@cmd
SIM300DeleteMsg@cmd:	; 16 bytes @ 0x20
	global	SIM300ReadValidMsg@cmd
SIM300ReadValidMsg@cmd:	; 16 bytes @ 0x20
	ds	16
	global	SIM300DeleteMsg@i
SIM300DeleteMsg@i:	; 1 bytes @ 0x30
	global	SIM300ReadValidMsg@i
SIM300ReadValidMsg@i:	; 1 bytes @ 0x30
	ds	1
	global	SIM300DeleteMsg@len
SIM300DeleteMsg@len:	; 1 bytes @ 0x31
	global	SIM300ReadValidMsg@start
SIM300ReadValidMsg@start:	; 1 bytes @ 0x31
	ds	1
?_SIM300SendMsg:	; 1 bytes @ 0x32
	global	SIM300ReadValidMsg@i_319
SIM300ReadValidMsg@i_319:	; 1 bytes @ 0x32
	global	SIM300SendMsg@msg
SIM300SendMsg@msg:	; 2 bytes @ 0x32
	ds	1
	global	SIM300ReadValidMsg@len
SIM300ReadValidMsg@len:	; 1 bytes @ 0x33
	ds	1
??_SIM300WaitForValidMsg:	; 0 bytes @ 0x34
	global	SIM300SendMsg@msg_ref
SIM300SendMsg@msg_ref:	; 1 bytes @ 0x34
	ds	1
??_SIM300SendMsg:	; 0 bytes @ 0x35
	ds	2
	global	SIM300WaitForValidMsg@response
SIM300WaitForValidMsg@response:	; 1 bytes @ 0x37
	ds	1
	global	SIM300WaitForValidMsg@id
SIM300WaitForValidMsg@id:	; 1 bytes @ 0x38
	ds	1
??_SMSCommunication:	; 0 bytes @ 0x39
	ds	3
	global	SMSCommunication@ref
SMSCommunication@ref:	; 1 bytes @ 0x3C
	ds	1
	global	SMSCommunication@ref_192
SMSCommunication@ref_192:	; 1 bytes @ 0x3D
	ds	1
	global	SMSCommunication@ref_201
SMSCommunication@ref_201:	; 1 bytes @ 0x3E
	ds	1
	global	SMSCommunication@ref_204
SMSCommunication@ref_204:	; 1 bytes @ 0x3F
	ds	1
	global	SMSCommunication@i
SMSCommunication@i:	; 1 bytes @ 0x40
	ds	1
	global	SMSCommunication@result
SMSCommunication@result:	; 1 bytes @ 0x41
	ds	1
	global	SMSCommunication@c
SMSCommunication@c:	; 1 bytes @ 0x42
	ds	1
	global	SMSCommunication@len
SMSCommunication@len:	; 1 bytes @ 0x43
	ds	1
??_main:	; 0 bytes @ 0x44
	ds	3
	global	main@result
main@result:	; 1 bytes @ 0x47
	ds	1
	global	main@ref
main@ref:	; 1 bytes @ 0x48
	ds	1
	global	main@ten_seconds
main@ten_seconds:	; 1 bytes @ 0x49
	ds	1
	global	main@r
main@r:	; 1 bytes @ 0x4A
	ds	1
	global	main@i
main@i:	; 1 bytes @ 0x4B
	ds	1
	global	main@i_165
main@i_165:	; 1 bytes @ 0x4C
	ds	1
	global	main@i_172
main@i_172:	; 1 bytes @ 0x4D
	ds	1
;!
;!Data Sizes:
;!    Strings     228
;!    Constant    10
;!    Data        41
;!    BSS         163
;!    Persistent  0
;!    Stack       0
;!
;!Auto Spaces:
;!    Space          Size  Autos    Used
;!    COMMON           14      9      11
;!    BANK0            80     78      80
;!    BANK1            80     28      79
;!    BANK3            96      0      85
;!    BANK2            96      0      64

;!
;!Pointer List with Targets:
;!
;!    strncmp@s2	PTR const unsigned char  size(1) Largest target is 4
;!		 -> STR_36(CODE[4]), 
;!
;!    strncmp@s1	PTR const unsigned char  size(1) Largest target is 70
;!		 -> NULL(NULL[0]), sim300_buffer(BANK3[70]), 
;!
;!    strchr@ptr	PTR const unsigned char  size(1) Largest target is 70
;!		 -> NULL(NULL[0]), sim300_buffer(BANK3[70]), 
;!
;!    sp__strchr	PTR unsigned char  size(1) Largest target is 70
;!		 -> NULL(NULL[0]), sim300_buffer(BANK3[70]), 
;!
;!    strstr@s2	PTR const unsigned char  size(1) Largest target is 4
;!		 -> STR_36(CODE[4]), 
;!
;!    strstr@s1	PTR const unsigned char  size(1) Largest target is 70
;!		 -> NULL(NULL[0]), sim300_buffer(BANK3[70]), 
;!
;!    strrichr@ptr	PTR const unsigned char  size(1) Largest target is 70
;!		 -> sim300_buffer(BANK3[70]), 
;!
;!    strrichr@cp	PTR const unsigned char  size(1) Largest target is 70
;!		 -> sim300_buffer(BANK3[70]), 
;!
;!    strnicmp@s2	PTR const unsigned char  size(1) Largest target is 7
;!		 -> STR_38(CODE[6]), STR_34(CODE[7]), STR_33(CODE[3]), STR_11(CODE[7]), 
;!
;!    strnicmp@s1	PTR const unsigned char  size(1) Largest target is 70
;!		 -> sim300_buffer(BANK3[70]), 
;!
;!    strlen@s	PTR const unsigned char  size(2) Largest target is 40
;!		 -> SIM300SendMsg@cmd(BANK1[25]), STR_36(CODE[4]), SIM300ReadValidMsg@cmd(BANK0[16]), SIM300DeleteMsg@cmd(BANK0[16]), 
;!		 -> STR_30(CODE[3]), STR_29(CODE[16]), STR_10(CODE[4]), STR_9(CODE[4]), 
;!		 -> STR_8(CODE[4]), STR_7(CODE[20]), STR_6(CODE[4]), phone_number(BANK1[40]), 
;!		 -> STR_5(CODE[4]), STR_4(CODE[4]), STR_3(CODE[10]), STR_2(CODE[10]), 
;!		 -> STR_1(CODE[10]), 
;!
;!    strlen@cp	PTR const unsigned char  size(2) Largest target is 40
;!		 -> SIM300SendMsg@cmd(BANK1[25]), STR_36(CODE[4]), SIM300ReadValidMsg@cmd(BANK0[16]), SIM300DeleteMsg@cmd(BANK0[16]), 
;!		 -> STR_30(CODE[3]), STR_29(CODE[16]), STR_10(CODE[4]), STR_9(CODE[4]), 
;!		 -> STR_8(CODE[4]), STR_7(CODE[20]), STR_6(CODE[4]), phone_number(BANK1[40]), 
;!		 -> STR_5(CODE[4]), STR_4(CODE[4]), STR_3(CODE[10]), STR_2(CODE[10]), 
;!		 -> STR_1(CODE[10]), 
;!
;!    strichr@ptr	PTR const unsigned char  size(1) Largest target is 70
;!		 -> sim300_buffer(BANK3[70]), 
;!
;!    strcpy@from	PTR const unsigned char  size(1) Largest target is 21
;!		 -> STR_28(CODE[4]), STR_27(CODE[1]), STR_24(CODE[15]), STR_23(CODE[1]), 
;!		 -> STR_22(CODE[9]), STR_21(CODE[1]), STR_20(CODE[4]), STR_19(CODE[1]), 
;!		 -> STR_18(CODE[21]), STR_17(CODE[1]), STR_16(CODE[4]), STR_15(CODE[1]), 
;!		 -> STR_13(CODE[14]), STR_12(CODE[1]), 
;!
;!    strcpy@to	PTR unsigned char  size(1) Largest target is 40
;!		 -> phone_number(BANK1[40]), 
;!
;!    strcpy@cp	PTR unsigned char  size(1) Largest target is 40
;!		 -> phone_number(BANK1[40]), 
;!
;!    strcat@from	PTR const unsigned char  size(1) Largest target is 13
;!		 -> STR_26(CODE[13]), STR_25(CODE[11]), STR_14(CODE[11]), 
;!
;!    strcat@to	PTR unsigned char  size(1) Largest target is 40
;!		 -> phone_number(BANK1[40]), 
;!
;!    strcat@cp	PTR unsigned char  size(1) Largest target is 40
;!		 -> phone_number(BANK1[40]), 
;!
;!    atoi@s	PTR const unsigned char  size(1) Largest target is 70
;!		 -> sim300_buffer(BANK3[70]), 
;!
;!    sprintf@f	PTR const unsigned char  size(1) Largest target is 12
;!		 -> STR_37(CODE[12]), STR_35(CODE[11]), STR_32(CODE[11]), 
;!
;!    sprintf@_val._cp	PTR const unsigned char  size(2) Largest target is 15
;!		 -> STR_39(CODE[7]), MSG_number(BANK3[15]), 
;!
;!    sprintf@sp	PTR unsigned char  size(1) Largest target is 25
;!		 -> SIM300SendMsg@cmd(BANK1[25]), SIM300ReadValidMsg@cmd(BANK0[16]), SIM300DeleteMsg@cmd(BANK0[16]), 
;!
;!    sprintf@ap	PTR void [1] size(1) Largest target is 2
;!		 -> ?_sprintf(BANK0[2]), 
;!
;!    S506$_cp	PTR const unsigned char  size(2) Largest target is 15
;!		 -> STR_39(CODE[7]), MSG_number(BANK3[15]), 
;!
;!    _val._str._cp	PTR const unsigned char  size(2) Largest target is 15
;!		 -> STR_39(CODE[7]), MSG_number(BANK3[15]), 
;!
;!    USARTReadBuffer@buff	PTR unsigned char  size(1) Largest target is 70
;!		 -> sim300_buffer(BANK3[70]), 
;!
;!    USARTWriteString@str	PTR const unsigned char  size(2) Largest target is 40
;!		 -> SIM300SendMsg@cmd(BANK1[25]), SIM300ReadValidMsg@cmd(BANK0[16]), SIM300DeleteMsg@cmd(BANK0[16]), STR_30(CODE[3]), 
;!		 -> STR_29(CODE[16]), STR_10(CODE[4]), STR_9(CODE[4]), STR_8(CODE[4]), 
;!		 -> STR_7(CODE[20]), STR_6(CODE[4]), phone_number(BANK1[40]), STR_5(CODE[4]), 
;!		 -> STR_4(CODE[4]), STR_3(CODE[10]), STR_2(CODE[10]), STR_1(CODE[10]), 
;!
;!    SIM300SendMsg@msg_ref	PTR unsigned char  size(1) Largest target is 1
;!		 -> SMSCommunication@ref_204(BANK0[1]), SMSCommunication@ref_201(BANK0[1]), SMSCommunication@ref_192(BANK0[1]), SMSCommunication@ref(BANK0[1]), 
;!		 -> main@ref(BANK0[1]), 
;!
;!    SIM300SendMsg@msg	PTR const unsigned char  size(2) Largest target is 40
;!		 -> STR_29(CODE[16]), STR_7(CODE[20]), phone_number(BANK1[40]), 
;!
;!    SIM300SendMsg@num	PTR const unsigned char  size(1) Largest target is 15
;!		 -> MSG_number(BANK3[15]), 
;!
;!    sp__strstr	PTR unsigned char  size(1) Largest target is 70
;!		 -> NULL(NULL[0]), sim300_buffer(BANK3[70]), 
;!
;!    SIM300ReadValidMsg@start	PTR unsigned char  size(1) Largest target is 70
;!		 -> NULL(NULL[0]), sim300_buffer(BANK3[70]), 
;!
;!    SIM300CheckResponse@check	PTR const unsigned char  size(1) Largest target is 3
;!		 -> STR_31(CODE[3]), 
;!
;!    SIM300CheckResponse@response	PTR const unsigned char  size(1) Largest target is 70
;!		 -> sim300_buffer(BANK3[70]), 
;!
;!    SIM300Cmd@cmd	PTR const unsigned char  size(2) Largest target is 40
;!		 -> SIM300SendMsg@cmd(BANK1[25]), SIM300ReadValidMsg@cmd(BANK0[16]), SIM300DeleteMsg@cmd(BANK0[16]), STR_30(CODE[3]), 
;!		 -> STR_10(CODE[4]), STR_9(CODE[4]), STR_8(CODE[4]), STR_6(CODE[4]), 
;!		 -> phone_number(BANK1[40]), STR_5(CODE[4]), STR_4(CODE[4]), STR_3(CODE[10]), 
;!		 -> STR_2(CODE[10]), STR_1(CODE[10]), 
;!
;!    sp__strcat	PTR unsigned char  size(1) Largest target is 40
;!		 -> phone_number(BANK1[40]), 
;!
;!    sp__strcpy	PTR unsigned char  size(1) Largest target is 40
;!		 -> phone_number(BANK1[40]), 
;!
;!    sp__strichr	PTR unsigned char  size(1) Largest target is 70
;!		 -> NULL(NULL[0]), sim300_buffer(BANK3[70]), 
;!
;!    SIM300WaitForValidCall@start	PTR unsigned char  size(1) Largest target is 70
;!		 -> NULL(NULL[0]), sim300_buffer(BANK3[70]), 
;!
;!    sp__strrichr	PTR unsigned char  size(1) Largest target is 70
;!		 -> NULL(NULL[0]), sim300_buffer(BANK3[70]), 
;!


;!
;!Critical Paths under _main in COMMON
;!
;!    None.
;!
;!Critical Paths under _ISR in COMMON
;!
;!    _ISR->_USARTHandleRxInt
;!
;!Critical Paths under _main in BANK0
;!
;!    _main->_SMSCommunication
;!    _SMSCommunication->_SIM300SendMsg
;!    _SMSCommunication->_SIM300WaitForValidMsg
;!    _SIM300WaitForValidMsg->_SIM300ReadValidMsg
;!    _SIM300ReadValidMsg->_sprintf
;!    _strstr->_strncmp
;!    _strncmp->_strlen
;!    _SIM300SendMsg->_SIM300DeleteMsg
;!    _atoi->___wmul
;!    _SIM300DeleteMsg->_sprintf
;!    _sprintf->___lwmod
;!    ___lwmod->___lwdiv
;!    _SIM300WaitForResponse->_USARTReadData
;!    _SIM300WaitForValidCall->_strnicmp
;!    _strrichr->_toupper
;!    _strnicmp->_toupper
;!    _strichr->_toupper
;!    _SIM300RingResponse->_USARTReadData
;!    _USARTFlushBuffer->_USARTReadData
;!    _SIM300Init->_SIM300Cmd
;!    _SIM300Cmd->_USARTReadBuffer
;!    _USARTWriteString->_USARTWriteChar
;!    _USARTReadBuffer->_strlen
;!
;!Critical Paths under _ISR in BANK0
;!
;!    None.
;!
;!Critical Paths under _main in BANK1
;!
;!    _main->_SIM300SendMsg
;!    _SMSCommunication->_SIM300SendMsg
;!
;!Critical Paths under _ISR in BANK1
;!
;!    None.
;!
;!Critical Paths under _main in BANK3
;!
;!    None.
;!
;!Critical Paths under _ISR in BANK3
;!
;!    None.
;!
;!Critical Paths under _main in BANK2
;!
;!    None.
;!
;!Critical Paths under _ISR in BANK2
;!
;!    None.

;;
;;Main: autosize = 0, tempsize = 3, incstack = 0, save=0
;;

;!
;!Call Graph Tables:
;!
;! ---------------------------------------------------------------------------------
;! (Depth) Function   	        Calls       Base Space   Used Autos Params    Refs
;! ---------------------------------------------------------------------------------
;! (0) _main                                                10    10      0   49921
;!                                             68 BANK0     10    10      0
;!                          _SIM300Cmd
;!                         _SIM300Init
;!                      _SIM300SendMsg
;!             _SIM300WaitForValidCall
;!                   _SMSCommunication
;!                   _USARTFlushBuffer
;!                        _eeprom_read
;!                       _eeprom_write
;!                        _phase_check
;!                              _start
;!                               _stop
;! ---------------------------------------------------------------------------------
;! (1) _stop                                                 3     3      0       0
;!                                              0 BANK0      3     3      0
;! ---------------------------------------------------------------------------------
;! (1) _start                                                3     3      0       0
;!                                              0 BANK0      3     3      0
;! ---------------------------------------------------------------------------------
;! (1) _eeprom_write                                         3     2      1     362
;!                                              0 BANK0      3     2      1
;! ---------------------------------------------------------------------------------
;! (1) _SMSCommunication                                    11    11      0   28396
;!                                             57 BANK0     11    11      0
;!                      _SIM300SendMsg
;!              _SIM300WaitForValidMsg
;!                   _USARTFlushBuffer
;!                        _eeprom_read
;!                        _phase_check
;!                             _strcat
;!                             _strcpy
;!                             _strlen
;! ---------------------------------------------------------------------------------
;! (2) _strcpy                                               4     3      1    1195
;!                                              0 BANK0      4     3      1
;! ---------------------------------------------------------------------------------
;! (2) _strcat                                               4     3      1     338
;!                                              0 BANK0      4     3      1
;! ---------------------------------------------------------------------------------
;! (1) _phase_check                                          0     0      0       0
;! ---------------------------------------------------------------------------------
;! (1) _eeprom_read                                          2     2      0      22
;!                                              0 BANK0      2     2      0
;! ---------------------------------------------------------------------------------
;! (2) _SIM300WaitForValidMsg                                5     5      0   12591
;!                                             52 BANK0      5     5      0
;!                    _SIM300DeleteMsg
;!                 _SIM300ReadValidMsg
;!                   _USARTFlushBuffer
;!                           _strnicmp
;! ---------------------------------------------------------------------------------
;! (3) _SIM300ReadValidMsg                                  23    23      0    6601
;!                                             29 BANK0     23    23      0
;!                          _SIM300Cmd
;!              _SIM300WaitForResponse
;!                   _USARTFlushBuffer
;!                            _sprintf
;!                            _strichr
;!                           _strrichr
;!                             _strstr
;! ---------------------------------------------------------------------------------
;! (4) _strstr                                               5     4      1    1312
;!                                             12 BANK0      5     4      1
;!                             _strchr
;!                             _strlen
;!                            _strncmp
;! ---------------------------------------------------------------------------------
;! (5) _strncmp                                              6     3      3     267
;!                                              6 BANK0      6     3      3
;!                             _strlen (ARG)
;! ---------------------------------------------------------------------------------
;! (5) _strchr                                               3     1      2     168
;!                                              0 BANK0      3     1      2
;! ---------------------------------------------------------------------------------
;! (2) _SIM300SendMsg                                       35    32      3   13023
;!                                             50 BANK0      7     4      3
;!                                              0 BANK1     28    28      0
;!                          _SIM300Cmd
;!                    _SIM300DeleteMsg
;!              _SIM300WaitForResponse
;!                 _USARTDataAvailable
;!                   _USARTFlushBuffer
;!                    _USARTReadBuffer
;!                     _USARTWriteChar
;!                   _USARTWriteString
;!                               _atoi
;!                            _sprintf
;!                             _strlen
;!                           _strnicmp
;! ---------------------------------------------------------------------------------
;! (3) _atoi                                                 8     6      2     627
;!                                              6 BANK0      8     6      2
;!                             ___wmul
;!                            _isdigit
;! ---------------------------------------------------------------------------------
;! (4) _isdigit                                              2     2      0      68
;!                                              0 BANK0      2     2      0
;! ---------------------------------------------------------------------------------
;! (3) _SIM300DeleteMsg                                     21    21      0    5118
;!                                             29 BANK0     21    21      0
;!                          _SIM300Cmd
;!              _SIM300WaitForResponse
;!                   _USARTFlushBuffer
;!                            _sprintf
;!                           _strnicmp
;! ---------------------------------------------------------------------------------
;! (4) _sprintf                                             15    12      3    1365
;!                                             14 BANK0     15    12      3
;!                            ___lwdiv
;!                            ___lwmod
;! ---------------------------------------------------------------------------------
;! (5) ___lwmod                                              6     2      4     265
;!                                              8 BANK0      6     2      4
;!                            ___lwdiv (ARG)
;! ---------------------------------------------------------------------------------
;! (5) ___lwdiv                                              8     4      4     268
;!                                              0 BANK0      8     4      4
;! ---------------------------------------------------------------------------------
;! (4) _SIM300WaitForResponse                                6     4      2     438
;!                                              2 BANK0      6     4      2
;!                 _USARTDataAvailable
;!                   _USARTFlushBuffer
;!                      _USARTReadData
;! ---------------------------------------------------------------------------------
;! (1) _SIM300WaitForValidCall                               4     4      0    1921
;!                                              9 BANK0      4     4      0
;!                 _SIM300RingResponse
;!                   _USARTFlushBuffer
;!                            _strichr
;!                           _strnicmp
;!                           _strrichr
;! ---------------------------------------------------------------------------------
;! (4) _strrichr                                             6     4      2     407
;!                                              2 BANK0      6     4      2
;!                            _toupper
;! ---------------------------------------------------------------------------------
;! (3) _strnicmp                                             7     4      3     712
;!                                              2 BANK0      7     4      3
;!                            _toupper
;! ---------------------------------------------------------------------------------
;! (4) _strichr                                              5     3      2     339
;!                                              2 BANK0      5     3      2
;!                            _toupper
;! ---------------------------------------------------------------------------------
;! (4) _toupper                                              2     2      0      67
;!                                              0 BANK0      2     2      0
;! ---------------------------------------------------------------------------------
;! (2) _SIM300RingResponse                                   6     4      2     279
;!                                              2 BANK0      6     4      2
;!                 _USARTDataAvailable
;!                   _USARTFlushBuffer
;!                      _USARTReadData
;! ---------------------------------------------------------------------------------
;! (1) _USARTFlushBuffer                                     0     0      0      23
;!                 _USARTDataAvailable
;!                      _USARTReadData
;! ---------------------------------------------------------------------------------
;! (1) _SIM300Init                                           4     4      0    3308
;!                                             20 BANK0      4     4      0
;!                _SIM300CheckResponse
;!                          _SIM300Cmd
;!                 _USARTDataAvailable
;!                          _USARTInit
;!                    _USARTReadBuffer
;! ---------------------------------------------------------------------------------
;! (2) _USARTInit                                            3     1      2      75
;!                                              0 BANK0      3     1      2
;! ---------------------------------------------------------------------------------
;! (4) _SIM300Cmd                                            7     5      2    2456
;!                                             13 BANK0      7     5      2
;!                 _USARTDataAvailable
;!                    _USARTReadBuffer
;!                     _USARTWriteChar
;!                   _USARTWriteString
;!                             ___wmul
;!                             _strlen
;! ---------------------------------------------------------------------------------
;! (2) _strlen                                               6     4      2     620
;!                                              0 BANK0      6     4      2
;! ---------------------------------------------------------------------------------
;! (5) ___wmul                                               6     2      4     304
;!                                              0 BANK0      6     2      4
;! ---------------------------------------------------------------------------------
;! (5) _USARTWriteString                                     2     0      2     226
;!                                              1 BANK0      2     0      2
;!                     _USARTWriteChar
;! ---------------------------------------------------------------------------------
;! (6) _USARTWriteChar                                       1     1      0      22
;!                                              0 BANK0      1     1      0
;! ---------------------------------------------------------------------------------
;! (5) _USARTReadBuffer                                      7     5      2     353
;!                                              6 BANK0      7     5      2
;!                      _USARTReadData
;!                             _strlen (ARG)
;! ---------------------------------------------------------------------------------
;! (2) _USARTReadData                                        2     2      0      23
;!                                              0 BANK0      2     2      0
;! ---------------------------------------------------------------------------------
;! (2) _USARTDataAvailable                                   1     1      0       0
;!                                              0 BANK0      1     1      0
;! ---------------------------------------------------------------------------------
;! (2) _SIM300CheckResponse                                  6     4      2     400
;!                                              0 BANK0      6     4      2
;! ---------------------------------------------------------------------------------
;! Estimated maximum stack depth 6
;! ---------------------------------------------------------------------------------
;! (Depth) Function   	        Calls       Base Space   Used Autos Params    Refs
;! ---------------------------------------------------------------------------------
;! (7) _ISR                                                  4     4      0      23
;!                                              5 COMMON     4     4      0
;!                   _USARTHandleRxInt
;! ---------------------------------------------------------------------------------
;! (8) _USARTHandleRxInt                                     5     5      0      23
;!                                              0 COMMON     5     5      0
;! ---------------------------------------------------------------------------------
;! Estimated maximum stack depth 8
;! ---------------------------------------------------------------------------------
;!
;! Call Graph Graphs:
;!
;! _main (ROOT)
;!   _SIM300Cmd
;!     _USARTDataAvailable
;!     _USARTReadBuffer
;!       _USARTReadData
;!       _strlen (ARG)
;!     _USARTWriteChar
;!     _USARTWriteString
;!       _USARTWriteChar
;!     ___wmul
;!     _strlen
;!   _SIM300Init
;!     _SIM300CheckResponse
;!     _SIM300Cmd
;!       _USARTDataAvailable
;!       _USARTReadBuffer
;!         _USARTReadData
;!         _strlen (ARG)
;!       _USARTWriteChar
;!       _USARTWriteString
;!         _USARTWriteChar
;!       ___wmul
;!       _strlen
;!     _USARTDataAvailable
;!     _USARTInit
;!     _USARTReadBuffer
;!       _USARTReadData
;!       _strlen (ARG)
;!   _SIM300SendMsg
;!     _SIM300Cmd
;!       _USARTDataAvailable
;!       _USARTReadBuffer
;!         _USARTReadData
;!         _strlen (ARG)
;!       _USARTWriteChar
;!       _USARTWriteString
;!         _USARTWriteChar
;!       ___wmul
;!       _strlen
;!     _SIM300DeleteMsg
;!       _SIM300Cmd
;!         _USARTDataAvailable
;!         _USARTReadBuffer
;!           _USARTReadData
;!           _strlen (ARG)
;!         _USARTWriteChar
;!         _USARTWriteString
;!           _USARTWriteChar
;!         ___wmul
;!         _strlen
;!       _SIM300WaitForResponse
;!         _USARTDataAvailable
;!         _USARTFlushBuffer
;!           _USARTDataAvailable
;!           _USARTReadData
;!         _USARTReadData
;!       _USARTFlushBuffer
;!         _USARTDataAvailable
;!         _USARTReadData
;!       _sprintf
;!         ___lwdiv
;!         ___lwmod
;!           ___lwdiv (ARG)
;!       _strnicmp
;!         _toupper
;!     _SIM300WaitForResponse
;!       _USARTDataAvailable
;!       _USARTFlushBuffer
;!         _USARTDataAvailable
;!         _USARTReadData
;!       _USARTReadData
;!     _USARTDataAvailable
;!     _USARTFlushBuffer
;!       _USARTDataAvailable
;!       _USARTReadData
;!     _USARTReadBuffer
;!       _USARTReadData
;!       _strlen (ARG)
;!     _USARTWriteChar
;!     _USARTWriteString
;!       _USARTWriteChar
;!     _atoi
;!       ___wmul
;!       _isdigit
;!     _sprintf
;!       ___lwdiv
;!       ___lwmod
;!         ___lwdiv (ARG)
;!     _strlen
;!     _strnicmp
;!       _toupper
;!   _SIM300WaitForValidCall
;!     _SIM300RingResponse
;!       _USARTDataAvailable
;!       _USARTFlushBuffer
;!         _USARTDataAvailable
;!         _USARTReadData
;!       _USARTReadData
;!     _USARTFlushBuffer
;!       _USARTDataAvailable
;!       _USARTReadData
;!     _strichr
;!       _toupper
;!     _strnicmp
;!       _toupper
;!     _strrichr
;!       _toupper
;!   _SMSCommunication
;!     _SIM300SendMsg
;!       _SIM300Cmd
;!         _USARTDataAvailable
;!         _USARTReadBuffer
;!           _USARTReadData
;!           _strlen (ARG)
;!         _USARTWriteChar
;!         _USARTWriteString
;!           _USARTWriteChar
;!         ___wmul
;!         _strlen
;!       _SIM300DeleteMsg
;!         _SIM300Cmd
;!           _USARTDataAvailable
;!           _USARTReadBuffer
;!             _USARTReadData
;!             _strlen (ARG)
;!           _USARTWriteChar
;!           _USARTWriteString
;!             _USARTWriteChar
;!           ___wmul
;!           _strlen
;!         _SIM300WaitForResponse
;!           _USARTDataAvailable
;!           _USARTFlushBuffer
;!             _USARTDataAvailable
;!             _USARTReadData
;!           _USARTReadData
;!         _USARTFlushBuffer
;!           _USARTDataAvailable
;!           _USARTReadData
;!         _sprintf
;!           ___lwdiv
;!           ___lwmod
;!             ___lwdiv (ARG)
;!         _strnicmp
;!           _toupper
;!       _SIM300WaitForResponse
;!         _USARTDataAvailable
;!         _USARTFlushBuffer
;!           _USARTDataAvailable
;!           _USARTReadData
;!         _USARTReadData
;!       _USARTDataAvailable
;!       _USARTFlushBuffer
;!         _USARTDataAvailable
;!         _USARTReadData
;!       _USARTReadBuffer
;!         _USARTReadData
;!         _strlen (ARG)
;!       _USARTWriteChar
;!       _USARTWriteString
;!         _USARTWriteChar
;!       _atoi
;!         ___wmul
;!         _isdigit
;!       _sprintf
;!         ___lwdiv
;!         ___lwmod
;!           ___lwdiv (ARG)
;!       _strlen
;!       _strnicmp
;!         _toupper
;!     _SIM300WaitForValidMsg
;!       _SIM300DeleteMsg
;!         _SIM300Cmd
;!           _USARTDataAvailable
;!           _USARTReadBuffer
;!             _USARTReadData
;!             _strlen (ARG)
;!           _USARTWriteChar
;!           _USARTWriteString
;!             _USARTWriteChar
;!           ___wmul
;!           _strlen
;!         _SIM300WaitForResponse
;!           _USARTDataAvailable
;!           _USARTFlushBuffer
;!             _USARTDataAvailable
;!             _USARTReadData
;!           _USARTReadData
;!         _USARTFlushBuffer
;!           _USARTDataAvailable
;!           _USARTReadData
;!         _sprintf
;!           ___lwdiv
;!           ___lwmod
;!             ___lwdiv (ARG)
;!         _strnicmp
;!           _toupper
;!       _SIM300ReadValidMsg
;!         _SIM300Cmd
;!           _USARTDataAvailable
;!           _USARTReadBuffer
;!             _USARTReadData
;!             _strlen (ARG)
;!           _USARTWriteChar
;!           _USARTWriteString
;!             _USARTWriteChar
;!           ___wmul
;!           _strlen
;!         _SIM300WaitForResponse
;!           _USARTDataAvailable
;!           _USARTFlushBuffer
;!             _USARTDataAvailable
;!             _USARTReadData
;!           _USARTReadData
;!         _USARTFlushBuffer
;!           _USARTDataAvailable
;!           _USARTReadData
;!         _sprintf
;!           ___lwdiv
;!           ___lwmod
;!             ___lwdiv (ARG)
;!         _strichr
;!           _toupper
;!         _strrichr
;!           _toupper
;!         _strstr
;!           _strchr
;!           _strlen
;!           _strncmp
;!             _strlen (ARG)
;!       _USARTFlushBuffer
;!         _USARTDataAvailable
;!         _USARTReadData
;!       _strnicmp
;!         _toupper
;!     _USARTFlushBuffer
;!       _USARTDataAvailable
;!       _USARTReadData
;!     _eeprom_read
;!     _phase_check
;!     _strcat
;!     _strcpy
;!     _strlen
;!   _USARTFlushBuffer
;!     _USARTDataAvailable
;!     _USARTReadData
;!   _eeprom_read
;!   _eeprom_write
;!   _phase_check
;!   _start
;!   _stop
;!
;! _ISR (ROOT)
;!   _USARTHandleRxInt
;!

;! Address spaces:

;!Name               Size   Autos  Total    Cost      Usage
;!BANK3               60      0      55       9       88.5%
;!BITBANK3            60      0       0       8        0.0%
;!SFR3                 0      0       0       4        0.0%
;!BITSFR3              0      0       0       4        0.0%
;!BANK2               60      0      40      11       66.7%
;!BITBANK2            60      0       0      10        0.0%
;!SFR2                 0      0       0       5        0.0%
;!BITSFR2              0      0       0       5        0.0%
;!BANK1               50     1C      4F       7       98.8%
;!BITBANK1            50      0       0       6        0.0%
;!SFR1                 0      0       0       2        0.0%
;!BITSFR1              0      0       0       2        0.0%
;!BANK0               50     4E      50       5      100.0%
;!BITBANK0            50      0       0       4        0.0%
;!SFR0                 0      0       0       1        0.0%
;!BITSFR0              0      0       0       1        0.0%
;!COMMON               E      9       B       1       78.6%
;!BITCOMMON            E      0       0       0        0.0%
;!CODE                 0      0       0       0        0.0%
;!DATA                 0      0     13F      12        0.0%
;!ABS                  0      0     13F       3        0.0%
;!NULL                 0      0       0       0        0.0%
;!STACK                0      0       0       2        0.0%
;!EEDATA             100      0       0       0        0.0%

	global	_main

;; *************** function _main *****************
;; Defined at:
;;		line 31 in file "E:\Study Material\XC8 PROJECTS\Modem Advance\MobileAdv.c"
;; Parameters:    Size  Location     Type
;;		None
;; Auto vars:     Size  Location     Type
;;  i               1   76[BANK0 ] unsigned char 
;;  ref             1   72[BANK0 ] unsigned char 
;;  result          1   71[BANK0 ] unsigned char 
;;  i               1   75[BANK0 ] unsigned char 
;;  ten_seconds     1   73[BANK0 ] unsigned char 
;;  i               1   77[BANK0 ] unsigned char 
;;  r               1   74[BANK0 ] char 
;; Return value:  Size  Location     Type
;;		None               void
;; Registers used:
;;		wreg, fsr0l, fsr0h, status,2, status,0, btemp+1, pclath, cstack
;; Tracked objects:
;;		On entry : 17F/0
;;		On exit  : 0/0
;;		Unchanged: 0/0
;; Data sizes:     COMMON   BANK0   BANK1   BANK3   BANK2
;;      Params:         0       0       0       0       0
;;      Locals:         0       7       0       0       0
;;      Temps:          0       3       0       0       0
;;      Totals:         0      10       0       0       0
;;Total ram usage:       10 bytes
;; Hardware stack levels required when called:    8
;; This function calls:
;;		_SIM300Cmd
;;		_SIM300Init
;;		_SIM300SendMsg
;;		_SIM300WaitForValidCall
;;		_SMSCommunication
;;		_USARTFlushBuffer
;;		_eeprom_read
;;		_eeprom_write
;;		_phase_check
;;		_start
;;		_stop
;; This function is called by:
;;		Startup code after reset
;; This function uses a non-reentrant model
;;
psect	maintext,global,class=CODE,delta=2,split=1
	file	"E:\Study Material\XC8 PROJECTS\Modem Advance\MobileAdv.c"
	line	31
global __pmaintext
__pmaintext:	;psect for function _main
psect	maintext
	file	"E:\Study Material\XC8 PROJECTS\Modem Advance\MobileAdv.c"
	line	31
	global	__size_of_main
	__size_of_main	equ	__end_of_main-_main
	
_main:	
;incstack = 0
	opt	stack 0
; Regs used in _main: [wreg-fsr0h+status,2+status,0+btemp+1+pclath+cstack]
	line	33
	
l3586:	
;MobileAdv.c: 33: TRISA = 0xFE;
	movlw	(0FEh)
	bsf	status, 5	;RP0=1, select bank1
	bcf	status, 6	;RP1=0, select bank1
	movwf	(133)^080h	;volatile
	line	34
;MobileAdv.c: 34: TRISB = 0x01;
	movlw	(01h)
	movwf	(134)^080h	;volatile
	line	35
;MobileAdv.c: 35: TRISC = 0xC7;
	movlw	(0C7h)
	movwf	(135)^080h	;volatile
	line	36
;MobileAdv.c: 36: ADCON1 = 0x06;
	movlw	(06h)
	movwf	(159)^080h	;volatile
	line	38
	
l3588:	
;MobileAdv.c: 38: RC3 = 0;
	bcf	status, 5	;RP0=0, select bank0
	bcf	status, 6	;RP1=0, select bank0
	bcf	(59/8),(59)&7	;volatile
	line	39
	
l3590:	
;MobileAdv.c: 39: RC4 = 0;
	bcf	(60/8),(60)&7	;volatile
	line	40
	
l3592:	
;MobileAdv.c: 40: RC5 = 0;
	bcf	(61/8),(61)&7	;volatile
	line	43
	
l3594:	
;MobileAdv.c: 43: for(count = 0; count <= 10; count++)
	bsf	status, 5	;RP0=1, select bank1
	bcf	status, 6	;RP1=0, select bank1
	clrf	(_count)^080h
	
l3596:	
	movlw	(0Bh)
	subwf	(_count)^080h,w
	skipc
	goto	u3061
	goto	u3060
u3061:
	goto	l105
u3060:
	goto	l3608
	
l3598:	
	goto	l3608
	line	44
	
l105:	
	line	45
;MobileAdv.c: 44: {
;MobileAdv.c: 45: RB7 = 1;
	bcf	status, 5	;RP0=0, select bank0
	bcf	status, 6	;RP1=0, select bank0
	bsf	(55/8),(55)&7	;volatile
	line	46
	
l3600:	
;MobileAdv.c: 46: _delay(1000000);
	opt asmopt_off
movlw  6
movwf	((??_main+0)+0+2),f
movlw	19
movwf	((??_main+0)+0+1),f
	movlw	177
movwf	((??_main+0)+0),f
u3607:
	decfsz	((??_main+0)+0),f
	goto	u3607
	decfsz	((??_main+0)+0+1),f
	goto	u3607
	decfsz	((??_main+0)+0+2),f
	goto	u3607
	nop2
opt asmopt_on

	line	47
	
l3602:	
;MobileAdv.c: 47: RB7 = 0;
	bcf	status, 5	;RP0=0, select bank0
	bcf	status, 6	;RP1=0, select bank0
	bcf	(55/8),(55)&7	;volatile
	line	48
;MobileAdv.c: 48: _delay(1000000);
	opt asmopt_off
movlw  6
movwf	((??_main+0)+0+2),f
movlw	19
movwf	((??_main+0)+0+1),f
	movlw	177
movwf	((??_main+0)+0),f
u3617:
	decfsz	((??_main+0)+0),f
	goto	u3617
	decfsz	((??_main+0)+0+1),f
	goto	u3617
	decfsz	((??_main+0)+0+2),f
	goto	u3617
	nop2
opt asmopt_on

	line	43
	
l3604:	
	movlw	(01h)
	bcf	status, 5	;RP0=0, select bank0
	bcf	status, 6	;RP1=0, select bank0
	movwf	(??_main+0)+0
	movf	(??_main+0)+0,w
	bsf	status, 5	;RP0=1, select bank1
	bcf	status, 6	;RP1=0, select bank1
	addwf	(_count)^080h,f
	
l3606:	
	movlw	(0Bh)
	subwf	(_count)^080h,w
	skipc
	goto	u3071
	goto	u3070
u3071:
	goto	l105
u3070:
	goto	l3608
	
l106:	
	line	52
	
l3608:	
;MobileAdv.c: 49: }
;MobileAdv.c: 52: MOTOR_FLAG = (char)eeprom_read(0x01);
	movlw	(01h)
	fcall	_eeprom_read
	bcf	status, 5	;RP0=0, select bank0
	bcf	status, 6	;RP1=0, select bank0
	movwf	(??_main+0)+0
	movf	(??_main+0)+0,w
	movwf	(_MOTOR_FLAG)
	line	53
	
l3610:	
;MobileAdv.c: 53: if(MOTOR_FLAG != 0 && MOTOR_FLAG != 1)
	movf	(_MOTOR_FLAG),w
	skipz
	goto	u3080
	goto	l3616
u3080:
	
l3612:	
	movf	(_MOTOR_FLAG),w
	xorlw	01h
	skipnz
	goto	u3091
	goto	u3090
u3091:
	goto	l3616
u3090:
	line	54
	
l3614:	
;MobileAdv.c: 54: MOTOR_FLAG = 0;
	clrf	(_MOTOR_FLAG)
	goto	l3616
	
l107:	
	line	56
	
l3616:	
;MobileAdv.c: 56: if(MOTOR_FLAG == 1)
	movf	(_MOTOR_FLAG),w
	xorlw	01h
	skipz
	goto	u3101
	goto	u3100
u3101:
	goto	l108
u3100:
	line	57
	
l3618:	
;MobileAdv.c: 57: REQUIRED_RING_COUNT = 3;
	movlw	(03h)
	movwf	(??_main+0)+0
	movf	(??_main+0)+0,w
	bsf	status, 5	;RP0=1, select bank1
	bcf	status, 6	;RP1=0, select bank1
	movwf	(_REQUIRED_RING_COUNT)^080h
	goto	l3620
	line	58
	
l108:	
	line	59
;MobileAdv.c: 58: else
;MobileAdv.c: 59: REQUIRED_RING_COUNT = 1;
	bsf	status, 5	;RP0=1, select bank1
	bcf	status, 6	;RP1=0, select bank1
	clrf	(_REQUIRED_RING_COUNT)^080h
	incf	(_REQUIRED_RING_COUNT)^080h,f
	goto	l3620
	
l109:	
	line	61
	
l3620:	
;MobileAdv.c: 61: int8_t r= SIM300Init();
	fcall	_SIM300Init
	bcf	status, 5	;RP0=0, select bank0
	bcf	status, 6	;RP1=0, select bank0
	movwf	(??_main+0)+0
	movf	(??_main+0)+0,w
	movwf	(main@r)
	line	62
	
l3622:	
;MobileAdv.c: 62: _delay(1000000);
	opt asmopt_off
movlw  6
movwf	((??_main+0)+0+2),f
movlw	19
movwf	((??_main+0)+0+1),f
	movlw	177
movwf	((??_main+0)+0),f
u3627:
	decfsz	((??_main+0)+0),f
	goto	u3627
	decfsz	((??_main+0)+0+1),f
	goto	u3627
	decfsz	((??_main+0)+0+2),f
	goto	u3627
	nop2
opt asmopt_on

	line	64
	
l3624:	
;MobileAdv.c: 64: if(r == 1)
	bcf	status, 5	;RP0=0, select bank0
	bcf	status, 6	;RP1=0, select bank0
	movf	(main@r),w
	xorlw	01h
	skipz
	goto	u3111
	goto	u3110
u3111:
	goto	l112
u3110:
	line	67
	
l3626:	
;MobileAdv.c: 65: {
;MobileAdv.c: 67: SIM300Cmd("AT+CLIP=1");
	movlw	low((STR_1)-__stringbase)
	movwf	(SIM300Cmd@cmd)
	movlw	80h
	movwf	(SIM300Cmd@cmd+1)
	fcall	_SIM300Cmd
	line	68
	
l3628:	
;MobileAdv.c: 68: _delay(1000000);
	opt asmopt_off
movlw  6
	bcf	status, 5	;RP0=0, select bank0
	bcf	status, 6	;RP1=0, select bank0
movwf	((??_main+0)+0+2),f
movlw	19
movwf	((??_main+0)+0+1),f
	movlw	177
movwf	((??_main+0)+0),f
u3637:
	decfsz	((??_main+0)+0),f
	goto	u3637
	decfsz	((??_main+0)+0+1),f
	goto	u3637
	decfsz	((??_main+0)+0+2),f
	goto	u3637
	nop2
opt asmopt_on

	line	70
	
l3630:	
;MobileAdv.c: 70: SIM300Cmd("AT+CMGF=1");
	movlw	low((STR_2)-__stringbase)
	bcf	status, 5	;RP0=0, select bank0
	bcf	status, 6	;RP1=0, select bank0
	movwf	(SIM300Cmd@cmd)
	movlw	80h
	movwf	(SIM300Cmd@cmd+1)
	fcall	_SIM300Cmd
	line	71
;MobileAdv.c: 71: _delay(1000000);
	opt asmopt_off
movlw  6
	bcf	status, 5	;RP0=0, select bank0
	bcf	status, 6	;RP1=0, select bank0
movwf	((??_main+0)+0+2),f
movlw	19
movwf	((??_main+0)+0+1),f
	movlw	177
movwf	((??_main+0)+0),f
u3647:
	decfsz	((??_main+0)+0),f
	goto	u3647
	decfsz	((??_main+0)+0+1),f
	goto	u3647
	decfsz	((??_main+0)+0+2),f
	goto	u3647
	nop2
opt asmopt_on

	line	73
	
l3632:	
;MobileAdv.c: 73: SIM300Cmd("AT+CMGD=1");
	movlw	low((STR_3)-__stringbase)
	bcf	status, 5	;RP0=0, select bank0
	bcf	status, 6	;RP1=0, select bank0
	movwf	(SIM300Cmd@cmd)
	movlw	80h
	movwf	(SIM300Cmd@cmd+1)
	fcall	_SIM300Cmd
	line	74
	
l3634:	
;MobileAdv.c: 74: _delay(1000000);
	opt asmopt_off
movlw  6
	bcf	status, 5	;RP0=0, select bank0
	bcf	status, 6	;RP1=0, select bank0
movwf	((??_main+0)+0+2),f
movlw	19
movwf	((??_main+0)+0+1),f
	movlw	177
movwf	((??_main+0)+0),f
u3657:
	decfsz	((??_main+0)+0),f
	goto	u3657
	decfsz	((??_main+0)+0+1),f
	goto	u3657
	decfsz	((??_main+0)+0+2),f
	goto	u3657
	nop2
opt asmopt_on

	line	76
	
l3636:	
;MobileAdv.c: 76: USARTFlushBuffer();
	fcall	_USARTFlushBuffer
	line	78
	
l3638:	
;MobileAdv.c: 78: RB7 = 1;
	bcf	status, 5	;RP0=0, select bank0
	bcf	status, 6	;RP1=0, select bank0
	bsf	(55/8),(55)&7	;volatile
	line	79
	
l3640:	
;MobileAdv.c: 79: _delay(1000000);
	opt asmopt_off
movlw  6
movwf	((??_main+0)+0+2),f
movlw	19
movwf	((??_main+0)+0+1),f
	movlw	177
movwf	((??_main+0)+0),f
u3667:
	decfsz	((??_main+0)+0),f
	goto	u3667
	decfsz	((??_main+0)+0+1),f
	goto	u3667
	decfsz	((??_main+0)+0+2),f
	goto	u3667
	nop2
opt asmopt_on

	line	82
;MobileAdv.c: 82: }
	goto	l116
	line	83
	
l110:	
	line	86
;MobileAdv.c: 83: else
;MobileAdv.c: 84: {
;MobileAdv.c: 86: while(1)
	
l112:	
	line	88
;MobileAdv.c: 87: {
;MobileAdv.c: 88: RB7 = 1;
	bcf	status, 5	;RP0=0, select bank0
	bcf	status, 6	;RP1=0, select bank0
	bsf	(55/8),(55)&7	;volatile
	line	89
	
l3642:	
;MobileAdv.c: 89: _delay(100000);
	opt asmopt_off
movlw	130
movwf	((??_main+0)+0+1),f
	movlw	221
movwf	((??_main+0)+0),f
u3677:
	decfsz	((??_main+0)+0),f
	goto	u3677
	decfsz	((??_main+0)+0+1),f
	goto	u3677
	nop2
opt asmopt_on

	line	90
	
l3644:	
;MobileAdv.c: 90: RB7 = 0;
	bcf	status, 5	;RP0=0, select bank0
	bcf	status, 6	;RP1=0, select bank0
	bcf	(55/8),(55)&7	;volatile
	line	91
;MobileAdv.c: 91: _delay(100000);
	opt asmopt_off
movlw	130
movwf	((??_main+0)+0+1),f
	movlw	221
movwf	((??_main+0)+0),f
u3687:
	decfsz	((??_main+0)+0),f
	goto	u3687
	decfsz	((??_main+0)+0+1),f
	goto	u3687
	nop2
opt asmopt_on

	goto	l112
	line	92
	
l113:	
	line	86
	goto	l112
	
l114:	
	goto	l116
	line	93
	
l111:	
	goto	l116
	line	97
;MobileAdv.c: 92: }
;MobileAdv.c: 93: }
;MobileAdv.c: 97: while(1)
	
l115:	
	line	100
;MobileAdv.c: 98: {
;MobileAdv.c: 100: while(SIM300WaitForValidCall() != 1)
	goto	l116
	
l117:	
	line	103
	
l3646:	
;MobileAdv.c: 101: {
;MobileAdv.c: 103: if(MOTOR_FLAG == 1)
	bcf	status, 5	;RP0=0, select bank0
	bcf	status, 6	;RP1=0, select bank0
	movf	(_MOTOR_FLAG),w
	xorlw	01h
	skipz
	goto	u3121
	goto	u3120
u3121:
	goto	l3662
u3120:
	line	105
	
l3648:	
;MobileAdv.c: 104: {
;MobileAdv.c: 105: if(phase_check() == 1)
	fcall	_phase_check
	xorlw	01h
	skipz
	goto	u3131
	goto	u3130
u3131:
	goto	l3656
u3130:
	line	107
	
l3650:	
;MobileAdv.c: 106: {
;MobileAdv.c: 107: if(LP_FLAG == 0)
	bcf	status, 5	;RP0=0, select bank0
	bcf	status, 6	;RP1=0, select bank0
	movf	(_LP_FLAG),f
	skipz
	goto	u3141
	goto	u3140
u3141:
	goto	l3662
u3140:
	line	109
	
l3652:	
;MobileAdv.c: 108: {
;MobileAdv.c: 109: start();
	fcall	_start
	line	110
	
l3654:	
;MobileAdv.c: 110: LP_FLAG = 1;
	bcf	status, 5	;RP0=0, select bank0
	bcf	status, 6	;RP1=0, select bank0
	clrf	(_LP_FLAG)
	incf	(_LP_FLAG),f
	goto	l3662
	line	111
	
l120:	
	line	112
;MobileAdv.c: 111: }
;MobileAdv.c: 112: }
	goto	l3662
	line	113
	
l119:	
	line	115
	
l3656:	
;MobileAdv.c: 113: else
;MobileAdv.c: 114: {
;MobileAdv.c: 115: if(LP_FLAG == 1)
	bcf	status, 5	;RP0=0, select bank0
	bcf	status, 6	;RP1=0, select bank0
	movf	(_LP_FLAG),w
	xorlw	01h
	skipz
	goto	u3151
	goto	u3150
u3151:
	goto	l3662
u3150:
	line	117
	
l3658:	
;MobileAdv.c: 116: {
;MobileAdv.c: 117: stop();
	fcall	_stop
	line	118
	
l3660:	
;MobileAdv.c: 118: LP_FLAG = 0;
	bcf	status, 5	;RP0=0, select bank0
	bcf	status, 6	;RP1=0, select bank0
	clrf	(_LP_FLAG)
	goto	l3662
	line	119
	
l122:	
	goto	l3662
	line	120
	
l121:	
	goto	l3662
	line	141
	
l118:	
	line	143
	
l3662:	
;MobileAdv.c: 119: }
;MobileAdv.c: 120: }
;MobileAdv.c: 141: }
;MobileAdv.c: 143: if(WRONG_NUMBER == 1)
	bsf	status, 5	;RP0=1, select bank1
	bcf	status, 6	;RP1=0, select bank1
	movf	(_WRONG_NUMBER)^080h,w
	xorlw	01h
	skipz
	goto	u3161
	goto	u3160
u3161:
	goto	l3672
u3160:
	line	146
	
l3664:	
;MobileAdv.c: 144: {
;MobileAdv.c: 146: _delay(1000000);
	opt asmopt_off
movlw  6
	bcf	status, 5	;RP0=0, select bank0
	bcf	status, 6	;RP1=0, select bank0
movwf	((??_main+0)+0+2),f
movlw	19
movwf	((??_main+0)+0+1),f
	movlw	177
movwf	((??_main+0)+0),f
u3697:
	decfsz	((??_main+0)+0),f
	goto	u3697
	decfsz	((??_main+0)+0+1),f
	goto	u3697
	decfsz	((??_main+0)+0+2),f
	goto	u3697
	nop2
opt asmopt_on

	line	147
	
l3666:	
;MobileAdv.c: 147: SIM300Cmd("ATH");
	movlw	low((STR_4)-__stringbase)
	bcf	status, 5	;RP0=0, select bank0
	bcf	status, 6	;RP1=0, select bank0
	movwf	(SIM300Cmd@cmd)
	movlw	80h
	movwf	(SIM300Cmd@cmd+1)
	fcall	_SIM300Cmd
	line	148
	
l3668:	
;MobileAdv.c: 148: _delay(1000000);
	opt asmopt_off
movlw  6
	bcf	status, 5	;RP0=0, select bank0
	bcf	status, 6	;RP1=0, select bank0
movwf	((??_main+0)+0+2),f
movlw	19
movwf	((??_main+0)+0+1),f
	movlw	177
movwf	((??_main+0)+0),f
u3707:
	decfsz	((??_main+0)+0),f
	goto	u3707
	decfsz	((??_main+0)+0+1),f
	goto	u3707
	decfsz	((??_main+0)+0+2),f
	goto	u3707
	nop2
opt asmopt_on

	line	149
	
l3670:	
;MobileAdv.c: 149: WRONG_NUMBER = 0;
	bsf	status, 5	;RP0=1, select bank1
	bcf	status, 6	;RP1=0, select bank1
	clrf	(_WRONG_NUMBER)^080h
	goto	l3672
	line	150
	
l123:	
	line	153
	
l3672:	
;MobileAdv.c: 150: }
;MobileAdv.c: 153: SMSCommunication();
	fcall	_SMSCommunication
	line	155
	
l3674:	
;MobileAdv.c: 155: if(RING_COUNT != 0)
	bsf	status, 5	;RP0=1, select bank1
	bcf	status, 6	;RP1=0, select bank1
	movf	(_RING_COUNT)^080h,w
	skipz
	goto	u3170
	goto	l3682
u3170:
	line	157
	
l3676:	
;MobileAdv.c: 156: {
;MobileAdv.c: 157: if(Timer > 2)
	movlw	(03h)
	subwf	(_Timer)^080h,w
	skipc
	goto	u3181
	goto	u3180
u3181:
	goto	l3680
u3180:
	line	159
	
l3678:	
;MobileAdv.c: 158: {
;MobileAdv.c: 159: RING_COUNT = 0;
	clrf	(_RING_COUNT)^080h
	line	160
;MobileAdv.c: 160: Timer = 0;
	clrf	(_Timer)^080h
	line	161
;MobileAdv.c: 161: }
	goto	l3682
	line	162
	
l125:	
	line	164
	
l3680:	
;MobileAdv.c: 162: else
;MobileAdv.c: 163: {
;MobileAdv.c: 164: Timer++;
	movlw	(01h)
	bcf	status, 5	;RP0=0, select bank0
	bcf	status, 6	;RP1=0, select bank0
	movwf	(??_main+0)+0
	movf	(??_main+0)+0,w
	bsf	status, 5	;RP0=1, select bank1
	bcf	status, 6	;RP1=0, select bank1
	addwf	(_Timer)^080h,f
	goto	l3682
	line	165
	
l126:	
	goto	l3682
	line	166
	
l124:	
	line	168
	
l3682:	
;MobileAdv.c: 165: }
;MobileAdv.c: 166: }
;MobileAdv.c: 168: if(RING_COUNT == 0)
	movf	(_RING_COUNT)^080h,f
	skipz
	goto	u3191
	goto	u3190
u3191:
	goto	l116
u3190:
	line	171
	
l3684:	
;MobileAdv.c: 169: {
;MobileAdv.c: 171: r= SIM300Init();
	fcall	_SIM300Init
	bcf	status, 5	;RP0=0, select bank0
	bcf	status, 6	;RP1=0, select bank0
	movwf	(??_main+0)+0
	movf	(??_main+0)+0,w
	movwf	(main@r)
	line	172
	
l3686:	
;MobileAdv.c: 172: _delay(250000);
	opt asmopt_off
movlw  2
movwf	((??_main+0)+0+2),f
movlw	69
movwf	((??_main+0)+0+1),f
	movlw	169
movwf	((??_main+0)+0),f
u3717:
	decfsz	((??_main+0)+0),f
	goto	u3717
	decfsz	((??_main+0)+0+1),f
	goto	u3717
	decfsz	((??_main+0)+0+2),f
	goto	u3717
	nop2
opt asmopt_on

	line	174
	
l3688:	
;MobileAdv.c: 174: if(r != 1)
	bcf	status, 5	;RP0=0, select bank0
	bcf	status, 6	;RP1=0, select bank0
	movf	(main@r),w
	xorlw	01h
	skipnz
	goto	u3201
	goto	u3200
u3201:
	goto	l3704
u3200:
	goto	l3702
	line	177
	
l3690:	
;MobileAdv.c: 175: {
;MobileAdv.c: 177: while(r != 1)
	goto	l3702
	
l130:	
	line	179
;MobileAdv.c: 178: {
;MobileAdv.c: 179: RB7 = 1;
	bsf	(55/8),(55)&7	;volatile
	line	180
	
l3692:	
;MobileAdv.c: 180: _delay(100000);
	opt asmopt_off
movlw	130
movwf	((??_main+0)+0+1),f
	movlw	221
movwf	((??_main+0)+0),f
u3727:
	decfsz	((??_main+0)+0),f
	goto	u3727
	decfsz	((??_main+0)+0+1),f
	goto	u3727
	nop2
opt asmopt_on

	line	181
	
l3694:	
;MobileAdv.c: 181: RB7 = 0;
	bcf	status, 5	;RP0=0, select bank0
	bcf	status, 6	;RP1=0, select bank0
	bcf	(55/8),(55)&7	;volatile
	line	183
	
l3696:	
;MobileAdv.c: 183: r= SIM300Init();
	fcall	_SIM300Init
	bcf	status, 5	;RP0=0, select bank0
	bcf	status, 6	;RP1=0, select bank0
	movwf	(??_main+0)+0
	movf	(??_main+0)+0,w
	movwf	(main@r)
	line	184
	
l3698:	
;MobileAdv.c: 184: _delay(250000);
	opt asmopt_off
movlw  2
movwf	((??_main+0)+0+2),f
movlw	69
movwf	((??_main+0)+0+1),f
	movlw	169
movwf	((??_main+0)+0),f
u3737:
	decfsz	((??_main+0)+0),f
	goto	u3737
	decfsz	((??_main+0)+0+1),f
	goto	u3737
	decfsz	((??_main+0)+0+2),f
	goto	u3737
	nop2
opt asmopt_on

	line	185
	
l3700:	
;MobileAdv.c: 185: USARTFlushBuffer();
	fcall	_USARTFlushBuffer
	goto	l3702
	line	186
	
l129:	
	line	177
	
l3702:	
	bcf	status, 5	;RP0=0, select bank0
	bcf	status, 6	;RP1=0, select bank0
	movf	(main@r),w
	xorlw	01h
	skipz
	goto	u3211
	goto	u3210
u3211:
	goto	l130
u3210:
	
l131:	
	line	187
;MobileAdv.c: 186: }
;MobileAdv.c: 187: RB7 = 1;
	bsf	(55/8),(55)&7	;volatile
	goto	l3704
	line	188
	
l128:	
	line	189
	
l3704:	
;MobileAdv.c: 188: }
;MobileAdv.c: 189: USARTFlushBuffer();
	fcall	_USARTFlushBuffer
	goto	l116
	line	190
	
l127:	
	line	191
	
l116:	
	line	100
	fcall	_SIM300WaitForValidCall
	xorlw	01h
	skipz
	goto	u3221
	goto	u3220
u3221:
	goto	l3646
u3220:
	goto	l3706
	
l132:	
	line	194
	
l3706:	
;MobileAdv.c: 190: }
;MobileAdv.c: 191: }
;MobileAdv.c: 194: if ( MOTOR_FLAG == 0 )
	bcf	status, 5	;RP0=0, select bank0
	bcf	status, 6	;RP1=0, select bank0
	movf	(_MOTOR_FLAG),f
	skipz
	goto	u3231
	goto	u3230
u3231:
	goto	l3784
u3230:
	line	197
	
l3708:	
;MobileAdv.c: 195: {
;MobileAdv.c: 197: if ( phase_check() == 1 )
	fcall	_phase_check
	xorlw	01h
	skipz
	goto	u3241
	goto	u3240
u3241:
	goto	l3778
u3240:
	line	199
	
l3710:	
;MobileAdv.c: 198: {
;MobileAdv.c: 199: _delay(5000000);
	opt asmopt_off
movlw  26
	bcf	status, 5	;RP0=0, select bank0
	bcf	status, 6	;RP1=0, select bank0
movwf	((??_main+0)+0+2),f
movlw	94
movwf	((??_main+0)+0+1),f
	movlw	134
movwf	((??_main+0)+0),f
u3747:
	decfsz	((??_main+0)+0),f
	goto	u3747
	decfsz	((??_main+0)+0+1),f
	goto	u3747
	decfsz	((??_main+0)+0+2),f
	goto	u3747
	nop
opt asmopt_on

	line	202
	
l3712:	
;MobileAdv.c: 202: SIM300Cmd("ATH");
	movlw	low((STR_5)-__stringbase)
	bcf	status, 5	;RP0=0, select bank0
	bcf	status, 6	;RP1=0, select bank0
	movwf	(SIM300Cmd@cmd)
	movlw	80h
	movwf	(SIM300Cmd@cmd+1)
	fcall	_SIM300Cmd
	line	203
	
l3714:	
;MobileAdv.c: 203: _delay(1000000);
	opt asmopt_off
movlw  6
	bcf	status, 5	;RP0=0, select bank0
	bcf	status, 6	;RP1=0, select bank0
movwf	((??_main+0)+0+2),f
movlw	19
movwf	((??_main+0)+0+1),f
	movlw	177
movwf	((??_main+0)+0),f
u3757:
	decfsz	((??_main+0)+0),f
	goto	u3757
	decfsz	((??_main+0)+0+1),f
	goto	u3757
	decfsz	((??_main+0)+0+2),f
	goto	u3757
	nop2
opt asmopt_on

	line	206
	
l3716:	
;MobileAdv.c: 206: LP_FLAG = 1;
	bcf	status, 5	;RP0=0, select bank0
	bcf	status, 6	;RP1=0, select bank0
	clrf	(_LP_FLAG)
	incf	(_LP_FLAG),f
	line	207
	
l3718:	
;MobileAdv.c: 207: start();
	fcall	_start
	line	208
	
l3720:	
;MobileAdv.c: 208: MOTOR_FLAG = 1;
	bcf	status, 5	;RP0=0, select bank0
	bcf	status, 6	;RP1=0, select bank0
	clrf	(_MOTOR_FLAG)
	incf	(_MOTOR_FLAG),f
	line	209
	
l3722:	
;MobileAdv.c: 209: REQUIRED_RING_COUNT = 3;
	movlw	(03h)
	movwf	(??_main+0)+0
	movf	(??_main+0)+0,w
	bsf	status, 5	;RP0=1, select bank1
	bcf	status, 6	;RP1=0, select bank1
	movwf	(_REQUIRED_RING_COUNT)^080h
	line	210
	
l3724:	
;MobileAdv.c: 210: Dry_Run_Timer = 0;
	clrf	(_Dry_Run_Timer)^080h
	line	212
	
l3726:	
;MobileAdv.c: 212: unsigned char ten_seconds = 0;
	bcf	status, 5	;RP0=0, select bank0
	bcf	status, 6	;RP1=0, select bank0
	clrf	(main@ten_seconds)
	line	213
;MobileAdv.c: 213: while(phase_check() == 1 && ten_seconds < 5)
	goto	l3732
	
l136:	
	line	215
	
l3728:	
;MobileAdv.c: 214: {
;MobileAdv.c: 215: _delay(10000000);
	opt asmopt_off
movlw  51
movwf	((??_main+0)+0+2),f
movlw	188
movwf	((??_main+0)+0+1),f
	movlw	16
movwf	((??_main+0)+0),f
u3767:
	decfsz	((??_main+0)+0),f
	goto	u3767
	decfsz	((??_main+0)+0+1),f
	goto	u3767
	decfsz	((??_main+0)+0+2),f
	goto	u3767
opt asmopt_on

	line	216
	
l3730:	
;MobileAdv.c: 216: ten_seconds++;
	movlw	(01h)
	bcf	status, 5	;RP0=0, select bank0
	bcf	status, 6	;RP1=0, select bank0
	movwf	(??_main+0)+0
	movf	(??_main+0)+0,w
	addwf	(main@ten_seconds),f
	goto	l3732
	line	217
	
l135:	
	line	213
	
l3732:	
	fcall	_phase_check
	xorlw	01h
	skipz
	goto	u3251
	goto	u3250
u3251:
	goto	l3736
u3250:
	
l3734:	
	movlw	(05h)
	bcf	status, 5	;RP0=0, select bank0
	bcf	status, 6	;RP1=0, select bank0
	subwf	(main@ten_seconds),w
	skipc
	goto	u3261
	goto	u3260
u3261:
	goto	l3728
u3260:
	goto	l3736
	
l138:	
	goto	l3736
	
l139:	
	line	218
	
l3736:	
;MobileAdv.c: 217: }
;MobileAdv.c: 218: if(ten_seconds >= 5 && RA5 == 1)
	movlw	(05h)
	bcf	status, 5	;RP0=0, select bank0
	bcf	status, 6	;RP1=0, select bank0
	subwf	(main@ten_seconds),w
	skipc
	goto	u3271
	goto	u3270
u3271:
	goto	l3758
u3270:
	
l3738:	
	btfss	(45/8),(45)&7	;volatile
	goto	u3281
	goto	u3280
u3281:
	goto	l3758
u3280:
	line	221
	
l3740:	
;MobileAdv.c: 219: {
;MobileAdv.c: 221: SIM300Cmd(phone_number);
	movlw	(_phone_number&0ffh)
	movwf	(SIM300Cmd@cmd)
	movlw	(0x0)
	movwf	(SIM300Cmd@cmd+1)
	fcall	_SIM300Cmd
	line	222
	
l3742:	
;MobileAdv.c: 222: _delay(30000000);
	opt asmopt_off
movlw  153
	bcf	status, 5	;RP0=0, select bank0
	bcf	status, 6	;RP1=0, select bank0
movwf	((??_main+0)+0+2),f
movlw	50
movwf	((??_main+0)+0+1),f
	movlw	56
movwf	((??_main+0)+0),f
u3777:
	decfsz	((??_main+0)+0),f
	goto	u3777
	decfsz	((??_main+0)+0+1),f
	goto	u3777
	decfsz	((??_main+0)+0+2),f
	goto	u3777
	nop2
opt asmopt_on

	line	223
	
l3744:	
;MobileAdv.c: 223: SIM300Cmd("ATH");
	movlw	low((STR_6)-__stringbase)
	bcf	status, 5	;RP0=0, select bank0
	bcf	status, 6	;RP1=0, select bank0
	movwf	(SIM300Cmd@cmd)
	movlw	80h
	movwf	(SIM300Cmd@cmd+1)
	fcall	_SIM300Cmd
	line	224
;MobileAdv.c: 224: _delay(1000000);
	opt asmopt_off
movlw  6
	bcf	status, 5	;RP0=0, select bank0
	bcf	status, 6	;RP1=0, select bank0
movwf	((??_main+0)+0+2),f
movlw	19
movwf	((??_main+0)+0+1),f
	movlw	177
movwf	((??_main+0)+0),f
u3787:
	decfsz	((??_main+0)+0),f
	goto	u3787
	decfsz	((??_main+0)+0+1),f
	goto	u3787
	decfsz	((??_main+0)+0+2),f
	goto	u3787
	nop2
opt asmopt_on

	line	226
	
l3746:	
;MobileAdv.c: 226: eeprom_write(0x01,1);
	bcf	status, 5	;RP0=0, select bank0
	bcf	status, 6	;RP1=0, select bank0
	clrf	(eeprom_write@value)
	incf	(eeprom_write@value),f
	movlw	(01h)
	fcall	_eeprom_write
	line	229
	
l3748:	
;MobileAdv.c: 229: char i = 3;
	movlw	(03h)
	bcf	status, 5	;RP0=0, select bank0
	bcf	status, 6	;RP1=0, select bank0
	movwf	(??_main+0)+0
	movf	(??_main+0)+0,w
	movwf	(main@i)
	line	230
;MobileAdv.c: 230: while(phone_number[i] != ';')
	goto	l3754
	
l142:	
	line	232
	
l3750:	
;MobileAdv.c: 231: {
;MobileAdv.c: 232: eeprom_write(i,phone_number[i]);
	movf	(main@i),w
	addlw	_phone_number&0ffh
	movwf	fsr0
	bcf	status, 7	;select IRP bank1
	movf	indf,w
	movwf	(??_main+0)+0
	movf	(??_main+0)+0,w
	movwf	(eeprom_write@value)
	movf	(main@i),w
	fcall	_eeprom_write
	line	233
	
l3752:	
;MobileAdv.c: 233: i++;
	movlw	(01h)
	bcf	status, 5	;RP0=0, select bank0
	bcf	status, 6	;RP1=0, select bank0
	movwf	(??_main+0)+0
	movf	(??_main+0)+0,w
	addwf	(main@i),f
	goto	l3754
	line	234
	
l141:	
	line	230
	
l3754:	
	movf	(main@i),w
	addlw	_phone_number&0ffh
	movwf	fsr0
	bcf	status, 7	;select IRP bank1
	movf	indf,w
	xorlw	03Bh
	skipz
	goto	u3291
	goto	u3290
u3291:
	goto	l3750
u3290:
	goto	l3756
	
l143:	
	line	235
	
l3756:	
;MobileAdv.c: 234: }
;MobileAdv.c: 235: eeprom_write(i,';');
	movlw	(03Bh)
	movwf	(??_main+0)+0
	movf	(??_main+0)+0,w
	movwf	(eeprom_write@value)
	movf	(main@i),w
	fcall	_eeprom_write
	line	236
;MobileAdv.c: 236: }
	goto	l116
	line	237
	
l140:	
	line	239
	
l3758:	
;MobileAdv.c: 237: else
;MobileAdv.c: 238: {
;MobileAdv.c: 239: stop();
	fcall	_stop
	line	240
	
l3760:	
;MobileAdv.c: 240: uint8_t i = 3;
	movlw	(03h)
	bcf	status, 5	;RP0=0, select bank0
	bcf	status, 6	;RP1=0, select bank0
	movwf	(??_main+0)+0
	movf	(??_main+0)+0,w
	movwf	(main@i_165)
	line	241
;MobileAdv.c: 241: while(phone_number[i] != ';')
	goto	l3766
	
l146:	
	line	243
	
l3762:	
;MobileAdv.c: 242: {
;MobileAdv.c: 243: MSG_number[i-3] = phone_number[i];
	movf	(main@i_165),w
	addlw	_phone_number&0ffh
	movwf	fsr0
	bcf	status, 7	;select IRP bank1
	movf	indf,w
	movwf	(??_main+0)+0
	movf	(main@i_165),w
	addlw	0FDh
	addlw	_MSG_number&0ffh
	movwf	fsr0
	movf	(??_main+0)+0,w
	bsf	status, 7	;select IRP bank3
	movwf	indf
	line	244
	
l3764:	
;MobileAdv.c: 244: i++;
	movlw	(01h)
	movwf	(??_main+0)+0
	movf	(??_main+0)+0,w
	addwf	(main@i_165),f
	goto	l3766
	line	245
	
l145:	
	line	241
	
l3766:	
	movf	(main@i_165),w
	addlw	_phone_number&0ffh
	movwf	fsr0
	bcf	status, 7	;select IRP bank1
	movf	indf,w
	xorlw	03Bh
	skipz
	goto	u3301
	goto	u3300
u3301:
	goto	l3762
u3300:
	goto	l3768
	
l147:	
	line	246
	
l3768:	
;MobileAdv.c: 245: }
;MobileAdv.c: 246: MSG_number[i-3] = '\0';
	movf	(main@i_165),w
	addlw	0FDh
	addlw	_MSG_number&0ffh
	movwf	fsr0
	bsf	status, 7	;select IRP bank3
	clrf	indf
	line	248
	
l3770:	
;MobileAdv.c: 247: uint8_t ref,result;
;MobileAdv.c: 248: result=SIM300SendMsg(MSG_number,"STARTER PROBLEM...!",&ref);
	movlw	low((STR_7)-__stringbase)
	movwf	(SIM300SendMsg@msg)
	movlw	80h
	movwf	(SIM300SendMsg@msg+1)
	movlw	(main@ref)&0ffh
	movwf	(??_main+0)+0
	movf	(??_main+0)+0,w
	movwf	(SIM300SendMsg@msg_ref)
	movlw	(_MSG_number)&0ffh
	fcall	_SIM300SendMsg
	bcf	status, 5	;RP0=0, select bank0
	bcf	status, 6	;RP1=0, select bank0
	movwf	(??_main+1)+0
	movf	(??_main+1)+0,w
	movwf	(main@result)
	line	249
	
l3772:	
;MobileAdv.c: 249: _delay(1000000);
	opt asmopt_off
movlw  6
movwf	((??_main+0)+0+2),f
movlw	19
movwf	((??_main+0)+0+1),f
	movlw	177
movwf	((??_main+0)+0),f
u3797:
	decfsz	((??_main+0)+0),f
	goto	u3797
	decfsz	((??_main+0)+0+1),f
	goto	u3797
	decfsz	((??_main+0)+0+2),f
	goto	u3797
	nop2
opt asmopt_on

	line	250
	
l3774:	
;MobileAdv.c: 250: MOTOR_FLAG = 0;
	bcf	status, 5	;RP0=0, select bank0
	bcf	status, 6	;RP1=0, select bank0
	clrf	(_MOTOR_FLAG)
	line	251
	
l3776:	
;MobileAdv.c: 251: LP_FLAG = 0;
	clrf	(_LP_FLAG)
	goto	l116
	line	252
	
l144:	
	line	253
;MobileAdv.c: 252: }
;MobileAdv.c: 253: }
	goto	l116
	line	255
	
l134:	
	line	258
	
l3778:	
;MobileAdv.c: 255: else
;MobileAdv.c: 256: {
;MobileAdv.c: 258: _delay(35000000);
	opt asmopt_off
movlw  178
	bcf	status, 5	;RP0=0, select bank0
	bcf	status, 6	;RP1=0, select bank0
movwf	((??_main+0)+0+2),f
movlw	143
movwf	((??_main+0)+0+1),f
	movlw	195
movwf	((??_main+0)+0),f
u3807:
	decfsz	((??_main+0)+0),f
	goto	u3807
	decfsz	((??_main+0)+0+1),f
	goto	u3807
	decfsz	((??_main+0)+0+2),f
	goto	u3807
opt asmopt_on

	line	260
	
l3780:	
;MobileAdv.c: 260: SIM300Cmd("ATH");
	movlw	low((STR_8)-__stringbase)
	bcf	status, 5	;RP0=0, select bank0
	bcf	status, 6	;RP1=0, select bank0
	movwf	(SIM300Cmd@cmd)
	movlw	80h
	movwf	(SIM300Cmd@cmd+1)
	fcall	_SIM300Cmd
	line	261
	
l3782:	
;MobileAdv.c: 261: _delay(1000000);
	opt asmopt_off
movlw  6
	bcf	status, 5	;RP0=0, select bank0
	bcf	status, 6	;RP1=0, select bank0
movwf	((??_main+0)+0+2),f
movlw	19
movwf	((??_main+0)+0+1),f
	movlw	177
movwf	((??_main+0)+0),f
u3817:
	decfsz	((??_main+0)+0),f
	goto	u3817
	decfsz	((??_main+0)+0+1),f
	goto	u3817
	decfsz	((??_main+0)+0+2),f
	goto	u3817
	nop2
opt asmopt_on

	goto	l116
	line	262
	
l148:	
	line	263
;MobileAdv.c: 262: }
;MobileAdv.c: 263: continue;
	goto	l116
	line	264
	
l133:	
	line	267
	
l3784:	
;MobileAdv.c: 264: }
;MobileAdv.c: 267: if( MOTOR_FLAG == 1 )
	bcf	status, 5	;RP0=0, select bank0
	bcf	status, 6	;RP1=0, select bank0
	movf	(_MOTOR_FLAG),w
	xorlw	01h
	skipz
	goto	u3311
	goto	u3310
u3311:
	goto	l116
u3310:
	line	269
	
l3786:	
;MobileAdv.c: 268: {
;MobileAdv.c: 269: _delay(6000000);
	opt asmopt_off
movlw  31
movwf	((??_main+0)+0+2),f
movlw	113
movwf	((??_main+0)+0+1),f
	movlw	59
movwf	((??_main+0)+0),f
u3827:
	decfsz	((??_main+0)+0),f
	goto	u3827
	decfsz	((??_main+0)+0+1),f
	goto	u3827
	decfsz	((??_main+0)+0+2),f
	goto	u3827
	nop
opt asmopt_on

	line	272
	
l3788:	
;MobileAdv.c: 272: SIM300Cmd("ATH");
	movlw	low((STR_9)-__stringbase)
	bcf	status, 5	;RP0=0, select bank0
	bcf	status, 6	;RP1=0, select bank0
	movwf	(SIM300Cmd@cmd)
	movlw	80h
	movwf	(SIM300Cmd@cmd+1)
	fcall	_SIM300Cmd
	line	273
	
l3790:	
;MobileAdv.c: 273: _delay(1000000);
	opt asmopt_off
movlw  6
	bcf	status, 5	;RP0=0, select bank0
	bcf	status, 6	;RP1=0, select bank0
movwf	((??_main+0)+0+2),f
movlw	19
movwf	((??_main+0)+0+1),f
	movlw	177
movwf	((??_main+0)+0),f
u3837:
	decfsz	((??_main+0)+0),f
	goto	u3837
	decfsz	((??_main+0)+0+1),f
	goto	u3837
	decfsz	((??_main+0)+0+2),f
	goto	u3837
	nop2
opt asmopt_on

	line	275
	
l3792:	
;MobileAdv.c: 275: stop();
	fcall	_stop
	line	276
	
l3794:	
;MobileAdv.c: 276: MOTOR_FLAG = 0;
	bcf	status, 5	;RP0=0, select bank0
	bcf	status, 6	;RP1=0, select bank0
	clrf	(_MOTOR_FLAG)
	line	277
	
l3796:	
;MobileAdv.c: 277: LP_FLAG = 0;
	clrf	(_LP_FLAG)
	line	278
	
l3798:	
;MobileAdv.c: 278: REQUIRED_RING_COUNT = 1;
	bsf	status, 5	;RP0=1, select bank1
	bcf	status, 6	;RP1=0, select bank1
	clrf	(_REQUIRED_RING_COUNT)^080h
	incf	(_REQUIRED_RING_COUNT)^080h,f
	line	281
	
l3800:	
;MobileAdv.c: 281: _delay(10000000);
	opt asmopt_off
movlw  51
	bcf	status, 5	;RP0=0, select bank0
	bcf	status, 6	;RP1=0, select bank0
movwf	((??_main+0)+0+2),f
movlw	188
movwf	((??_main+0)+0+1),f
	movlw	16
movwf	((??_main+0)+0),f
u3847:
	decfsz	((??_main+0)+0),f
	goto	u3847
	decfsz	((??_main+0)+0+1),f
	goto	u3847
	decfsz	((??_main+0)+0+2),f
	goto	u3847
opt asmopt_on

	line	284
	
l3802:	
;MobileAdv.c: 284: SIM300Cmd(phone_number);
	movlw	(_phone_number&0ffh)
	bcf	status, 5	;RP0=0, select bank0
	bcf	status, 6	;RP1=0, select bank0
	movwf	(SIM300Cmd@cmd)
	movlw	(0x0)
	movwf	(SIM300Cmd@cmd+1)
	fcall	_SIM300Cmd
	line	285
	
l3804:	
;MobileAdv.c: 285: _delay(30000000);
	opt asmopt_off
movlw  153
	bcf	status, 5	;RP0=0, select bank0
	bcf	status, 6	;RP1=0, select bank0
movwf	((??_main+0)+0+2),f
movlw	50
movwf	((??_main+0)+0+1),f
	movlw	56
movwf	((??_main+0)+0),f
u3857:
	decfsz	((??_main+0)+0),f
	goto	u3857
	decfsz	((??_main+0)+0+1),f
	goto	u3857
	decfsz	((??_main+0)+0+2),f
	goto	u3857
	nop2
opt asmopt_on

	line	286
	
l3806:	
;MobileAdv.c: 286: SIM300Cmd("ATH");
	movlw	low((STR_10)-__stringbase)
	bcf	status, 5	;RP0=0, select bank0
	bcf	status, 6	;RP1=0, select bank0
	movwf	(SIM300Cmd@cmd)
	movlw	80h
	movwf	(SIM300Cmd@cmd+1)
	fcall	_SIM300Cmd
	line	287
	
l3808:	
;MobileAdv.c: 287: _delay(1000000);
	opt asmopt_off
movlw  6
	bcf	status, 5	;RP0=0, select bank0
	bcf	status, 6	;RP1=0, select bank0
movwf	((??_main+0)+0+2),f
movlw	19
movwf	((??_main+0)+0+1),f
	movlw	177
movwf	((??_main+0)+0),f
u3867:
	decfsz	((??_main+0)+0),f
	goto	u3867
	decfsz	((??_main+0)+0+1),f
	goto	u3867
	decfsz	((??_main+0)+0+2),f
	goto	u3867
	nop2
opt asmopt_on

	line	289
	
l3810:	
;MobileAdv.c: 289: eeprom_write(0x01,0);
	bcf	status, 5	;RP0=0, select bank0
	bcf	status, 6	;RP1=0, select bank0
	clrf	(eeprom_write@value)
	movlw	(01h)
	fcall	_eeprom_write
	line	292
	
l3812:	
;MobileAdv.c: 292: char i = 3;
	movlw	(03h)
	bcf	status, 5	;RP0=0, select bank0
	bcf	status, 6	;RP1=0, select bank0
	movwf	(??_main+0)+0
	movf	(??_main+0)+0,w
	movwf	(main@i_172)
	line	293
;MobileAdv.c: 293: while(phone_number[i] != ';')
	goto	l3818
	
l152:	
	line	295
	
l3814:	
;MobileAdv.c: 294: {
;MobileAdv.c: 295: eeprom_write(i,phone_number[i]);
	movf	(main@i_172),w
	addlw	_phone_number&0ffh
	movwf	fsr0
	bcf	status, 7	;select IRP bank1
	movf	indf,w
	movwf	(??_main+0)+0
	movf	(??_main+0)+0,w
	movwf	(eeprom_write@value)
	movf	(main@i_172),w
	fcall	_eeprom_write
	line	296
	
l3816:	
;MobileAdv.c: 296: i++;
	movlw	(01h)
	bcf	status, 5	;RP0=0, select bank0
	bcf	status, 6	;RP1=0, select bank0
	movwf	(??_main+0)+0
	movf	(??_main+0)+0,w
	addwf	(main@i_172),f
	goto	l3818
	line	297
	
l151:	
	line	293
	
l3818:	
	movf	(main@i_172),w
	addlw	_phone_number&0ffh
	movwf	fsr0
	bcf	status, 7	;select IRP bank1
	movf	indf,w
	xorlw	03Bh
	skipz
	goto	u3321
	goto	u3320
u3321:
	goto	l3814
u3320:
	goto	l3820
	
l153:	
	line	298
	
l3820:	
;MobileAdv.c: 297: }
;MobileAdv.c: 298: eeprom_write(i,';');
	movlw	(03Bh)
	movwf	(??_main+0)+0
	movf	(??_main+0)+0,w
	movwf	(eeprom_write@value)
	movf	(main@i_172),w
	fcall	_eeprom_write
	line	299
;MobileAdv.c: 299: continue;
	goto	l116
	line	300
	
l150:	
	goto	l116
	line	301
	
l149:	
	line	97
	goto	l116
	
l154:	
	line	302
	
l155:	
	global	start
	ljmp	start
	opt stack 0
GLOBAL	__end_of_main
	__end_of_main:
	signat	_main,88
	global	_stop

;; *************** function _stop *****************
;; Defined at:
;;		line 507 in file "E:\Study Material\XC8 PROJECTS\Modem Advance\MobileAdv.c"
;; Parameters:    Size  Location     Type
;;		None
;; Auto vars:     Size  Location     Type
;;		None
;; Return value:  Size  Location     Type
;;		None               void
;; Registers used:
;;		wreg
;; Tracked objects:
;;		On entry : 0/0
;;		On exit  : 0/0
;;		Unchanged: 0/0
;; Data sizes:     COMMON   BANK0   BANK1   BANK3   BANK2
;;      Params:         0       0       0       0       0
;;      Locals:         0       0       0       0       0
;;      Temps:          0       3       0       0       0
;;      Totals:         0       3       0       0       0
;;Total ram usage:        3 bytes
;; Hardware stack levels used:    1
;; Hardware stack levels required when called:    2
;; This function calls:
;;		Nothing
;; This function is called by:
;;		_main
;; This function uses a non-reentrant model
;;
psect	text1,local,class=CODE,delta=2,merge=1
	line	507
global __ptext1
__ptext1:	;psect for function _stop
psect	text1
	file	"E:\Study Material\XC8 PROJECTS\Modem Advance\MobileAdv.c"
	line	507
	global	__size_of_stop
	__size_of_stop	equ	__end_of_stop-_stop
	
_stop:	
;incstack = 0
	opt	stack 5
; Regs used in _stop: [wreg]
	line	510
	
l3330:	
;MobileAdv.c: 510: RC4 = 1;
	bcf	status, 5	;RP0=0, select bank0
	bcf	status, 6	;RP1=0, select bank0
	bsf	(60/8),(60)&7	;volatile
	line	511
	
l3332:	
;MobileAdv.c: 511: _delay(6000000);
	opt asmopt_off
movlw  31
movwf	((??_stop+0)+0+2),f
movlw	113
movwf	((??_stop+0)+0+1),f
	movlw	59
movwf	((??_stop+0)+0),f
u3877:
	decfsz	((??_stop+0)+0),f
	goto	u3877
	decfsz	((??_stop+0)+0+1),f
	goto	u3877
	decfsz	((??_stop+0)+0+2),f
	goto	u3877
	nop
opt asmopt_on

	line	512
	
l3334:	
;MobileAdv.c: 512: RC4 = 0;
	bcf	status, 5	;RP0=0, select bank0
	bcf	status, 6	;RP1=0, select bank0
	bcf	(60/8),(60)&7	;volatile
	line	513
	
l3336:	
;MobileAdv.c: 513: RC5 = 0;
	bcf	(61/8),(61)&7	;volatile
	line	514
;MobileAdv.c: 514: _delay(1000000);
	opt asmopt_off
movlw  6
movwf	((??_stop+0)+0+2),f
movlw	19
movwf	((??_stop+0)+0+1),f
	movlw	177
movwf	((??_stop+0)+0),f
u3887:
	decfsz	((??_stop+0)+0),f
	goto	u3887
	decfsz	((??_stop+0)+0+1),f
	goto	u3887
	decfsz	((??_stop+0)+0+2),f
	goto	u3887
	nop2
opt asmopt_on

	goto	l196
	line	515
	
l3338:	
	line	516
;MobileAdv.c: 515: return;
	
l196:	
	return
	opt stack 0
GLOBAL	__end_of_stop
	__end_of_stop:
	signat	_stop,88
	global	_start

;; *************** function _start *****************
;; Defined at:
;;		line 495 in file "E:\Study Material\XC8 PROJECTS\Modem Advance\MobileAdv.c"
;; Parameters:    Size  Location     Type
;;		None
;; Auto vars:     Size  Location     Type
;;		None
;; Return value:  Size  Location     Type
;;		None               void
;; Registers used:
;;		wreg
;; Tracked objects:
;;		On entry : 0/0
;;		On exit  : 0/0
;;		Unchanged: 0/0
;; Data sizes:     COMMON   BANK0   BANK1   BANK3   BANK2
;;      Params:         0       0       0       0       0
;;      Locals:         0       0       0       0       0
;;      Temps:          0       3       0       0       0
;;      Totals:         0       3       0       0       0
;;Total ram usage:        3 bytes
;; Hardware stack levels used:    1
;; Hardware stack levels required when called:    2
;; This function calls:
;;		Nothing
;; This function is called by:
;;		_main
;; This function uses a non-reentrant model
;;
psect	text2,local,class=CODE,delta=2,merge=1
	line	495
global __ptext2
__ptext2:	;psect for function _start
psect	text2
	file	"E:\Study Material\XC8 PROJECTS\Modem Advance\MobileAdv.c"
	line	495
	global	__size_of_start
	__size_of_start	equ	__end_of_start-_start
	
_start:	
;incstack = 0
	opt	stack 5
; Regs used in _start: [wreg]
	line	498
	
l3320:	
;MobileAdv.c: 498: RC3 = 1;
	bcf	status, 5	;RP0=0, select bank0
	bcf	status, 6	;RP1=0, select bank0
	bsf	(59/8),(59)&7	;volatile
	line	499
	
l3322:	
;MobileAdv.c: 499: _delay(5000000);
	opt asmopt_off
movlw  26
movwf	((??_start+0)+0+2),f
movlw	94
movwf	((??_start+0)+0+1),f
	movlw	134
movwf	((??_start+0)+0),f
u3897:
	decfsz	((??_start+0)+0),f
	goto	u3897
	decfsz	((??_start+0)+0+1),f
	goto	u3897
	decfsz	((??_start+0)+0+2),f
	goto	u3897
	nop
opt asmopt_on

	line	500
	
l3324:	
;MobileAdv.c: 500: RC3 = 0;
	bcf	status, 5	;RP0=0, select bank0
	bcf	status, 6	;RP1=0, select bank0
	bcf	(59/8),(59)&7	;volatile
	line	501
	
l3326:	
;MobileAdv.c: 501: RC5 = 1;
	bsf	(61/8),(61)&7	;volatile
	line	502
;MobileAdv.c: 502: _delay(1000000);
	opt asmopt_off
movlw  6
movwf	((??_start+0)+0+2),f
movlw	19
movwf	((??_start+0)+0+1),f
	movlw	177
movwf	((??_start+0)+0),f
u3907:
	decfsz	((??_start+0)+0),f
	goto	u3907
	decfsz	((??_start+0)+0+1),f
	goto	u3907
	decfsz	((??_start+0)+0+2),f
	goto	u3907
	nop2
opt asmopt_on

	goto	l193
	line	503
	
l3328:	
	line	504
;MobileAdv.c: 503: return;
	
l193:	
	return
	opt stack 0
GLOBAL	__end_of_start
	__end_of_start:
	signat	_start,88
	global	_eeprom_write

;; *************** function _eeprom_write *****************
;; Defined at:
;;		line 6 in file "C:\Program Files (x86)\Microchip\xc8\v1.33\sources\pic\eewrite.c"
;; Parameters:    Size  Location     Type
;;  addr            1    wreg     unsigned char 
;;  value           1    0[BANK0 ] unsigned char 
;; Auto vars:     Size  Location     Type
;;  addr            1    2[BANK0 ] unsigned char 
;; Return value:  Size  Location     Type
;;		None               void
;; Registers used:
;;		wreg, status,2, status,0
;; Tracked objects:
;;		On entry : 0/0
;;		On exit  : 0/0
;;		Unchanged: 0/0
;; Data sizes:     COMMON   BANK0   BANK1   BANK3   BANK2
;;      Params:         0       1       0       0       0
;;      Locals:         0       1       0       0       0
;;      Temps:          0       1       0       0       0
;;      Totals:         0       3       0       0       0
;;Total ram usage:        3 bytes
;; Hardware stack levels used:    1
;; Hardware stack levels required when called:    2
;; This function calls:
;;		Nothing
;; This function is called by:
;;		_main
;; This function uses a non-reentrant model
;;
psect	text3,local,class=CODE,delta=2,merge=1
	file	"C:\Program Files (x86)\Microchip\xc8\v1.33\sources\pic\eewrite.c"
	line	6
global __ptext3
__ptext3:	;psect for function _eeprom_write
psect	text3
	file	"C:\Program Files (x86)\Microchip\xc8\v1.33\sources\pic\eewrite.c"
	line	6
	global	__size_of_eeprom_write
	__size_of_eeprom_write	equ	__end_of_eeprom_write-_eeprom_write
	
_eeprom_write:	
;incstack = 0
	opt	stack 5
; Regs used in _eeprom_write: [wreg+status,2+status,0]
;eeprom_write@addr stored from wreg
	bcf	status, 5	;RP0=0, select bank0
	bcf	status, 6	;RP1=0, select bank0
	movwf	(eeprom_write@addr)
	line	8
	
l519:	
	goto	l520
	
l521:	
	
l520:	
	bsf	status, 5	;RP0=1, select bank3
	bsf	status, 6	;RP1=1, select bank3
	btfsc	(3169/8)^0180h,(3169)&7	;volsfr
	goto	u3011
	goto	u3010
u3011:
	goto	l520
u3010:
	goto	l3558
	
l522:	
	
l3558:	
	bcf	status, 5	;RP0=0, select bank0
	bcf	status, 6	;RP1=0, select bank0
	movf	(eeprom_write@addr),w
	bcf	status, 5	;RP0=0, select bank2
	bsf	status, 6	;RP1=1, select bank2
	movwf	(269)^0100h	;volatile
	bcf	status, 5	;RP0=0, select bank0
	bcf	status, 6	;RP1=0, select bank0
	movf	(eeprom_write@value),w
	bcf	status, 5	;RP0=0, select bank2
	bsf	status, 6	;RP1=1, select bank2
	movwf	(268)^0100h	;volatile
	
l3560:	
	movlw	(03Fh)
	bcf	status, 5	;RP0=0, select bank0
	bcf	status, 6	;RP1=0, select bank0
	movwf	(??_eeprom_write+0)+0
	movf	(??_eeprom_write+0)+0,w
	bsf	status, 5	;RP0=1, select bank3
	bsf	status, 6	;RP1=1, select bank3
	andwf	(396)^0180h,f	;volsfr
	
l3562:	
	bcf	status, 5	;RP0=0, select bank0
	bcf	status, 6	;RP1=0, select bank0
	bcf	(24/8),(24)&7	;volatile
	
l3564:	
	btfss	(95/8),(95)&7	;volatile
	goto	u3021
	goto	u3020
u3021:
	goto	l523
u3020:
	
l3566:	
	bsf	(24/8),(24)&7	;volatile
	
l523:	
	bcf	(95/8),(95)&7	;volatile
	bsf	status, 5	;RP0=1, select bank3
	bsf	status, 6	;RP1=1, select bank3
	bsf	(3170/8)^0180h,(3170)&7	;volsfr
	
l3568:	
	movlw	(055h)
	movwf	(397)^0180h	;volsfr
	movlw	(0AAh)
	movwf	(397)^0180h	;volsfr
	
l3570:	
	bsf	(3169/8)^0180h,(3169)&7	;volsfr
	
l3572:	
	bcf	(3170/8)^0180h,(3170)&7	;volsfr
	
l3574:	
	bcf	status, 5	;RP0=0, select bank0
	bcf	status, 6	;RP1=0, select bank0
	btfss	(24/8),(24)&7	;volatile
	goto	u3031
	goto	u3030
u3031:
	goto	l526
u3030:
	
l3576:	
	bsf	(95/8),(95)&7	;volatile
	goto	l526
	
l524:	
	goto	l526
	
l525:	
	line	9
	
l526:	
	return
	opt stack 0
GLOBAL	__end_of_eeprom_write
	__end_of_eeprom_write:
	signat	_eeprom_write,8312
	global	_SMSCommunication

;; *************** function _SMSCommunication *****************
;; Defined at:
;;		line 370 in file "E:\Study Material\XC8 PROJECTS\Modem Advance\MobileAdv.c"
;; Parameters:    Size  Location     Type
;;		None
;; Auto vars:     Size  Location     Type
;;  ref             1   61[BANK0 ] unsigned char 
;;  ref             1   60[BANK0 ] unsigned char 
;;  ref             1   62[BANK0 ] unsigned char 
;;  ref             1   63[BANK0 ] unsigned char 
;;  len             1   67[BANK0 ] unsigned char 
;;  c               1   66[BANK0 ] unsigned char 
;;  result          1   65[BANK0 ] unsigned char 
;;  i               1   64[BANK0 ] unsigned char 
;; Return value:  Size  Location     Type
;;		None               void
;; Registers used:
;;		wreg, fsr0l, fsr0h, status,2, status,0, btemp+1, pclath, cstack
;; Tracked objects:
;;		On entry : 0/0
;;		On exit  : 0/0
;;		Unchanged: 0/0
;; Data sizes:     COMMON   BANK0   BANK1   BANK3   BANK2
;;      Params:         0       0       0       0       0
;;      Locals:         0       8       0       0       0
;;      Temps:          0       3       0       0       0
;;      Totals:         0      11       0       0       0
;;Total ram usage:       11 bytes
;; Hardware stack levels used:    1
;; Hardware stack levels required when called:    7
;; This function calls:
;;		_SIM300SendMsg
;;		_SIM300WaitForValidMsg
;;		_USARTFlushBuffer
;;		_eeprom_read
;;		_phase_check
;;		_strcat
;;		_strcpy
;;		_strlen
;; This function is called by:
;;		_main
;; This function uses a non-reentrant model
;;
psect	text4,local,class=CODE,delta=2,merge=1
	file	"E:\Study Material\XC8 PROJECTS\Modem Advance\MobileAdv.c"
	line	370
global __ptext4
__ptext4:	;psect for function _SMSCommunication
psect	text4
	file	"E:\Study Material\XC8 PROJECTS\Modem Advance\MobileAdv.c"
	line	370
	global	__size_of_SMSCommunication
	__size_of_SMSCommunication	equ	__end_of_SMSCommunication-_SMSCommunication
	
_SMSCommunication:	
;incstack = 0
	opt	stack 0
; Regs used in _SMSCommunication: [wreg-fsr0h+status,2+status,0+btemp+1+pclath+cstack]
	line	374
	
l3340:	
;MobileAdv.c: 372: uint8_t result;
;MobileAdv.c: 373: char len, i, c;
;MobileAdv.c: 374: result = SIM300WaitForValidMsg();
	fcall	_SIM300WaitForValidMsg
	bcf	status, 5	;RP0=0, select bank0
	bcf	status, 6	;RP1=0, select bank0
	movwf	(??_SMSCommunication+0)+0
	movf	(??_SMSCommunication+0)+0,w
	movwf	(SMSCommunication@result)
	line	375
	
l3342:	
;MobileAdv.c: 375: if(result == 1)
	movf	(SMSCommunication@result),w
	xorlw	01h
	skipz
	goto	u2831
	goto	u2830
u2831:
	goto	l3478
u2830:
	line	377
	
l3344:	
;MobileAdv.c: 376: {
;MobileAdv.c: 377: if(MOTOR_FLAG == 1)
	movf	(_MOTOR_FLAG),w
	xorlw	01h
	skipz
	goto	u2841
	goto	u2840
u2841:
	goto	l3436
u2840:
	line	379
	
l3346:	
;MobileAdv.c: 378: {
;MobileAdv.c: 379: if(LP_FLAG == 1)
	movf	(_LP_FLAG),w
	xorlw	01h
	skipz
	goto	u2851
	goto	u2850
u2851:
	goto	l3380
u2850:
	line	381
	
l3348:	
;MobileAdv.c: 380: {
;MobileAdv.c: 381: strcpy(phone_number,"");
	movlw	((STR_12)-__stringbase)&0ffh
	movwf	(??_SMSCommunication+0)+0
	movf	(??_SMSCommunication+0)+0,w
	movwf	(strcpy@from)
	movlw	(_phone_number)&0ffh
	fcall	_strcpy
	line	382
;MobileAdv.c: 382: strcpy(phone_number,"MOTOR ON BY: ");
	movlw	((STR_13)-__stringbase)&0ffh
	bcf	status, 5	;RP0=0, select bank0
	bcf	status, 6	;RP1=0, select bank0
	movwf	(??_SMSCommunication+0)+0
	movf	(??_SMSCommunication+0)+0,w
	movwf	(strcpy@from)
	movlw	(_phone_number)&0ffh
	fcall	_strcpy
	line	383
	
l3350:	
;MobileAdv.c: 383: len = strlen(phone_number);
	movlw	(_phone_number&0ffh)
	bcf	status, 5	;RP0=0, select bank0
	bcf	status, 6	;RP1=0, select bank0
	movwf	(strlen@s)
	movlw	(0x0)
	movwf	(strlen@s+1)
	fcall	_strlen
	bcf	status, 5	;RP0=0, select bank0
	bcf	status, 6	;RP1=0, select bank0
	movf	(0+(?_strlen)),w
	movwf	(??_SMSCommunication+0)+0
	movf	(??_SMSCommunication+0)+0,w
	movwf	(SMSCommunication@len)
	line	384
	
l3352:	
;MobileAdv.c: 384: i = 3;
	movlw	(03h)
	movwf	(??_SMSCommunication+0)+0
	movf	(??_SMSCommunication+0)+0,w
	movwf	(SMSCommunication@i)
	line	385
	
l3354:	
;MobileAdv.c: 385: c = '+';
	movlw	(02Bh)
	movwf	(??_SMSCommunication+0)+0
	movf	(??_SMSCommunication+0)+0,w
	movwf	(SMSCommunication@c)
	line	386
;MobileAdv.c: 386: while(c != ';')
	goto	l3364
	
l175:	
	line	388
	
l3356:	
;MobileAdv.c: 387: {
;MobileAdv.c: 388: c = (char)eeprom_read(i);
	movf	(SMSCommunication@i),w
	fcall	_eeprom_read
	bcf	status, 5	;RP0=0, select bank0
	bcf	status, 6	;RP1=0, select bank0
	movwf	(??_SMSCommunication+0)+0
	movf	(??_SMSCommunication+0)+0,w
	movwf	(SMSCommunication@c)
	line	389
	
l3358:	
;MobileAdv.c: 389: phone_number[len] = c;
	movf	(SMSCommunication@c),w
	movwf	(??_SMSCommunication+0)+0
	movf	(SMSCommunication@len),w
	addlw	_phone_number&0ffh
	movwf	fsr0
	movf	(??_SMSCommunication+0)+0,w
	bcf	status, 7	;select IRP bank1
	movwf	indf
	line	390
	
l3360:	
;MobileAdv.c: 390: i++;
	movlw	(01h)
	movwf	(??_SMSCommunication+0)+0
	movf	(??_SMSCommunication+0)+0,w
	addwf	(SMSCommunication@i),f
	line	391
	
l3362:	
;MobileAdv.c: 391: len++;
	movlw	(01h)
	movwf	(??_SMSCommunication+0)+0
	movf	(??_SMSCommunication+0)+0,w
	addwf	(SMSCommunication@len),f
	goto	l3364
	line	392
	
l174:	
	line	386
	
l3364:	
	movf	(SMSCommunication@c),w
	xorlw	03Bh
	skipz
	goto	u2861
	goto	u2860
u2861:
	goto	l3356
u2860:
	goto	l3366
	
l176:	
	line	393
	
l3366:	
;MobileAdv.c: 392: }
;MobileAdv.c: 393: phone_number[len-1] = '\0';
	movf	(SMSCommunication@len),w
	addlw	0FFh
	addlw	_phone_number&0ffh
	movwf	fsr0
	bcf	status, 7	;select IRP bank1
	clrf	indf
	line	394
	
l3368:	
;MobileAdv.c: 394: strcat(phone_number,"\nPOWER OK!");
	movlw	((STR_14)-__stringbase)&0ffh
	movwf	(??_SMSCommunication+0)+0
	movf	(??_SMSCommunication+0)+0,w
	movwf	(strcat@from)
	movlw	(_phone_number)&0ffh
	fcall	_strcat
	line	396
	
l3370:	
;MobileAdv.c: 395: uint8_t ref;
;MobileAdv.c: 396: result=SIM300SendMsg(MSG_number,phone_number,&ref);
	movlw	(_phone_number&0ffh)
	bcf	status, 5	;RP0=0, select bank0
	bcf	status, 6	;RP1=0, select bank0
	movwf	(SIM300SendMsg@msg)
	movlw	(0x0)
	movwf	(SIM300SendMsg@msg+1)
	movlw	(SMSCommunication@ref)&0ffh
	movwf	(??_SMSCommunication+0)+0
	movf	(??_SMSCommunication+0)+0,w
	movwf	(SIM300SendMsg@msg_ref)
	movlw	(_MSG_number)&0ffh
	fcall	_SIM300SendMsg
	bcf	status, 5	;RP0=0, select bank0
	bcf	status, 6	;RP1=0, select bank0
	movwf	(??_SMSCommunication+1)+0
	movf	(??_SMSCommunication+1)+0,w
	movwf	(SMSCommunication@result)
	line	397
	
l3372:	
;MobileAdv.c: 397: _delay(1000000);
	opt asmopt_off
movlw  6
movwf	((??_SMSCommunication+0)+0+2),f
movlw	19
movwf	((??_SMSCommunication+0)+0+1),f
	movlw	177
movwf	((??_SMSCommunication+0)+0),f
u3917:
	decfsz	((??_SMSCommunication+0)+0),f
	goto	u3917
	decfsz	((??_SMSCommunication+0)+0+1),f
	goto	u3917
	decfsz	((??_SMSCommunication+0)+0+2),f
	goto	u3917
	nop2
opt asmopt_on

	line	398
	
l3374:	
;MobileAdv.c: 398: strcpy(phone_number,"");
	movlw	((STR_15)-__stringbase)&0ffh
	bcf	status, 5	;RP0=0, select bank0
	bcf	status, 6	;RP1=0, select bank0
	movwf	(??_SMSCommunication+0)+0
	movf	(??_SMSCommunication+0)+0,w
	movwf	(strcpy@from)
	movlw	(_phone_number)&0ffh
	fcall	_strcpy
	line	399
	
l3376:	
;MobileAdv.c: 399: strcpy(phone_number,"ATD");
	movlw	((STR_16)-__stringbase)&0ffh
	bcf	status, 5	;RP0=0, select bank0
	bcf	status, 6	;RP1=0, select bank0
	movwf	(??_SMSCommunication+0)+0
	movf	(??_SMSCommunication+0)+0,w
	movwf	(strcpy@from)
	movlw	(_phone_number)&0ffh
	fcall	_strcpy
	goto	l177
	line	400
	
l3378:	
;MobileAdv.c: 400: return;
	goto	l177
	line	401
	
l173:	
	line	402
	
l3380:	
;MobileAdv.c: 401: }
;MobileAdv.c: 402: if(LP_FLAG == 0)
	bcf	status, 5	;RP0=0, select bank0
	bcf	status, 6	;RP1=0, select bank0
	movf	(_LP_FLAG),f
	skipz
	goto	u2871
	goto	u2870
u2871:
	goto	l3436
u2870:
	line	404
	
l3382:	
;MobileAdv.c: 403: {
;MobileAdv.c: 404: strcpy(phone_number,"");
	movlw	((STR_17)-__stringbase)&0ffh
	movwf	(??_SMSCommunication+0)+0
	movf	(??_SMSCommunication+0)+0,w
	movwf	(strcpy@from)
	movlw	(_phone_number)&0ffh
	fcall	_strcpy
	line	405
;MobileAdv.c: 405: strcpy(phone_number,"POWER FAIL ON PHASE ");
	movlw	((STR_18)-__stringbase)&0ffh
	bcf	status, 5	;RP0=0, select bank0
	bcf	status, 6	;RP1=0, select bank0
	movwf	(??_SMSCommunication+0)+0
	movf	(??_SMSCommunication+0)+0,w
	movwf	(strcpy@from)
	movlw	(_phone_number)&0ffh
	fcall	_strcpy
	line	406
	
l3384:	
;MobileAdv.c: 406: if(RC0 == 0)
	bcf	status, 5	;RP0=0, select bank0
	bcf	status, 6	;RP1=0, select bank0
	btfsc	(56/8),(56)&7	;volatile
	goto	u2881
	goto	u2880
u2881:
	goto	l3398
u2880:
	line	408
	
l3386:	
;MobileAdv.c: 407: {
;MobileAdv.c: 408: len = strlen(phone_number);
	movlw	(_phone_number&0ffh)
	movwf	(strlen@s)
	movlw	(0x0)
	movwf	(strlen@s+1)
	fcall	_strlen
	bcf	status, 5	;RP0=0, select bank0
	bcf	status, 6	;RP1=0, select bank0
	movf	(0+(?_strlen)),w
	movwf	(??_SMSCommunication+0)+0
	movf	(??_SMSCommunication+0)+0,w
	movwf	(SMSCommunication@len)
	line	409
	
l3388:	
;MobileAdv.c: 409: phone_number[len] = '-';
	movlw	(02Dh)
	movwf	(??_SMSCommunication+0)+0
	movf	(SMSCommunication@len),w
	addlw	_phone_number&0ffh
	movwf	fsr0
	movf	(??_SMSCommunication+0)+0,w
	bcf	status, 7	;select IRP bank1
	movwf	indf
	line	410
	
l3390:	
;MobileAdv.c: 410: len++;
	movlw	(01h)
	movwf	(??_SMSCommunication+0)+0
	movf	(??_SMSCommunication+0)+0,w
	addwf	(SMSCommunication@len),f
	line	411
	
l3392:	
;MobileAdv.c: 411: phone_number[len] = '1';
	movlw	(031h)
	movwf	(??_SMSCommunication+0)+0
	movf	(SMSCommunication@len),w
	addlw	_phone_number&0ffh
	movwf	fsr0
	movf	(??_SMSCommunication+0)+0,w
	movwf	indf
	line	412
	
l3394:	
;MobileAdv.c: 412: len++;
	movlw	(01h)
	movwf	(??_SMSCommunication+0)+0
	movf	(??_SMSCommunication+0)+0,w
	addwf	(SMSCommunication@len),f
	line	413
	
l3396:	
;MobileAdv.c: 413: phone_number[len] = '\0';
	movf	(SMSCommunication@len),w
	addlw	_phone_number&0ffh
	movwf	fsr0
	clrf	indf
	goto	l3398
	line	414
	
l179:	
	line	415
	
l3398:	
;MobileAdv.c: 414: }
;MobileAdv.c: 415: if(RC1 == 0)
	btfsc	(57/8),(57)&7	;volatile
	goto	u2891
	goto	u2890
u2891:
	goto	l3412
u2890:
	line	417
	
l3400:	
;MobileAdv.c: 416: {
;MobileAdv.c: 417: len = strlen(phone_number);
	movlw	(_phone_number&0ffh)
	movwf	(strlen@s)
	movlw	(0x0)
	movwf	(strlen@s+1)
	fcall	_strlen
	bcf	status, 5	;RP0=0, select bank0
	bcf	status, 6	;RP1=0, select bank0
	movf	(0+(?_strlen)),w
	movwf	(??_SMSCommunication+0)+0
	movf	(??_SMSCommunication+0)+0,w
	movwf	(SMSCommunication@len)
	line	418
	
l3402:	
;MobileAdv.c: 418: phone_number[len] = '-';
	movlw	(02Dh)
	movwf	(??_SMSCommunication+0)+0
	movf	(SMSCommunication@len),w
	addlw	_phone_number&0ffh
	movwf	fsr0
	movf	(??_SMSCommunication+0)+0,w
	bcf	status, 7	;select IRP bank1
	movwf	indf
	line	419
	
l3404:	
;MobileAdv.c: 419: len++;
	movlw	(01h)
	movwf	(??_SMSCommunication+0)+0
	movf	(??_SMSCommunication+0)+0,w
	addwf	(SMSCommunication@len),f
	line	420
	
l3406:	
;MobileAdv.c: 420: phone_number[len] = '2';
	movlw	(032h)
	movwf	(??_SMSCommunication+0)+0
	movf	(SMSCommunication@len),w
	addlw	_phone_number&0ffh
	movwf	fsr0
	movf	(??_SMSCommunication+0)+0,w
	movwf	indf
	line	421
	
l3408:	
;MobileAdv.c: 421: len++;
	movlw	(01h)
	movwf	(??_SMSCommunication+0)+0
	movf	(??_SMSCommunication+0)+0,w
	addwf	(SMSCommunication@len),f
	line	422
	
l3410:	
;MobileAdv.c: 422: phone_number[len] = '\0';
	movf	(SMSCommunication@len),w
	addlw	_phone_number&0ffh
	movwf	fsr0
	clrf	indf
	goto	l3412
	line	423
	
l180:	
	line	424
	
l3412:	
;MobileAdv.c: 423: }
;MobileAdv.c: 424: if(RC2 == 0)
	btfsc	(58/8),(58)&7	;volatile
	goto	u2901
	goto	u2900
u2901:
	goto	l3426
u2900:
	line	426
	
l3414:	
;MobileAdv.c: 425: {
;MobileAdv.c: 426: len = strlen(phone_number);
	movlw	(_phone_number&0ffh)
	movwf	(strlen@s)
	movlw	(0x0)
	movwf	(strlen@s+1)
	fcall	_strlen
	bcf	status, 5	;RP0=0, select bank0
	bcf	status, 6	;RP1=0, select bank0
	movf	(0+(?_strlen)),w
	movwf	(??_SMSCommunication+0)+0
	movf	(??_SMSCommunication+0)+0,w
	movwf	(SMSCommunication@len)
	line	427
	
l3416:	
;MobileAdv.c: 427: phone_number[len] = '-';
	movlw	(02Dh)
	movwf	(??_SMSCommunication+0)+0
	movf	(SMSCommunication@len),w
	addlw	_phone_number&0ffh
	movwf	fsr0
	movf	(??_SMSCommunication+0)+0,w
	bcf	status, 7	;select IRP bank1
	movwf	indf
	line	428
	
l3418:	
;MobileAdv.c: 428: len++;
	movlw	(01h)
	movwf	(??_SMSCommunication+0)+0
	movf	(??_SMSCommunication+0)+0,w
	addwf	(SMSCommunication@len),f
	line	429
	
l3420:	
;MobileAdv.c: 429: phone_number[len] = '3';
	movlw	(033h)
	movwf	(??_SMSCommunication+0)+0
	movf	(SMSCommunication@len),w
	addlw	_phone_number&0ffh
	movwf	fsr0
	movf	(??_SMSCommunication+0)+0,w
	movwf	indf
	line	430
	
l3422:	
;MobileAdv.c: 430: len++;
	movlw	(01h)
	movwf	(??_SMSCommunication+0)+0
	movf	(??_SMSCommunication+0)+0,w
	addwf	(SMSCommunication@len),f
	line	431
	
l3424:	
;MobileAdv.c: 431: phone_number[len] = '\0';
	movf	(SMSCommunication@len),w
	addlw	_phone_number&0ffh
	movwf	fsr0
	clrf	indf
	goto	l3426
	line	432
	
l181:	
	line	434
	
l3426:	
;MobileAdv.c: 432: }
;MobileAdv.c: 433: uint8_t ref;
;MobileAdv.c: 434: result=SIM300SendMsg(MSG_number,phone_number,&ref);
	movlw	(_phone_number&0ffh)
	movwf	(SIM300SendMsg@msg)
	movlw	(0x0)
	movwf	(SIM300SendMsg@msg+1)
	movlw	(SMSCommunication@ref_192)&0ffh
	movwf	(??_SMSCommunication+0)+0
	movf	(??_SMSCommunication+0)+0,w
	movwf	(SIM300SendMsg@msg_ref)
	movlw	(_MSG_number)&0ffh
	fcall	_SIM300SendMsg
	bcf	status, 5	;RP0=0, select bank0
	bcf	status, 6	;RP1=0, select bank0
	movwf	(??_SMSCommunication+1)+0
	movf	(??_SMSCommunication+1)+0,w
	movwf	(SMSCommunication@result)
	line	435
	
l3428:	
;MobileAdv.c: 435: _delay(1000000);
	opt asmopt_off
movlw  6
movwf	((??_SMSCommunication+0)+0+2),f
movlw	19
movwf	((??_SMSCommunication+0)+0+1),f
	movlw	177
movwf	((??_SMSCommunication+0)+0),f
u3927:
	decfsz	((??_SMSCommunication+0)+0),f
	goto	u3927
	decfsz	((??_SMSCommunication+0)+0+1),f
	goto	u3927
	decfsz	((??_SMSCommunication+0)+0+2),f
	goto	u3927
	nop2
opt asmopt_on

	line	436
	
l3430:	
;MobileAdv.c: 436: strcpy(phone_number,"");
	movlw	((STR_19)-__stringbase)&0ffh
	bcf	status, 5	;RP0=0, select bank0
	bcf	status, 6	;RP1=0, select bank0
	movwf	(??_SMSCommunication+0)+0
	movf	(??_SMSCommunication+0)+0,w
	movwf	(strcpy@from)
	movlw	(_phone_number)&0ffh
	fcall	_strcpy
	line	437
	
l3432:	
;MobileAdv.c: 437: strcpy(phone_number,"ATD");
	movlw	((STR_20)-__stringbase)&0ffh
	bcf	status, 5	;RP0=0, select bank0
	bcf	status, 6	;RP1=0, select bank0
	movwf	(??_SMSCommunication+0)+0
	movf	(??_SMSCommunication+0)+0,w
	movwf	(strcpy@from)
	movlw	(_phone_number)&0ffh
	fcall	_strcpy
	goto	l177
	line	438
	
l3434:	
;MobileAdv.c: 438: return;
	goto	l177
	line	439
	
l178:	
	goto	l3436
	line	440
	
l172:	
	line	441
	
l3436:	
;MobileAdv.c: 439: }
;MobileAdv.c: 440: }
;MobileAdv.c: 441: if(MOTOR_FLAG == 0)
	bcf	status, 5	;RP0=0, select bank0
	bcf	status, 6	;RP1=0, select bank0
	movf	(_MOTOR_FLAG),f
	skipz
	goto	u2911
	goto	u2910
u2911:
	goto	l3478
u2910:
	line	443
	
l3438:	
;MobileAdv.c: 442: {
;MobileAdv.c: 443: if(Dry_Run_Timer > 6)
	movlw	(07h)
	bsf	status, 5	;RP0=1, select bank1
	bcf	status, 6	;RP1=0, select bank1
	subwf	(_Dry_Run_Timer)^080h,w
	skipc
	goto	u2921
	goto	u2920
u2921:
	goto	l3442
u2920:
	line	446
	
l3440:	
;MobileAdv.c: 444: {
;MobileAdv.c: 446: strcpy(phone_number,"");
	movlw	((STR_21)-__stringbase)&0ffh
	bcf	status, 5	;RP0=0, select bank0
	bcf	status, 6	;RP1=0, select bank0
	movwf	(??_SMSCommunication+0)+0
	movf	(??_SMSCommunication+0)+0,w
	movwf	(strcpy@from)
	movlw	(_phone_number)&0ffh
	fcall	_strcpy
	line	447
;MobileAdv.c: 447: strcpy(phone_number,"DRY RUN.");
	movlw	((STR_22)-__stringbase)&0ffh
	bcf	status, 5	;RP0=0, select bank0
	bcf	status, 6	;RP1=0, select bank0
	movwf	(??_SMSCommunication+0)+0
	movf	(??_SMSCommunication+0)+0,w
	movwf	(strcpy@from)
	movlw	(_phone_number)&0ffh
	fcall	_strcpy
	line	448
;MobileAdv.c: 448: }
	goto	l3462
	line	449
	
l183:	
	line	451
	
l3442:	
;MobileAdv.c: 449: else
;MobileAdv.c: 450: {
;MobileAdv.c: 451: strcpy(phone_number,"");
	movlw	((STR_23)-__stringbase)&0ffh
	bcf	status, 5	;RP0=0, select bank0
	bcf	status, 6	;RP1=0, select bank0
	movwf	(??_SMSCommunication+0)+0
	movf	(??_SMSCommunication+0)+0,w
	movwf	(strcpy@from)
	movlw	(_phone_number)&0ffh
	fcall	_strcpy
	line	452
;MobileAdv.c: 452: strcpy(phone_number,"MOTOR OFF BY: ");
	movlw	((STR_24)-__stringbase)&0ffh
	bcf	status, 5	;RP0=0, select bank0
	bcf	status, 6	;RP1=0, select bank0
	movwf	(??_SMSCommunication+0)+0
	movf	(??_SMSCommunication+0)+0,w
	movwf	(strcpy@from)
	movlw	(_phone_number)&0ffh
	fcall	_strcpy
	line	453
	
l3444:	
;MobileAdv.c: 453: len = strlen(phone_number);
	movlw	(_phone_number&0ffh)
	bcf	status, 5	;RP0=0, select bank0
	bcf	status, 6	;RP1=0, select bank0
	movwf	(strlen@s)
	movlw	(0x0)
	movwf	(strlen@s+1)
	fcall	_strlen
	bcf	status, 5	;RP0=0, select bank0
	bcf	status, 6	;RP1=0, select bank0
	movf	(0+(?_strlen)),w
	movwf	(??_SMSCommunication+0)+0
	movf	(??_SMSCommunication+0)+0,w
	movwf	(SMSCommunication@len)
	line	454
	
l3446:	
;MobileAdv.c: 454: i = 3;
	movlw	(03h)
	movwf	(??_SMSCommunication+0)+0
	movf	(??_SMSCommunication+0)+0,w
	movwf	(SMSCommunication@i)
	line	455
	
l3448:	
;MobileAdv.c: 455: c = '+';
	movlw	(02Bh)
	movwf	(??_SMSCommunication+0)+0
	movf	(??_SMSCommunication+0)+0,w
	movwf	(SMSCommunication@c)
	line	456
;MobileAdv.c: 456: while(c != ';')
	goto	l3458
	
l186:	
	line	458
	
l3450:	
;MobileAdv.c: 457: {
;MobileAdv.c: 458: c = (char)eeprom_read(i);
	movf	(SMSCommunication@i),w
	fcall	_eeprom_read
	bcf	status, 5	;RP0=0, select bank0
	bcf	status, 6	;RP1=0, select bank0
	movwf	(??_SMSCommunication+0)+0
	movf	(??_SMSCommunication+0)+0,w
	movwf	(SMSCommunication@c)
	line	459
	
l3452:	
;MobileAdv.c: 459: phone_number[len] = c;
	movf	(SMSCommunication@c),w
	movwf	(??_SMSCommunication+0)+0
	movf	(SMSCommunication@len),w
	addlw	_phone_number&0ffh
	movwf	fsr0
	movf	(??_SMSCommunication+0)+0,w
	bcf	status, 7	;select IRP bank1
	movwf	indf
	line	460
	
l3454:	
;MobileAdv.c: 460: i++;
	movlw	(01h)
	movwf	(??_SMSCommunication+0)+0
	movf	(??_SMSCommunication+0)+0,w
	addwf	(SMSCommunication@i),f
	line	461
	
l3456:	
;MobileAdv.c: 461: len++;
	movlw	(01h)
	movwf	(??_SMSCommunication+0)+0
	movf	(??_SMSCommunication+0)+0,w
	addwf	(SMSCommunication@len),f
	goto	l3458
	line	462
	
l185:	
	line	456
	
l3458:	
	movf	(SMSCommunication@c),w
	xorlw	03Bh
	skipz
	goto	u2931
	goto	u2930
u2931:
	goto	l3450
u2930:
	goto	l3460
	
l187:	
	line	463
	
l3460:	
;MobileAdv.c: 462: }
;MobileAdv.c: 463: phone_number[len-1] = '\0';
	movf	(SMSCommunication@len),w
	addlw	0FFh
	addlw	_phone_number&0ffh
	movwf	fsr0
	bcf	status, 7	;select IRP bank1
	clrf	indf
	goto	l3462
	line	464
	
l184:	
	line	466
	
l3462:	
;MobileAdv.c: 464: }
;MobileAdv.c: 466: if(phase_check() == 1)
	fcall	_phase_check
	xorlw	01h
	skipz
	goto	u2941
	goto	u2940
u2941:
	goto	l3466
u2940:
	line	468
	
l3464:	
;MobileAdv.c: 467: {
;MobileAdv.c: 468: strcat(phone_number,"\nPOWER OK!");
	movlw	((STR_25)-__stringbase)&0ffh
	bcf	status, 5	;RP0=0, select bank0
	bcf	status, 6	;RP1=0, select bank0
	movwf	(??_SMSCommunication+0)+0
	movf	(??_SMSCommunication+0)+0,w
	movwf	(strcat@from)
	movlw	(_phone_number)&0ffh
	fcall	_strcat
	line	469
;MobileAdv.c: 469: }
	goto	l3468
	line	470
	
l188:	
	line	472
	
l3466:	
;MobileAdv.c: 470: else
;MobileAdv.c: 471: {
;MobileAdv.c: 472: strcat(phone_number,"\nPOWER FAIL!");
	movlw	((STR_26)-__stringbase)&0ffh
	bcf	status, 5	;RP0=0, select bank0
	bcf	status, 6	;RP1=0, select bank0
	movwf	(??_SMSCommunication+0)+0
	movf	(??_SMSCommunication+0)+0,w
	movwf	(strcat@from)
	movlw	(_phone_number)&0ffh
	fcall	_strcat
	goto	l3468
	line	473
	
l189:	
	line	476
	
l3468:	
;MobileAdv.c: 473: }
;MobileAdv.c: 475: uint8_t ref;
;MobileAdv.c: 476: result=SIM300SendMsg(MSG_number,phone_number,&ref);
	movlw	(_phone_number&0ffh)
	bcf	status, 5	;RP0=0, select bank0
	bcf	status, 6	;RP1=0, select bank0
	movwf	(SIM300SendMsg@msg)
	movlw	(0x0)
	movwf	(SIM300SendMsg@msg+1)
	movlw	(SMSCommunication@ref_201)&0ffh
	movwf	(??_SMSCommunication+0)+0
	movf	(??_SMSCommunication+0)+0,w
	movwf	(SIM300SendMsg@msg_ref)
	movlw	(_MSG_number)&0ffh
	fcall	_SIM300SendMsg
	bcf	status, 5	;RP0=0, select bank0
	bcf	status, 6	;RP1=0, select bank0
	movwf	(??_SMSCommunication+1)+0
	movf	(??_SMSCommunication+1)+0,w
	movwf	(SMSCommunication@result)
	line	477
	
l3470:	
;MobileAdv.c: 477: _delay(1000000);
	opt asmopt_off
movlw  6
movwf	((??_SMSCommunication+0)+0+2),f
movlw	19
movwf	((??_SMSCommunication+0)+0+1),f
	movlw	177
movwf	((??_SMSCommunication+0)+0),f
u3937:
	decfsz	((??_SMSCommunication+0)+0),f
	goto	u3937
	decfsz	((??_SMSCommunication+0)+0+1),f
	goto	u3937
	decfsz	((??_SMSCommunication+0)+0+2),f
	goto	u3937
	nop2
opt asmopt_on

	line	478
	
l3472:	
;MobileAdv.c: 478: strcpy(phone_number,"");
	movlw	((STR_27)-__stringbase)&0ffh
	bcf	status, 5	;RP0=0, select bank0
	bcf	status, 6	;RP1=0, select bank0
	movwf	(??_SMSCommunication+0)+0
	movf	(??_SMSCommunication+0)+0,w
	movwf	(strcpy@from)
	movlw	(_phone_number)&0ffh
	fcall	_strcpy
	line	479
	
l3474:	
;MobileAdv.c: 479: strcpy(phone_number,"ATD");
	movlw	((STR_28)-__stringbase)&0ffh
	bcf	status, 5	;RP0=0, select bank0
	bcf	status, 6	;RP1=0, select bank0
	movwf	(??_SMSCommunication+0)+0
	movf	(??_SMSCommunication+0)+0,w
	movwf	(strcpy@from)
	movlw	(_phone_number)&0ffh
	fcall	_strcpy
	goto	l177
	line	480
	
l3476:	
;MobileAdv.c: 480: return;
	goto	l177
	line	481
	
l182:	
	goto	l3478
	line	482
	
l171:	
	line	483
	
l3478:	
;MobileAdv.c: 481: }
;MobileAdv.c: 482: }
;MobileAdv.c: 483: if(result == 201)
	bcf	status, 5	;RP0=0, select bank0
	bcf	status, 6	;RP1=0, select bank0
	movf	(SMSCommunication@result),w
	xorlw	0C9h
	skipz
	goto	u2951
	goto	u2950
u2951:
	goto	l3486
u2950:
	line	486
	
l3480:	
;MobileAdv.c: 484: {
;MobileAdv.c: 485: uint8_t ref;
;MobileAdv.c: 486: result=SIM300SendMsg(MSG_number,"Invalid Keyword",&ref);
	movlw	low((STR_29)-__stringbase)
	movwf	(SIM300SendMsg@msg)
	movlw	80h
	movwf	(SIM300SendMsg@msg+1)
	movlw	(SMSCommunication@ref_204)&0ffh
	movwf	(??_SMSCommunication+0)+0
	movf	(??_SMSCommunication+0)+0,w
	movwf	(SIM300SendMsg@msg_ref)
	movlw	(_MSG_number)&0ffh
	fcall	_SIM300SendMsg
	bcf	status, 5	;RP0=0, select bank0
	bcf	status, 6	;RP1=0, select bank0
	movwf	(??_SMSCommunication+1)+0
	movf	(??_SMSCommunication+1)+0,w
	movwf	(SMSCommunication@result)
	line	487
	
l3482:	
;MobileAdv.c: 487: _delay(1000000);
	opt asmopt_off
movlw  6
movwf	((??_SMSCommunication+0)+0+2),f
movlw	19
movwf	((??_SMSCommunication+0)+0+1),f
	movlw	177
movwf	((??_SMSCommunication+0)+0),f
u3947:
	decfsz	((??_SMSCommunication+0)+0),f
	goto	u3947
	decfsz	((??_SMSCommunication+0)+0+1),f
	goto	u3947
	decfsz	((??_SMSCommunication+0)+0+2),f
	goto	u3947
	nop2
opt asmopt_on

	goto	l177
	line	488
	
l3484:	
;MobileAdv.c: 488: return;
	goto	l177
	line	489
	
l190:	
	line	491
	
l3486:	
;MobileAdv.c: 489: }
;MobileAdv.c: 491: USARTFlushBuffer();
	fcall	_USARTFlushBuffer
	goto	l177
	line	492
	
l3488:	
	line	493
;MobileAdv.c: 492: return;
	
l177:	
	return
	opt stack 0
GLOBAL	__end_of_SMSCommunication
	__end_of_SMSCommunication:
	signat	_SMSCommunication,88
	global	_strcpy

;; *************** function _strcpy *****************
;; Defined at:
;;		line 8 in file "C:\Program Files (x86)\Microchip\xc8\v1.33\sources\common\strcpy.c"
;; Parameters:    Size  Location     Type
;;  to              1    wreg     PTR unsigned char 
;;		 -> phone_number(40), 
;;  from            1    0[BANK0 ] PTR const unsigned char 
;;		 -> STR_28(4), STR_27(1), STR_24(15), STR_23(1), 
;;		 -> STR_22(9), STR_21(1), STR_20(4), STR_19(1), 
;;		 -> STR_18(21), STR_17(1), STR_16(4), STR_15(1), 
;;		 -> STR_13(14), STR_12(1), 
;; Auto vars:     Size  Location     Type
;;  to              1    3[BANK0 ] PTR unsigned char 
;;		 -> phone_number(40), 
;;  cp              1    2[BANK0 ] PTR unsigned char 
;;		 -> phone_number(40), 
;; Return value:  Size  Location     Type
;;                  1    wreg      PTR unsigned char 
;; Registers used:
;;		wreg, fsr0l, fsr0h, status,2, status,0, pclath
;; Tracked objects:
;;		On entry : 0/0
;;		On exit  : 0/0
;;		Unchanged: 0/0
;; Data sizes:     COMMON   BANK0   BANK1   BANK3   BANK2
;;      Params:         0       1       0       0       0
;;      Locals:         0       2       0       0       0
;;      Temps:          0       1       0       0       0
;;      Totals:         0       4       0       0       0
;;Total ram usage:        4 bytes
;; Hardware stack levels used:    1
;; Hardware stack levels required when called:    2
;; This function calls:
;;		Nothing
;; This function is called by:
;;		_SMSCommunication
;; This function uses a non-reentrant model
;;
psect	text5,local,class=CODE,delta=2,merge=1
	file	"C:\Program Files (x86)\Microchip\xc8\v1.33\sources\common\strcpy.c"
	line	8
global __ptext5
__ptext5:	;psect for function _strcpy
psect	text5
	file	"C:\Program Files (x86)\Microchip\xc8\v1.33\sources\common\strcpy.c"
	line	8
	global	__size_of_strcpy
	__size_of_strcpy	equ	__end_of_strcpy-_strcpy
	
_strcpy:	
;incstack = 0
	opt	stack 4
; Regs used in _strcpy: [wreg-fsr0h+status,2+status,0+pclath]
;strcpy@to stored from wreg
	bcf	status, 5	;RP0=0, select bank0
	bcf	status, 6	;RP1=0, select bank0
	movwf	(strcpy@to)
	line	18
	
l3190:	
	movf	(strcpy@to),w
	movwf	(??_strcpy+0)+0
	movf	(??_strcpy+0)+0,w
	movwf	(strcpy@cp)
	line	19
	goto	l3194
	
l994:	
	line	20
	
l3192:	
	movlw	(01h)
	movwf	(??_strcpy+0)+0
	movf	(??_strcpy+0)+0,w
	addwf	(strcpy@cp),f
	line	21
	movlw	(01h)
	movwf	(??_strcpy+0)+0
	movf	(??_strcpy+0)+0,w
	addwf	(strcpy@from),f
	goto	l3194
	line	22
	
l993:	
	line	19
	
l3194:	
	movf	(strcpy@from),w
	movwf	fsr0
	fcall	stringdir
	movwf	(??_strcpy+0)+0
	movf	(strcpy@cp),w
	movwf	fsr0
	movf	(??_strcpy+0)+0,w
	bcf	status, 7	;select IRP bank0
	movwf	indf
	movf	(indf),f
	skipz
	goto	u2641
	goto	u2640
u2641:
	goto	l3192
u2640:
	goto	l996
	
l995:	
	line	24
;	Return value of _strcpy is never used
	
l996:	
	return
	opt stack 0
GLOBAL	__end_of_strcpy
	__end_of_strcpy:
	signat	_strcpy,8313
	global	_strcat

;; *************** function _strcat *****************
;; Defined at:
;;		line 8 in file "C:\Program Files (x86)\Microchip\xc8\v1.33\sources\common\strcat.c"
;; Parameters:    Size  Location     Type
;;  to              1    wreg     PTR unsigned char 
;;		 -> phone_number(40), 
;;  from            1    0[BANK0 ] PTR const unsigned char 
;;		 -> STR_26(13), STR_25(11), STR_14(11), 
;; Auto vars:     Size  Location     Type
;;  to              1    2[BANK0 ] PTR unsigned char 
;;		 -> phone_number(40), 
;;  cp              1    3[BANK0 ] PTR unsigned char 
;;		 -> phone_number(40), 
;; Return value:  Size  Location     Type
;;                  1    wreg      PTR unsigned char 
;; Registers used:
;;		wreg, fsr0l, fsr0h, status,2, status,0, pclath
;; Tracked objects:
;;		On entry : 0/0
;;		On exit  : 0/0
;;		Unchanged: 0/0
;; Data sizes:     COMMON   BANK0   BANK1   BANK3   BANK2
;;      Params:         0       1       0       0       0
;;      Locals:         0       2       0       0       0
;;      Temps:          0       1       0       0       0
;;      Totals:         0       4       0       0       0
;;Total ram usage:        4 bytes
;; Hardware stack levels used:    1
;; Hardware stack levels required when called:    2
;; This function calls:
;;		Nothing
;; This function is called by:
;;		_SMSCommunication
;; This function uses a non-reentrant model
;;
psect	text6,local,class=CODE,delta=2,merge=1
	file	"C:\Program Files (x86)\Microchip\xc8\v1.33\sources\common\strcat.c"
	line	8
global __ptext6
__ptext6:	;psect for function _strcat
psect	text6
	file	"C:\Program Files (x86)\Microchip\xc8\v1.33\sources\common\strcat.c"
	line	8
	global	__size_of_strcat
	__size_of_strcat	equ	__end_of_strcat-_strcat
	
_strcat:	
;incstack = 0
	opt	stack 4
; Regs used in _strcat: [wreg-fsr0h+status,2+status,0+pclath]
;strcat@to stored from wreg
	bcf	status, 5	;RP0=0, select bank0
	bcf	status, 6	;RP1=0, select bank0
	movwf	(strcat@to)
	line	18
	
l3196:	
	movf	(strcat@to),w
	movwf	(??_strcat+0)+0
	movf	(??_strcat+0)+0,w
	movwf	(strcat@cp)
	line	19
	goto	l3200
	
l985:	
	line	20
	
l3198:	
	movlw	(01h)
	movwf	(??_strcat+0)+0
	movf	(??_strcat+0)+0,w
	addwf	(strcat@cp),f
	goto	l3200
	
l984:	
	line	19
	
l3200:	
	movf	(strcat@cp),w
	movwf	fsr0
	bcf	status, 7	;select IRP bank0
	movf	indf,f
	skipz
	goto	u2651
	goto	u2650
u2651:
	goto	l3198
u2650:
	goto	l3204
	
l986:	
	line	21
	goto	l3204
	
l988:	
	line	22
	
l3202:	
	movlw	(01h)
	movwf	(??_strcat+0)+0
	movf	(??_strcat+0)+0,w
	addwf	(strcat@cp),f
	line	23
	movlw	(01h)
	movwf	(??_strcat+0)+0
	movf	(??_strcat+0)+0,w
	addwf	(strcat@from),f
	goto	l3204
	line	24
	
l987:	
	line	21
	
l3204:	
	movf	(strcat@from),w
	movwf	fsr0
	fcall	stringdir
	movwf	(??_strcat+0)+0
	movf	(strcat@cp),w
	movwf	fsr0
	movf	(??_strcat+0)+0,w
	movwf	indf
	movf	(indf),f
	skipz
	goto	u2661
	goto	u2660
u2661:
	goto	l3202
u2660:
	goto	l990
	
l989:	
	line	26
;	Return value of _strcat is never used
	
l990:	
	return
	opt stack 0
GLOBAL	__end_of_strcat
	__end_of_strcat:
	signat	_strcat,8313
	global	_phase_check

;; *************** function _phase_check *****************
;; Defined at:
;;		line 519 in file "E:\Study Material\XC8 PROJECTS\Modem Advance\MobileAdv.c"
;; Parameters:    Size  Location     Type
;;		None
;; Auto vars:     Size  Location     Type
;;		None
;; Return value:  Size  Location     Type
;;                  1    wreg      unsigned char 
;; Registers used:
;;		wreg
;; Tracked objects:
;;		On entry : 0/0
;;		On exit  : 0/0
;;		Unchanged: 0/0
;; Data sizes:     COMMON   BANK0   BANK1   BANK3   BANK2
;;      Params:         0       0       0       0       0
;;      Locals:         0       0       0       0       0
;;      Temps:          0       0       0       0       0
;;      Totals:         0       0       0       0       0
;;Total ram usage:        0 bytes
;; Hardware stack levels used:    1
;; Hardware stack levels required when called:    2
;; This function calls:
;;		Nothing
;; This function is called by:
;;		_main
;;		_SMSCommunication
;; This function uses a non-reentrant model
;;
psect	text7,local,class=CODE,delta=2,merge=1
	file	"E:\Study Material\XC8 PROJECTS\Modem Advance\MobileAdv.c"
	line	519
global __ptext7
__ptext7:	;psect for function _phase_check
psect	text7
	file	"E:\Study Material\XC8 PROJECTS\Modem Advance\MobileAdv.c"
	line	519
	global	__size_of_phase_check
	__size_of_phase_check	equ	__end_of_phase_check-_phase_check
	
_phase_check:	
;incstack = 0
	opt	stack 5
; Regs used in _phase_check: [wreg]
	line	522
	
l3044:	
;MobileAdv.c: 522: if( RC0 == 1 && RC1 == 1 && RC2 == 1 )
	bcf	status, 5	;RP0=0, select bank0
	bcf	status, 6	;RP1=0, select bank0
	btfss	(56/8),(56)&7	;volatile
	goto	u2501
	goto	u2500
u2501:
	goto	l3056
u2500:
	
l3046:	
	btfss	(57/8),(57)&7	;volatile
	goto	u2511
	goto	u2510
u2511:
	goto	l3056
u2510:
	
l3048:	
	btfss	(58/8),(58)&7	;volatile
	goto	u2521
	goto	u2520
u2521:
	goto	l3056
u2520:
	line	525
	
l3050:	
;MobileAdv.c: 523: {
;MobileAdv.c: 525: return 1;
	movlw	(01h)
	goto	l200
	
l3052:	
	goto	l200
	line	526
	
l3054:	
;MobileAdv.c: 526: }
	goto	l200
	line	527
	
l199:	
	line	530
	
l3056:	
;MobileAdv.c: 527: else
;MobileAdv.c: 528: {
;MobileAdv.c: 530: return 0;
	movlw	(0)
	goto	l200
	
l3058:	
	goto	l200
	line	531
	
l201:	
	line	532
	
l200:	
	return
	opt stack 0
GLOBAL	__end_of_phase_check
	__end_of_phase_check:
	signat	_phase_check,89
	global	_eeprom_read

;; *************** function _eeprom_read *****************
;; Defined at:
;;		line 6 in file "C:\Program Files (x86)\Microchip\xc8\v1.33\sources\pic\eeread.c"
;; Parameters:    Size  Location     Type
;;  addr            1    wreg     unsigned char 
;; Auto vars:     Size  Location     Type
;;  addr            1    1[BANK0 ] unsigned char 
;; Return value:  Size  Location     Type
;;                  1    wreg      unsigned char 
;; Registers used:
;;		wreg, status,2, status,0
;; Tracked objects:
;;		On entry : 0/0
;;		On exit  : 0/0
;;		Unchanged: 0/0
;; Data sizes:     COMMON   BANK0   BANK1   BANK3   BANK2
;;      Params:         0       0       0       0       0
;;      Locals:         0       1       0       0       0
;;      Temps:          0       1       0       0       0
;;      Totals:         0       2       0       0       0
;;Total ram usage:        2 bytes
;; Hardware stack levels used:    1
;; Hardware stack levels required when called:    2
;; This function calls:
;;		Nothing
;; This function is called by:
;;		_main
;;		_SMSCommunication
;; This function uses a non-reentrant model
;;
psect	text8,local,class=CODE,delta=2,merge=1
	file	"C:\Program Files (x86)\Microchip\xc8\v1.33\sources\pic\eeread.c"
	line	6
global __ptext8
__ptext8:	;psect for function _eeprom_read
psect	text8
	file	"C:\Program Files (x86)\Microchip\xc8\v1.33\sources\pic\eeread.c"
	line	6
	global	__size_of_eeprom_read
	__size_of_eeprom_read	equ	__end_of_eeprom_read-_eeprom_read
	
_eeprom_read:	
;incstack = 0
	opt	stack 5
; Regs used in _eeprom_read: [wreg+status,2+status,0]
;eeprom_read@addr stored from wreg
	bcf	status, 5	;RP0=0, select bank0
	bcf	status, 6	;RP1=0, select bank0
	movwf	(eeprom_read@addr)
	line	8
	
l498:	
	line	9
# 9 "C:\Program Files (x86)\Microchip\xc8\v1.33\sources\pic\eeread.c"
clrwdt ;# 
psect	text8
	line	10
	bsf	status, 5	;RP0=1, select bank3
	bsf	status, 6	;RP1=1, select bank3
	btfsc	(3169/8)^0180h,(3169)&7	;volsfr
	goto	u2491
	goto	u2490
u2491:
	bcf	status, 5	;RP0=0, select bank0
	bcf	status, 6	;RP1=0, select bank0
	goto	l498
u2490:
	goto	l3040
	
l499:	
	line	11
	
l3040:	
	bcf	status, 5	;RP0=0, select bank0
	bcf	status, 6	;RP1=0, select bank0
	movf	(eeprom_read@addr),w
	bcf	status, 5	;RP0=0, select bank2
	bsf	status, 6	;RP1=1, select bank2
	movwf	(269)^0100h	;volatile
	movlw	(03Fh)
	bcf	status, 5	;RP0=0, select bank0
	bcf	status, 6	;RP1=0, select bank0
	movwf	(??_eeprom_read+0)+0
	movf	(??_eeprom_read+0)+0,w
	bsf	status, 5	;RP0=1, select bank3
	bsf	status, 6	;RP1=1, select bank3
	andwf	(396)^0180h,f	;volsfr
	bsf	(3168/8)^0180h,(3168)&7	;volsfr
	clrc
	btfsc	(3168/8)^0180h,(3168)&7	;volsfr
	setc
	movlw	0
	skipnc
	movlw	1

	bcf	status, 5	;RP0=0, select bank2
	bsf	status, 6	;RP1=1, select bank2
	movf	(268)^0100h,w	;volatile
	goto	l500
	
l3042:	
	line	12
	
l500:	
	return
	opt stack 0
GLOBAL	__end_of_eeprom_read
	__end_of_eeprom_read:
	signat	_eeprom_read,4217
	global	_SIM300WaitForValidMsg

;; *************** function _SIM300WaitForValidMsg *****************
;; Defined at:
;;		line 261 in file "E:\Study Material\XC8 PROJECTS\Modem Advance\sim300.c"
;; Parameters:    Size  Location     Type
;;		None
;; Auto vars:     Size  Location     Type
;;  id              1   56[BANK0 ] unsigned char 
;;  response        1   55[BANK0 ] unsigned char 
;; Return value:  Size  Location     Type
;;                  1    wreg      char 
;; Registers used:
;;		wreg, fsr0l, fsr0h, status,2, status,0, btemp+1, pclath, cstack
;; Tracked objects:
;;		On entry : 0/0
;;		On exit  : 0/0
;;		Unchanged: 0/0
;; Data sizes:     COMMON   BANK0   BANK1   BANK3   BANK2
;;      Params:         0       0       0       0       0
;;      Locals:         0       2       0       0       0
;;      Temps:          0       3       0       0       0
;;      Totals:         0       5       0       0       0
;;Total ram usage:        5 bytes
;; Hardware stack levels used:    1
;; Hardware stack levels required when called:    6
;; This function calls:
;;		_SIM300DeleteMsg
;;		_SIM300ReadValidMsg
;;		_USARTFlushBuffer
;;		_strnicmp
;; This function is called by:
;;		_SMSCommunication
;; This function uses a non-reentrant model
;;
psect	text9,local,class=CODE,delta=2,merge=1
	file	"E:\Study Material\XC8 PROJECTS\Modem Advance\sim300.c"
	line	261
global __ptext9
__ptext9:	;psect for function _SIM300WaitForValidMsg
psect	text9
	file	"E:\Study Material\XC8 PROJECTS\Modem Advance\sim300.c"
	line	261
	global	__size_of_SIM300WaitForValidMsg
	__size_of_SIM300WaitForValidMsg	equ	__end_of_SIM300WaitForValidMsg-_SIM300WaitForValidMsg
	
_SIM300WaitForValidMsg:	
;incstack = 0
	opt	stack 0
; Regs used in _SIM300WaitForValidMsg: [wreg-fsr0h+status,2+status,0+btemp+1+pclath+cstack]
	line	264
	
l3150:	
;sim300.c: 264: uint8_t id = 1;
	bcf	status, 5	;RP0=0, select bank0
	bcf	status, 6	;RP1=0, select bank0
	clrf	(SIM300WaitForValidMsg@id)
	incf	(SIM300WaitForValidMsg@id),f
	line	268
	
l3152:	
;sim300.c: 265: uint8_t response;
;sim300.c: 268: if(strnicmp(sim300_buffer+2,"+CMTI:",6)==0)
	movlw	((STR_34)-__stringbase)&0ffh
	movwf	(??_SIM300WaitForValidMsg+0)+0
	movf	(??_SIM300WaitForValidMsg+0)+0,w
	movwf	(strnicmp@s2)
	movlw	low(06h)
	movwf	(strnicmp@len)
	movlw	high(06h)
	movwf	((strnicmp@len))+1
	movlw	(_sim300_buffer+02h)&0ffh
	fcall	_strnicmp
	bcf	status, 5	;RP0=0, select bank0
	bcf	status, 6	;RP1=0, select bank0
	movf	((1+(?_strnicmp))),w
	iorwf	((0+(?_strnicmp))),w
	skipz
	goto	u2611
	goto	u2610
u2611:
	goto	l3186
u2610:
	line	271
	
l3154:	
;sim300.c: 269: {
;sim300.c: 271: _delay((unsigned long)((1000)*(4000000/4000.0)));
	opt asmopt_off
movlw  6
movwf	((??_SIM300WaitForValidMsg+0)+0+2),f
movlw	19
movwf	((??_SIM300WaitForValidMsg+0)+0+1),f
	movlw	177
movwf	((??_SIM300WaitForValidMsg+0)+0),f
u3957:
	decfsz	((??_SIM300WaitForValidMsg+0)+0),f
	goto	u3957
	decfsz	((??_SIM300WaitForValidMsg+0)+0+1),f
	goto	u3957
	decfsz	((??_SIM300WaitForValidMsg+0)+0+2),f
	goto	u3957
	nop2
opt asmopt_on

	line	272
	
l3156:	
;sim300.c: 272: response = SIM300ReadValidMsg(id);
	bcf	status, 5	;RP0=0, select bank0
	bcf	status, 6	;RP1=0, select bank0
	movf	(SIM300WaitForValidMsg@id),w
	fcall	_SIM300ReadValidMsg
	bcf	status, 5	;RP0=0, select bank0
	bcf	status, 6	;RP1=0, select bank0
	movwf	(??_SIM300WaitForValidMsg+0)+0
	movf	(??_SIM300WaitForValidMsg+0)+0,w
	movwf	(SIM300WaitForValidMsg@response)
	line	273
	
l3158:	
;sim300.c: 273: if(response == 1)
	movf	(SIM300WaitForValidMsg@response),w
	xorlw	01h
	skipz
	goto	u2621
	goto	u2620
u2621:
	goto	l3168
u2620:
	line	276
	
l3160:	
;sim300.c: 274: {
;sim300.c: 276: response = SIM300DeleteMsg(id);
	movf	(SIM300WaitForValidMsg@id),w
	fcall	_SIM300DeleteMsg
	bcf	status, 5	;RP0=0, select bank0
	bcf	status, 6	;RP1=0, select bank0
	movwf	(??_SIM300WaitForValidMsg+0)+0
	movf	(??_SIM300WaitForValidMsg+0)+0,w
	movwf	(SIM300WaitForValidMsg@response)
	line	278
	
l3162:	
;sim300.c: 278: USARTFlushBuffer();
	fcall	_USARTFlushBuffer
	line	279
	
l3164:	
;sim300.c: 279: return 1;
	movlw	(01h)
	goto	l317
	
l3166:	
	goto	l317
	line	280
	
l316:	
	line	281
	
l3168:	
;sim300.c: 280: }
;sim300.c: 281: if(response == 201)
	bcf	status, 5	;RP0=0, select bank0
	bcf	status, 6	;RP1=0, select bank0
	movf	(SIM300WaitForValidMsg@response),w
	xorlw	0C9h
	skipz
	goto	u2631
	goto	u2630
u2631:
	goto	l3186
u2630:
	line	284
	
l3170:	
;sim300.c: 282: {
;sim300.c: 284: response = SIM300DeleteMsg(id);
	movf	(SIM300WaitForValidMsg@id),w
	fcall	_SIM300DeleteMsg
	bcf	status, 5	;RP0=0, select bank0
	bcf	status, 6	;RP1=0, select bank0
	movwf	(??_SIM300WaitForValidMsg+0)+0
	movf	(??_SIM300WaitForValidMsg+0)+0,w
	movwf	(SIM300WaitForValidMsg@response)
	line	286
	
l3172:	
;sim300.c: 286: USARTFlushBuffer();
	fcall	_USARTFlushBuffer
	line	287
	
l3174:	
;sim300.c: 287: return 201;
	movlw	(-55)
	goto	l317
	
l3176:	
	goto	l317
	line	288
	
l318:	
	line	289
;sim300.c: 288: }
;sim300.c: 289: if(response == -2)
	goto	l3186
	line	292
	
l3178:	
;sim300.c: 290: {
;sim300.c: 292: response = SIM300DeleteMsg(id);
	bcf	status, 5	;RP0=0, select bank0
	bcf	status, 6	;RP1=0, select bank0
	movf	(SIM300WaitForValidMsg@id),w
	fcall	_SIM300DeleteMsg
	bcf	status, 5	;RP0=0, select bank0
	bcf	status, 6	;RP1=0, select bank0
	movwf	(??_SIM300WaitForValidMsg+0)+0
	movf	(??_SIM300WaitForValidMsg+0)+0,w
	movwf	(SIM300WaitForValidMsg@response)
	line	294
	
l3180:	
;sim300.c: 294: USARTFlushBuffer();
	fcall	_USARTFlushBuffer
	line	295
	
l3182:	
;sim300.c: 295: return -2;
	movlw	(-2)
	goto	l317
	
l3184:	
	goto	l317
	line	296
	
l319:	
	goto	l3186
	line	297
	
l315:	
	line	299
	
l3186:	
;sim300.c: 296: }
;sim300.c: 297: }
;sim300.c: 299: return -2;
	movlw	(-2)
	goto	l317
	
l3188:	
	line	300
	
l317:	
	return
	opt stack 0
GLOBAL	__end_of_SIM300WaitForValidMsg
	__end_of_SIM300WaitForValidMsg:
	signat	_SIM300WaitForValidMsg,89
	global	_SIM300ReadValidMsg

;; *************** function _SIM300ReadValidMsg *****************
;; Defined at:
;;		line 304 in file "E:\Study Material\XC8 PROJECTS\Modem Advance\sim300.c"
;; Parameters:    Size  Location     Type
;;  i               1    wreg     unsigned char 
;; Auto vars:     Size  Location     Type
;;  i               1   48[BANK0 ] unsigned char 
;;  i               1   50[BANK0 ] unsigned char 
;;  start           1   49[BANK0 ] PTR unsigned char 
;;		 -> NULL(0), sim300_buffer(70), 
;;  cmd            16   32[BANK0 ] unsigned char [16]
;;  len             1   51[BANK0 ] unsigned char 
;; Return value:  Size  Location     Type
;;                  1    wreg      char 
;; Registers used:
;;		wreg, fsr0l, fsr0h, status,2, status,0, btemp+1, pclath, cstack
;; Tracked objects:
;;		On entry : 0/0
;;		On exit  : 0/0
;;		Unchanged: 0/0
;; Data sizes:     COMMON   BANK0   BANK1   BANK3   BANK2
;;      Params:         0       0       0       0       0
;;      Locals:         0      20       0       0       0
;;      Temps:          0       3       0       0       0
;;      Totals:         0      23       0       0       0
;;Total ram usage:       23 bytes
;; Hardware stack levels used:    1
;; Hardware stack levels required when called:    5
;; This function calls:
;;		_SIM300Cmd
;;		_SIM300WaitForResponse
;;		_USARTFlushBuffer
;;		_sprintf
;;		_strichr
;;		_strrichr
;;		_strstr
;; This function is called by:
;;		_SIM300WaitForValidMsg
;; This function uses a non-reentrant model
;;
psect	text10,local,class=CODE,delta=2,merge=1
	line	304
global __ptext10
__ptext10:	;psect for function _SIM300ReadValidMsg
psect	text10
	file	"E:\Study Material\XC8 PROJECTS\Modem Advance\sim300.c"
	line	304
	global	__size_of_SIM300ReadValidMsg
	__size_of_SIM300ReadValidMsg	equ	__end_of_SIM300ReadValidMsg-_SIM300ReadValidMsg
	
_SIM300ReadValidMsg:	
;incstack = 0
	opt	stack 0
; Regs used in _SIM300ReadValidMsg: [wreg-fsr0h+status,2+status,0+btemp+1+pclath+cstack]
;SIM300ReadValidMsg@i stored from wreg
	bcf	status, 5	;RP0=0, select bank0
	bcf	status, 6	;RP1=0, select bank0
	movwf	(SIM300ReadValidMsg@i)
	line	307
	
l2950:	
;sim300.c: 307: USARTFlushBuffer();
	fcall	_USARTFlushBuffer
	line	313
	
l2952:	
;sim300.c: 310: char cmd[16];
;sim300.c: 313: sprintf(cmd,"AT+CMGR=%d",i);
	movlw	((STR_35)-__stringbase)&0ffh
	bcf	status, 5	;RP0=0, select bank0
	bcf	status, 6	;RP1=0, select bank0
	movwf	(??_SIM300ReadValidMsg+0)+0
	movf	(??_SIM300ReadValidMsg+0)+0,w
	movwf	(sprintf@f)
	movf	(SIM300ReadValidMsg@i),w
	movwf	(??_SIM300ReadValidMsg+1)+0
	clrf	(??_SIM300ReadValidMsg+1)+0+1
	movf	0+(??_SIM300ReadValidMsg+1)+0,w
	movwf	0+(?_sprintf)+01h
	movf	1+(??_SIM300ReadValidMsg+1)+0,w
	movwf	1+(?_sprintf)+01h
	movlw	(SIM300ReadValidMsg@cmd)&0ffh
	fcall	_sprintf
	line	316
	
l2954:	
;sim300.c: 316: SIM300Cmd(cmd);
	movlw	(SIM300ReadValidMsg@cmd&0ffh)
	bcf	status, 5	;RP0=0, select bank0
	bcf	status, 6	;RP1=0, select bank0
	movwf	(SIM300Cmd@cmd)
	movlw	(0x0)
	movwf	(SIM300Cmd@cmd+1)
	fcall	_SIM300Cmd
	line	318
;sim300.c: 318: uint8_t len=SIM300WaitForResponse(2000);
	movlw	low(07D0h)
	bcf	status, 5	;RP0=0, select bank0
	bcf	status, 6	;RP1=0, select bank0
	movwf	(SIM300WaitForResponse@timeout)
	movlw	high(07D0h)
	movwf	((SIM300WaitForResponse@timeout))+1
	fcall	_SIM300WaitForResponse
	bcf	status, 5	;RP0=0, select bank0
	bcf	status, 6	;RP1=0, select bank0
	movwf	(??_SIM300ReadValidMsg+0)+0
	movf	(??_SIM300ReadValidMsg+0)+0,w
	movwf	(SIM300ReadValidMsg@len)
	line	320
	
l2956:	
;sim300.c: 320: if(len==0)
	movf	(SIM300ReadValidMsg@len),f
	skipz
	goto	u2381
	goto	u2380
u2381:
	goto	l2962
u2380:
	line	321
	
l2958:	
;sim300.c: 321: return -3;
	movlw	(-3)
	goto	l323
	
l2960:	
	goto	l323
	
l322:	
	line	323
	
l2962:	
;sim300.c: 323: sim300_buffer[len-1]='\0';
	movf	(SIM300ReadValidMsg@len),w
	addlw	0FFh
	addlw	_sim300_buffer&0ffh
	movwf	fsr0
	bsf	status, 7	;select IRP bank3
	clrf	indf
	line	339
	
l2964:	
;sim300.c: 339: if(strrichr(sim300_buffer,'X') != (0))
	movlw	low(058h)
	movwf	(strrichr@chr)
	movlw	high(058h)
	movwf	((strrichr@chr))+1
	movlw	(_sim300_buffer)&0ffh
	fcall	_strrichr
	xorlw	0
	skipnz
	goto	u2391
	goto	u2390
u2391:
	goto	l3002
u2390:
	line	343
	
l2966:	
;sim300.c: 340: {
;sim300.c: 342: char *start;
;sim300.c: 343: start = strichr(sim300_buffer+10,'+');
	movlw	low(02Bh)
	bcf	status, 5	;RP0=0, select bank0
	bcf	status, 6	;RP1=0, select bank0
	movwf	(strichr@chr)
	movlw	high(02Bh)
	movwf	((strichr@chr))+1
	movlw	(_sim300_buffer+0Ah)&0ffh
	fcall	_strichr
	bcf	status, 5	;RP0=0, select bank0
	bcf	status, 6	;RP1=0, select bank0
	movwf	(??_SIM300ReadValidMsg+0)+0
	movf	(??_SIM300ReadValidMsg+0)+0,w
	movwf	(SIM300ReadValidMsg@start)
	line	344
	
l2968:	
;sim300.c: 344: char i = 0;
	clrf	(SIM300ReadValidMsg@i_319)
	line	345
;sim300.c: 345: while(*start != '"')
	goto	l2976
	
l326:	
	line	347
	
l2970:	
;sim300.c: 346: {
;sim300.c: 347: MSG_number[i] = *start;
	movf	(SIM300ReadValidMsg@start),w
	movwf	fsr0
	bsf	status, 7	;select IRP bank2
	movf	indf,w
	movwf	(??_SIM300ReadValidMsg+0)+0
	movf	(SIM300ReadValidMsg@i_319),w
	addlw	_MSG_number&0ffh
	movwf	fsr0
	movf	(??_SIM300ReadValidMsg+0)+0,w
	movwf	indf
	line	348
	
l2972:	
;sim300.c: 348: start++;
	movlw	(01h)
	movwf	(??_SIM300ReadValidMsg+0)+0
	movf	(??_SIM300ReadValidMsg+0)+0,w
	addwf	(SIM300ReadValidMsg@start),f
	line	349
	
l2974:	
;sim300.c: 349: i++;
	movlw	(01h)
	movwf	(??_SIM300ReadValidMsg+0)+0
	movf	(??_SIM300ReadValidMsg+0)+0,w
	addwf	(SIM300ReadValidMsg@i_319),f
	goto	l2976
	line	350
	
l325:	
	line	345
	
l2976:	
	movf	(SIM300ReadValidMsg@start),w
	movwf	fsr0
	bsf	status, 7	;select IRP bank2
	movf	indf,w
	xorlw	022h
	skipz
	goto	u2401
	goto	u2400
u2401:
	goto	l2970
u2400:
	goto	l2978
	
l327:	
	line	351
	
l2978:	
;sim300.c: 350: }
;sim300.c: 351: MSG_number[i] = '\0';
	movf	(SIM300ReadValidMsg@i_319),w
	addlw	_MSG_number&0ffh
	movwf	fsr0
	clrf	indf
	line	353
	
l2980:	
;sim300.c: 353: len=SIM300WaitForResponse(1000);
	movlw	low(03E8h)
	movwf	(SIM300WaitForResponse@timeout)
	movlw	high(03E8h)
	movwf	((SIM300WaitForResponse@timeout))+1
	fcall	_SIM300WaitForResponse
	bcf	status, 5	;RP0=0, select bank0
	bcf	status, 6	;RP1=0, select bank0
	movwf	(??_SIM300ReadValidMsg+0)+0
	movf	(??_SIM300ReadValidMsg+0)+0,w
	movwf	(SIM300ReadValidMsg@len)
	line	355
	
l2982:	
;sim300.c: 355: if(len==0)
	movf	(SIM300ReadValidMsg@len),f
	skipz
	goto	u2411
	goto	u2410
u2411:
	goto	l2988
u2410:
	line	356
	
l2984:	
;sim300.c: 356: return -3;
	movlw	(-3)
	goto	l323
	
l2986:	
	goto	l323
	
l328:	
	line	358
	
l2988:	
;sim300.c: 358: sim300_buffer[len-1]='\0';
	movf	(SIM300ReadValidMsg@len),w
	addlw	0FFh
	addlw	_sim300_buffer&0ffh
	movwf	fsr0
	bsf	status, 7	;select IRP bank3
	clrf	indf
	line	360
	
l2990:	
;sim300.c: 360: if(strstr(sim300_buffer,"EGL")!= (0))
	movlw	((STR_36)-__stringbase)&0ffh
	movwf	(??_SIM300ReadValidMsg+0)+0
	movf	(??_SIM300ReadValidMsg+0)+0,w
	movwf	(strstr@s2)
	movlw	(_sim300_buffer)&0ffh
	fcall	_strstr
	xorlw	0
	skipnz
	goto	u2421
	goto	u2420
u2421:
	goto	l2998
u2420:
	line	362
	
l2992:	
;sim300.c: 361: {
;sim300.c: 362: return 1;
	movlw	(01h)
	goto	l323
	
l2994:	
	goto	l323
	line	363
	
l2996:	
;sim300.c: 363: }
	goto	l323
	line	364
	
l329:	
	line	366
	
l2998:	
;sim300.c: 364: else
;sim300.c: 365: {
;sim300.c: 366: return 201;
	movlw	(-55)
	goto	l323
	
l3000:	
	goto	l323
	line	367
	
l330:	
	line	368
;sim300.c: 367: }
;sim300.c: 368: }
	goto	l323
	line	369
	
l324:	
	line	372
	
l3002:	
;sim300.c: 369: else
;sim300.c: 370: {
;sim300.c: 372: return -2;
	movlw	(-2)
	goto	l323
	
l3004:	
	goto	l323
	line	373
	
l331:	
	line	374
	
l323:	
	return
	opt stack 0
GLOBAL	__end_of_SIM300ReadValidMsg
	__end_of_SIM300ReadValidMsg:
	signat	_SIM300ReadValidMsg,4217
	global	_strstr

;; *************** function _strstr *****************
;; Defined at:
;;		line 4 in file "C:\Program Files (x86)\Microchip\xc8\v1.33\sources\common\strstr.c"
;; Parameters:    Size  Location     Type
;;  s1              1    wreg     PTR const unsigned char 
;;		 -> NULL(0), sim300_buffer(70), 
;;  s2              1   12[BANK0 ] PTR const unsigned char 
;;		 -> STR_36(4), 
;; Auto vars:     Size  Location     Type
;;  s1              1   16[BANK0 ] PTR const unsigned char 
;;		 -> NULL(0), sim300_buffer(70), 
;; Return value:  Size  Location     Type
;;                  1    wreg      PTR unsigned char 
;; Registers used:
;;		wreg, fsr0l, fsr0h, status,2, status,0, btemp+1, pclath, cstack
;; Tracked objects:
;;		On entry : 0/0
;;		On exit  : 0/0
;;		Unchanged: 0/0
;; Data sizes:     COMMON   BANK0   BANK1   BANK3   BANK2
;;      Params:         0       1       0       0       0
;;      Locals:         0       1       0       0       0
;;      Temps:          0       3       0       0       0
;;      Totals:         0       5       0       0       0
;;Total ram usage:        5 bytes
;; Hardware stack levels used:    1
;; Hardware stack levels required when called:    3
;; This function calls:
;;		_strchr
;;		_strlen
;;		_strncmp
;; This function is called by:
;;		_SIM300ReadValidMsg
;; This function uses a non-reentrant model
;;
psect	text11,local,class=CODE,delta=2,merge=1
	file	"C:\Program Files (x86)\Microchip\xc8\v1.33\sources\common\strstr.c"
	line	4
global __ptext11
__ptext11:	;psect for function _strstr
psect	text11
	file	"C:\Program Files (x86)\Microchip\xc8\v1.33\sources\common\strstr.c"
	line	4
	global	__size_of_strstr
	__size_of_strstr	equ	__end_of_strstr-_strstr
	
_strstr:	
;incstack = 0
	opt	stack 1
; Regs used in _strstr: [wreg-fsr0h+status,2+status,0+btemp+1+pclath+cstack]
;strstr@s1 stored from wreg
	bcf	status, 5	;RP0=0, select bank0
	bcf	status, 6	;RP1=0, select bank0
	movwf	(strstr@s1)
	line	6
	
l2890:	
	goto	l2900
	
l1044:	
	line	7
	
l2892:	
	movf	(strstr@s2),w
	movwf	(??_strstr+0)+0
	movf	(??_strstr+0)+0,w
	movwf	(strncmp@s2)
	movf	(strstr@s2),w
	movwf	(strlen@s)
	movlw	80h
	movwf	(strlen@s+1)
	fcall	_strlen
	bcf	status, 5	;RP0=0, select bank0
	bcf	status, 6	;RP1=0, select bank0
	movf	(1+(?_strlen)),w
	clrf	(strncmp@len+1)
	addwf	(strncmp@len+1)
	movf	(0+(?_strlen)),w
	clrf	(strncmp@len)
	addwf	(strncmp@len)

	movf	(strstr@s1),w
	fcall	_strncmp
	bcf	status, 5	;RP0=0, select bank0
	bcf	status, 6	;RP1=0, select bank0
	movf	((1+(?_strncmp))),w
	iorwf	((0+(?_strncmp))),w
	skipz
	goto	u2311
	goto	u2310
u2311:
	goto	l2898
u2310:
	line	8
	
l2894:	
	movf	(strstr@s1),w
	goto	l1046
	
l2896:	
	goto	l1046
	
l1045:	
	line	9
	
l2898:	
	movf	(strstr@s2),w
	movwf	fsr0
	fcall	stringdir
	movwf	(??_strstr+0)+0
	clrf	(??_strstr+0)+0+1
	movf	0+(??_strstr+0)+0,w
	movwf	(strchr@chr)
	movf	1+(??_strstr+0)+0,w
	movwf	(strchr@chr+1)
	movf	(strstr@s1),w
	addlw	01h
	fcall	_strchr
	bcf	status, 5	;RP0=0, select bank0
	bcf	status, 6	;RP1=0, select bank0
	movwf	(??_strstr+2)+0
	movf	(??_strstr+2)+0,w
	movwf	(strstr@s1)
	goto	l2900
	line	10
	
l1043:	
	line	6
	
l2900:	
	movf	(strstr@s1),w
	skipz
	goto	u2320
	goto	l2904
u2320:
	
l2902:	
	movf	(strstr@s1),w
	movwf	fsr0
	bsf	status, 7	;select IRP bank2
	movf	indf,f
	skipz
	goto	u2331
	goto	u2330
u2331:
	goto	l2892
u2330:
	goto	l2904
	
l1048:	
	goto	l2904
	
l1049:	
	line	11
	
l2904:	
	movlw	(0)
	goto	l1046
	
l2906:	
	line	12
	
l1046:	
	return
	opt stack 0
GLOBAL	__end_of_strstr
	__end_of_strstr:
	signat	_strstr,8313
	global	_strncmp

;; *************** function _strncmp *****************
;; Defined at:
;;		line 4 in file "C:\Program Files (x86)\Microchip\xc8\v1.33\sources\common\strncmp.c"
;; Parameters:    Size  Location     Type
;;  s1              1    wreg     PTR const unsigned char 
;;		 -> NULL(0), sim300_buffer(70), 
;;  s2              1    6[BANK0 ] PTR const unsigned char 
;;		 -> STR_36(4), 
;;  len             2    7[BANK0 ] unsigned int 
;; Auto vars:     Size  Location     Type
;;  s1              1   11[BANK0 ] PTR const unsigned char 
;;		 -> NULL(0), sim300_buffer(70), 
;; Return value:  Size  Location     Type
;;                  2    6[BANK0 ] int 
;; Registers used:
;;		wreg, fsr0l, fsr0h, status,2, status,0, pclath
;; Tracked objects:
;;		On entry : 0/0
;;		On exit  : 0/0
;;		Unchanged: 0/0
;; Data sizes:     COMMON   BANK0   BANK1   BANK3   BANK2
;;      Params:         0       3       0       0       0
;;      Locals:         0       1       0       0       0
;;      Temps:          0       2       0       0       0
;;      Totals:         0       6       0       0       0
;;Total ram usage:        6 bytes
;; Hardware stack levels used:    1
;; Hardware stack levels required when called:    2
;; This function calls:
;;		Nothing
;; This function is called by:
;;		_strstr
;; This function uses a non-reentrant model
;;
psect	text12,local,class=CODE,delta=2,merge=1
	file	"C:\Program Files (x86)\Microchip\xc8\v1.33\sources\common\strncmp.c"
	line	4
global __ptext12
__ptext12:	;psect for function _strncmp
psect	text12
	file	"C:\Program Files (x86)\Microchip\xc8\v1.33\sources\common\strncmp.c"
	line	4
	global	__size_of_strncmp
	__size_of_strncmp	equ	__end_of_strncmp-_strncmp
	
_strncmp:	
;incstack = 0
	opt	stack 1
; Regs used in _strncmp: [wreg-fsr0h+status,2+status,0+pclath]
;strncmp@s1 stored from wreg
	bcf	status, 5	;RP0=0, select bank0
	bcf	status, 6	;RP1=0, select bank0
	movwf	(strncmp@s1)
	line	6
	
l2676:	
	goto	l2688
	
l1063:	
	line	7
	
l2678:	
	movf	(strncmp@s1),w
	movwf	fsr0
	bsf	status, 7	;select IRP bank2
	movf	indf
	skipnz
	goto	u2011
	goto	u2010
u2011:
	goto	l2682
u2010:
	
l2680:	
	movf	(strncmp@s2),w
	movwf	fsr0
	fcall	stringdir
	movwf	(??_strncmp+0)+0
	movf	(strncmp@s1),w
	movwf	fsr0
	movf	indf,w
	xorwf	(??_strncmp+0)+0,w
	skipnz
	goto	u2021
	goto	u2020
u2021:
	goto	l2686
u2020:
	goto	l2682
	
l1066:	
	line	8
	
l2682:	
	movf	(strncmp@s2),w
	movwf	fsr0
	fcall	stringdir
	movwf	(??_strncmp+0)+0
	clrf	(??_strncmp+0)+0+1
	comf	(??_strncmp+0)+0,f
	comf	(??_strncmp+0)+1,f
	incf	(??_strncmp+0)+0,f
	skipnz
	incf	(??_strncmp+0)+1,f
	movf	(strncmp@s1),w
	movwf	fsr0
	movf	indf,w
	addwf	0+(??_strncmp+0)+0,w
	movwf	(?_strncmp)
	movf	1+(??_strncmp+0)+0,w
	skipnc
	incf	1+(??_strncmp+0)+0,w
	movwf	((?_strncmp))+1
	goto	l1067
	
l2684:	
	goto	l1067
	
l1064:	
	line	10
	
l2686:	
	movlw	(01h)
	movwf	(??_strncmp+0)+0
	movf	(??_strncmp+0)+0,w
	addwf	(strncmp@s1),f
	line	11
	movlw	(01h)
	movwf	(??_strncmp+0)+0
	movf	(??_strncmp+0)+0,w
	addwf	(strncmp@s2),f
	goto	l2688
	line	12
	
l1062:	
	line	6
	
l2688:	
	movlw	low(01h)
	subwf	(strncmp@len),f
	movlw	high(01h)
	skipc
	decf	(strncmp@len+1),f
	subwf	(strncmp@len+1),f
	movlw	high(0FFFFh)
	xorwf	((strncmp@len+1)),w
	skipz
	goto	u2035
	movlw	low(0FFFFh)
	xorwf	((strncmp@len)),w
u2035:

	skipz
	goto	u2031
	goto	u2030
u2031:
	goto	l2678
u2030:
	goto	l2690
	
l1068:	
	line	13
	
l2690:	
	clrf	(?_strncmp)
	clrf	(?_strncmp+1)
	goto	l1067
	
l2692:	
	line	14
	
l1067:	
	return
	opt stack 0
GLOBAL	__end_of_strncmp
	__end_of_strncmp:
	signat	_strncmp,12410
	global	_strchr

;; *************** function _strchr *****************
;; Defined at:
;;		line 4 in file "C:\Program Files (x86)\Microchip\xc8\v1.33\sources\common\strchr.c"
;; Parameters:    Size  Location     Type
;;  ptr             1    wreg     PTR const unsigned char 
;;		 -> NULL(0), sim300_buffer(70), 
;;  chr             2    0[BANK0 ] int 
;; Auto vars:     Size  Location     Type
;;  ptr             1    2[BANK0 ] PTR const unsigned char 
;;		 -> NULL(0), sim300_buffer(70), 
;; Return value:  Size  Location     Type
;;                  1    wreg      PTR unsigned char 
;; Registers used:
;;		wreg, fsr0l, fsr0h, status,2, status,0
;; Tracked objects:
;;		On entry : 0/0
;;		On exit  : 0/0
;;		Unchanged: 0/0
;; Data sizes:     COMMON   BANK0   BANK1   BANK3   BANK2
;;      Params:         0       2       0       0       0
;;      Locals:         0       1       0       0       0
;;      Temps:          0       0       0       0       0
;;      Totals:         0       3       0       0       0
;;Total ram usage:        3 bytes
;; Hardware stack levels used:    1
;; Hardware stack levels required when called:    2
;; This function calls:
;;		Nothing
;; This function is called by:
;;		_strstr
;; This function uses a non-reentrant model
;;
psect	text13,local,class=CODE,delta=2,merge=1
	file	"C:\Program Files (x86)\Microchip\xc8\v1.33\sources\common\strchr.c"
	line	4
global __ptext13
__ptext13:	;psect for function _strchr
psect	text13
	file	"C:\Program Files (x86)\Microchip\xc8\v1.33\sources\common\strchr.c"
	line	4
	global	__size_of_strchr
	__size_of_strchr	equ	__end_of_strchr-_strchr
	
_strchr:	
;incstack = 0
	opt	stack 1
; Regs used in _strchr: [wreg-fsr0h+status,2+status,0]
;strchr@ptr stored from wreg
	bcf	status, 5	;RP0=0, select bank0
	bcf	status, 6	;RP1=0, select bank0
	movwf	(strchr@ptr)
	line	6
	
l1056:	
	line	7
	
l2694:	
	movf	(strchr@ptr),w
	movwf	fsr0
	bsf	status, 7	;select IRP bank2
	movf	indf,w
	xorwf	(strchr@chr),w
	skipz
	goto	u2041
	goto	u2040
u2041:
	goto	l2700
u2040:
	line	8
	
l2696:	
	movf	(strchr@ptr),w
	goto	l1058
	
l2698:	
	goto	l1058
	
l1057:	
	line	9
	
l2700:	
	movf	(strchr@ptr),w
	movwf	fsr0
	movlw	01h
	addwf	(strchr@ptr),f
	movf	indf,f
	skipz
	goto	u2051
	goto	u2050
u2051:
	goto	l1056
u2050:
	goto	l2702
	
l1059:	
	line	10
	
l2702:	
	movlw	(0)
	goto	l1058
	
l2704:	
	line	11
	
l1058:	
	return
	opt stack 0
GLOBAL	__end_of_strchr
	__end_of_strchr:
	signat	_strchr,8313
	global	_SIM300SendMsg

;; *************** function _SIM300SendMsg *****************
;; Defined at:
;;		line 375 in file "E:\Study Material\XC8 PROJECTS\Modem Advance\sim300.c"
;; Parameters:    Size  Location     Type
;;  num             1    wreg     PTR const unsigned char 
;;		 -> MSG_number(15), 
;;  msg             2   50[BANK0 ] PTR const unsigned char 
;;		 -> STR_29(16), STR_7(20), phone_number(40), 
;;  msg_ref         1   52[BANK0 ] PTR unsigned char 
;;		 -> SMSCommunication@ref_204(1), SMSCommunication@ref_201(1), SMSCommunication@ref_192(1), SMSCommunication@ref(1), 
;;		 -> main@ref(1), 
;; Auto vars:     Size  Location     Type
;;  num             1   26[BANK1 ] PTR const unsigned char 
;;		 -> MSG_number(15), 
;;  cmd            25    0[BANK1 ] unsigned char [25]
;;  n               1   27[BANK1 ] unsigned char 
;;  len             1   25[BANK1 ] unsigned char 
;; Return value:  Size  Location     Type
;;                  1    wreg      char 
;; Registers used:
;;		wreg, fsr0l, fsr0h, status,2, status,0, btemp+1, pclath, cstack
;; Tracked objects:
;;		On entry : 0/0
;;		On exit  : 0/0
;;		Unchanged: 0/0
;; Data sizes:     COMMON   BANK0   BANK1   BANK3   BANK2
;;      Params:         0       3       0       0       0
;;      Locals:         0       0      28       0       0
;;      Temps:          0       4       0       0       0
;;      Totals:         0       7      28       0       0
;;Total ram usage:       35 bytes
;; Hardware stack levels used:    1
;; Hardware stack levels required when called:    6
;; This function calls:
;;		_SIM300Cmd
;;		_SIM300DeleteMsg
;;		_SIM300WaitForResponse
;;		_USARTDataAvailable
;;		_USARTFlushBuffer
;;		_USARTReadBuffer
;;		_USARTWriteChar
;;		_USARTWriteString
;;		_atoi
;;		_sprintf
;;		_strlen
;;		_strnicmp
;; This function is called by:
;;		_main
;;		_SMSCommunication
;; This function uses a non-reentrant model
;;
psect	text14,local,class=CODE,delta=2,merge=1
	file	"E:\Study Material\XC8 PROJECTS\Modem Advance\sim300.c"
	line	375
global __ptext14
__ptext14:	;psect for function _SIM300SendMsg
psect	text14
	file	"E:\Study Material\XC8 PROJECTS\Modem Advance\sim300.c"
	line	375
	global	__size_of_SIM300SendMsg
	__size_of_SIM300SendMsg	equ	__end_of_SIM300SendMsg-_SIM300SendMsg
	
_SIM300SendMsg:	
;incstack = 0
	opt	stack 0
; Regs used in _SIM300SendMsg: [wreg-fsr0h+status,2+status,0+btemp+1+pclath+cstack]
;SIM300SendMsg@num stored from wreg
	bsf	status, 5	;RP0=1, select bank1
	bcf	status, 6	;RP1=0, select bank1
	movwf	(SIM300SendMsg@num)^080h
	line	377
	
l3060:	
;sim300.c: 377: USARTFlushBuffer();
	fcall	_USARTFlushBuffer
	line	381
	
l3062:	
;sim300.c: 379: char cmd[25];
;sim300.c: 381: sprintf(cmd,"AT+CMGS= %s",num);
	movlw	((STR_37)-__stringbase)&0ffh
	bcf	status, 5	;RP0=0, select bank0
	bcf	status, 6	;RP1=0, select bank0
	movwf	(??_SIM300SendMsg+0)+0
	movf	(??_SIM300SendMsg+0)+0,w
	movwf	(sprintf@f)
	bsf	status, 5	;RP0=1, select bank1
	bcf	status, 6	;RP1=0, select bank1
	movf	(SIM300SendMsg@num)^080h,w
	bcf	status, 5	;RP0=0, select bank0
	bcf	status, 6	;RP1=0, select bank0
	movwf	(??_SIM300SendMsg+1)+0
	movf	(??_SIM300SendMsg+1)+0,w
	movwf	(0+?_sprintf+01h)
	movlw	(SIM300SendMsg@cmd)&0ffh
	fcall	_sprintf
	line	383
	
l3064:	
;sim300.c: 383: cmd[8]=0x22;
	movlw	(022h)
	bcf	status, 5	;RP0=0, select bank0
	bcf	status, 6	;RP1=0, select bank0
	movwf	(??_SIM300SendMsg+0)+0
	movf	(??_SIM300SendMsg+0)+0,w
	bsf	status, 5	;RP0=1, select bank1
	bcf	status, 6	;RP1=0, select bank1
	movwf	0+(SIM300SendMsg@cmd)^080h+08h
	line	385
	
l3066:	
;sim300.c: 385: uint8_t n=strlen(cmd);
	movlw	(SIM300SendMsg@cmd&0ffh)
	bcf	status, 5	;RP0=0, select bank0
	bcf	status, 6	;RP1=0, select bank0
	movwf	(strlen@s)
	movlw	(0x0)
	movwf	(strlen@s+1)
	fcall	_strlen
	bcf	status, 5	;RP0=0, select bank0
	bcf	status, 6	;RP1=0, select bank0
	movf	(0+(?_strlen)),w
	movwf	(??_SIM300SendMsg+0)+0
	movf	(??_SIM300SendMsg+0)+0,w
	bsf	status, 5	;RP0=1, select bank1
	bcf	status, 6	;RP1=0, select bank1
	movwf	(SIM300SendMsg@n)^080h
	line	387
	
l3068:	
;sim300.c: 387: cmd[n]=0x22;
	movlw	(022h)
	bcf	status, 5	;RP0=0, select bank0
	bcf	status, 6	;RP1=0, select bank0
	movwf	(??_SIM300SendMsg+0)+0
	bsf	status, 5	;RP0=1, select bank1
	bcf	status, 6	;RP1=0, select bank1
	movf	(SIM300SendMsg@n)^080h,w
	addlw	SIM300SendMsg@cmd&0ffh
	movwf	fsr0
	bcf	status, 5	;RP0=0, select bank0
	bcf	status, 6	;RP1=0, select bank0
	movf	(??_SIM300SendMsg+0)+0,w
	bcf	status, 7	;select IRP bank1
	movwf	indf
	line	388
	
l3070:	
;sim300.c: 388: cmd[n+1]='\0';
	bsf	status, 5	;RP0=1, select bank1
	bcf	status, 6	;RP1=0, select bank1
	movf	(SIM300SendMsg@n)^080h,w
	addlw	01h
	addlw	SIM300SendMsg@cmd&0ffh
	movwf	fsr0
	clrf	indf
	line	391
	
l3072:	
;sim300.c: 391: SIM300Cmd(cmd);
	movlw	(SIM300SendMsg@cmd&0ffh)
	bcf	status, 5	;RP0=0, select bank0
	bcf	status, 6	;RP1=0, select bank0
	movwf	(SIM300Cmd@cmd)
	movlw	(0x0)
	movwf	(SIM300Cmd@cmd+1)
	fcall	_SIM300Cmd
	line	393
	
l3074:	
;sim300.c: 393: _delay((unsigned long)((100)*(4000000/4000.0)));
	opt asmopt_off
movlw	130
	bcf	status, 5	;RP0=0, select bank0
	bcf	status, 6	;RP1=0, select bank0
movwf	((??_SIM300SendMsg+0)+0+1),f
	movlw	221
movwf	((??_SIM300SendMsg+0)+0),f
u3967:
	decfsz	((??_SIM300SendMsg+0)+0),f
	goto	u3967
	decfsz	((??_SIM300SendMsg+0)+0+1),f
	goto	u3967
	nop2
opt asmopt_on

	line	395
	
l3076:	
;sim300.c: 395: USARTWriteString(msg);
	bcf	status, 5	;RP0=0, select bank0
	bcf	status, 6	;RP1=0, select bank0
	movf	(SIM300SendMsg@msg+1),w
	clrf	(USARTWriteString@str+1)
	addwf	(USARTWriteString@str+1)
	movf	(SIM300SendMsg@msg),w
	clrf	(USARTWriteString@str)
	addwf	(USARTWriteString@str)

	fcall	_USARTWriteString
	line	397
	
l3078:	
;sim300.c: 397: USARTWriteChar(0x1A);
	movlw	(01Ah)
	fcall	_USARTWriteChar
	line	399
;sim300.c: 399: while( USARTDataAvailable()<(strlen(msg)+5) );
	goto	l3080
	
l335:	
	goto	l3080
	
l334:	
	
l3080:	
	bcf	status, 5	;RP0=0, select bank0
	bcf	status, 6	;RP1=0, select bank0
	movf	(SIM300SendMsg@msg+1),w
	clrf	(strlen@s+1)
	addwf	(strlen@s+1)
	movf	(SIM300SendMsg@msg),w
	clrf	(strlen@s)
	addwf	(strlen@s)

	fcall	_strlen
	bcf	status, 5	;RP0=0, select bank0
	bcf	status, 6	;RP1=0, select bank0
	movf	(0+(?_strlen)),w
	addlw	low(05h)
	movwf	(??_SIM300SendMsg+0)+0
	movf	(1+(?_strlen)),w
	skipnc
	addlw	1
	addlw	high(05h)
	movwf	1+(??_SIM300SendMsg+0)+0
	fcall	_USARTDataAvailable
	bcf	status, 5	;RP0=0, select bank0
	bcf	status, 6	;RP1=0, select bank0
	movwf	(??_SIM300SendMsg+2)+0
	clrf	(??_SIM300SendMsg+2)+0+1
	movf	1+(??_SIM300SendMsg+0)+0,w
	subwf	1+(??_SIM300SendMsg+2)+0,w
	skipz
	goto	u2535
	movf	0+(??_SIM300SendMsg+0)+0,w
	subwf	0+(??_SIM300SendMsg+2)+0,w
u2535:
	skipc
	goto	u2531
	goto	u2530
u2531:
	goto	l3080
u2530:
	goto	l3082
	
l336:	
	line	402
	
l3082:	
;sim300.c: 402: USARTReadBuffer(sim300_buffer,strlen(msg)+5);
	movf	(SIM300SendMsg@msg+1),w
	clrf	(strlen@s+1)
	addwf	(strlen@s+1)
	movf	(SIM300SendMsg@msg),w
	clrf	(strlen@s)
	addwf	(strlen@s)

	fcall	_strlen
	bcf	status, 5	;RP0=0, select bank0
	bcf	status, 6	;RP1=0, select bank0
	movf	(0+(?_strlen)),w
	addlw	low(05h)
	movwf	(USARTReadBuffer@len)
	movf	(1+(?_strlen)),w
	skipnc
	addlw	1
	addlw	high(05h)
	movwf	1+(USARTReadBuffer@len)
	movlw	(_sim300_buffer)&0ffh
	fcall	_USARTReadBuffer
	line	404
	
l3084:	
;sim300.c: 404: uint8_t len=SIM300WaitForResponse(6000);
	movlw	low(01770h)
	bcf	status, 5	;RP0=0, select bank0
	bcf	status, 6	;RP1=0, select bank0
	movwf	(SIM300WaitForResponse@timeout)
	movlw	high(01770h)
	movwf	((SIM300WaitForResponse@timeout))+1
	fcall	_SIM300WaitForResponse
	bcf	status, 5	;RP0=0, select bank0
	bcf	status, 6	;RP1=0, select bank0
	movwf	(??_SIM300SendMsg+0)+0
	movf	(??_SIM300SendMsg+0)+0,w
	bsf	status, 5	;RP0=1, select bank1
	bcf	status, 6	;RP1=0, select bank1
	movwf	(SIM300SendMsg@len)^080h
	line	406
	
l3086:	
;sim300.c: 406: if(len==0)
	movf	(SIM300SendMsg@len)^080h,f
	skipz
	goto	u2541
	goto	u2540
u2541:
	goto	l3092
u2540:
	line	407
	
l3088:	
;sim300.c: 407: return -3;
	movlw	(-3)
	goto	l338
	
l3090:	
	goto	l338
	
l337:	
	line	409
	
l3092:	
;sim300.c: 409: sim300_buffer[len-1]='\0';
	movf	(SIM300SendMsg@len)^080h,w
	addlw	0FFh
	addlw	_sim300_buffer&0ffh
	movwf	fsr0
	bsf	status, 7	;select IRP bank3
	clrf	indf
	line	410
	
l3094:	
;sim300.c: 410: n = 1;
	clrf	(SIM300SendMsg@n)^080h
	incf	(SIM300SendMsg@n)^080h,f
	line	412
	
l3096:	
;sim300.c: 412: if(strnicmp(sim300_buffer+2,"CMGS:",5)==0)
	movlw	((STR_38)-__stringbase)&0ffh
	bcf	status, 5	;RP0=0, select bank0
	bcf	status, 6	;RP1=0, select bank0
	movwf	(??_SIM300SendMsg+0)+0
	movf	(??_SIM300SendMsg+0)+0,w
	movwf	(strnicmp@s2)
	movlw	low(05h)
	movwf	(strnicmp@len)
	movlw	high(05h)
	movwf	((strnicmp@len))+1
	movlw	(_sim300_buffer+02h)&0ffh
	fcall	_strnicmp
	bcf	status, 5	;RP0=0, select bank0
	bcf	status, 6	;RP1=0, select bank0
	movf	((1+(?_strnicmp))),w
	iorwf	((0+(?_strnicmp))),w
	skipz
	goto	u2551
	goto	u2550
u2551:
	goto	l3110
u2550:
	line	415
	
l3098:	
;sim300.c: 413: {
;sim300.c: 415: *msg_ref=atoi(sim300_buffer+8);
	movlw	(_sim300_buffer+08h)&0ffh
	fcall	_atoi
	bcf	status, 5	;RP0=0, select bank0
	bcf	status, 6	;RP1=0, select bank0
	movf	(0+(?_atoi)),w
	movwf	(??_SIM300SendMsg+0)+0
	movf	(SIM300SendMsg@msg_ref),w
	movwf	fsr0
	movf	(??_SIM300SendMsg+0)+0,w
	bcf	status, 7	;select IRP bank0
	movwf	indf
	line	417
	
l3100:	
;sim300.c: 417: len = SIM300DeleteMsg(n);
	bsf	status, 5	;RP0=1, select bank1
	bcf	status, 6	;RP1=0, select bank1
	movf	(SIM300SendMsg@n)^080h,w
	fcall	_SIM300DeleteMsg
	bcf	status, 5	;RP0=0, select bank0
	bcf	status, 6	;RP1=0, select bank0
	movwf	(??_SIM300SendMsg+0)+0
	movf	(??_SIM300SendMsg+0)+0,w
	bsf	status, 5	;RP0=1, select bank1
	bcf	status, 6	;RP1=0, select bank1
	movwf	(SIM300SendMsg@len)^080h
	line	419
	
l3102:	
;sim300.c: 419: USARTFlushBuffer();
	fcall	_USARTFlushBuffer
	line	421
	
l3104:	
;sim300.c: 421: return 1;
	movlw	(01h)
	goto	l338
	
l3106:	
	goto	l338
	line	422
	
l3108:	
;sim300.c: 422: }
	goto	l338
	line	423
	
l339:	
	line	425
	
l3110:	
;sim300.c: 423: else
;sim300.c: 424: {
;sim300.c: 425: len = SIM300DeleteMsg(n);
	bsf	status, 5	;RP0=1, select bank1
	bcf	status, 6	;RP1=0, select bank1
	movf	(SIM300SendMsg@n)^080h,w
	fcall	_SIM300DeleteMsg
	bcf	status, 5	;RP0=0, select bank0
	bcf	status, 6	;RP1=0, select bank0
	movwf	(??_SIM300SendMsg+0)+0
	movf	(??_SIM300SendMsg+0)+0,w
	bsf	status, 5	;RP0=1, select bank1
	bcf	status, 6	;RP1=0, select bank1
	movwf	(SIM300SendMsg@len)^080h
	line	426
	
l3112:	
;sim300.c: 426: USARTFlushBuffer();
	fcall	_USARTFlushBuffer
	line	427
	
l3114:	
;sim300.c: 427: return -2;
	movlw	(-2)
	goto	l338
	
l3116:	
	goto	l338
	line	428
	
l340:	
	line	429
	
l338:	
	return
	opt stack 0
GLOBAL	__end_of_SIM300SendMsg
	__end_of_SIM300SendMsg:
	signat	_SIM300SendMsg,12409
	global	_atoi

;; *************** function _atoi *****************
;; Defined at:
;;		line 5 in file "C:\Program Files (x86)\Microchip\xc8\v1.33\sources\common\atoi.c"
;; Parameters:    Size  Location     Type
;;  s               1    wreg     PTR const unsigned char 
;;		 -> sim300_buffer(70), 
;; Auto vars:     Size  Location     Type
;;  s               1   13[BANK0 ] PTR const unsigned char 
;;		 -> sim300_buffer(70), 
;;  a               2   11[BANK0 ] int 
;;  sign            1   10[BANK0 ] unsigned char 
;; Return value:  Size  Location     Type
;;                  2    6[BANK0 ] int 
;; Registers used:
;;		wreg, fsr0l, fsr0h, status,2, status,0, pclath, cstack
;; Tracked objects:
;;		On entry : 0/0
;;		On exit  : 0/0
;;		Unchanged: 0/0
;; Data sizes:     COMMON   BANK0   BANK1   BANK3   BANK2
;;      Params:         0       2       0       0       0
;;      Locals:         0       4       0       0       0
;;      Temps:          0       2       0       0       0
;;      Totals:         0       8       0       0       0
;;Total ram usage:        8 bytes
;; Hardware stack levels used:    1
;; Hardware stack levels required when called:    3
;; This function calls:
;;		___wmul
;;		_isdigit
;; This function is called by:
;;		_SIM300SendMsg
;; This function uses a non-reentrant model
;;
psect	text15,local,class=CODE,delta=2,merge=1
	file	"C:\Program Files (x86)\Microchip\xc8\v1.33\sources\common\atoi.c"
	line	5
global __ptext15
__ptext15:	;psect for function _atoi
psect	text15
	file	"C:\Program Files (x86)\Microchip\xc8\v1.33\sources\common\atoi.c"
	line	5
	global	__size_of_atoi
	__size_of_atoi	equ	__end_of_atoi-_atoi
	
_atoi:	
;incstack = 0
	opt	stack 2
; Regs used in _atoi: [wreg-fsr0h+status,2+status,0+pclath+cstack]
;atoi@s stored from wreg
	bcf	status, 5	;RP0=0, select bank0
	bcf	status, 6	;RP1=0, select bank0
	movwf	(atoi@s)
	line	10
	
l3006:	
	goto	l3010
	
l729:	
	line	11
	
l3008:	
	movlw	(01h)
	movwf	(??_atoi+0)+0
	movf	(??_atoi+0)+0,w
	addwf	(atoi@s),f
	goto	l3010
	
l728:	
	line	10
	
l3010:	
	movf	(atoi@s),w
	movwf	fsr0
	bsf	status, 7	;select IRP bank2
	movf	indf,w
	xorlw	020h
	skipnz
	goto	u2431
	goto	u2430
u2431:
	goto	l3008
u2430:
	
l3012:	
	movf	(atoi@s),w
	movwf	fsr0
	movf	indf,w
	xorlw	09h
	skipnz
	goto	u2441
	goto	u2440
u2441:
	goto	l3008
u2440:
	goto	l3014
	
l730:	
	line	12
	
l3014:	
	clrf	(atoi@a)
	clrf	(atoi@a+1)
	line	13
	clrf	(atoi@sign)
	line	14
	
l3016:	
	movf	(atoi@s),w
	movwf	fsr0
	movf	indf,w
	xorlw	02Dh
	skipz
	goto	u2451
	goto	u2450
u2451:
	goto	l3020
u2450:
	line	15
	
l3018:	
	movlw	(01h)
	movwf	(??_atoi+0)+0
	movf	(??_atoi+0)+0,w
	addwf	(atoi@sign),f
	line	16
	movlw	(01h)
	movwf	(??_atoi+0)+0
	movf	(??_atoi+0)+0,w
	addwf	(atoi@s),f
	line	17
	goto	l3028
	
l731:	
	
l3020:	
	movf	(atoi@s),w
	movwf	fsr0
	movf	indf,w
	xorlw	02Bh
	skipz
	goto	u2461
	goto	u2460
u2461:
	goto	l3028
u2460:
	line	18
	
l3022:	
	movlw	(01h)
	movwf	(??_atoi+0)+0
	movf	(??_atoi+0)+0,w
	addwf	(atoi@s),f
	goto	l3028
	
l733:	
	goto	l3028
	line	19
	
l732:	
	goto	l3028
	
l735:	
	line	20
	
l3024:	
	bcf	status, 5	;RP0=0, select bank0
	bcf	status, 6	;RP1=0, select bank0
	movf	(atoi@a+1),w
	clrf	(___wmul@multiplier+1)
	addwf	(___wmul@multiplier+1)
	movf	(atoi@a),w
	clrf	(___wmul@multiplier)
	addwf	(___wmul@multiplier)

	movlw	low(0Ah)
	movwf	(___wmul@multiplicand)
	movlw	high(0Ah)
	movwf	((___wmul@multiplicand))+1
	fcall	___wmul
	bcf	status, 5	;RP0=0, select bank0
	bcf	status, 6	;RP1=0, select bank0
	movf	(atoi@s),w
	movwf	fsr0
	bsf	status, 7	;select IRP bank2
	movf	indf,w
	addwf	(0+(?___wmul)),w
	movwf	(??_atoi+0)+0
	movf	(1+(?___wmul)),w
	skipnc
	incf	(1+(?___wmul)),w
	movwf	((??_atoi+0)+0)+1
	movf	0+(??_atoi+0)+0,w
	addlw	low(0FFD0h)
	movwf	(atoi@a)
	movf	1+(??_atoi+0)+0,w
	skipnc
	addlw	1
	addlw	high(0FFD0h)
	movwf	1+(atoi@a)
	
l3026:	
	movlw	(01h)
	movwf	(??_atoi+0)+0
	movf	(??_atoi+0)+0,w
	addwf	(atoi@s),f
	goto	l3028
	
l734:	
	line	19
	
l3028:	
	movf	(atoi@s),w
	movwf	fsr0
	movf	indf,w
	fcall	_isdigit
	btfsc	status,0
	goto	u2471
	goto	u2470
u2471:
	goto	l3024
u2470:
	goto	l3030
	
l736:	
	line	21
	
l3030:	
	bcf	status, 5	;RP0=0, select bank0
	bcf	status, 6	;RP1=0, select bank0
	movf	(atoi@sign),w
	skipz
	goto	u2480
	goto	l3036
u2480:
	line	22
	
l3032:	
	comf	(atoi@a),w
	movwf	(??_atoi+0)+0
	comf	(atoi@a+1),w
	movwf	((??_atoi+0)+0+1)
	incf	(??_atoi+0)+0,f
	skipnz
	incf	((??_atoi+0)+0+1),f
	movf	0+(??_atoi+0)+0,w
	movwf	(?_atoi)
	movf	1+(??_atoi+0)+0,w
	movwf	(?_atoi+1)
	goto	l738
	
l3034:	
	goto	l738
	
l737:	
	line	23
	
l3036:	
	movf	(atoi@a+1),w
	clrf	(?_atoi+1)
	addwf	(?_atoi+1)
	movf	(atoi@a),w
	clrf	(?_atoi)
	addwf	(?_atoi)

	goto	l738
	
l3038:	
	line	24
	
l738:	
	return
	opt stack 0
GLOBAL	__end_of_atoi
	__end_of_atoi:
	signat	_atoi,4218
	global	_isdigit

;; *************** function _isdigit *****************
;; Defined at:
;;		line 8 in file "C:\Program Files (x86)\Microchip\xc8\v1.33\sources\common\isdigit.c"
;; Parameters:    Size  Location     Type
;;  c               1    wreg     unsigned char 
;; Auto vars:     Size  Location     Type
;;  c               1    1[BANK0 ] unsigned char 
;; Return value:  Size  Location     Type
;;		None               void
;; Registers used:
;;		wreg, status,2, status,0
;; Tracked objects:
;;		On entry : 0/0
;;		On exit  : 0/0
;;		Unchanged: 0/0
;; Data sizes:     COMMON   BANK0   BANK1   BANK3   BANK2
;;      Params:         0       0       0       0       0
;;      Locals:         0       2       0       0       0
;;      Temps:          0       0       0       0       0
;;      Totals:         0       2       0       0       0
;;Total ram usage:        2 bytes
;; Hardware stack levels used:    1
;; Hardware stack levels required when called:    2
;; This function calls:
;;		Nothing
;; This function is called by:
;;		_atoi
;; This function uses a non-reentrant model
;;
psect	text16,local,class=CODE,delta=2,merge=1
	file	"C:\Program Files (x86)\Microchip\xc8\v1.33\sources\common\isdigit.c"
	line	8
global __ptext16
__ptext16:	;psect for function _isdigit
psect	text16
	file	"C:\Program Files (x86)\Microchip\xc8\v1.33\sources\common\isdigit.c"
	line	8
	global	__size_of_isdigit
	__size_of_isdigit	equ	__end_of_isdigit-_isdigit
	
_isdigit:	
;incstack = 0
	opt	stack 2
; Regs used in _isdigit: [wreg+status,2+status,0]
;isdigit@c stored from wreg
	bcf	status, 5	;RP0=0, select bank0
	bcf	status, 6	;RP1=0, select bank0
	movwf	(isdigit@c)
	line	14
	
l2908:	
	clrf	(_isdigit$733)
	
l2910:	
	movlw	(03Ah)
	subwf	(isdigit@c),w
	skipnc
	goto	u2341
	goto	u2340
u2341:
	goto	l2916
u2340:
	
l2912:	
	movlw	(030h)
	subwf	(isdigit@c),w
	skipc
	goto	u2351
	goto	u2350
u2351:
	goto	l2916
u2350:
	
l2914:	
	clrf	(_isdigit$733)
	incf	(_isdigit$733),f
	goto	l2916
	
l881:	
	
l2916:	
	rrf	(_isdigit$733),w
	
	goto	l882
	
l2918:	
	line	15
	
l882:	
	return
	opt stack 0
GLOBAL	__end_of_isdigit
	__end_of_isdigit:
	signat	_isdigit,4216
	global	_SIM300DeleteMsg

;; *************** function _SIM300DeleteMsg *****************
;; Defined at:
;;		line 227 in file "E:\Study Material\XC8 PROJECTS\Modem Advance\sim300.c"
;; Parameters:    Size  Location     Type
;;  i               1    wreg     unsigned char 
;; Auto vars:     Size  Location     Type
;;  i               1   48[BANK0 ] unsigned char 
;;  cmd            16   32[BANK0 ] unsigned char [16]
;;  len             1   49[BANK0 ] unsigned char 
;; Return value:  Size  Location     Type
;;                  1    wreg      char 
;; Registers used:
;;		wreg, fsr0l, fsr0h, status,2, status,0, btemp+1, pclath, cstack
;; Tracked objects:
;;		On entry : 0/0
;;		On exit  : 0/0
;;		Unchanged: 0/0
;; Data sizes:     COMMON   BANK0   BANK1   BANK3   BANK2
;;      Params:         0       0       0       0       0
;;      Locals:         0      18       0       0       0
;;      Temps:          0       3       0       0       0
;;      Totals:         0      21       0       0       0
;;Total ram usage:       21 bytes
;; Hardware stack levels used:    1
;; Hardware stack levels required when called:    5
;; This function calls:
;;		_SIM300Cmd
;;		_SIM300WaitForResponse
;;		_USARTFlushBuffer
;;		_sprintf
;;		_strnicmp
;; This function is called by:
;;		_SIM300WaitForValidMsg
;;		_SIM300SendMsg
;; This function uses a non-reentrant model
;;
psect	text17,local,class=CODE,delta=2,merge=1
	file	"E:\Study Material\XC8 PROJECTS\Modem Advance\sim300.c"
	line	227
global __ptext17
__ptext17:	;psect for function _SIM300DeleteMsg
psect	text17
	file	"E:\Study Material\XC8 PROJECTS\Modem Advance\sim300.c"
	line	227
	global	__size_of_SIM300DeleteMsg
	__size_of_SIM300DeleteMsg	equ	__end_of_SIM300DeleteMsg-_SIM300DeleteMsg
	
_SIM300DeleteMsg:	
;incstack = 0
	opt	stack 0
; Regs used in _SIM300DeleteMsg: [wreg-fsr0h+status,2+status,0+btemp+1+pclath+cstack]
;SIM300DeleteMsg@i stored from wreg
	bcf	status, 5	;RP0=0, select bank0
	bcf	status, 6	;RP1=0, select bank0
	movwf	(SIM300DeleteMsg@i)
	line	229
	
l2920:	
;sim300.c: 229: USARTFlushBuffer();
	fcall	_USARTFlushBuffer
	line	235
	
l2922:	
;sim300.c: 232: char cmd[16];
;sim300.c: 235: sprintf(cmd,"AT+CMGD=%d",i);
	movlw	((STR_32)-__stringbase)&0ffh
	bcf	status, 5	;RP0=0, select bank0
	bcf	status, 6	;RP1=0, select bank0
	movwf	(??_SIM300DeleteMsg+0)+0
	movf	(??_SIM300DeleteMsg+0)+0,w
	movwf	(sprintf@f)
	movf	(SIM300DeleteMsg@i),w
	movwf	(??_SIM300DeleteMsg+1)+0
	clrf	(??_SIM300DeleteMsg+1)+0+1
	movf	0+(??_SIM300DeleteMsg+1)+0,w
	movwf	0+(?_sprintf)+01h
	movf	1+(??_SIM300DeleteMsg+1)+0,w
	movwf	1+(?_sprintf)+01h
	movlw	(SIM300DeleteMsg@cmd)&0ffh
	fcall	_sprintf
	line	238
	
l2924:	
;sim300.c: 238: SIM300Cmd(cmd);
	movlw	(SIM300DeleteMsg@cmd&0ffh)
	bcf	status, 5	;RP0=0, select bank0
	bcf	status, 6	;RP1=0, select bank0
	movwf	(SIM300Cmd@cmd)
	movlw	(0x0)
	movwf	(SIM300Cmd@cmd+1)
	fcall	_SIM300Cmd
	line	240
;sim300.c: 240: uint8_t len=SIM300WaitForResponse(1000);
	movlw	low(03E8h)
	bcf	status, 5	;RP0=0, select bank0
	bcf	status, 6	;RP1=0, select bank0
	movwf	(SIM300WaitForResponse@timeout)
	movlw	high(03E8h)
	movwf	((SIM300WaitForResponse@timeout))+1
	fcall	_SIM300WaitForResponse
	bcf	status, 5	;RP0=0, select bank0
	bcf	status, 6	;RP1=0, select bank0
	movwf	(??_SIM300DeleteMsg+0)+0
	movf	(??_SIM300DeleteMsg+0)+0,w
	movwf	(SIM300DeleteMsg@len)
	line	242
	
l2926:	
;sim300.c: 242: if(len==0)
	movf	(SIM300DeleteMsg@len),f
	skipz
	goto	u2361
	goto	u2360
u2361:
	goto	l2932
u2360:
	line	243
	
l2928:	
;sim300.c: 243: return -3;
	movlw	(-3)
	goto	l310
	
l2930:	
	goto	l310
	
l309:	
	line	245
	
l2932:	
;sim300.c: 245: sim300_buffer[len-1]='\0';
	movf	(SIM300DeleteMsg@len),w
	addlw	0FFh
	addlw	_sim300_buffer&0ffh
	movwf	fsr0
	bsf	status, 7	;select IRP bank3
	clrf	indf
	line	248
	
l2934:	
;sim300.c: 248: if(strnicmp(sim300_buffer+2,"OK",2)==0)
	movlw	((STR_33)-__stringbase)&0ffh
	movwf	(??_SIM300DeleteMsg+0)+0
	movf	(??_SIM300DeleteMsg+0)+0,w
	movwf	(strnicmp@s2)
	movlw	low(02h)
	movwf	(strnicmp@len)
	movlw	high(02h)
	movwf	((strnicmp@len))+1
	movlw	(_sim300_buffer+02h)&0ffh
	fcall	_strnicmp
	bcf	status, 5	;RP0=0, select bank0
	bcf	status, 6	;RP1=0, select bank0
	movf	((1+(?_strnicmp))),w
	iorwf	((0+(?_strnicmp))),w
	skipz
	goto	u2371
	goto	u2370
u2371:
	goto	l2944
u2370:
	line	250
	
l2936:	
;sim300.c: 249: {
;sim300.c: 250: USARTFlushBuffer();
	fcall	_USARTFlushBuffer
	line	251
	
l2938:	
;sim300.c: 251: return 1;
	movlw	(01h)
	goto	l310
	
l2940:	
	goto	l310
	line	252
	
l2942:	
;sim300.c: 252: }
	goto	l310
	line	253
	
l311:	
	line	255
	
l2944:	
;sim300.c: 253: else
;sim300.c: 254: {
;sim300.c: 255: USARTFlushBuffer();
	fcall	_USARTFlushBuffer
	line	256
	
l2946:	
;sim300.c: 256: return -2;
	movlw	(-2)
	goto	l310
	
l2948:	
	goto	l310
	line	257
	
l312:	
	line	258
	
l310:	
	return
	opt stack 0
GLOBAL	__end_of_SIM300DeleteMsg
	__end_of_SIM300DeleteMsg:
	signat	_SIM300DeleteMsg,4217
	global	_sprintf

;; *************** function _sprintf *****************
;; Defined at:
;;		line 492 in file "C:\Program Files (x86)\Microchip\xc8\v1.33\sources\common\doprnt.c"
;; Parameters:    Size  Location     Type
;;  sp              1    wreg     PTR unsigned char 
;;		 -> SIM300SendMsg@cmd(25), SIM300ReadValidMsg@cmd(16), SIM300DeleteMsg@cmd(16), 
;;  f               1   14[BANK0 ] PTR const unsigned char 
;;		 -> STR_37(12), STR_35(11), STR_32(11), 
;; Auto vars:     Size  Location     Type
;;  sp              1   23[BANK0 ] PTR unsigned char 
;;		 -> SIM300SendMsg@cmd(25), SIM300ReadValidMsg@cmd(16), SIM300DeleteMsg@cmd(16), 
;;  _val            4   24[BANK0 ] struct .
;;  c               1   28[BANK0 ] char 
;;  ap              1   22[BANK0 ] PTR void [1]
;;		 -> ?_sprintf(2), 
;;  prec            1   21[BANK0 ] char 
;;  flag            1   20[BANK0 ] unsigned char 
;; Return value:  Size  Location     Type
;;                  2   14[BANK0 ] int 
;; Registers used:
;;		wreg, fsr0l, fsr0h, status,2, status,0, btemp+1, pclath, cstack
;; Tracked objects:
;;		On entry : 0/0
;;		On exit  : 0/0
;;		Unchanged: 0/0
;; Data sizes:     COMMON   BANK0   BANK1   BANK3   BANK2
;;      Params:         0       3       0       0       0
;;      Locals:         0       9       0       0       0
;;      Temps:          0       3       0       0       0
;;      Totals:         0      15       0       0       0
;;Total ram usage:       15 bytes
;; Hardware stack levels used:    1
;; Hardware stack levels required when called:    3
;; This function calls:
;;		___lwdiv
;;		___lwmod
;; This function is called by:
;;		_SIM300DeleteMsg
;;		_SIM300ReadValidMsg
;;		_SIM300SendMsg
;; This function uses a non-reentrant model
;;
psect	text18,local,class=CODE,delta=2,merge=1
	file	"C:\Program Files (x86)\Microchip\xc8\v1.33\sources\common\doprnt.c"
	line	492
global __ptext18
__ptext18:	;psect for function _sprintf
psect	text18
	file	"C:\Program Files (x86)\Microchip\xc8\v1.33\sources\common\doprnt.c"
	line	492
	global	__size_of_sprintf
	__size_of_sprintf	equ	__end_of_sprintf-_sprintf
	
_sprintf:	
;incstack = 0
	opt	stack 1
; Regs used in _sprintf: [wreg-fsr0h+status,2+status,0+btemp+1+pclath+cstack]
;sprintf@sp stored from wreg
	bcf	status, 5	;RP0=0, select bank0
	bcf	status, 6	;RP1=0, select bank0
	movwf	(sprintf@sp)
	line	542
	
l2816:	
;doprnt.c: 494: va_list ap;
;doprnt.c: 499: signed char c;
;doprnt.c: 506: signed char prec;
;doprnt.c: 508: unsigned char flag;
;doprnt.c: 527: union {
;doprnt.c: 528: unsigned int _val;
;doprnt.c: 529: struct {
;doprnt.c: 530: const char * _cp;
;doprnt.c: 531: unsigned _len;
;doprnt.c: 532: } _str;
;doprnt.c: 533: } _val;
;doprnt.c: 542: *ap = __va_start();
	movlw	(?_sprintf+01h)&0ffh
	movwf	(??_sprintf+0)+0
	movf	(??_sprintf+0)+0,w
	movwf	(sprintf@ap)
	line	545
;doprnt.c: 545: while(c = *f++) {
	goto	l2884
	
l462:	
	line	547
	
l2818:	
;doprnt.c: 547: if(c != '%')
	movf	(sprintf@c),w
	xorlw	025h
	skipnz
	goto	u2211
	goto	u2210
u2211:
	goto	l2824
u2210:
	line	550
	
l2820:	
;doprnt.c: 549: {
;doprnt.c: 550: ((*sp++ = (c)));
	movf	(sprintf@c),w
	movwf	(??_sprintf+0)+0
	movf	(sprintf@sp),w
	movwf	fsr0
	movf	(??_sprintf+0)+0,w
	bcf	status, 7	;select IRP bank0
	movwf	indf
	
l2822:	
	movlw	(01h)
	movwf	(??_sprintf+0)+0
	movf	(??_sprintf+0)+0,w
	addwf	(sprintf@sp),f
	line	551
;doprnt.c: 551: continue;
	goto	l2884
	line	552
	
l463:	
	line	557
	
l2824:	
;doprnt.c: 552: }
;doprnt.c: 557: flag = 0;
	clrf	(sprintf@flag)
	line	644
;doprnt.c: 644: switch(c = *f++) {
	goto	l2844
	line	646
;doprnt.c: 646: case 0:
	
l465:	
	line	647
;doprnt.c: 647: goto alldone;
	goto	l2886
	line	706
;doprnt.c: 706: case 'd':
	
l467:	
	goto	l2846
	line	707
	
l468:	
	line	708
;doprnt.c: 707: case 'i':
;doprnt.c: 708: break;
	goto	l2846
	line	737
;doprnt.c: 737: case 's':
	
l470:	
	line	743
	
l2826:	
;doprnt.c: 743: _val._str._cp = (*(const char * *)__va_arg((*(const char * **)ap), (const char *)0));
	movf	(sprintf@ap),w
	movwf	fsr0
	bcf	status, 7	;select IRP bank0
	movf	indf,w
	movwf	(sprintf@_val)
	movlw	(0x1)
	movwf	(sprintf@_val+1)
	
l2828:	
	movlw	(01h)
	movwf	(??_sprintf+0)+0
	movf	(??_sprintf+0)+0,w
	addwf	(sprintf@ap),f
	line	749
	
l2830:	
;doprnt.c: 749: if(!_val._str._cp)
	movf	((sprintf@_val+1)),w
	iorwf	((sprintf@_val)),w
	skipz
	goto	u2221
	goto	u2220
u2221:
	goto	l2840
u2220:
	line	750
	
l2832:	
;doprnt.c: 750: _val._str._cp = "(null)";
	movlw	low((STR_39)-__stringbase)
	movwf	(sprintf@_val)
	movlw	80h
	movwf	(sprintf@_val+1)
	goto	l2840
	
l471:	
	line	786
;doprnt.c: 786: while(*_val._str._cp)
	goto	l2840
	
l473:	
	line	787
	
l2834:	
;doprnt.c: 787: ((*sp++ = (*_val._str._cp++)));
	movf	(sprintf@_val+1),w
	movwf	btemp+1
	movf	(sprintf@_val),w
	movwf	fsr0
	fcall	stringtab
	movwf	(??_sprintf+0)+0
	movf	(sprintf@sp),w
	movwf	fsr0
	movf	(??_sprintf+0)+0,w
	bcf	status, 7	;select IRP bank0
	movwf	indf
	
l2836:	
	movlw	01h
	addwf	(sprintf@_val),f
	skipnc
	incf	(sprintf@_val+1),f
	
l2838:	
	movlw	(01h)
	movwf	(??_sprintf+0)+0
	movf	(??_sprintf+0)+0,w
	addwf	(sprintf@sp),f
	goto	l2840
	
l472:	
	line	786
	
l2840:	
	movf	(sprintf@_val+1),w
	movwf	btemp+1
	movf	(sprintf@_val),w
	movwf	fsr0
	fcall	stringtab
	iorlw	0
	skipz
	goto	u2231
	goto	u2230
u2231:
	goto	l2834
u2230:
	goto	l2884
	
l474:	
	line	788
;doprnt.c: 788: continue;
	goto	l2884
	line	811
;doprnt.c: 811: default:
	
l475:	
	line	822
;doprnt.c: 822: continue;
	goto	l2884
	line	831
	
l2842:	
;doprnt.c: 831: }
	goto	l2846
	line	644
	
l464:	
	
l2844:	
	movlw	01h
	addwf	(sprintf@f),f
	movlw	-01h
	addwf	(sprintf@f),w
	movwf	fsr0
	fcall	stringdir
	movwf	(sprintf@c)
	; Switch size 1, requested type "space"
; Number of cases is 4, Range of values is 0 to 115
; switch strategies available:
; Name         Instructions Cycles
; simple_byte           13     7 (average)
; jumptable            260     6 (fixed)
;	Chosen strategy is simple_byte

	opt asmopt_off
	xorlw	0^0	; case 0
	skipnz
	goto	l2886
	xorlw	100^0	; case 100
	skipnz
	goto	l2846
	xorlw	105^100	; case 105
	skipnz
	goto	l2846
	xorlw	115^105	; case 115
	skipnz
	goto	l2826
	goto	l2884
	opt asmopt_on

	line	831
	
l469:	
	line	1268
	
l2846:	
;doprnt.c: 1262: {
;doprnt.c: 1268: _val._val = (int)(*(int *)__va_arg((*(int **)ap), (int)0));
	movf	(sprintf@ap),w
	movwf	fsr0
	bcf	status, 7	;select IRP bank0
	movf	indf,w
	movwf	(sprintf@_val)
	incf	fsr0,f
	movf	indf,w
	movwf	(sprintf@_val+1)
	
l2848:	
	movlw	(02h)
	movwf	(??_sprintf+0)+0
	movf	(??_sprintf+0)+0,w
	addwf	(sprintf@ap),f
	line	1270
	
l2850:	
;doprnt.c: 1270: if((int)_val._val < 0) {
	btfss	(sprintf@_val+1),7
	goto	u2241
	goto	u2240
u2241:
	goto	l2856
u2240:
	line	1271
	
l2852:	
;doprnt.c: 1271: flag |= 0x03;
	movlw	(03h)
	movwf	(??_sprintf+0)+0
	movf	(??_sprintf+0)+0,w
	iorwf	(sprintf@flag),f
	line	1272
	
l2854:	
;doprnt.c: 1272: _val._val = -_val._val;
	comf	(sprintf@_val),f
	comf	(sprintf@_val+1),f
	incf	(sprintf@_val),f
	skipnz
	incf	(sprintf@_val+1),f
	goto	l2856
	line	1273
	
l476:	
	line	1314
	
l2856:	
;doprnt.c: 1273: }
;doprnt.c: 1275: }
;doprnt.c: 1314: for(c = 1 ; c != sizeof dpowers/sizeof dpowers[0] ; c++)
	clrf	(sprintf@c)
	incf	(sprintf@c),f
	movf	(sprintf@c),w
	xorlw	05h
	skipz
	goto	u2251
	goto	u2250
u2251:
	goto	l2860
u2250:
	goto	l2868
	
l2858:	
	goto	l2868
	line	1315
	
l477:	
	
l2860:	
;doprnt.c: 1315: if(_val._val < dpowers[c])
	movf	(sprintf@c),w
	movwf	(??_sprintf+0)+0
	addwf	(??_sprintf+0)+0,w
	addlw	low((_dpowers)-__stringbase)
	movwf	fsr0
	fcall	stringdir
	movwf	(??_sprintf+1)+0
	fcall	stringdir
	movwf	(??_sprintf+1)+0+1
	movf	1+(??_sprintf+1)+0,w
	subwf	(sprintf@_val+1),w
	skipz
	goto	u2265
	movf	0+(??_sprintf+1)+0,w
	subwf	(sprintf@_val),w
u2265:
	skipnc
	goto	u2261
	goto	u2260
u2261:
	goto	l2864
u2260:
	goto	l2868
	line	1316
	
l2862:	
;doprnt.c: 1316: break;
	goto	l2868
	
l479:	
	line	1314
	
l2864:	
	movlw	(01h)
	movwf	(??_sprintf+0)+0
	movf	(??_sprintf+0)+0,w
	addwf	(sprintf@c),f
	
l2866:	
	movf	(sprintf@c),w
	xorlw	05h
	skipz
	goto	u2271
	goto	u2270
u2271:
	goto	l2860
u2270:
	goto	l2868
	
l478:	
	line	1447
	
l2868:	
;doprnt.c: 1431: {
;doprnt.c: 1447: if(flag & 0x03)
	movf	(sprintf@flag),w
	andlw	03h
	btfsc	status,2
	goto	u2281
	goto	u2280
u2281:
	goto	l2874
u2280:
	line	1448
	
l2870:	
;doprnt.c: 1448: ((*sp++ = ('-')));
	movlw	(02Dh)
	movwf	(??_sprintf+0)+0
	movf	(sprintf@sp),w
	movwf	fsr0
	movf	(??_sprintf+0)+0,w
	bcf	status, 7	;select IRP bank0
	movwf	indf
	
l2872:	
	movlw	(01h)
	movwf	(??_sprintf+0)+0
	movf	(??_sprintf+0)+0,w
	addwf	(sprintf@sp),f
	goto	l2874
	
l480:	
	line	1481
	
l2874:	
;doprnt.c: 1478: }
;doprnt.c: 1481: prec = c;
	movf	(sprintf@c),w
	movwf	(??_sprintf+0)+0
	movf	(??_sprintf+0)+0,w
	movwf	(sprintf@prec)
	line	1483
;doprnt.c: 1483: while(prec--) {
	goto	l2882
	
l482:	
	line	1498
	
l2876:	
;doprnt.c: 1487: {
;doprnt.c: 1498: c = (_val._val / dpowers[prec]) % 10 + '0';
	movlw	low(0Ah)
	movwf	(___lwmod@divisor)
	movlw	high(0Ah)
	movwf	((___lwmod@divisor))+1
	movf	(sprintf@prec),w
	movwf	(??_sprintf+0)+0
	addwf	(??_sprintf+0)+0,w
	addlw	low((_dpowers)-__stringbase)
	movwf	fsr0
	fcall	stringdir
	movwf	(___lwdiv@divisor)
	fcall	stringdir
	movwf	(___lwdiv@divisor+1)
	movf	(sprintf@_val+1),w
	clrf	(___lwdiv@dividend+1)
	addwf	(___lwdiv@dividend+1)
	movf	(sprintf@_val),w
	clrf	(___lwdiv@dividend)
	addwf	(___lwdiv@dividend)

	fcall	___lwdiv
	bcf	status, 5	;RP0=0, select bank0
	bcf	status, 6	;RP1=0, select bank0
	movf	(1+(?___lwdiv)),w
	clrf	(___lwmod@dividend+1)
	addwf	(___lwmod@dividend+1)
	movf	(0+(?___lwdiv)),w
	clrf	(___lwmod@dividend)
	addwf	(___lwmod@dividend)

	fcall	___lwmod
	bcf	status, 5	;RP0=0, select bank0
	bcf	status, 6	;RP1=0, select bank0
	movf	(0+(?___lwmod)),w
	addlw	030h
	movwf	(??_sprintf+1)+0
	movf	(??_sprintf+1)+0,w
	movwf	(sprintf@c)
	line	1533
	
l2878:	
;doprnt.c: 1532: }
;doprnt.c: 1533: ((*sp++ = (c)));
	movf	(sprintf@c),w
	movwf	(??_sprintf+0)+0
	movf	(sprintf@sp),w
	movwf	fsr0
	movf	(??_sprintf+0)+0,w
	bcf	status, 7	;select IRP bank0
	movwf	indf
	
l2880:	
	movlw	(01h)
	movwf	(??_sprintf+0)+0
	movf	(??_sprintf+0)+0,w
	addwf	(sprintf@sp),f
	goto	l2882
	line	1534
	
l481:	
	line	1483
	
l2882:	
	movlw	(-1)
	movwf	(??_sprintf+0)+0
	movf	(??_sprintf+0)+0,w
	addwf	(sprintf@prec),f
	movf	((sprintf@prec)),w
	xorlw	-1
	skipz
	goto	u2291
	goto	u2290
u2291:
	goto	l2876
u2290:
	goto	l2884
	
l483:	
	goto	l2884
	line	1542
	
l461:	
	line	545
	
l2884:	
	movlw	01h
	addwf	(sprintf@f),f
	movlw	-01h
	addwf	(sprintf@f),w
	movwf	fsr0
	fcall	stringdir
	movwf	(??_sprintf+0)+0
	movf	(??_sprintf+0)+0,w
	movwf	(sprintf@c)
	movf	((sprintf@c)),f
	skipz
	goto	u2301
	goto	u2300
u2301:
	goto	l2818
u2300:
	goto	l2886
	
l484:	
	goto	l2886
	line	1544
;doprnt.c: 1534: }
;doprnt.c: 1542: }
;doprnt.c: 1544: alldone:
	
l466:	
	line	1547
	
l2886:	
;doprnt.c: 1547: *sp = 0;
	movf	(sprintf@sp),w
	movwf	fsr0
	bcf	status, 7	;select IRP bank0
	clrf	indf
	goto	l485
	line	1549
	
l2888:	
	line	1550
;doprnt.c: 1549: return 0;
;	Return value of _sprintf is never used
	
l485:	
	return
	opt stack 0
GLOBAL	__end_of_sprintf
	__end_of_sprintf:
	signat	_sprintf,4698
	global	___lwmod

;; *************** function ___lwmod *****************
;; Defined at:
;;		line 6 in file "C:\Program Files (x86)\Microchip\xc8\v1.33\sources\common\lwmod.c"
;; Parameters:    Size  Location     Type
;;  divisor         2    8[BANK0 ] unsigned int 
;;  dividend        2   10[BANK0 ] unsigned int 
;; Auto vars:     Size  Location     Type
;;  counter         1   13[BANK0 ] unsigned char 
;; Return value:  Size  Location     Type
;;                  2    8[BANK0 ] unsigned int 
;; Registers used:
;;		wreg, status,2, status,0
;; Tracked objects:
;;		On entry : 0/0
;;		On exit  : 0/0
;;		Unchanged: 0/0
;; Data sizes:     COMMON   BANK0   BANK1   BANK3   BANK2
;;      Params:         0       4       0       0       0
;;      Locals:         0       1       0       0       0
;;      Temps:          0       1       0       0       0
;;      Totals:         0       6       0       0       0
;;Total ram usage:        6 bytes
;; Hardware stack levels used:    1
;; Hardware stack levels required when called:    2
;; This function calls:
;;		Nothing
;; This function is called by:
;;		_sprintf
;; This function uses a non-reentrant model
;;
psect	text19,local,class=CODE,delta=2,merge=1
	file	"C:\Program Files (x86)\Microchip\xc8\v1.33\sources\common\lwmod.c"
	line	6
global __ptext19
__ptext19:	;psect for function ___lwmod
psect	text19
	file	"C:\Program Files (x86)\Microchip\xc8\v1.33\sources\common\lwmod.c"
	line	6
	global	__size_of___lwmod
	__size_of___lwmod	equ	__end_of___lwmod-___lwmod
	
___lwmod:	
;incstack = 0
	opt	stack 1
; Regs used in ___lwmod: [wreg+status,2+status,0]
	line	13
	
l2644:	
	bcf	status, 5	;RP0=0, select bank0
	bcf	status, 6	;RP1=0, select bank0
	movf	(___lwmod@divisor+1),w
	iorwf	(___lwmod@divisor),w
	skipnz
	goto	u1931
	goto	u1930
u1931:
	goto	l2662
u1930:
	line	14
	
l2646:	
	clrf	(___lwmod@counter)
	incf	(___lwmod@counter),f
	line	15
	goto	l2652
	
l971:	
	line	16
	
l2648:	
	movlw	01h
	
u1945:
	clrc
	rlf	(___lwmod@divisor),f
	rlf	(___lwmod@divisor+1),f
	addlw	-1
	skipz
	goto	u1945
	line	17
	
l2650:	
	movlw	(01h)
	movwf	(??___lwmod+0)+0
	movf	(??___lwmod+0)+0,w
	addwf	(___lwmod@counter),f
	goto	l2652
	line	18
	
l970:	
	line	15
	
l2652:	
	btfss	(___lwmod@divisor+1),(15)&7
	goto	u1951
	goto	u1950
u1951:
	goto	l2648
u1950:
	goto	l2654
	
l972:	
	goto	l2654
	line	19
	
l973:	
	line	20
	
l2654:	
	movf	(___lwmod@divisor+1),w
	subwf	(___lwmod@dividend+1),w
	skipz
	goto	u1965
	movf	(___lwmod@divisor),w
	subwf	(___lwmod@dividend),w
u1965:
	skipc
	goto	u1961
	goto	u1960
u1961:
	goto	l2658
u1960:
	line	21
	
l2656:	
	movf	(___lwmod@divisor),w
	subwf	(___lwmod@dividend),f
	movf	(___lwmod@divisor+1),w
	skipc
	decf	(___lwmod@dividend+1),f
	subwf	(___lwmod@dividend+1),f
	goto	l2658
	
l974:	
	line	22
	
l2658:	
	movlw	01h
	
u1975:
	clrc
	rrf	(___lwmod@divisor+1),f
	rrf	(___lwmod@divisor),f
	addlw	-1
	skipz
	goto	u1975
	line	23
	
l2660:	
	movlw	low(01h)
	subwf	(___lwmod@counter),f
	btfss	status,2
	goto	u1981
	goto	u1980
u1981:
	goto	l2654
u1980:
	goto	l2662
	
l975:	
	goto	l2662
	line	24
	
l969:	
	line	25
	
l2662:	
	movf	(___lwmod@dividend+1),w
	clrf	(?___lwmod+1)
	addwf	(?___lwmod+1)
	movf	(___lwmod@dividend),w
	clrf	(?___lwmod)
	addwf	(?___lwmod)

	goto	l976
	
l2664:	
	line	26
	
l976:	
	return
	opt stack 0
GLOBAL	__end_of___lwmod
	__end_of___lwmod:
	signat	___lwmod,8314
	global	___lwdiv

;; *************** function ___lwdiv *****************
;; Defined at:
;;		line 6 in file "C:\Program Files (x86)\Microchip\xc8\v1.33\sources\common\lwdiv.c"
;; Parameters:    Size  Location     Type
;;  divisor         2    0[BANK0 ] unsigned int 
;;  dividend        2    2[BANK0 ] unsigned int 
;; Auto vars:     Size  Location     Type
;;  quotient        2    5[BANK0 ] unsigned int 
;;  counter         1    7[BANK0 ] unsigned char 
;; Return value:  Size  Location     Type
;;                  2    0[BANK0 ] unsigned int 
;; Registers used:
;;		wreg, status,2, status,0
;; Tracked objects:
;;		On entry : 0/0
;;		On exit  : 0/0
;;		Unchanged: 0/0
;; Data sizes:     COMMON   BANK0   BANK1   BANK3   BANK2
;;      Params:         0       4       0       0       0
;;      Locals:         0       3       0       0       0
;;      Temps:          0       1       0       0       0
;;      Totals:         0       8       0       0       0
;;Total ram usage:        8 bytes
;; Hardware stack levels used:    1
;; Hardware stack levels required when called:    2
;; This function calls:
;;		Nothing
;; This function is called by:
;;		_sprintf
;; This function uses a non-reentrant model
;;
psect	text20,local,class=CODE,delta=2,merge=1
	file	"C:\Program Files (x86)\Microchip\xc8\v1.33\sources\common\lwdiv.c"
	line	6
global __ptext20
__ptext20:	;psect for function ___lwdiv
psect	text20
	file	"C:\Program Files (x86)\Microchip\xc8\v1.33\sources\common\lwdiv.c"
	line	6
	global	__size_of___lwdiv
	__size_of___lwdiv	equ	__end_of___lwdiv-___lwdiv
	
___lwdiv:	
;incstack = 0
	opt	stack 1
; Regs used in ___lwdiv: [wreg+status,2+status,0]
	line	14
	
l2618:	
	bcf	status, 5	;RP0=0, select bank0
	bcf	status, 6	;RP1=0, select bank0
	clrf	(___lwdiv@quotient)
	clrf	(___lwdiv@quotient+1)
	line	15
	
l2620:	
	movf	(___lwdiv@divisor+1),w
	iorwf	(___lwdiv@divisor),w
	skipnz
	goto	u1861
	goto	u1860
u1861:
	goto	l2640
u1860:
	line	16
	
l2622:	
	clrf	(___lwdiv@counter)
	incf	(___lwdiv@counter),f
	line	17
	goto	l2628
	
l961:	
	line	18
	
l2624:	
	movlw	01h
	
u1875:
	clrc
	rlf	(___lwdiv@divisor),f
	rlf	(___lwdiv@divisor+1),f
	addlw	-1
	skipz
	goto	u1875
	line	19
	
l2626:	
	movlw	(01h)
	movwf	(??___lwdiv+0)+0
	movf	(??___lwdiv+0)+0,w
	addwf	(___lwdiv@counter),f
	goto	l2628
	line	20
	
l960:	
	line	17
	
l2628:	
	btfss	(___lwdiv@divisor+1),(15)&7
	goto	u1881
	goto	u1880
u1881:
	goto	l2624
u1880:
	goto	l2630
	
l962:	
	goto	l2630
	line	21
	
l963:	
	line	22
	
l2630:	
	movlw	01h
	
u1895:
	clrc
	rlf	(___lwdiv@quotient),f
	rlf	(___lwdiv@quotient+1),f
	addlw	-1
	skipz
	goto	u1895
	line	23
	movf	(___lwdiv@divisor+1),w
	subwf	(___lwdiv@dividend+1),w
	skipz
	goto	u1905
	movf	(___lwdiv@divisor),w
	subwf	(___lwdiv@dividend),w
u1905:
	skipc
	goto	u1901
	goto	u1900
u1901:
	goto	l2636
u1900:
	line	24
	
l2632:	
	movf	(___lwdiv@divisor),w
	subwf	(___lwdiv@dividend),f
	movf	(___lwdiv@divisor+1),w
	skipc
	decf	(___lwdiv@dividend+1),f
	subwf	(___lwdiv@dividend+1),f
	line	25
	
l2634:	
	bsf	(___lwdiv@quotient)+(0/8),(0)&7
	goto	l2636
	line	26
	
l964:	
	line	27
	
l2636:	
	movlw	01h
	
u1915:
	clrc
	rrf	(___lwdiv@divisor+1),f
	rrf	(___lwdiv@divisor),f
	addlw	-1
	skipz
	goto	u1915
	line	28
	
l2638:	
	movlw	low(01h)
	subwf	(___lwdiv@counter),f
	btfss	status,2
	goto	u1921
	goto	u1920
u1921:
	goto	l2630
u1920:
	goto	l2640
	
l965:	
	goto	l2640
	line	29
	
l959:	
	line	30
	
l2640:	
	movf	(___lwdiv@quotient+1),w
	clrf	(?___lwdiv+1)
	addwf	(?___lwdiv+1)
	movf	(___lwdiv@quotient),w
	clrf	(?___lwdiv)
	addwf	(?___lwdiv)

	goto	l966
	
l2642:	
	line	31
	
l966:	
	return
	opt stack 0
GLOBAL	__end_of___lwdiv
	__end_of___lwdiv:
	signat	___lwdiv,8314
	global	_SIM300WaitForResponse

;; *************** function _SIM300WaitForResponse *****************
;; Defined at:
;;		line 154 in file "E:\Study Material\XC8 PROJECTS\Modem Advance\sim300.c"
;; Parameters:    Size  Location     Type
;;  timeout         2    2[BANK0 ] unsigned int 
;; Auto vars:     Size  Location     Type
;;  n               2    5[BANK0 ] unsigned int 
;;  i               1    7[BANK0 ] unsigned char 
;; Return value:  Size  Location     Type
;;                  1    wreg      char 
;; Registers used:
;;		wreg, fsr0l, fsr0h, status,2, status,0, pclath, cstack
;; Tracked objects:
;;		On entry : 0/0
;;		On exit  : 0/0
;;		Unchanged: 0/0
;; Data sizes:     COMMON   BANK0   BANK1   BANK3   BANK2
;;      Params:         0       2       0       0       0
;;      Locals:         0       3       0       0       0
;;      Temps:          0       1       0       0       0
;;      Totals:         0       6       0       0       0
;;Total ram usage:        6 bytes
;; Hardware stack levels used:    1
;; Hardware stack levels required when called:    4
;; This function calls:
;;		_USARTDataAvailable
;;		_USARTFlushBuffer
;;		_USARTReadData
;; This function is called by:
;;		_SIM300DeleteMsg
;;		_SIM300ReadValidMsg
;;		_SIM300SendMsg
;; This function uses a non-reentrant model
;;
psect	text21,local,class=CODE,delta=2,merge=1
	file	"E:\Study Material\XC8 PROJECTS\Modem Advance\sim300.c"
	line	154
global __ptext21
__ptext21:	;psect for function _SIM300WaitForResponse
psect	text21
	file	"E:\Study Material\XC8 PROJECTS\Modem Advance\sim300.c"
	line	154
	global	__size_of_SIM300WaitForResponse
	__size_of_SIM300WaitForResponse	equ	__end_of_SIM300WaitForResponse-_SIM300WaitForResponse
	
_SIM300WaitForResponse:	
;incstack = 0
	opt	stack 0
; Regs used in _SIM300WaitForResponse: [wreg-fsr0h+status,2+status,0+pclath+cstack]
	line	156
	
l2784:	
;sim300.c: 156: uint8_t i=0;
	bcf	status, 5	;RP0=0, select bank0
	bcf	status, 6	;RP1=0, select bank0
	clrf	(SIM300WaitForResponse@i)
	line	157
;sim300.c: 157: uint16_t n=0;
	clrf	(SIM300WaitForResponse@n)
	clrf	(SIM300WaitForResponse@n+1)
	goto	l2788
	line	159
;sim300.c: 159: while(1)
	
l279:	
	line	162
;sim300.c: 160: {
;sim300.c: 162: while (USARTDataAvailable()==0 && n<timeout)
	goto	l2788
	
l281:	
	line	164
	
l2786:	
;sim300.c: 163: {
;sim300.c: 164: n++;
	movlw	low(01h)
	addwf	(SIM300WaitForResponse@n),f
	skipnc
	incf	(SIM300WaitForResponse@n+1),f
	movlw	high(01h)
	addwf	(SIM300WaitForResponse@n+1),f
	line	165
;sim300.c: 165: _delay((unsigned long)((1)*(4000000/4000.0)));
	opt asmopt_off
movlw	249
movwf	(??_SIM300WaitForResponse+0)+0,f
u3977:
	nop
decfsz	(??_SIM300WaitForResponse+0)+0,f
	goto	u3977
	nop2	;nop
	nop
opt asmopt_on

	goto	l2788
	line	167
	
l280:	
	line	162
	
l2788:	
	fcall	_USARTDataAvailable
	iorlw	0
	skipz
	goto	u2161
	goto	u2160
u2161:
	goto	l2792
u2160:
	
l2790:	
	bcf	status, 5	;RP0=0, select bank0
	bcf	status, 6	;RP1=0, select bank0
	movf	(SIM300WaitForResponse@timeout+1),w
	subwf	(SIM300WaitForResponse@n+1),w
	skipz
	goto	u2175
	movf	(SIM300WaitForResponse@timeout),w
	subwf	(SIM300WaitForResponse@n),w
u2175:
	skipc
	goto	u2171
	goto	u2170
u2171:
	goto	l2786
u2170:
	goto	l2792
	
l283:	
	goto	l2792
	
l284:	
	line	169
	
l2792:	
;sim300.c: 167: }
;sim300.c: 169: if(n==timeout)
	bcf	status, 5	;RP0=0, select bank0
	bcf	status, 6	;RP1=0, select bank0
	movf	(SIM300WaitForResponse@timeout+1),w
	xorwf	(SIM300WaitForResponse@n+1),w
	skipz
	goto	u2185
	movf	(SIM300WaitForResponse@timeout),w
	xorwf	(SIM300WaitForResponse@n),w
u2185:

	skipz
	goto	u2181
	goto	u2180
u2181:
	goto	l2800
u2180:
	line	172
	
l2794:	
;sim300.c: 170: {
;sim300.c: 172: return 0;
	movlw	(0)
	goto	l286
	
l2796:	
	goto	l286
	line	173
	
l2798:	
;sim300.c: 173: }
	goto	l2788
	line	174
	
l285:	
	line	177
	
l2800:	
;sim300.c: 174: else
;sim300.c: 175: {
;sim300.c: 177: sim300_buffer[i]=USARTReadData();
	fcall	_USARTReadData
	bcf	status, 5	;RP0=0, select bank0
	bcf	status, 6	;RP1=0, select bank0
	movwf	(??_SIM300WaitForResponse+0)+0
	movf	(SIM300WaitForResponse@i),w
	addlw	_sim300_buffer&0ffh
	movwf	fsr0
	movf	(??_SIM300WaitForResponse+0)+0,w
	bsf	status, 7	;select IRP bank3
	movwf	indf
	line	179
	
l2802:	
;sim300.c: 179: if(sim300_buffer[i]==0x0D && i!=0)
	movf	(SIM300WaitForResponse@i),w
	addlw	_sim300_buffer&0ffh
	movwf	fsr0
	movf	indf,w
	xorlw	0Dh
	skipz
	goto	u2191
	goto	u2190
u2191:
	goto	l2814
u2190:
	
l2804:	
	movf	(SIM300WaitForResponse@i),w
	skipz
	goto	u2200
	goto	l2814
u2200:
	line	181
	
l2806:	
;sim300.c: 180: {
;sim300.c: 181: USARTFlushBuffer();
	fcall	_USARTFlushBuffer
	line	182
	
l2808:	
;sim300.c: 182: return i+1;
	bcf	status, 5	;RP0=0, select bank0
	bcf	status, 6	;RP1=0, select bank0
	movf	(SIM300WaitForResponse@i),w
	addlw	01h
	goto	l286
	
l2810:	
	goto	l286
	line	183
	
l2812:	
;sim300.c: 183: }
	goto	l2788
	line	184
	
l288:	
	line	185
	
l2814:	
;sim300.c: 184: else
;sim300.c: 185: i++;
	movlw	(01h)
	movwf	(??_SIM300WaitForResponse+0)+0
	movf	(??_SIM300WaitForResponse+0)+0,w
	addwf	(SIM300WaitForResponse@i),f
	goto	l2788
	
l289:	
	goto	l2788
	line	186
	
l287:	
	goto	l2788
	line	187
	
l290:	
	line	159
	goto	l2788
	
l291:	
	line	188
	
l286:	
	return
	opt stack 0
GLOBAL	__end_of_SIM300WaitForResponse
	__end_of_SIM300WaitForResponse:
	signat	_SIM300WaitForResponse,4217
	global	_SIM300WaitForValidCall

;; *************** function _SIM300WaitForValidCall *****************
;; Defined at:
;;		line 303 in file "E:\Study Material\XC8 PROJECTS\Modem Advance\MobileAdv.c"
;; Parameters:    Size  Location     Type
;;		None
;; Auto vars:     Size  Location     Type
;;  i               1   12[BANK0 ] unsigned char 
;;  start           1   11[BANK0 ] PTR unsigned char 
;;		 -> NULL(0), sim300_buffer(70), 
;;  len             1   10[BANK0 ] unsigned char 
;; Return value:  Size  Location     Type
;;                  1    wreg      char 
;; Registers used:
;;		wreg, fsr0l, fsr0h, status,2, status,0, pclath, cstack
;; Tracked objects:
;;		On entry : 0/0
;;		On exit  : 0/0
;;		Unchanged: 0/0
;; Data sizes:     COMMON   BANK0   BANK1   BANK3   BANK2
;;      Params:         0       0       0       0       0
;;      Locals:         0       3       0       0       0
;;      Temps:          0       1       0       0       0
;;      Totals:         0       4       0       0       0
;;Total ram usage:        4 bytes
;; Hardware stack levels used:    1
;; Hardware stack levels required when called:    5
;; This function calls:
;;		_SIM300RingResponse
;;		_USARTFlushBuffer
;;		_strichr
;;		_strnicmp
;;		_strrichr
;; This function is called by:
;;		_main
;; This function uses a non-reentrant model
;;
psect	text22,local,class=CODE,delta=2,merge=1
	file	"E:\Study Material\XC8 PROJECTS\Modem Advance\MobileAdv.c"
	line	303
global __ptext22
__ptext22:	;psect for function _SIM300WaitForValidCall
psect	text22
	file	"E:\Study Material\XC8 PROJECTS\Modem Advance\MobileAdv.c"
	line	303
	global	__size_of_SIM300WaitForValidCall
	__size_of_SIM300WaitForValidCall	equ	__end_of_SIM300WaitForValidCall-_SIM300WaitForValidCall
	
_SIM300WaitForValidCall:	
;incstack = 0
	opt	stack 2
; Regs used in _SIM300WaitForValidCall: [wreg-fsr0h+status,2+status,0+pclath+cstack]
	line	308
	
l3490:	
;MobileAdv.c: 308: uint8_t len=SIM300RingResponse(15000);
	movlw	low(03A98h)
	bcf	status, 5	;RP0=0, select bank0
	bcf	status, 6	;RP1=0, select bank0
	movwf	(SIM300RingResponse@timeout)
	movlw	high(03A98h)
	movwf	((SIM300RingResponse@timeout))+1
	fcall	_SIM300RingResponse
	bcf	status, 5	;RP0=0, select bank0
	bcf	status, 6	;RP1=0, select bank0
	movwf	(??_SIM300WaitForValidCall+0)+0
	movf	(??_SIM300WaitForValidCall+0)+0,w
	movwf	(SIM300WaitForValidCall@len)
	line	309
	
l3492:	
;MobileAdv.c: 309: if(len==0)
	movf	(SIM300WaitForValidCall@len),f
	skipz
	goto	u2961
	goto	u2960
u2961:
	goto	l3498
u2960:
	line	310
	
l3494:	
;MobileAdv.c: 310: return -3;
	movlw	(-3)
	goto	l159
	
l3496:	
	goto	l159
	
l158:	
	line	312
	
l3498:	
;MobileAdv.c: 312: sim300_buffer[len-1]='\0';
	movf	(SIM300WaitForValidCall@len),w
	addlw	0FFh
	addlw	_sim300_buffer&0ffh
	movwf	fsr0
	bsf	status, 7	;select IRP bank3
	clrf	indf
	line	315
	
l3500:	
;MobileAdv.c: 315: if(strnicmp(sim300_buffer+10,"+CLIP:",6)==0)
	movlw	((STR_11)-__stringbase)&0ffh
	movwf	(??_SIM300WaitForValidCall+0)+0
	movf	(??_SIM300WaitForValidCall+0)+0,w
	movwf	(strnicmp@s2)
	movlw	low(06h)
	movwf	(strnicmp@len)
	movlw	high(06h)
	movwf	((strnicmp@len))+1
	movlw	(_sim300_buffer+0Ah)&0ffh
	fcall	_strnicmp
	bcf	status, 5	;RP0=0, select bank0
	bcf	status, 6	;RP1=0, select bank0
	movf	((1+(?_strnicmp))),w
	iorwf	((0+(?_strnicmp))),w
	skipz
	goto	u2971
	goto	u2970
u2971:
	goto	l3554
u2970:
	line	319
	
l3502:	
;MobileAdv.c: 316: {
;MobileAdv.c: 319: if(strrichr(sim300_buffer,'X') != (0))
	movlw	low(058h)
	movwf	(strrichr@chr)
	movlw	high(058h)
	movwf	((strrichr@chr))+1
	movlw	(_sim300_buffer)&0ffh
	fcall	_strrichr
	xorlw	0
	skipnz
	goto	u2981
	goto	u2980
u2981:
	goto	l161
u2980:
	line	321
	
l3504:	
;MobileAdv.c: 320: {
;MobileAdv.c: 321: if(RING_COUNT == REQUIRED_RING_COUNT)
	bsf	status, 5	;RP0=1, select bank1
	bcf	status, 6	;RP1=0, select bank1
	movf	(_RING_COUNT)^080h,w
	xorwf	(_REQUIRED_RING_COUNT)^080h,w
	skipz
	goto	u2991
	goto	u2990
u2991:
	goto	l3538
u2990:
	line	325
	
l3506:	
;MobileAdv.c: 322: {
;MobileAdv.c: 324: char *start;
;MobileAdv.c: 325: start = strichr(sim300_buffer+10,'"');
	movlw	low(022h)
	bcf	status, 5	;RP0=0, select bank0
	bcf	status, 6	;RP1=0, select bank0
	movwf	(strichr@chr)
	movlw	high(022h)
	movwf	((strichr@chr))+1
	movlw	(_sim300_buffer+0Ah)&0ffh
	fcall	_strichr
	bcf	status, 5	;RP0=0, select bank0
	bcf	status, 6	;RP1=0, select bank0
	movwf	(??_SIM300WaitForValidCall+0)+0
	movf	(??_SIM300WaitForValidCall+0)+0,w
	movwf	(SIM300WaitForValidCall@start)
	line	326
	
l3508:	
;MobileAdv.c: 326: start++;
	movlw	(01h)
	movwf	(??_SIM300WaitForValidCall+0)+0
	movf	(??_SIM300WaitForValidCall+0)+0,w
	addwf	(SIM300WaitForValidCall@start),f
	line	327
	
l3510:	
;MobileAdv.c: 327: char i = 3;
	movlw	(03h)
	movwf	(??_SIM300WaitForValidCall+0)+0
	movf	(??_SIM300WaitForValidCall+0)+0,w
	movwf	(SIM300WaitForValidCall@i)
	line	328
;MobileAdv.c: 328: while(*start != '"')
	goto	l3518
	
l164:	
	line	330
	
l3512:	
;MobileAdv.c: 329: {
;MobileAdv.c: 330: phone_number[i] = *start;
	movf	(SIM300WaitForValidCall@start),w
	movwf	fsr0
	bsf	status, 7	;select IRP bank2
	movf	indf,w
	movwf	(??_SIM300WaitForValidCall+0)+0
	movf	(SIM300WaitForValidCall@i),w
	addlw	_phone_number&0ffh
	movwf	fsr0
	movf	(??_SIM300WaitForValidCall+0)+0,w
	bcf	status, 7	;select IRP bank1
	movwf	indf
	line	331
	
l3514:	
;MobileAdv.c: 331: start++;
	movlw	(01h)
	movwf	(??_SIM300WaitForValidCall+0)+0
	movf	(??_SIM300WaitForValidCall+0)+0,w
	addwf	(SIM300WaitForValidCall@start),f
	line	332
	
l3516:	
;MobileAdv.c: 332: i++;
	movlw	(01h)
	movwf	(??_SIM300WaitForValidCall+0)+0
	movf	(??_SIM300WaitForValidCall+0)+0,w
	addwf	(SIM300WaitForValidCall@i),f
	goto	l3518
	line	333
	
l163:	
	line	328
	
l3518:	
	movf	(SIM300WaitForValidCall@start),w
	movwf	fsr0
	bsf	status, 7	;select IRP bank2
	movf	indf,w
	xorlw	022h
	skipz
	goto	u3001
	goto	u3000
u3001:
	goto	l3512
u3000:
	goto	l3520
	
l165:	
	line	334
	
l3520:	
;MobileAdv.c: 333: }
;MobileAdv.c: 334: phone_number[i] = ';';
	movlw	(03Bh)
	movwf	(??_SIM300WaitForValidCall+0)+0
	movf	(SIM300WaitForValidCall@i),w
	addlw	_phone_number&0ffh
	movwf	fsr0
	movf	(??_SIM300WaitForValidCall+0)+0,w
	bcf	status, 7	;select IRP bank1
	movwf	indf
	line	335
	
l3522:	
;MobileAdv.c: 335: i++;
	movlw	(01h)
	movwf	(??_SIM300WaitForValidCall+0)+0
	movf	(??_SIM300WaitForValidCall+0)+0,w
	addwf	(SIM300WaitForValidCall@i),f
	line	336
	
l3524:	
;MobileAdv.c: 336: phone_number[i] = '\0';
	movf	(SIM300WaitForValidCall@i),w
	addlw	_phone_number&0ffh
	movwf	fsr0
	clrf	indf
	line	337
	
l3526:	
;MobileAdv.c: 337: RING_COUNT = 0;
	bsf	status, 5	;RP0=1, select bank1
	bcf	status, 6	;RP1=0, select bank1
	clrf	(_RING_COUNT)^080h
	line	338
	
l3528:	
;MobileAdv.c: 338: Timer = 0;
	clrf	(_Timer)^080h
	line	340
	
l3530:	
;MobileAdv.c: 340: USARTFlushBuffer();
	fcall	_USARTFlushBuffer
	line	341
	
l3532:	
;MobileAdv.c: 341: return 1;
	movlw	(01h)
	goto	l159
	
l3534:	
	goto	l159
	line	342
	
l3536:	
;MobileAdv.c: 342: }
	goto	l159
	line	343
	
l162:	
	line	345
	
l3538:	
;MobileAdv.c: 343: else
;MobileAdv.c: 344: {
;MobileAdv.c: 345: RING_COUNT++;
	movlw	(01h)
	bcf	status, 5	;RP0=0, select bank0
	bcf	status, 6	;RP1=0, select bank0
	movwf	(??_SIM300WaitForValidCall+0)+0
	movf	(??_SIM300WaitForValidCall+0)+0,w
	bsf	status, 5	;RP0=1, select bank1
	bcf	status, 6	;RP1=0, select bank1
	addwf	(_RING_COUNT)^080h,f
	line	346
	
l3540:	
;MobileAdv.c: 346: Timer = 0;
	clrf	(_Timer)^080h
	line	348
	
l3542:	
;MobileAdv.c: 348: USARTFlushBuffer();
	fcall	_USARTFlushBuffer
	line	349
	
l3544:	
;MobileAdv.c: 349: return -2;
	movlw	(-2)
	goto	l159
	
l3546:	
	goto	l159
	line	350
	
l166:	
	line	351
;MobileAdv.c: 350: }
;MobileAdv.c: 351: }
	goto	l159
	line	352
	
l161:	
	line	354
;MobileAdv.c: 352: else
;MobileAdv.c: 353: {
;MobileAdv.c: 354: WRONG_NUMBER = 1;
	bsf	status, 5	;RP0=1, select bank1
	bcf	status, 6	;RP1=0, select bank1
	clrf	(_WRONG_NUMBER)^080h
	incf	(_WRONG_NUMBER)^080h,f
	line	356
	
l3548:	
;MobileAdv.c: 356: USARTFlushBuffer();
	fcall	_USARTFlushBuffer
	line	357
	
l3550:	
;MobileAdv.c: 357: return -2;
	movlw	(-2)
	goto	l159
	
l3552:	
	goto	l159
	line	358
	
l167:	
	line	359
;MobileAdv.c: 358: }
;MobileAdv.c: 359: }
	goto	l159
	line	361
	
l160:	
	line	365
	
l3554:	
;MobileAdv.c: 361: else
;MobileAdv.c: 362: {
;MobileAdv.c: 365: return -2;
	movlw	(-2)
	goto	l159
	
l3556:	
	goto	l159
	line	366
	
l168:	
	line	367
	
l159:	
	return
	opt stack 0
GLOBAL	__end_of_SIM300WaitForValidCall
	__end_of_SIM300WaitForValidCall:
	signat	_SIM300WaitForValidCall,89
	global	_strrichr

;; *************** function _strrichr *****************
;; Defined at:
;;		line 5 in file "C:\Program Files (x86)\Microchip\xc8\v1.33\sources\common\strrichr.c"
;; Parameters:    Size  Location     Type
;;  ptr             1    wreg     PTR const unsigned char 
;;		 -> sim300_buffer(70), 
;;  chr             2    2[BANK0 ] int 
;; Auto vars:     Size  Location     Type
;;  ptr             1    7[BANK0 ] PTR const unsigned char 
;;		 -> sim300_buffer(70), 
;;  cp              1    6[BANK0 ] PTR const unsigned char 
;;		 -> sim300_buffer(70), 
;; Return value:  Size  Location     Type
;;                  1    wreg      PTR unsigned char 
;; Registers used:
;;		wreg, fsr0l, fsr0h, status,2, status,0, pclath, cstack
;; Tracked objects:
;;		On entry : 0/0
;;		On exit  : 0/0
;;		Unchanged: 0/0
;; Data sizes:     COMMON   BANK0   BANK1   BANK3   BANK2
;;      Params:         0       2       0       0       0
;;      Locals:         0       2       0       0       0
;;      Temps:          0       2       0       0       0
;;      Totals:         0       6       0       0       0
;;Total ram usage:        6 bytes
;; Hardware stack levels used:    1
;; Hardware stack levels required when called:    3
;; This function calls:
;;		_toupper
;; This function is called by:
;;		_SIM300WaitForValidCall
;;		_SIM300ReadValidMsg
;; This function uses a non-reentrant model
;;
psect	text23,local,class=CODE,delta=2,merge=1
	file	"C:\Program Files (x86)\Microchip\xc8\v1.33\sources\common\strrichr.c"
	line	5
global __ptext23
__ptext23:	;psect for function _strrichr
psect	text23
	file	"C:\Program Files (x86)\Microchip\xc8\v1.33\sources\common\strrichr.c"
	line	5
	global	__size_of_strrichr
	__size_of_strrichr	equ	__end_of_strrichr-_strrichr
	
_strrichr:	
;incstack = 0
	opt	stack 1
; Regs used in _strrichr: [wreg-fsr0h+status,2+status,0+pclath+cstack]
;strrichr@ptr stored from wreg
	bcf	status, 5	;RP0=0, select bank0
	bcf	status, 6	;RP1=0, select bank0
	movwf	(strrichr@ptr)
	line	9
	
l2746:	
	movf	(strrichr@ptr),w
	movwf	(??_strrichr+0)+0
	movf	(??_strrichr+0)+0,w
	movwf	(strrichr@cp)
	line	10
	goto	l2750
	
l1028:	
	line	11
	
l2748:	
	movlw	(01h)
	movwf	(??_strrichr+0)+0
	movf	(??_strrichr+0)+0,w
	addwf	(strrichr@ptr),f
	goto	l2750
	
l1027:	
	line	10
	
l2750:	
	movf	(strrichr@ptr),w
	movwf	fsr0
	bsf	status, 7	;select IRP bank2
	movf	indf,f
	skipz
	goto	u2111
	goto	u2110
u2111:
	goto	l2748
u2110:
	goto	l2752
	
l1029:	
	line	12
	
l2752:	
	movf	(strrichr@chr),w
	fcall	_toupper
	bcf	status, 5	;RP0=0, select bank0
	bcf	status, 6	;RP1=0, select bank0
	movwf	(??_strrichr+0)+0
	clrf	(??_strrichr+0)+0+1
	movf	0+(??_strrichr+0)+0,w
	movwf	(strrichr@chr)
	movf	1+(??_strrichr+0)+0,w
	movwf	(strrichr@chr+1)
	line	13
	goto	l2762
	
l1031:	
	line	14
	
l2754:	
	movlw	low(01h)
	subwf	(strrichr@ptr),f
	line	15
	
l2756:	
	movf	(strrichr@ptr),w
	movwf	fsr0
	bsf	status, 7	;select IRP bank2
	movf	indf,w
	fcall	_toupper
	bcf	status, 5	;RP0=0, select bank0
	bcf	status, 6	;RP1=0, select bank0
	xorwf	(strrichr@chr),w
	skipz
	goto	u2121
	goto	u2120
u2121:
	goto	l2762
u2120:
	line	16
	
l2758:	
	movf	(strrichr@ptr),w
	goto	l1033
	
l2760:	
	goto	l1033
	
l1032:	
	goto	l2762
	line	17
	
l1030:	
	line	13
	
l2762:	
	movf	(strrichr@ptr),w
	xorwf	(strrichr@cp),w
	skipz
	goto	u2131
	goto	u2130
u2131:
	goto	l2754
u2130:
	goto	l2764
	
l1034:	
	line	18
	
l2764:	
	movlw	(0)
	goto	l1033
	
l2766:	
	line	19
	
l1033:	
	return
	opt stack 0
GLOBAL	__end_of_strrichr
	__end_of_strrichr:
	signat	_strrichr,8313
	global	_strnicmp

;; *************** function _strnicmp *****************
;; Defined at:
;;		line 5 in file "C:\Program Files (x86)\Microchip\xc8\v1.33\sources\common\strnicmp.c"
;; Parameters:    Size  Location     Type
;;  s1              1    wreg     PTR const unsigned char 
;;		 -> sim300_buffer(70), 
;;  s2              1    2[BANK0 ] PTR const unsigned char 
;;		 -> STR_38(6), STR_34(7), STR_33(3), STR_11(7), 
;;  len             2    3[BANK0 ] unsigned int 
;; Auto vars:     Size  Location     Type
;;  s1              1    8[BANK0 ] PTR const unsigned char 
;;		 -> sim300_buffer(70), 
;;  r               1    7[BANK0 ] char 
;; Return value:  Size  Location     Type
;;                  2    2[BANK0 ] int 
;; Registers used:
;;		wreg, fsr0l, fsr0h, status,2, status,0, pclath, cstack
;; Tracked objects:
;;		On entry : 0/0
;;		On exit  : 0/0
;;		Unchanged: 0/0
;; Data sizes:     COMMON   BANK0   BANK1   BANK3   BANK2
;;      Params:         0       3       0       0       0
;;      Locals:         0       2       0       0       0
;;      Temps:          0       2       0       0       0
;;      Totals:         0       7       0       0       0
;;Total ram usage:        7 bytes
;; Hardware stack levels used:    1
;; Hardware stack levels required when called:    3
;; This function calls:
;;		_toupper
;; This function is called by:
;;		_SIM300WaitForValidCall
;;		_SIM300DeleteMsg
;;		_SIM300WaitForValidMsg
;;		_SIM300SendMsg
;; This function uses a non-reentrant model
;;
psect	text24,local,class=CODE,delta=2,merge=1
	file	"C:\Program Files (x86)\Microchip\xc8\v1.33\sources\common\strnicmp.c"
	line	5
global __ptext24
__ptext24:	;psect for function _strnicmp
psect	text24
	file	"C:\Program Files (x86)\Microchip\xc8\v1.33\sources\common\strnicmp.c"
	line	5
	global	__size_of_strnicmp
	__size_of_strnicmp	equ	__end_of_strnicmp-_strnicmp
	
_strnicmp:	
;incstack = 0
	opt	stack 2
; Regs used in _strnicmp: [wreg-fsr0h+status,2+status,0+pclath+cstack]
;strnicmp@s1 stored from wreg
	bcf	status, 5	;RP0=0, select bank0
	bcf	status, 6	;RP1=0, select bank0
	movwf	(strnicmp@s1)
	line	9
	
l2728:	
	goto	l2740
	
l1017:	
	line	10
	
l2730:	
	movf	(strnicmp@s2),w
	movwf	fsr0
	fcall	stringdir
	fcall	_toupper
	xorlw	0ffh
	addlw	1
	bcf	status, 5	;RP0=0, select bank0
	bcf	status, 6	;RP1=0, select bank0
	movwf	(??_strnicmp+0)+0
	movf	(strnicmp@s1),w
	movwf	fsr0
	bsf	status, 7	;select IRP bank2
	movf	indf,w
	fcall	_toupper
	bcf	status, 5	;RP0=0, select bank0
	bcf	status, 6	;RP1=0, select bank0
	addwf	(??_strnicmp+0)+0,w
	movwf	(??_strnicmp+1)+0
	movf	(??_strnicmp+1)+0,w
	movwf	(strnicmp@r)
	movf	((strnicmp@r)),f
	skipz
	goto	u2081
	goto	u2080
u2081:
	goto	l2734
u2080:
	
l2732:	
	movf	(strnicmp@s1),w
	movwf	fsr0
	bsf	status, 7	;select IRP bank2
	movf	indf,f
	skipz
	goto	u2091
	goto	u2090
u2091:
	goto	l2738
u2090:
	goto	l2734
	
l1020:	
	line	11
	
l2734:	
	movf	(strnicmp@r),w
	movwf	(?_strnicmp)
	clrf	(?_strnicmp+1)
	btfsc	(?_strnicmp),7
	decf	(?_strnicmp+1),f
	goto	l1021
	
l2736:	
	goto	l1021
	
l1018:	
	line	12
	
l2738:	
	movlw	(01h)
	movwf	(??_strnicmp+0)+0
	movf	(??_strnicmp+0)+0,w
	addwf	(strnicmp@s1),f
	line	13
	movlw	(01h)
	movwf	(??_strnicmp+0)+0
	movf	(??_strnicmp+0)+0,w
	addwf	(strnicmp@s2),f
	goto	l2740
	line	14
	
l1016:	
	line	9
	
l2740:	
	movlw	low(01h)
	subwf	(strnicmp@len),f
	movlw	high(01h)
	skipc
	decf	(strnicmp@len+1),f
	subwf	(strnicmp@len+1),f
	movlw	high(0FFFFh)
	xorwf	((strnicmp@len+1)),w
	skipz
	goto	u2105
	movlw	low(0FFFFh)
	xorwf	((strnicmp@len)),w
u2105:

	skipz
	goto	u2101
	goto	u2100
u2101:
	goto	l2730
u2100:
	goto	l2742
	
l1022:	
	line	15
	
l2742:	
	clrf	(?_strnicmp)
	clrf	(?_strnicmp+1)
	goto	l1021
	
l2744:	
	line	16
	
l1021:	
	return
	opt stack 0
GLOBAL	__end_of_strnicmp
	__end_of_strnicmp:
	signat	_strnicmp,12410
	global	_strichr

;; *************** function _strichr *****************
;; Defined at:
;;		line 5 in file "C:\Program Files (x86)\Microchip\xc8\v1.33\sources\common\strichr.c"
;; Parameters:    Size  Location     Type
;;  ptr             1    wreg     PTR const unsigned char 
;;		 -> sim300_buffer(70), 
;;  chr             2    2[BANK0 ] int 
;; Auto vars:     Size  Location     Type
;;  ptr             1    6[BANK0 ] PTR const unsigned char 
;;		 -> sim300_buffer(70), 
;; Return value:  Size  Location     Type
;;                  1    wreg      PTR unsigned char 
;; Registers used:
;;		wreg, fsr0l, fsr0h, status,2, status,0, pclath, cstack
;; Tracked objects:
;;		On entry : 0/0
;;		On exit  : 0/0
;;		Unchanged: 0/0
;; Data sizes:     COMMON   BANK0   BANK1   BANK3   BANK2
;;      Params:         0       2       0       0       0
;;      Locals:         0       1       0       0       0
;;      Temps:          0       2       0       0       0
;;      Totals:         0       5       0       0       0
;;Total ram usage:        5 bytes
;; Hardware stack levels used:    1
;; Hardware stack levels required when called:    3
;; This function calls:
;;		_toupper
;; This function is called by:
;;		_SIM300WaitForValidCall
;;		_SIM300ReadValidMsg
;; This function uses a non-reentrant model
;;
psect	text25,local,class=CODE,delta=2,merge=1
	file	"C:\Program Files (x86)\Microchip\xc8\v1.33\sources\common\strichr.c"
	line	5
global __ptext25
__ptext25:	;psect for function _strichr
psect	text25
	file	"C:\Program Files (x86)\Microchip\xc8\v1.33\sources\common\strichr.c"
	line	5
	global	__size_of_strichr
	__size_of_strichr	equ	__end_of_strichr-_strichr
	
_strichr:	
;incstack = 0
	opt	stack 1
; Regs used in _strichr: [wreg-fsr0h+status,2+status,0+pclath+cstack]
;strichr@ptr stored from wreg
	bcf	status, 5	;RP0=0, select bank0
	bcf	status, 6	;RP1=0, select bank0
	movwf	(strichr@ptr)
	line	7
	
l2768:	
	movf	(strichr@chr),w
	fcall	_toupper
	bcf	status, 5	;RP0=0, select bank0
	bcf	status, 6	;RP1=0, select bank0
	movwf	(??_strichr+0)+0
	clrf	(??_strichr+0)+0+1
	movf	0+(??_strichr+0)+0,w
	movwf	(strichr@chr)
	movf	1+(??_strichr+0)+0,w
	movwf	(strichr@chr+1)
	line	8
	goto	l2778
	
l1002:	
	line	9
	
l2770:	
	movf	(strichr@ptr),w
	movwf	fsr0
	bsf	status, 7	;select IRP bank2
	movf	indf,w
	fcall	_toupper
	bcf	status, 5	;RP0=0, select bank0
	bcf	status, 6	;RP1=0, select bank0
	xorwf	(strichr@chr),w
	skipz
	goto	u2141
	goto	u2140
u2141:
	goto	l2776
u2140:
	line	10
	
l2772:	
	movf	(strichr@ptr),w
	goto	l1004
	
l2774:	
	goto	l1004
	
l1003:	
	line	11
	
l2776:	
	movlw	(01h)
	movwf	(??_strichr+0)+0
	movf	(??_strichr+0)+0,w
	addwf	(strichr@ptr),f
	goto	l2778
	line	12
	
l1001:	
	line	8
	
l2778:	
	movf	(strichr@ptr),w
	movwf	fsr0
	bsf	status, 7	;select IRP bank2
	movf	indf,f
	skipz
	goto	u2151
	goto	u2150
u2151:
	goto	l2770
u2150:
	goto	l2780
	
l1005:	
	line	13
	
l2780:	
	movlw	(0)
	goto	l1004
	
l2782:	
	line	14
	
l1004:	
	return
	opt stack 0
GLOBAL	__end_of_strichr
	__end_of_strichr:
	signat	_strichr,8313
	global	_toupper

;; *************** function _toupper *****************
;; Defined at:
;;		line 5 in file "C:\Program Files (x86)\Microchip\xc8\v1.33\sources\common\toupper.c"
;; Parameters:    Size  Location     Type
;;  c               1    wreg     unsigned char 
;; Auto vars:     Size  Location     Type
;;  c               1    1[BANK0 ] unsigned char 
;; Return value:  Size  Location     Type
;;                  1    wreg      unsigned char 
;; Registers used:
;;		wreg, status,2, status,0
;; Tracked objects:
;;		On entry : 0/0
;;		On exit  : 0/0
;;		Unchanged: 0/0
;; Data sizes:     COMMON   BANK0   BANK1   BANK3   BANK2
;;      Params:         0       0       0       0       0
;;      Locals:         0       1       0       0       0
;;      Temps:          0       1       0       0       0
;;      Totals:         0       2       0       0       0
;;Total ram usage:        2 bytes
;; Hardware stack levels used:    1
;; Hardware stack levels required when called:    2
;; This function calls:
;;		Nothing
;; This function is called by:
;;		_strichr
;;		_strnicmp
;;		_strrichr
;; This function uses a non-reentrant model
;;
psect	text26,local,class=CODE,delta=2,merge=1
	file	"C:\Program Files (x86)\Microchip\xc8\v1.33\sources\common\toupper.c"
	line	5
global __ptext26
__ptext26:	;psect for function _toupper
psect	text26
	file	"C:\Program Files (x86)\Microchip\xc8\v1.33\sources\common\toupper.c"
	line	5
	global	__size_of_toupper
	__size_of_toupper	equ	__end_of_toupper-_toupper
	
_toupper:	
;incstack = 0
	opt	stack 2
; Regs used in _toupper: [wreg+status,2+status,0]
;toupper@c stored from wreg
	bcf	status, 5	;RP0=0, select bank0
	bcf	status, 6	;RP1=0, select bank0
	movwf	(toupper@c)
	line	10
	
l2666:	
	movlw	(07Bh)
	subwf	(toupper@c),w
	skipnc
	goto	u1991
	goto	u1990
u1991:
	goto	l2672
u1990:
	
l2668:	
	movlw	(061h)
	subwf	(toupper@c),w
	skipc
	goto	u2001
	goto	u2000
u2001:
	goto	l2672
u2000:
	line	11
	
l2670:	
	movlw	(0DFh)
	movwf	(??_toupper+0)+0
	movf	(??_toupper+0)+0,w
	andwf	(toupper@c),f
	goto	l2672
	
l1052:	
	line	12
	
l2672:	
	movf	(toupper@c),w
	goto	l1053
	
l2674:	
	line	13
	
l1053:	
	return
	opt stack 0
GLOBAL	__end_of_toupper
	__end_of_toupper:
	signat	_toupper,4217
	global	_SIM300RingResponse

;; *************** function _SIM300RingResponse *****************
;; Defined at:
;;		line 190 in file "E:\Study Material\XC8 PROJECTS\Modem Advance\sim300.c"
;; Parameters:    Size  Location     Type
;;  timeout         2    2[BANK0 ] unsigned int 
;; Auto vars:     Size  Location     Type
;;  n               2    5[BANK0 ] unsigned int 
;;  i               1    7[BANK0 ] char 
;; Return value:  Size  Location     Type
;;                  1    wreg      char 
;; Registers used:
;;		wreg, fsr0l, fsr0h, status,2, status,0, pclath, cstack
;; Tracked objects:
;;		On entry : 0/0
;;		On exit  : 0/0
;;		Unchanged: 0/0
;; Data sizes:     COMMON   BANK0   BANK1   BANK3   BANK2
;;      Params:         0       2       0       0       0
;;      Locals:         0       3       0       0       0
;;      Temps:          0       1       0       0       0
;;      Totals:         0       6       0       0       0
;;Total ram usage:        6 bytes
;; Hardware stack levels used:    1
;; Hardware stack levels required when called:    4
;; This function calls:
;;		_USARTDataAvailable
;;		_USARTFlushBuffer
;;		_USARTReadData
;; This function is called by:
;;		_SIM300WaitForValidCall
;; This function uses a non-reentrant model
;;
psect	text27,local,class=CODE,delta=2,merge=1
	file	"E:\Study Material\XC8 PROJECTS\Modem Advance\sim300.c"
	line	190
global __ptext27
__ptext27:	;psect for function _SIM300RingResponse
psect	text27
	file	"E:\Study Material\XC8 PROJECTS\Modem Advance\sim300.c"
	line	190
	global	__size_of_SIM300RingResponse
	__size_of_SIM300RingResponse	equ	__end_of_SIM300RingResponse-_SIM300RingResponse
	
_SIM300RingResponse:	
;incstack = 0
	opt	stack 2
; Regs used in _SIM300RingResponse: [wreg-fsr0h+status,2+status,0+pclath+cstack]
	line	192
	
l3118:	
;sim300.c: 192: int8_t i=0;
	bcf	status, 5	;RP0=0, select bank0
	bcf	status, 6	;RP1=0, select bank0
	clrf	(SIM300RingResponse@i)
	line	193
;sim300.c: 193: uint16_t n=0;
	clrf	(SIM300RingResponse@n)
	clrf	(SIM300RingResponse@n+1)
	goto	l3122
	line	195
;sim300.c: 195: while(1)
	
l294:	
	line	198
;sim300.c: 196: {
;sim300.c: 198: while (USARTDataAvailable()==0 && n<timeout)
	goto	l3122
	
l296:	
	line	200
	
l3120:	
;sim300.c: 199: {
;sim300.c: 200: n++;
	movlw	low(01h)
	addwf	(SIM300RingResponse@n),f
	skipnc
	incf	(SIM300RingResponse@n+1),f
	movlw	high(01h)
	addwf	(SIM300RingResponse@n+1),f
	line	201
;sim300.c: 201: _delay((unsigned long)((1)*(4000000/4000.0)));
	opt asmopt_off
movlw	249
movwf	(??_SIM300RingResponse+0)+0,f
u3987:
	nop
decfsz	(??_SIM300RingResponse+0)+0,f
	goto	u3987
	nop2	;nop
	nop
opt asmopt_on

	goto	l3122
	line	203
	
l295:	
	line	198
	
l3122:	
	fcall	_USARTDataAvailable
	iorlw	0
	skipz
	goto	u2561
	goto	u2560
u2561:
	goto	l3126
u2560:
	
l3124:	
	bcf	status, 5	;RP0=0, select bank0
	bcf	status, 6	;RP1=0, select bank0
	movf	(SIM300RingResponse@timeout+1),w
	subwf	(SIM300RingResponse@n+1),w
	skipz
	goto	u2575
	movf	(SIM300RingResponse@timeout),w
	subwf	(SIM300RingResponse@n),w
u2575:
	skipc
	goto	u2571
	goto	u2570
u2571:
	goto	l3120
u2570:
	goto	l3126
	
l298:	
	goto	l3126
	
l299:	
	line	205
	
l3126:	
;sim300.c: 203: }
;sim300.c: 205: if(n==timeout)
	bcf	status, 5	;RP0=0, select bank0
	bcf	status, 6	;RP1=0, select bank0
	movf	(SIM300RingResponse@timeout+1),w
	xorwf	(SIM300RingResponse@n+1),w
	skipz
	goto	u2585
	movf	(SIM300RingResponse@timeout),w
	xorwf	(SIM300RingResponse@n),w
u2585:

	skipz
	goto	u2581
	goto	u2580
u2581:
	goto	l3134
u2580:
	line	208
	
l3128:	
;sim300.c: 206: {
;sim300.c: 208: return 0;
	movlw	(0)
	goto	l301
	
l3130:	
	goto	l301
	line	209
	
l3132:	
;sim300.c: 209: }
	goto	l3122
	line	210
	
l300:	
	line	213
	
l3134:	
;sim300.c: 210: else
;sim300.c: 211: {
;sim300.c: 213: sim300_buffer[i]=USARTReadData();
	fcall	_USARTReadData
	bcf	status, 5	;RP0=0, select bank0
	bcf	status, 6	;RP1=0, select bank0
	movwf	(??_SIM300RingResponse+0)+0
	movf	(SIM300RingResponse@i),w
	addlw	_sim300_buffer&0ffh
	movwf	fsr0
	movf	(??_SIM300RingResponse+0)+0,w
	bsf	status, 7	;select IRP bank3
	movwf	indf
	line	215
	
l3136:	
;sim300.c: 215: if(sim300_buffer[i]==0x0D && i>20)
	movf	(SIM300RingResponse@i),w
	addlw	_sim300_buffer&0ffh
	movwf	fsr0
	movf	indf,w
	xorlw	0Dh
	skipz
	goto	u2591
	goto	u2590
u2591:
	goto	l3148
u2590:
	
l3138:	
	movf	(SIM300RingResponse@i),w
	xorlw	80h
	addlw	-((015h)^80h)
	skipc
	goto	u2601
	goto	u2600
u2601:
	goto	l3148
u2600:
	line	217
	
l3140:	
;sim300.c: 216: {
;sim300.c: 217: USARTFlushBuffer();
	fcall	_USARTFlushBuffer
	line	218
	
l3142:	
;sim300.c: 218: return i+1;
	bcf	status, 5	;RP0=0, select bank0
	bcf	status, 6	;RP1=0, select bank0
	movf	(SIM300RingResponse@i),w
	addlw	01h
	goto	l301
	
l3144:	
	goto	l301
	line	219
	
l3146:	
;sim300.c: 219: }
	goto	l3122
	line	220
	
l303:	
	line	221
	
l3148:	
;sim300.c: 220: else
;sim300.c: 221: i++;
	movlw	(01h)
	movwf	(??_SIM300RingResponse+0)+0
	movf	(??_SIM300RingResponse+0)+0,w
	addwf	(SIM300RingResponse@i),f
	goto	l3122
	
l304:	
	goto	l3122
	line	222
	
l302:	
	goto	l3122
	line	223
	
l305:	
	line	195
	goto	l3122
	
l306:	
	line	224
	
l301:	
	return
	opt stack 0
GLOBAL	__end_of_SIM300RingResponse
	__end_of_SIM300RingResponse:
	signat	_SIM300RingResponse,4217
	global	_USARTFlushBuffer

;; *************** function _USARTFlushBuffer *****************
;; Defined at:
;;		line 233 in file "E:\Study Material\XC8 PROJECTS\Modem Advance\usart_pic16.c"
;; Parameters:    Size  Location     Type
;;		None
;; Auto vars:     Size  Location     Type
;;		None
;; Return value:  Size  Location     Type
;;                  2   42[COMMON] int 
;; Registers used:
;;		wreg, fsr0l, fsr0h, status,2, status,0, pclath, cstack
;; Tracked objects:
;;		On entry : 0/0
;;		On exit  : 0/0
;;		Unchanged: 0/0
;; Data sizes:     COMMON   BANK0   BANK1   BANK3   BANK2
;;      Params:         0       0       0       0       0
;;      Locals:         0       0       0       0       0
;;      Temps:          0       0       0       0       0
;;      Totals:         0       0       0       0       0
;;Total ram usage:        0 bytes
;; Hardware stack levels used:    1
;; Hardware stack levels required when called:    3
;; This function calls:
;;		_USARTDataAvailable
;;		_USARTReadData
;; This function is called by:
;;		_main
;;		_SIM300WaitForValidCall
;;		_SMSCommunication
;;		_SIM300WaitForResponse
;;		_SIM300RingResponse
;;		_SIM300DeleteMsg
;;		_SIM300WaitForValidMsg
;;		_SIM300ReadValidMsg
;;		_SIM300SendMsg
;; This function uses a non-reentrant model
;;
psect	text28,local,class=CODE,delta=2,merge=1
	file	"E:\Study Material\XC8 PROJECTS\Modem Advance\usart_pic16.c"
	line	233
global __ptext28
__ptext28:	;psect for function _USARTFlushBuffer
psect	text28
	file	"E:\Study Material\XC8 PROJECTS\Modem Advance\usart_pic16.c"
	line	233
	global	__size_of_USARTFlushBuffer
	__size_of_USARTFlushBuffer	equ	__end_of_USARTFlushBuffer-_USARTFlushBuffer
	
_USARTFlushBuffer:	
;incstack = 0
	opt	stack 4
; Regs used in _USARTFlushBuffer: [wreg-fsr0h+status,2+status,0+pclath+cstack]
	line	235
	
l2576:	
;usart_pic16.c: 235: while(USARTDataAvailable()>0)
	goto	l2580
	
l450:	
	line	237
	
l2578:	
;usart_pic16.c: 236: {
;usart_pic16.c: 237: USARTReadData();
	fcall	_USARTReadData
	goto	l2580
	line	238
	
l449:	
	line	235
	
l2580:	
	fcall	_USARTDataAvailable
	iorlw	0
	skipz
	goto	u1781
	goto	u1780
u1781:
	goto	l2578
u1780:
	goto	l452
	
l451:	
	line	239
	
l452:	
	return
	opt stack 0
GLOBAL	__end_of_USARTFlushBuffer
	__end_of_USARTFlushBuffer:
	signat	_USARTFlushBuffer,90
	global	_SIM300Init

;; *************** function _SIM300Init *****************
;; Defined at:
;;		line 59 in file "E:\Study Material\XC8 PROJECTS\Modem Advance\sim300.c"
;; Parameters:    Size  Location     Type
;;		None
;; Auto vars:     Size  Location     Type
;;  i               2   22[BANK0 ] unsigned int 
;; Return value:  Size  Location     Type
;;                  1    wreg      char 
;; Registers used:
;;		wreg, fsr0l, fsr0h, status,2, status,0, btemp+1, pclath, cstack
;; Tracked objects:
;;		On entry : 0/0
;;		On exit  : 0/0
;;		Unchanged: 0/0
;; Data sizes:     COMMON   BANK0   BANK1   BANK3   BANK2
;;      Params:         0       0       0       0       0
;;      Locals:         0       2       0       0       0
;;      Temps:          0       2       0       0       0
;;      Totals:         0       4       0       0       0
;;Total ram usage:        4 bytes
;; Hardware stack levels used:    1
;; Hardware stack levels required when called:    5
;; This function calls:
;;		_SIM300CheckResponse
;;		_SIM300Cmd
;;		_USARTDataAvailable
;;		_USARTInit
;;		_USARTReadBuffer
;; This function is called by:
;;		_main
;; This function uses a non-reentrant model
;;
psect	text29,local,class=CODE,delta=2,merge=1
	file	"E:\Study Material\XC8 PROJECTS\Modem Advance\sim300.c"
	line	59
global __ptext29
__ptext29:	;psect for function _SIM300Init
psect	text29
	file	"E:\Study Material\XC8 PROJECTS\Modem Advance\sim300.c"
	line	59
	global	__size_of_SIM300Init
	__size_of_SIM300Init	equ	__end_of_SIM300Init-_SIM300Init
	
_SIM300Init:	
;incstack = 0
	opt	stack 2
; Regs used in _SIM300Init: [wreg-fsr0h+status,2+status,0+btemp+1+pclath+cstack]
	line	62
	
l3298:	
;sim300.c: 62: USARTInit(9600);
	movlw	low(02580h)
	bcf	status, 5	;RP0=0, select bank0
	bcf	status, 6	;RP1=0, select bank0
	movwf	(USARTInit@baud_rate)
	movlw	high(02580h)
	movwf	((USARTInit@baud_rate))+1
	fcall	_USARTInit
	line	65
	
l3300:	
;sim300.c: 65: SIM300Cmd("AT");
	movlw	low((STR_30)-__stringbase)
	bcf	status, 5	;RP0=0, select bank0
	bcf	status, 6	;RP1=0, select bank0
	movwf	(SIM300Cmd@cmd)
	movlw	80h
	movwf	(SIM300Cmd@cmd+1)
	fcall	_SIM300Cmd
	line	68
	
l3302:	
;sim300.c: 68: uint16_t i=0;
	bcf	status, 5	;RP0=0, select bank0
	bcf	status, 6	;RP1=0, select bank0
	clrf	(SIM300Init@i)
	clrf	(SIM300Init@i+1)
	line	74
;sim300.c: 74: while(i<10)
	goto	l3314
	
l251:	
	line	76
	
l3304:	
;sim300.c: 75: {
;sim300.c: 76: if(USARTDataAvailable()<6)
	fcall	_USARTDataAvailable
	bcf	status, 5	;RP0=0, select bank0
	bcf	status, 6	;RP1=0, select bank0
	movwf	(??_SIM300Init+0)+0
	movlw	low(06h)
	subwf	(??_SIM300Init+0)+0,w
	skipnc
	goto	u2811
	goto	u2810
u2811:
	goto	l3310
u2810:
	line	78
	
l3306:	
;sim300.c: 77: {
;sim300.c: 78: i++;
	movlw	low(01h)
	addwf	(SIM300Init@i),f
	skipnc
	incf	(SIM300Init@i+1),f
	movlw	high(01h)
	addwf	(SIM300Init@i+1),f
	line	79
;sim300.c: 79: _delay((unsigned long)((10)*(4000000/4000.0)));
	opt asmopt_off
movlw	13
movwf	((??_SIM300Init+0)+0+1),f
	movlw	251
movwf	((??_SIM300Init+0)+0),f
u3997:
	decfsz	((??_SIM300Init+0)+0),f
	goto	u3997
	decfsz	((??_SIM300Init+0)+0+1),f
	goto	u3997
	nop2
opt asmopt_on

	line	80
;sim300.c: 80: continue;
	goto	l3314
	line	81
	
l3308:	
;sim300.c: 81: }
	goto	l3314
	line	82
	
l252:	
	line	86
	
l3310:	
;sim300.c: 82: else
;sim300.c: 83: {
;sim300.c: 86: USARTReadBuffer(sim300_buffer,6);
	movlw	low(06h)
	bcf	status, 5	;RP0=0, select bank0
	bcf	status, 6	;RP1=0, select bank0
	movwf	(USARTReadBuffer@len)
	movlw	high(06h)
	movwf	((USARTReadBuffer@len))+1
	movlw	(_sim300_buffer)&0ffh
	fcall	_USARTReadBuffer
	line	88
;sim300.c: 88: return SIM300CheckResponse(sim300_buffer,"OK",6);
	movlw	((STR_31)-__stringbase)&0ffh
	bcf	status, 5	;RP0=0, select bank0
	bcf	status, 6	;RP1=0, select bank0
	movwf	(??_SIM300Init+0)+0
	movf	(??_SIM300Init+0)+0,w
	movwf	(SIM300CheckResponse@check)
	movlw	(06h)
	movwf	(??_SIM300Init+1)+0
	movf	(??_SIM300Init+1)+0,w
	movwf	(SIM300CheckResponse@len)
	movlw	(_sim300_buffer)&0ffh
	fcall	_SIM300CheckResponse
	goto	l254
	
l3312:	
	goto	l254
	line	89
	
l253:	
	goto	l3314
	line	90
	
l250:	
	line	74
	
l3314:	
	movlw	high(0Ah)
	bcf	status, 5	;RP0=0, select bank0
	bcf	status, 6	;RP1=0, select bank0
	subwf	(SIM300Init@i+1),w
	movlw	low(0Ah)
	skipnz
	subwf	(SIM300Init@i),w
	skipc
	goto	u2821
	goto	u2820
u2821:
	goto	l3304
u2820:
	goto	l3316
	
l255:	
	line	95
	
l3316:	
;sim300.c: 89: }
;sim300.c: 90: }
;sim300.c: 95: return -3;
	movlw	(-3)
	goto	l254
	
l3318:	
	line	96
	
l254:	
	return
	opt stack 0
GLOBAL	__end_of_SIM300Init
	__end_of_SIM300Init:
	signat	_SIM300Init,89
	global	_USARTInit

;; *************** function _USARTInit *****************
;; Defined at:
;;		line 31 in file "E:\Study Material\XC8 PROJECTS\Modem Advance\usart_pic16.c"
;; Parameters:    Size  Location     Type
;;  baud_rate       2    0[BANK0 ] unsigned int 
;; Auto vars:     Size  Location     Type
;;		None
;; Return value:  Size  Location     Type
;;		None               void
;; Registers used:
;;		wreg, fsr0l, fsr0h, status,2, status,0
;; Tracked objects:
;;		On entry : 0/0
;;		On exit  : 0/0
;;		Unchanged: 0/0
;; Data sizes:     COMMON   BANK0   BANK1   BANK3   BANK2
;;      Params:         0       2       0       0       0
;;      Locals:         0       0       0       0       0
;;      Temps:          0       1       0       0       0
;;      Totals:         0       3       0       0       0
;;Total ram usage:        3 bytes
;; Hardware stack levels used:    1
;; Hardware stack levels required when called:    2
;; This function calls:
;;		Nothing
;; This function is called by:
;;		_SIM300Init
;; This function uses a non-reentrant model
;;
psect	text30,local,class=CODE,delta=2,merge=1
	file	"E:\Study Material\XC8 PROJECTS\Modem Advance\usart_pic16.c"
	line	31
global __ptext30
__ptext30:	;psect for function _USARTInit
psect	text30
	file	"E:\Study Material\XC8 PROJECTS\Modem Advance\usart_pic16.c"
	line	31
	global	__size_of_USARTInit
	__size_of_USARTInit	equ	__end_of_USARTInit-_USARTInit
	
_USARTInit:	
;incstack = 0
	opt	stack 4
; Regs used in _USARTInit: [wreg-fsr0h+status,2+status,0]
	line	34
	
l3206:	
;usart_pic16.c: 34: UQFront=UQEnd=-1;
	movlw	(-1)
	movwf	(_UQEnd)	;volatile
	bcf	status, 5	;RP0=0, select bank0
	bcf	status, 6	;RP1=0, select bank0
	movwf	(??_USARTInit+0)+0
	movf	(??_USARTInit+0)+0,w
	movwf	(_UQFront)	;volatile
	line	37
;usart_pic16.c: 37: switch(baud_rate)
	goto	l3218
	line	39
;usart_pic16.c: 38: {
;usart_pic16.c: 39: case 9600:
	
l370:	
	line	40
	
l3208:	
;usart_pic16.c: 40: SPBRG=25;
	movlw	(019h)
	bsf	status, 5	;RP0=1, select bank1
	bcf	status, 6	;RP1=0, select bank1
	movwf	(153)^080h	;volatile
	line	41
;usart_pic16.c: 41: break;
	goto	l371
	line	42
;usart_pic16.c: 42: case 19200:
	
l372:	
	line	43
	
l3210:	
;usart_pic16.c: 43: SPBRG=12;
	movlw	(0Ch)
	bsf	status, 5	;RP0=1, select bank1
	bcf	status, 6	;RP1=0, select bank1
	movwf	(153)^080h	;volatile
	line	44
;usart_pic16.c: 44: break;
	goto	l371
	line	45
;usart_pic16.c: 45: case 28800:
	
l373:	
	line	46
	
l3212:	
;usart_pic16.c: 46: SPBRG=8;
	movlw	(08h)
	bsf	status, 5	;RP0=1, select bank1
	bcf	status, 6	;RP1=0, select bank1
	movwf	(153)^080h	;volatile
	line	47
;usart_pic16.c: 47: break;
	goto	l371
	line	48
;usart_pic16.c: 48: case 33600:
	
l374:	
	line	49
	
l3214:	
;usart_pic16.c: 49: SPBRG=6;
	movlw	(06h)
	bsf	status, 5	;RP0=1, select bank1
	bcf	status, 6	;RP1=0, select bank1
	movwf	(153)^080h	;volatile
	line	50
;usart_pic16.c: 50: break;
	goto	l371
	line	51
	
l3216:	
;usart_pic16.c: 51: }
	goto	l371
	line	37
	
l369:	
	
l3218:	
	; Switch on 2 bytes has been partitioned into a top level switch of size 1, and 4 sub-switches
; Switch size 1, requested type "space"
; Number of cases is 4, Range of values is 37 to 131
; switch strategies available:
; Name         Instructions Cycles
; simple_byte           13     7 (average)
; jumptable            263     9 (fixed)
;	Chosen strategy is simple_byte

	bcf	status, 5	;RP0=0, select bank0
	movf (USARTInit@baud_rate+1),w
	opt asmopt_off
	xorlw	37^0	; case 37
	skipnz
	goto	l4040
	xorlw	75^37	; case 75
	skipnz
	goto	l4042
	xorlw	112^75	; case 112
	skipnz
	goto	l4044
	xorlw	131^112	; case 131
	skipnz
	goto	l4046
	goto	l371
	opt asmopt_on
	
l4040:	
; Switch size 1, requested type "space"
; Number of cases is 1, Range of values is 128 to 128
; switch strategies available:
; Name         Instructions Cycles
; simple_byte            4     3 (average)
; direct_byte           14    11 (fixed)
; jumptable            263     9 (fixed)
;	Chosen strategy is simple_byte

	movf (USARTInit@baud_rate),w
	opt asmopt_off
	xorlw	128^0	; case 128
	skipnz
	goto	l3208
	goto	l371
	opt asmopt_on
	
l4042:	
; Switch size 1, requested type "space"
; Number of cases is 1, Range of values is 0 to 0
; switch strategies available:
; Name         Instructions Cycles
; simple_byte            4     3 (average)
; direct_byte           11     8 (fixed)
; jumptable            260     6 (fixed)
;	Chosen strategy is simple_byte

	movf (USARTInit@baud_rate),w
	opt asmopt_off
	xorlw	0^0	; case 0
	skipnz
	goto	l3210
	goto	l371
	opt asmopt_on
	
l4044:	
; Switch size 1, requested type "space"
; Number of cases is 1, Range of values is 128 to 128
; switch strategies available:
; Name         Instructions Cycles
; simple_byte            4     3 (average)
; direct_byte           14    11 (fixed)
; jumptable            263     9 (fixed)
;	Chosen strategy is simple_byte

	movf (USARTInit@baud_rate),w
	opt asmopt_off
	xorlw	128^0	; case 128
	skipnz
	goto	l3212
	goto	l371
	opt asmopt_on
	
l4046:	
; Switch size 1, requested type "space"
; Number of cases is 1, Range of values is 64 to 64
; switch strategies available:
; Name         Instructions Cycles
; simple_byte            4     3 (average)
; direct_byte           14    11 (fixed)
; jumptable            263     9 (fixed)
;	Chosen strategy is simple_byte

	movf (USARTInit@baud_rate),w
	opt asmopt_off
	xorlw	64^0	; case 64
	skipnz
	goto	l3214
	goto	l371
	opt asmopt_on

	line	51
	
l371:	
	line	53
;usart_pic16.c: 53: TXSTAbits.TX9=0;
	bsf	status, 5	;RP0=1, select bank1
	bcf	status, 6	;RP1=0, select bank1
	bcf	(152)^080h,6	;volatile
	line	54
;usart_pic16.c: 54: TXSTAbits.TXEN=1;
	bsf	(152)^080h,5	;volatile
	line	55
;usart_pic16.c: 55: TXSTAbits.SYNC=0;
	bcf	(152)^080h,4	;volatile
	line	56
;usart_pic16.c: 56: TXSTAbits.BRGH=1;
	bsf	(152)^080h,2	;volatile
	line	59
;usart_pic16.c: 59: RCSTAbits.SPEN=1;
	bcf	status, 5	;RP0=0, select bank0
	bcf	status, 6	;RP1=0, select bank0
	bsf	(24),7	;volatile
	line	60
;usart_pic16.c: 60: RCSTAbits.RX9=0;
	bcf	(24),6	;volatile
	line	61
;usart_pic16.c: 61: RCSTAbits.CREN=1;
	bsf	(24),4	;volatile
	line	62
;usart_pic16.c: 62: RCSTAbits.ADDEN=0;
	bcf	(24),3	;volatile
	line	65
;usart_pic16.c: 65: RCIE=1;
	bsf	status, 5	;RP0=1, select bank1
	bcf	status, 6	;RP1=0, select bank1
	bsf	(1125/8)^080h,(1125)&7	;volatile
	line	66
;usart_pic16.c: 66: PEIE=1;
	bsf	(94/8),(94)&7	;volatile
	line	69
;usart_pic16.c: 69: (GIE = 1);
	bsf	(95/8),(95)&7	;volatile
	line	70
	
l375:	
	return
	opt stack 0
GLOBAL	__end_of_USARTInit
	__end_of_USARTInit:
	signat	_USARTInit,4216
	global	_SIM300Cmd

;; *************** function _SIM300Cmd *****************
;; Defined at:
;;		line 98 in file "E:\Study Material\XC8 PROJECTS\Modem Advance\sim300.c"
;; Parameters:    Size  Location     Type
;;  cmd             2   13[BANK0 ] PTR const unsigned char 
;;		 -> SIM300SendMsg@cmd(25), SIM300ReadValidMsg@cmd(16), SIM300DeleteMsg@cmd(16), STR_30(3), 
;;		 -> STR_10(4), STR_9(4), STR_8(4), STR_6(4), 
;;		 -> phone_number(40), STR_5(4), STR_4(4), STR_3(10), 
;;		 -> STR_2(10), STR_1(10), 
;; Auto vars:     Size  Location     Type
;;  i               2   17[BANK0 ] unsigned int 
;;  len             1   19[BANK0 ] unsigned char 
;; Return value:  Size  Location     Type
;;                  1    wreg      char 
;; Registers used:
;;		wreg, fsr0l, fsr0h, status,2, status,0, btemp+1, pclath, cstack
;; Tracked objects:
;;		On entry : 0/0
;;		On exit  : 0/0
;;		Unchanged: 0/0
;; Data sizes:     COMMON   BANK0   BANK1   BANK3   BANK2
;;      Params:         0       2       0       0       0
;;      Locals:         0       3       0       0       0
;;      Temps:          0       2       0       0       0
;;      Totals:         0       7       0       0       0
;;Total ram usage:        7 bytes
;; Hardware stack levels used:    1
;; Hardware stack levels required when called:    4
;; This function calls:
;;		_USARTDataAvailable
;;		_USARTReadBuffer
;;		_USARTWriteChar
;;		_USARTWriteString
;;		___wmul
;;		_strlen
;; This function is called by:
;;		_main
;;		_SIM300Init
;;		_SIM300DeleteMsg
;;		_SIM300ReadValidMsg
;;		_SIM300SendMsg
;; This function uses a non-reentrant model
;;
psect	text31,local,class=CODE,delta=2,merge=1
	file	"E:\Study Material\XC8 PROJECTS\Modem Advance\sim300.c"
	line	98
global __ptext31
__ptext31:	;psect for function _SIM300Cmd
psect	text31
	file	"E:\Study Material\XC8 PROJECTS\Modem Advance\sim300.c"
	line	98
	global	__size_of_SIM300Cmd
	__size_of_SIM300Cmd	equ	__end_of_SIM300Cmd-_SIM300Cmd
	
_SIM300Cmd:	
;incstack = 0
	opt	stack 0
; Regs used in _SIM300Cmd: [wreg-fsr0h+status,2+status,0+btemp+1+pclath+cstack]
	line	100
	
l2706:	
;sim300.c: 100: USARTWriteString(cmd);
	bcf	status, 5	;RP0=0, select bank0
	bcf	status, 6	;RP1=0, select bank0
	movf	(SIM300Cmd@cmd+1),w
	clrf	(USARTWriteString@str+1)
	addwf	(USARTWriteString@str+1)
	movf	(SIM300Cmd@cmd),w
	clrf	(USARTWriteString@str)
	addwf	(USARTWriteString@str)

	fcall	_USARTWriteString
	line	101
	
l2708:	
;sim300.c: 101: USARTWriteChar(0x0D);
	movlw	(0Dh)
	fcall	_USARTWriteChar
	line	103
	
l2710:	
;sim300.c: 103: uint8_t len=strlen(cmd);
	bcf	status, 5	;RP0=0, select bank0
	bcf	status, 6	;RP1=0, select bank0
	movf	(SIM300Cmd@cmd+1),w
	clrf	(strlen@s+1)
	addwf	(strlen@s+1)
	movf	(SIM300Cmd@cmd),w
	clrf	(strlen@s)
	addwf	(strlen@s)

	fcall	_strlen
	bcf	status, 5	;RP0=0, select bank0
	bcf	status, 6	;RP1=0, select bank0
	movf	(0+(?_strlen)),w
	movwf	(??_SIM300Cmd+0)+0
	movf	(??_SIM300Cmd+0)+0,w
	movwf	(SIM300Cmd@len)
	line	105
	
l2712:	
;sim300.c: 105: len++;
	movlw	(01h)
	movwf	(??_SIM300Cmd+0)+0
	movf	(??_SIM300Cmd+0)+0,w
	addwf	(SIM300Cmd@len),f
	line	107
	
l2714:	
;sim300.c: 107: uint16_t i=0;
	clrf	(SIM300Cmd@i)
	clrf	(SIM300Cmd@i+1)
	line	110
;sim300.c: 110: while(i<10*len)
	goto	l2726
	
l259:	
	line	112
	
l2716:	
;sim300.c: 111: {
;sim300.c: 112: if(USARTDataAvailable()<len)
	fcall	_USARTDataAvailable
	bcf	status, 5	;RP0=0, select bank0
	bcf	status, 6	;RP1=0, select bank0
	movwf	(??_SIM300Cmd+0)+0
	movf	(SIM300Cmd@len),w
	subwf	(??_SIM300Cmd+0)+0,w
	skipnc
	goto	u2061
	goto	u2060
u2061:
	goto	l2722
u2060:
	line	114
	
l2718:	
;sim300.c: 113: {
;sim300.c: 114: i++;
	movlw	low(01h)
	addwf	(SIM300Cmd@i),f
	skipnc
	incf	(SIM300Cmd@i+1),f
	movlw	high(01h)
	addwf	(SIM300Cmd@i+1),f
	line	115
;sim300.c: 115: _delay((unsigned long)((10)*(4000000/4000.0)));
	opt asmopt_off
movlw	13
movwf	((??_SIM300Cmd+0)+0+1),f
	movlw	251
movwf	((??_SIM300Cmd+0)+0),f
u4007:
	decfsz	((??_SIM300Cmd+0)+0),f
	goto	u4007
	decfsz	((??_SIM300Cmd+0)+0+1),f
	goto	u4007
	nop2
opt asmopt_on

	line	116
;sim300.c: 116: continue;
	goto	l2726
	line	117
	
l2720:	
;sim300.c: 117: }
	goto	l2726
	line	118
	
l260:	
	line	122
	
l2722:	
;sim300.c: 118: else
;sim300.c: 119: {
;sim300.c: 122: USARTReadBuffer(sim300_buffer,len);
	bcf	status, 5	;RP0=0, select bank0
	bcf	status, 6	;RP1=0, select bank0
	movf	(SIM300Cmd@len),w
	movwf	(??_SIM300Cmd+0)+0
	clrf	(??_SIM300Cmd+0)+0+1
	movf	0+(??_SIM300Cmd+0)+0,w
	movwf	(USARTReadBuffer@len)
	movf	1+(??_SIM300Cmd+0)+0,w
	movwf	(USARTReadBuffer@len+1)
	movlw	(_sim300_buffer)&0ffh
	fcall	_USARTReadBuffer
	goto	l262
	line	124
	
l2724:	
;sim300.c: 124: return 1;
;	Return value of _SIM300Cmd is never used
	goto	l262
	line	125
	
l261:	
	goto	l2726
	line	126
	
l258:	
	line	110
	
l2726:	
	bcf	status, 5	;RP0=0, select bank0
	bcf	status, 6	;RP1=0, select bank0
	movf	(SIM300Cmd@len),w
	movwf	(??_SIM300Cmd+0)+0
	clrf	(??_SIM300Cmd+0)+0+1
	movf	0+(??_SIM300Cmd+0)+0,w
	movwf	(___wmul@multiplier)
	movf	1+(??_SIM300Cmd+0)+0,w
	movwf	(___wmul@multiplier+1)
	movlw	low(0Ah)
	movwf	(___wmul@multiplicand)
	movlw	high(0Ah)
	movwf	((___wmul@multiplicand))+1
	fcall	___wmul
	bcf	status, 5	;RP0=0, select bank0
	bcf	status, 6	;RP1=0, select bank0
	movf	(1+(?___wmul)),w
	subwf	(SIM300Cmd@i+1),w
	skipz
	goto	u2075
	movf	(0+(?___wmul)),w
	subwf	(SIM300Cmd@i),w
u2075:
	skipc
	goto	u2071
	goto	u2070
u2071:
	goto	l2716
u2070:
	goto	l262
	
l263:	
	line	129
;sim300.c: 125: }
;sim300.c: 126: }
;sim300.c: 128: return -3;
;	Return value of _SIM300Cmd is never used
	
l262:	
	return
	opt stack 0
GLOBAL	__end_of_SIM300Cmd
	__end_of_SIM300Cmd:
	signat	_SIM300Cmd,4217
	global	_strlen

;; *************** function _strlen *****************
;; Defined at:
;;		line 4 in file "C:\Program Files (x86)\Microchip\xc8\v1.33\sources\common\strlen.c"
;; Parameters:    Size  Location     Type
;;  s               2    0[BANK0 ] PTR const unsigned char 
;;		 -> SIM300SendMsg@cmd(25), STR_36(4), SIM300ReadValidMsg@cmd(16), SIM300DeleteMsg@cmd(16), 
;;		 -> STR_30(3), STR_29(16), STR_10(4), STR_9(4), 
;;		 -> STR_8(4), STR_7(20), STR_6(4), phone_number(40), 
;;		 -> STR_5(4), STR_4(4), STR_3(10), STR_2(10), 
;;		 -> STR_1(10), 
;; Auto vars:     Size  Location     Type
;;  cp              2    4[BANK0 ] PTR const unsigned char 
;;		 -> SIM300SendMsg@cmd(25), STR_36(4), SIM300ReadValidMsg@cmd(16), SIM300DeleteMsg@cmd(16), 
;;		 -> STR_30(3), STR_29(16), STR_10(4), STR_9(4), 
;;		 -> STR_8(4), STR_7(20), STR_6(4), phone_number(40), 
;;		 -> STR_5(4), STR_4(4), STR_3(10), STR_2(10), 
;;		 -> STR_1(10), 
;; Return value:  Size  Location     Type
;;                  2    0[BANK0 ] unsigned int 
;; Registers used:
;;		wreg, fsr0l, fsr0h, status,2, status,0, btemp+1, pclath
;; Tracked objects:
;;		On entry : 0/0
;;		On exit  : 0/0
;;		Unchanged: 0/0
;; Data sizes:     COMMON   BANK0   BANK1   BANK3   BANK2
;;      Params:         0       2       0       0       0
;;      Locals:         0       2       0       0       0
;;      Temps:          0       2       0       0       0
;;      Totals:         0       6       0       0       0
;;Total ram usage:        6 bytes
;; Hardware stack levels used:    1
;; Hardware stack levels required when called:    2
;; This function calls:
;;		Nothing
;; This function is called by:
;;		_SMSCommunication
;;		_SIM300Cmd
;;		_SIM300SendMsg
;;		_strstr
;; This function uses a non-reentrant model
;;
psect	text32,local,class=CODE,delta=2,merge=1
	file	"C:\Program Files (x86)\Microchip\xc8\v1.33\sources\common\strlen.c"
	line	4
global __ptext32
__ptext32:	;psect for function _strlen
psect	text32
	file	"C:\Program Files (x86)\Microchip\xc8\v1.33\sources\common\strlen.c"
	line	4
	global	__size_of_strlen
	__size_of_strlen	equ	__end_of_strlen-_strlen
	
_strlen:	
;incstack = 0
	opt	stack 4
; Regs used in _strlen: [wreg-fsr0h+status,2+status,0+btemp+1+pclath]
	line	8
	
l2582:	
	bcf	status, 5	;RP0=0, select bank0
	bcf	status, 6	;RP1=0, select bank0
	movf	(strlen@s+1),w
	clrf	(strlen@cp+1)
	addwf	(strlen@cp+1)
	movf	(strlen@s),w
	clrf	(strlen@cp)
	addwf	(strlen@cp)

	line	9
	goto	l2584
	
l1009:	
	line	10
	movlw	01h
	addwf	(strlen@cp),f
	skipnc
	incf	(strlen@cp+1),f
	goto	l2584
	line	11
	
l1008:	
	line	9
	
l2584:	
	movf	(strlen@cp+1),w
	movwf	btemp+1
	movf	(strlen@cp),w
	movwf	fsr0
	fcall	stringtab
	iorlw	0
	skipz
	goto	u1791
	goto	u1790
u1791:
	goto	l1009
u1790:
	goto	l2586
	
l1010:	
	line	12
	
l2586:	
	comf	(strlen@s),w
	movwf	(??_strlen+0)+0
	comf	(strlen@s+1),w
	movwf	((??_strlen+0)+0+1)
	incf	(??_strlen+0)+0,f
	skipnz
	incf	((??_strlen+0)+0+1),f
	movf	(strlen@cp),w
	addwf	0+(??_strlen+0)+0,w
	movwf	(?_strlen)
	movf	(strlen@cp+1),w
	skipnc
	incf	(strlen@cp+1),w
	addwf	1+(??_strlen+0)+0,w
	movwf	1+(?_strlen)
	goto	l1011
	
l2588:	
	line	13
	
l1011:	
	return
	opt stack 0
GLOBAL	__end_of_strlen
	__end_of_strlen:
	signat	_strlen,4218
	global	___wmul

;; *************** function ___wmul *****************
;; Defined at:
;;		line 15 in file "C:\Program Files (x86)\Microchip\xc8\v1.33\sources\common\Umul16.c"
;; Parameters:    Size  Location     Type
;;  multiplier      2    0[BANK0 ] unsigned int 
;;  multiplicand    2    2[BANK0 ] unsigned int 
;; Auto vars:     Size  Location     Type
;;  product         2    4[BANK0 ] unsigned int 
;; Return value:  Size  Location     Type
;;                  2    0[BANK0 ] unsigned int 
;; Registers used:
;;		wreg, status,2, status,0
;; Tracked objects:
;;		On entry : 0/0
;;		On exit  : 0/0
;;		Unchanged: 0/0
;; Data sizes:     COMMON   BANK0   BANK1   BANK3   BANK2
;;      Params:         0       4       0       0       0
;;      Locals:         0       2       0       0       0
;;      Temps:          0       0       0       0       0
;;      Totals:         0       6       0       0       0
;;Total ram usage:        6 bytes
;; Hardware stack levels used:    1
;; Hardware stack levels required when called:    2
;; This function calls:
;;		Nothing
;; This function is called by:
;;		_SIM300Cmd
;;		_atoi
;; This function uses a non-reentrant model
;;
psect	text33,local,class=CODE,delta=2,merge=1
	file	"C:\Program Files (x86)\Microchip\xc8\v1.33\sources\common\Umul16.c"
	line	15
global __ptext33
__ptext33:	;psect for function ___wmul
psect	text33
	file	"C:\Program Files (x86)\Microchip\xc8\v1.33\sources\common\Umul16.c"
	line	15
	global	__size_of___wmul
	__size_of___wmul	equ	__end_of___wmul-___wmul
	
___wmul:	
;incstack = 0
	opt	stack 1
; Regs used in ___wmul: [wreg+status,2+status,0]
	line	43
	
l2606:	
	bcf	status, 5	;RP0=0, select bank0
	bcf	status, 6	;RP1=0, select bank0
	clrf	(___wmul@product)
	clrf	(___wmul@product+1)
	goto	l2608
	line	44
	
l609:	
	line	45
	
l2608:	
	btfss	(___wmul@multiplier),(0)&7
	goto	u1821
	goto	u1820
u1821:
	goto	l610
u1820:
	line	46
	
l2610:	
	movf	(___wmul@multiplicand),w
	addwf	(___wmul@product),f
	skipnc
	incf	(___wmul@product+1),f
	movf	(___wmul@multiplicand+1),w
	addwf	(___wmul@product+1),f
	
l610:	
	line	47
	movlw	01h
	
u1835:
	clrc
	rlf	(___wmul@multiplicand),f
	rlf	(___wmul@multiplicand+1),f
	addlw	-1
	skipz
	goto	u1835
	line	48
	
l2612:	
	movlw	01h
	
u1845:
	clrc
	rrf	(___wmul@multiplier+1),f
	rrf	(___wmul@multiplier),f
	addlw	-1
	skipz
	goto	u1845
	line	49
	movf	((___wmul@multiplier+1)),w
	iorwf	((___wmul@multiplier)),w
	skipz
	goto	u1851
	goto	u1850
u1851:
	goto	l2608
u1850:
	goto	l2614
	
l611:	
	line	52
	
l2614:	
	movf	(___wmul@product+1),w
	clrf	(?___wmul+1)
	addwf	(?___wmul+1)
	movf	(___wmul@product),w
	clrf	(?___wmul)
	addwf	(?___wmul)

	goto	l612
	
l2616:	
	line	53
	
l612:	
	return
	opt stack 0
GLOBAL	__end_of___wmul
	__end_of___wmul:
	signat	___wmul,8314
	global	_USARTWriteString

;; *************** function _USARTWriteString *****************
;; Defined at:
;;		line 80 in file "E:\Study Material\XC8 PROJECTS\Modem Advance\usart_pic16.c"
;; Parameters:    Size  Location     Type
;;  str             2    1[BANK0 ] PTR const unsigned char 
;;		 -> SIM300SendMsg@cmd(25), SIM300ReadValidMsg@cmd(16), SIM300DeleteMsg@cmd(16), STR_30(3), 
;;		 -> STR_29(16), STR_10(4), STR_9(4), STR_8(4), 
;;		 -> STR_7(20), STR_6(4), phone_number(40), STR_5(4), 
;;		 -> STR_4(4), STR_3(10), STR_2(10), STR_1(10), 
;; Auto vars:     Size  Location     Type
;;		None
;; Return value:  Size  Location     Type
;;		None               void
;; Registers used:
;;		wreg, fsr0l, fsr0h, status,2, status,0, btemp+1, pclath, cstack
;; Tracked objects:
;;		On entry : 0/0
;;		On exit  : 0/0
;;		Unchanged: 0/0
;; Data sizes:     COMMON   BANK0   BANK1   BANK3   BANK2
;;      Params:         0       2       0       0       0
;;      Locals:         0       0       0       0       0
;;      Temps:          0       0       0       0       0
;;      Totals:         0       2       0       0       0
;;Total ram usage:        2 bytes
;; Hardware stack levels used:    1
;; Hardware stack levels required when called:    3
;; This function calls:
;;		_USARTWriteChar
;; This function is called by:
;;		_SIM300Cmd
;;		_SIM300SendMsg
;;		_USARTWriteLine
;; This function uses a non-reentrant model
;;
psect	text34,local,class=CODE,delta=2,merge=1
	file	"E:\Study Material\XC8 PROJECTS\Modem Advance\usart_pic16.c"
	line	80
global __ptext34
__ptext34:	;psect for function _USARTWriteString
psect	text34
	file	"E:\Study Material\XC8 PROJECTS\Modem Advance\usart_pic16.c"
	line	80
	global	__size_of_USARTWriteString
	__size_of_USARTWriteString	equ	__end_of_USARTWriteString-_USARTWriteString
	
_USARTWriteString:	
;incstack = 0
;; using string table level
	opt	stack 1
; Regs used in _USARTWriteString: [wreg-fsr0h+status,2+status,0+btemp+1+pclath+cstack]
	line	82
	
l2598:	
;usart_pic16.c: 82: while(*str!='\0')
	goto	l2604
	
l385:	
	line	84
	
l2600:	
;usart_pic16.c: 83: {
;usart_pic16.c: 84: USARTWriteChar(*str);
	bcf	status, 5	;RP0=0, select bank0
	bcf	status, 6	;RP1=0, select bank0
	movf	(USARTWriteString@str+1),w
	movwf	btemp+1
	movf	(USARTWriteString@str),w
	movwf	fsr0
	fcall	stringtab
	fcall	_USARTWriteChar
	line	85
	
l2602:	
;usart_pic16.c: 85: str++;
	movlw	01h
	bcf	status, 5	;RP0=0, select bank0
	bcf	status, 6	;RP1=0, select bank0
	addwf	(USARTWriteString@str),f
	skipnc
	incf	(USARTWriteString@str+1),f
	goto	l2604
	line	86
	
l384:	
	line	82
	
l2604:	
	bcf	status, 5	;RP0=0, select bank0
	bcf	status, 6	;RP1=0, select bank0
	movf	(USARTWriteString@str+1),w
	movwf	btemp+1
	movf	(USARTWriteString@str),w
	movwf	fsr0
	fcall	stringtab
	iorlw	0
	skipz
	goto	u1811
	goto	u1810
u1811:
	goto	l2600
u1810:
	goto	l387
	
l386:	
	line	87
	
l387:	
	return
	opt stack 0
GLOBAL	__end_of_USARTWriteString
	__end_of_USARTWriteString:
	signat	_USARTWriteString,4216
	global	_USARTWriteChar

;; *************** function _USARTWriteChar *****************
;; Defined at:
;;		line 73 in file "E:\Study Material\XC8 PROJECTS\Modem Advance\usart_pic16.c"
;; Parameters:    Size  Location     Type
;;  ch              1    wreg     unsigned char 
;; Auto vars:     Size  Location     Type
;;  ch              1    0[BANK0 ] unsigned char 
;; Return value:  Size  Location     Type
;;		None               void
;; Registers used:
;;		wreg
;; Tracked objects:
;;		On entry : 0/0
;;		On exit  : 0/0
;;		Unchanged: 0/0
;; Data sizes:     COMMON   BANK0   BANK1   BANK3   BANK2
;;      Params:         0       0       0       0       0
;;      Locals:         0       1       0       0       0
;;      Temps:          0       0       0       0       0
;;      Totals:         0       1       0       0       0
;;Total ram usage:        1 bytes
;; Hardware stack levels used:    1
;; Hardware stack levels required when called:    2
;; This function calls:
;;		Nothing
;; This function is called by:
;;		_SIM300Cmd
;;		_SIM300SendMsg
;;		_USARTWriteString
;;		_USARTWriteLine
;;		_USARTWriteInt
;;		_USARTGotoNewLine
;; This function uses a non-reentrant model
;;
psect	text35,local,class=CODE,delta=2,merge=1
	line	73
global __ptext35
__ptext35:	;psect for function _USARTWriteChar
psect	text35
	file	"E:\Study Material\XC8 PROJECTS\Modem Advance\usart_pic16.c"
	line	73
	global	__size_of_USARTWriteChar
	__size_of_USARTWriteChar	equ	__end_of_USARTWriteChar-_USARTWriteChar
	
_USARTWriteChar:	
;incstack = 0
	opt	stack 0
; Regs used in _USARTWriteChar: [wreg]
;USARTWriteChar@ch stored from wreg
	bcf	status, 5	;RP0=0, select bank0
	bcf	status, 6	;RP1=0, select bank0
	movwf	(USARTWriteChar@ch)
	line	75
	
l2550:	
;usart_pic16.c: 75: while(!PIR1bits.TXIF);
	goto	l378
	
l379:	
	
l378:	
	btfss	(12),4	;volatile
	goto	u1741
	goto	u1740
u1741:
	goto	l378
u1740:
	goto	l2552
	
l380:	
	line	76
	
l2552:	
;usart_pic16.c: 76: TXREG=ch;
	movf	(USARTWriteChar@ch),w
	movwf	(25)	;volatile
	line	77
	
l381:	
	return
	opt stack 0
GLOBAL	__end_of_USARTWriteChar
	__end_of_USARTWriteChar:
	signat	_USARTWriteChar,4216
	global	_USARTReadBuffer

;; *************** function _USARTReadBuffer *****************
;; Defined at:
;;		line 223 in file "E:\Study Material\XC8 PROJECTS\Modem Advance\usart_pic16.c"
;; Parameters:    Size  Location     Type
;;  buff            1    wreg     PTR unsigned char 
;;		 -> sim300_buffer(70), 
;;  len             2    6[BANK0 ] unsigned int 
;; Auto vars:     Size  Location     Type
;;  buff            1   10[BANK0 ] PTR unsigned char 
;;		 -> sim300_buffer(70), 
;;  i               2   11[BANK0 ] unsigned int 
;; Return value:  Size  Location     Type
;;		None               void
;; Registers used:
;;		wreg, fsr0l, fsr0h, status,2, status,0, pclath, cstack
;; Tracked objects:
;;		On entry : 0/0
;;		On exit  : 0/0
;;		Unchanged: 0/0
;; Data sizes:     COMMON   BANK0   BANK1   BANK3   BANK2
;;      Params:         0       2       0       0       0
;;      Locals:         0       3       0       0       0
;;      Temps:          0       2       0       0       0
;;      Totals:         0       7       0       0       0
;;Total ram usage:        7 bytes
;; Hardware stack levels used:    1
;; Hardware stack levels required when called:    3
;; This function calls:
;;		_USARTReadData
;; This function is called by:
;;		_SIM300Init
;;		_SIM300Cmd
;;		_SIM300SendMsg
;; This function uses a non-reentrant model
;;
psect	text36,local,class=CODE,delta=2,merge=1
	line	223
global __ptext36
__ptext36:	;psect for function _USARTReadBuffer
psect	text36
	file	"E:\Study Material\XC8 PROJECTS\Modem Advance\usart_pic16.c"
	line	223
	global	__size_of_USARTReadBuffer
	__size_of_USARTReadBuffer	equ	__end_of_USARTReadBuffer-_USARTReadBuffer
	
_USARTReadBuffer:	
;incstack = 0
	opt	stack 0
; Regs used in _USARTReadBuffer: [wreg-fsr0h+status,2+status,0+pclath+cstack]
;USARTReadBuffer@buff stored from wreg
	bcf	status, 5	;RP0=0, select bank0
	bcf	status, 6	;RP1=0, select bank0
	movwf	(USARTReadBuffer@buff)
	line	226
	
l2590:	
;usart_pic16.c: 225: uint16_t i;
;usart_pic16.c: 226: for(i=0;i<len;i++)
	clrf	(USARTReadBuffer@i)
	clrf	(USARTReadBuffer@i+1)
	goto	l2596
	line	227
	
l444:	
	line	228
	
l2592:	
;usart_pic16.c: 227: {
;usart_pic16.c: 228: buff[i]=USARTReadData();
	fcall	_USARTReadData
	bcf	status, 5	;RP0=0, select bank0
	bcf	status, 6	;RP1=0, select bank0
	movwf	(??_USARTReadBuffer+0)+0
	movf	(USARTReadBuffer@i),w
	addwf	(USARTReadBuffer@buff),w
	movwf	(??_USARTReadBuffer+1)+0
	movf	0+(??_USARTReadBuffer+1)+0,w
	movwf	fsr0
	movf	(??_USARTReadBuffer+0)+0,w
	bsf	status, 7	;select IRP bank2
	movwf	indf
	line	226
	
l2594:	
	movlw	low(01h)
	addwf	(USARTReadBuffer@i),f
	skipnc
	incf	(USARTReadBuffer@i+1),f
	movlw	high(01h)
	addwf	(USARTReadBuffer@i+1),f
	goto	l2596
	
l443:	
	
l2596:	
	movf	(USARTReadBuffer@len+1),w
	subwf	(USARTReadBuffer@i+1),w
	skipz
	goto	u1805
	movf	(USARTReadBuffer@len),w
	subwf	(USARTReadBuffer@i),w
u1805:
	skipc
	goto	u1801
	goto	u1800
u1801:
	goto	l2592
u1800:
	goto	l446
	
l445:	
	line	230
	
l446:	
	return
	opt stack 0
GLOBAL	__end_of_USARTReadBuffer
	__end_of_USARTReadBuffer:
	signat	_USARTReadBuffer,8312
	global	_USARTReadData

;; *************** function _USARTReadData *****************
;; Defined at:
;;		line 131 in file "E:\Study Material\XC8 PROJECTS\Modem Advance\usart_pic16.c"
;; Parameters:    Size  Location     Type
;;		None
;; Auto vars:     Size  Location     Type
;;  data            1    1[BANK0 ] unsigned char 
;; Return value:  Size  Location     Type
;;                  1    wreg      unsigned char 
;; Registers used:
;;		wreg, fsr0l, fsr0h, status,2, status,0
;; Tracked objects:
;;		On entry : 0/0
;;		On exit  : 0/0
;;		Unchanged: 0/0
;; Data sizes:     COMMON   BANK0   BANK1   BANK3   BANK2
;;      Params:         0       0       0       0       0
;;      Locals:         0       1       0       0       0
;;      Temps:          0       1       0       0       0
;;      Totals:         0       2       0       0       0
;;Total ram usage:        2 bytes
;; Hardware stack levels used:    1
;; Hardware stack levels required when called:    2
;; This function calls:
;;		Nothing
;; This function is called by:
;;		_SIM300WaitForResponse
;;		_SIM300RingResponse
;;		_USARTReadBuffer
;;		_USARTFlushBuffer
;; This function uses a non-reentrant model
;;
psect	text37,local,class=CODE,delta=2,merge=1
	line	131
global __ptext37
__ptext37:	;psect for function _USARTReadData
psect	text37
	file	"E:\Study Material\XC8 PROJECTS\Modem Advance\usart_pic16.c"
	line	131
	global	__size_of_USARTReadData
	__size_of_USARTReadData	equ	__end_of_USARTReadData-_USARTReadData
	
_USARTReadData:	
;incstack = 0
	opt	stack 4
; Regs used in _USARTReadData: [wreg-fsr0h+status,2+status,0]
	line	136
	
l2554:	
;usart_pic16.c: 133: char data;
;usart_pic16.c: 136: if(UQFront==-1)
	movf	(_UQFront),w	;volatile
	xorlw	-1
	skipz
	goto	u1751
	goto	u1750
u1751:
	goto	l2560
u1750:
	line	137
	
l2556:	
;usart_pic16.c: 137: return 0;
	movlw	(0)
	goto	l408
	
l2558:	
	goto	l408
	
l407:	
	line	139
	
l2560:	
;usart_pic16.c: 139: data=URBuff[UQFront];
	movf	(_UQFront),w
	addlw	_URBuff&0ffh
	movwf	fsr0
	bsf	status, 7	;select IRP bank2
	movf	indf,w
	bcf	status, 5	;RP0=0, select bank0
	bcf	status, 6	;RP1=0, select bank0
	movwf	(??_USARTReadData+0)+0
	movf	(??_USARTReadData+0)+0,w
	movwf	(USARTReadData@data)
	line	141
	
l2562:	
;usart_pic16.c: 141: if(UQFront==UQEnd)
	movf	(_UQFront),w	;volatile
	xorwf	(_UQEnd),w	;volatile
	skipz
	goto	u1761
	goto	u1760
u1761:
	goto	l2566
u1760:
	line	145
	
l2564:	
;usart_pic16.c: 142: {
;usart_pic16.c: 145: UQFront=UQEnd=-1;
	movlw	(-1)
	movwf	(_UQEnd)	;volatile
	movwf	(??_USARTReadData+0)+0
	movf	(??_USARTReadData+0)+0,w
	movwf	(_UQFront)	;volatile
	line	146
;usart_pic16.c: 146: }
	goto	l2572
	line	147
	
l409:	
	line	149
	
l2566:	
;usart_pic16.c: 147: else
;usart_pic16.c: 148: {
;usart_pic16.c: 149: UQFront++;
	movlw	(01h)
	movwf	(??_USARTReadData+0)+0
	movf	(??_USARTReadData+0)+0,w
	addwf	(_UQFront),f	;volatile
	line	151
	
l2568:	
;usart_pic16.c: 151: if(UQFront==64)
	movf	(_UQFront),w	;volatile
	xorlw	040h
	skipz
	goto	u1771
	goto	u1770
u1771:
	goto	l2572
u1770:
	line	152
	
l2570:	
;usart_pic16.c: 152: UQFront=0;
	clrf	(_UQFront)	;volatile
	goto	l2572
	
l411:	
	goto	l2572
	line	153
	
l410:	
	line	155
	
l2572:	
;usart_pic16.c: 153: }
;usart_pic16.c: 155: return data;
	movf	(USARTReadData@data),w
	goto	l408
	
l2574:	
	line	156
	
l408:	
	return
	opt stack 0
GLOBAL	__end_of_USARTReadData
	__end_of_USARTReadData:
	signat	_USARTReadData,89
	global	_USARTDataAvailable

;; *************** function _USARTDataAvailable *****************
;; Defined at:
;;		line 159 in file "E:\Study Material\XC8 PROJECTS\Modem Advance\usart_pic16.c"
;; Parameters:    Size  Location     Type
;;		None
;; Auto vars:     Size  Location     Type
;;		None
;; Return value:  Size  Location     Type
;;                  1    wreg      unsigned char 
;; Registers used:
;;		wreg, status,2, status,0
;; Tracked objects:
;;		On entry : 0/0
;;		On exit  : 0/0
;;		Unchanged: 0/0
;; Data sizes:     COMMON   BANK0   BANK1   BANK3   BANK2
;;      Params:         0       0       0       0       0
;;      Locals:         0       0       0       0       0
;;      Temps:          0       1       0       0       0
;;      Totals:         0       1       0       0       0
;;Total ram usage:        1 bytes
;; Hardware stack levels used:    1
;; Hardware stack levels required when called:    2
;; This function calls:
;;		Nothing
;; This function is called by:
;;		_SIM300Init
;;		_SIM300Cmd
;;		_SIM300WaitForResponse
;;		_SIM300RingResponse
;;		_SIM300SendMsg
;;		_USARTFlushBuffer
;; This function uses a non-reentrant model
;;
psect	text38,local,class=CODE,delta=2,merge=1
	line	159
global __ptext38
__ptext38:	;psect for function _USARTDataAvailable
psect	text38
	file	"E:\Study Material\XC8 PROJECTS\Modem Advance\usart_pic16.c"
	line	159
	global	__size_of_USARTDataAvailable
	__size_of_USARTDataAvailable	equ	__end_of_USARTDataAvailable-_USARTDataAvailable
	
_USARTDataAvailable:	
;incstack = 0
	opt	stack 4
; Regs used in _USARTDataAvailable: [wreg+status,2+status,0]
	line	161
	
l2524:	
;usart_pic16.c: 161: if(UQFront==-1)
	movf	(_UQFront),w	;volatile
	xorlw	-1
	skipz
	goto	u1711
	goto	u1710
u1711:
	goto	l2530
u1710:
	line	162
	
l2526:	
;usart_pic16.c: 162: return 0;
	movlw	(0)
	goto	l415
	
l2528:	
	goto	l415
	
l414:	
	line	163
	
l2530:	
;usart_pic16.c: 163: if(UQFront<UQEnd)
	movf	(_UQFront),w	;volatile
	xorlw	80h
	bcf	status, 5	;RP0=0, select bank0
	bcf	status, 6	;RP1=0, select bank0
	movwf	(??_USARTDataAvailable+0)+0
	movf	(_UQEnd),w	;volatile
	xorlw	80h
	subwf	(??_USARTDataAvailable+0)+0
	skipnc
	goto	u1721
	goto	u1720
u1721:
	goto	l2538
u1720:
	line	164
	
l2532:	
;usart_pic16.c: 164: return(UQEnd-UQFront+1);
	decf	(_UQFront),w	;volatile
	xorlw	0ffh
	addwf	(_UQEnd),w	;volatile
	addlw	01h
	goto	l415
	
l2534:	
	goto	l415
	
l2536:	
	goto	l415
	line	165
	
l416:	
	
l2538:	
;usart_pic16.c: 165: else if(UQFront>UQEnd)
	movf	(_UQEnd),w	;volatile
	xorlw	80h
	movwf	(??_USARTDataAvailable+0)+0
	movf	(_UQFront),w	;volatile
	xorlw	80h
	subwf	(??_USARTDataAvailable+0)+0
	skipnc
	goto	u1731
	goto	u1730
u1731:
	goto	l2546
u1730:
	line	166
	
l2540:	
;usart_pic16.c: 166: return (64-UQFront+UQEnd+1);
	decf	(_UQFront),w	;volatile
	xorlw	0ffh
	addwf	(_UQEnd),w	;volatile
	addlw	041h
	goto	l415
	
l2542:	
	goto	l415
	
l2544:	
	goto	l415
	line	167
	
l418:	
	line	168
	
l2546:	
;usart_pic16.c: 167: else
;usart_pic16.c: 168: return 1;
	movlw	(01h)
	goto	l415
	
l2548:	
	goto	l415
	
l419:	
	goto	l415
	
l417:	
	line	169
	
l415:	
	return
	opt stack 0
GLOBAL	__end_of_USARTDataAvailable
	__end_of_USARTDataAvailable:
	signat	_USARTDataAvailable,89
	global	_SIM300CheckResponse

;; *************** function _SIM300CheckResponse *****************
;; Defined at:
;;		line 131 in file "E:\Study Material\XC8 PROJECTS\Modem Advance\sim300.c"
;; Parameters:    Size  Location     Type
;;  response        1    wreg     PTR const unsigned char 
;;		 -> sim300_buffer(70), 
;;  check           1    0[BANK0 ] PTR const unsigned char 
;;		 -> STR_31(3), 
;;  len             1    1[BANK0 ] unsigned char 
;; Auto vars:     Size  Location     Type
;;  response        1    5[BANK0 ] PTR const unsigned char 
;;		 -> sim300_buffer(70), 
;;  i               1    4[BANK0 ] unsigned char 
;; Return value:  Size  Location     Type
;;                  1    wreg      char 
;; Registers used:
;;		wreg, fsr0l, fsr0h, status,2, status,0, pclath
;; Tracked objects:
;;		On entry : 0/0
;;		On exit  : 0/0
;;		Unchanged: 0/0
;; Data sizes:     COMMON   BANK0   BANK1   BANK3   BANK2
;;      Params:         0       2       0       0       0
;;      Locals:         0       2       0       0       0
;;      Temps:          0       2       0       0       0
;;      Totals:         0       6       0       0       0
;;Total ram usage:        6 bytes
;; Hardware stack levels used:    1
;; Hardware stack levels required when called:    2
;; This function calls:
;;		Nothing
;; This function is called by:
;;		_SIM300Init
;; This function uses a non-reentrant model
;;
psect	text39,local,class=CODE,delta=2,merge=1
	file	"E:\Study Material\XC8 PROJECTS\Modem Advance\sim300.c"
	line	131
global __ptext39
__ptext39:	;psect for function _SIM300CheckResponse
psect	text39
	file	"E:\Study Material\XC8 PROJECTS\Modem Advance\sim300.c"
	line	131
	global	__size_of_SIM300CheckResponse
	__size_of_SIM300CheckResponse	equ	__end_of_SIM300CheckResponse-_SIM300CheckResponse
	
_SIM300CheckResponse:	
;incstack = 0
	opt	stack 4
; Regs used in _SIM300CheckResponse: [wreg-fsr0h+status,2+status,0+pclath]
;SIM300CheckResponse@response stored from wreg
	bcf	status, 5	;RP0=0, select bank0
	bcf	status, 6	;RP1=0, select bank0
	movwf	(SIM300CheckResponse@response)
	line	133
	
l3236:	
;sim300.c: 133: len-=2;
	movlw	low(02h)
	subwf	(SIM300CheckResponse@len),f
	line	136
	
l3238:	
;sim300.c: 136: if(response[0]!=0x0D | response[1]!=0x0A)
	movf	(SIM300CheckResponse@response),w
	movwf	fsr0
	bsf	status, 7	;select IRP bank2
	movf	indf,w
	xorlw	0Dh
	skipz
	goto	u2671
	goto	u2670
u2671:
	goto	l3242
u2670:
	
l3240:	
	incf	(SIM300CheckResponse@response),w
	movwf	fsr0
	movf	indf,w
	xorlw	0Ah
	skipnz
	goto	u2681
	goto	u2680
u2681:
	goto	l3246
u2680:
	goto	l3242
	
l268:	
	line	137
	
l3242:	
;sim300.c: 137: return -1;
	movlw	(-1)
	goto	l269
	
l3244:	
	goto	l269
	
l266:	
	line	140
	
l3246:	
;sim300.c: 140: if(response[len]!=0x0D | response[len+1]!=0x0A)
	movf	(SIM300CheckResponse@len),w
	addwf	(SIM300CheckResponse@response),w
	movwf	(??_SIM300CheckResponse+0)+0
	movf	0+(??_SIM300CheckResponse+0)+0,w
	movwf	fsr0
	movf	indf,w
	xorlw	0Dh
	skipz
	goto	u2691
	goto	u2690
u2691:
	goto	l3250
u2690:
	
l3248:	
	movf	(SIM300CheckResponse@len),w
	addlw	01h
	addwf	(SIM300CheckResponse@response),w
	movwf	(??_SIM300CheckResponse+0)+0
	movf	0+(??_SIM300CheckResponse+0)+0,w
	movwf	fsr0
	movf	indf,w
	xorlw	0Ah
	skipnz
	goto	u2701
	goto	u2700
u2701:
	goto	l3254
u2700:
	goto	l3250
	
l272:	
	line	141
	
l3250:	
;sim300.c: 141: return -1;
	movlw	(-1)
	goto	l269
	
l3252:	
	goto	l269
	
l270:	
	line	145
	
l3254:	
;sim300.c: 145: for(uint8_t i=2;i<len;i++)
	movlw	(02h)
	movwf	(??_SIM300CheckResponse+0)+0
	movf	(??_SIM300CheckResponse+0)+0,w
	movwf	(SIM300CheckResponse@i)
	goto	l3264
	line	146
	
l274:	
	line	147
	
l3256:	
;sim300.c: 146: {
;sim300.c: 147: if(response[i]!=check[i-2])
	movf	(SIM300CheckResponse@i),w
	addlw	-2
	addwf	(SIM300CheckResponse@check),w
	movwf	fsr0
	fcall	stringdir
	movwf	(??_SIM300CheckResponse+0)+0
	movf	(SIM300CheckResponse@i),w
	addwf	(SIM300CheckResponse@response),w
	movwf	(??_SIM300CheckResponse+1)+0
	movf	0+(??_SIM300CheckResponse+1)+0,w
	movwf	fsr0
	movf	indf,w
	xorwf	(??_SIM300CheckResponse+0)+0,w
	skipnz
	goto	u2711
	goto	u2710
u2711:
	goto	l3262
u2710:
	line	148
	
l3258:	
;sim300.c: 148: return -2;
	movlw	(-2)
	goto	l269
	
l3260:	
	goto	l269
	
l275:	
	line	145
	
l3262:	
	movlw	(01h)
	movwf	(??_SIM300CheckResponse+0)+0
	movf	(??_SIM300CheckResponse+0)+0,w
	addwf	(SIM300CheckResponse@i),f
	goto	l3264
	
l273:	
	
l3264:	
	movf	(SIM300CheckResponse@len),w
	subwf	(SIM300CheckResponse@i),w
	skipc
	goto	u2721
	goto	u2720
u2721:
	goto	l3256
u2720:
	goto	l3266
	
l276:	
	line	151
	
l3266:	
;sim300.c: 149: }
;sim300.c: 151: return 1;
	movlw	(01h)
	goto	l269
	
l3268:	
	line	152
	
l269:	
	return
	opt stack 0
GLOBAL	__end_of_SIM300CheckResponse
	__end_of_SIM300CheckResponse:
	signat	_SIM300CheckResponse,12409
	global	_ISR

;; *************** function _ISR *****************
;; Defined at:
;;		line 6 in file "E:\Study Material\XC8 PROJECTS\Modem Advance\isr.c"
;; Parameters:    Size  Location     Type
;;		None
;; Auto vars:     Size  Location     Type
;;		None
;; Return value:  Size  Location     Type
;;		None               void
;; Registers used:
;;		wreg, fsr0l, fsr0h, status,2, status,0, pclath, cstack
;; Tracked objects:
;;		On entry : 0/0
;;		On exit  : 0/0
;;		Unchanged: 0/0
;; Data sizes:     COMMON   BANK0   BANK1   BANK3   BANK2
;;      Params:         0       0       0       0       0
;;      Locals:         0       0       0       0       0
;;      Temps:          4       0       0       0       0
;;      Totals:         4       0       0       0       0
;;Total ram usage:        4 bytes
;; Hardware stack levels used:    1
;; Hardware stack levels required when called:    1
;; This function calls:
;;		_USARTHandleRxInt
;; This function is called by:
;;		Interrupt level 1
;; This function uses a non-reentrant model
;;
psect	text40,local,class=CODE,delta=2,merge=1
	file	"E:\Study Material\XC8 PROJECTS\Modem Advance\isr.c"
	line	6
global __ptext40
__ptext40:	;psect for function _ISR
psect	text40
	file	"E:\Study Material\XC8 PROJECTS\Modem Advance\isr.c"
	line	6
	global	__size_of_ISR
	__size_of_ISR	equ	__end_of_ISR-_ISR
	
_ISR:	
;incstack = 0
	opt	stack 0
; Regs used in _ISR: [wreg-fsr0h+status,2+status,0+pclath+cstack]
psect	intentry,class=CODE,delta=2
global __pintentry
__pintentry:
global interrupt_function
interrupt_function:
	global saved_w
	saved_w	set	btemp+0
	movwf	saved_w
	swapf	status,w
	movwf	(??_ISR+0)
	movf	fsr0,w
	movwf	(??_ISR+1)
	movf	pclath,w
	movwf	(??_ISR+2)
	bcf	status, 5	;RP0=0, select bank0
	bcf	status, 6	;RP1=0, select bank0
	movf	btemp+1,w
	movwf	(??_ISR+3)
	ljmp	_ISR
psect	text40
	line	8
	
i1l3578:	
;isr.c: 8: if (RCIE && RCIF) {
	bsf	status, 5	;RP0=1, select bank1
	bcf	status, 6	;RP1=0, select bank1
	btfss	(1125/8)^080h,(1125)&7	;volatile
	goto	u304_21
	goto	u304_20
u304_21:
	goto	i1l16
u304_20:
	
i1l3580:	
	bcf	status, 5	;RP0=0, select bank0
	bcf	status, 6	;RP1=0, select bank0
	btfss	(101/8),(101)&7	;volatile
	goto	u305_21
	goto	u305_20
u305_21:
	goto	i1l16
u305_20:
	line	9
	
i1l3582:	
;isr.c: 9: USARTHandleRxInt();
	fcall	_USARTHandleRxInt
	goto	i1l16
	line	10
	
i1l3584:	
;isr.c: 10: return;
	goto	i1l16
	line	11
	
i1l15:	
	line	12
	
i1l16:	
	movf	(??_ISR+3),w
	bcf	status, 5	;RP0=0, select bank0
	bcf	status, 6	;RP1=0, select bank0
	movwf	btemp+1
	movf	(??_ISR+2),w
	movwf	pclath
	movf	(??_ISR+1),w
	movwf	fsr0
	swapf	(??_ISR+0)^0FFFFFF80h,w
	movwf	status
	swapf	saved_w,f
	swapf	saved_w,w
	retfie
	opt stack 0
GLOBAL	__end_of_ISR
	__end_of_ISR:
	signat	_ISR,88
	global	_USARTHandleRxInt

;; *************** function _USARTHandleRxInt *****************
;; Defined at:
;;		line 99 in file "E:\Study Material\XC8 PROJECTS\Modem Advance\usart_pic16.c"
;; Parameters:    Size  Location     Type
;;		None
;; Auto vars:     Size  Location     Type
;;  data            1    4[COMMON] unsigned char 
;; Return value:  Size  Location     Type
;;		None               void
;; Registers used:
;;		wreg, fsr0l, fsr0h, status,2, status,0
;; Tracked objects:
;;		On entry : 0/0
;;		On exit  : 0/0
;;		Unchanged: 0/0
;; Data sizes:     COMMON   BANK0   BANK1   BANK3   BANK2
;;      Params:         0       0       0       0       0
;;      Locals:         1       0       0       0       0
;;      Temps:          4       0       0       0       0
;;      Totals:         5       0       0       0       0
;;Total ram usage:        5 bytes
;; Hardware stack levels used:    1
;; This function calls:
;;		Nothing
;; This function is called by:
;;		_ISR
;; This function uses a non-reentrant model
;;
psect	text41,local,class=CODE,delta=2,merge=1
	file	"E:\Study Material\XC8 PROJECTS\Modem Advance\usart_pic16.c"
	line	99
global __ptext41
__ptext41:	;psect for function _USARTHandleRxInt
psect	text41
	file	"E:\Study Material\XC8 PROJECTS\Modem Advance\usart_pic16.c"
	line	99
	global	__size_of_USARTHandleRxInt
	__size_of_USARTHandleRxInt	equ	__end_of_USARTHandleRxInt-_USARTHandleRxInt
	
_USARTHandleRxInt:	
;incstack = 0
	opt	stack 0
; Regs used in _USARTHandleRxInt: [wreg-fsr0h+status,2+status,0]
	line	102
	
i1l3270:	
;usart_pic16.c: 102: if(RB1==1)
	bcf	status, 5	;RP0=0, select bank0
	bcf	status, 6	;RP1=0, select bank0
	btfss	(49/8),(49)&7	;volatile
	goto	u273_21
	goto	u273_20
u273_21:
	goto	i1l393
u273_20:
	line	103
	
i1l3272:	
;usart_pic16.c: 103: RB1=0;
	bcf	(49/8),(49)&7	;volatile
	goto	i1l3274
	line	104
	
i1l393:	
	line	105
;usart_pic16.c: 104: else
;usart_pic16.c: 105: RB1=1;
	bsf	(49/8),(49)&7	;volatile
	goto	i1l3274
	
i1l394:	
	line	108
	
i1l3274:	
;usart_pic16.c: 108: char data=RCREG;
	movf	(26),w	;volatile
	movwf	(??_USARTHandleRxInt+0)+0
	movf	(??_USARTHandleRxInt+0)+0,w
	movwf	(USARTHandleRxInt@data)
	line	111
;usart_pic16.c: 111: if(((UQEnd==64-1) && UQFront==0) || ((UQEnd+1)==UQFront))
	movf	(_UQEnd),w	;volatile
	xorlw	03Fh
	skipz
	goto	u274_21
	goto	u274_20
u274_21:
	goto	i1l3278
u274_20:
	
i1l3276:	
	movf	(_UQFront),w	;volatile
	skipz
	goto	u275_20
	goto	i1l3280
u275_20:
	goto	i1l3278
	
i1l399:	
	
i1l3278:	
	movf	(_UQFront),w	;volatile
	movwf	(??_USARTHandleRxInt+0)+0
	clrf	(??_USARTHandleRxInt+0)+0+1
	btfsc	(??_USARTHandleRxInt+0)+0,7
	decf	(??_USARTHandleRxInt+0)+0+1,f
	movlw	01h
	addwf	(_UQEnd),w	;volatile
	movwf	(??_USARTHandleRxInt+2)+0
	clrf	1+(??_USARTHandleRxInt+2)+0
	skipnc
	incf	((??_USARTHandleRxInt+2)+0)+1,f
	btfss	(_UQEnd),7	;volatile
	goto	u276_24
	decf	((??_USARTHandleRxInt+2)+0)+1,f
	u276_24:
	
	movf	1+(??_USARTHandleRxInt+0)+0,w
	xorwf	1+(??_USARTHandleRxInt+2)+0,w
	skipz
	goto	u277_25
	movf	0+(??_USARTHandleRxInt+0)+0,w
	xorwf	0+(??_USARTHandleRxInt+2)+0,w
u277_25:

	skipz
	goto	u277_21
	goto	u277_20
u277_21:
	goto	i1l3286
u277_20:
	bcf	status, 5	;RP0=0, select bank0
	bcf	status, 6	;RP1=0, select bank0
	goto	i1l3280
	
i1l397:	
	line	114
	
i1l3280:	
;usart_pic16.c: 112: {
;usart_pic16.c: 114: UQFront++;
	movlw	(01h)
	movwf	(??_USARTHandleRxInt+0)+0
	movf	(??_USARTHandleRxInt+0)+0,w
	addwf	(_UQFront),f	;volatile
	line	115
	
i1l3282:	
;usart_pic16.c: 115: if(UQFront==64)
	movf	(_UQFront),w	;volatile
	xorlw	040h
	skipz
	goto	u278_21
	goto	u278_20
u278_21:
	goto	i1l3286
u278_20:
	line	116
	
i1l3284:	
;usart_pic16.c: 116: UQFront=0;
	clrf	(_UQFront)	;volatile
	goto	i1l3286
	
i1l400:	
	goto	i1l3286
	line	117
	
i1l395:	
	line	119
	
i1l3286:	
;usart_pic16.c: 117: }
;usart_pic16.c: 119: if(UQEnd==64-1)
	movf	(_UQEnd),w	;volatile
	xorlw	03Fh
	skipz
	goto	u279_21
	goto	u279_20
u279_21:
	goto	i1l3290
u279_20:
	line	120
	
i1l3288:	
;usart_pic16.c: 120: UQEnd=0;
	clrf	(_UQEnd)	;volatile
	goto	i1l3292
	line	121
	
i1l401:	
	line	122
	
i1l3290:	
;usart_pic16.c: 121: else
;usart_pic16.c: 122: UQEnd++;
	movlw	(01h)
	movwf	(??_USARTHandleRxInt+0)+0
	movf	(??_USARTHandleRxInt+0)+0,w
	addwf	(_UQEnd),f	;volatile
	goto	i1l3292
	
i1l402:	
	line	124
	
i1l3292:	
;usart_pic16.c: 124: URBuff[UQEnd]=data;
	movf	(USARTHandleRxInt@data),w
	movwf	(??_USARTHandleRxInt+0)+0
	movf	(_UQEnd),w
	addlw	_URBuff&0ffh
	movwf	fsr0
	movf	(??_USARTHandleRxInt+0)+0,w
	bsf	status, 7	;select IRP bank2
	movwf	indf
	line	126
	
i1l3294:	
;usart_pic16.c: 126: if(UQFront==-1)
	movf	(_UQFront),w	;volatile
	xorlw	-1
	skipz
	goto	u280_21
	goto	u280_20
u280_21:
	goto	i1l404
u280_20:
	line	127
	
i1l3296:	
;usart_pic16.c: 127: UQFront=0;
	clrf	(_UQFront)	;volatile
	goto	i1l404
	
i1l403:	
	line	128
	
i1l404:	
	return
	opt stack 0
GLOBAL	__end_of_USARTHandleRxInt
	__end_of_USARTHandleRxInt:
	signat	_USARTHandleRxInt,88
global	___latbits
___latbits	equ	2
	global	btemp
	btemp set 07Eh

	DABS	1,126,2	;btemp
	global	wtemp
	global	wtemp0
	wtemp set btemp
	wtemp0 set btemp
	global	wtemp1
	wtemp1 set btemp+2
	global	wtemp2
	wtemp2 set btemp+4
	global	wtemp3
	wtemp3 set btemp+6
	global	wtemp4
	wtemp4 set btemp+8
	global	wtemp5
	wtemp5 set btemp+10
	global	wtemp6
	wtemp6 set btemp+1
	global	ttemp
	global	ttemp0
	ttemp set btemp
	ttemp0 set btemp
	global	ttemp1
	ttemp1 set btemp+3
	global	ttemp2
	ttemp2 set btemp+6
	global	ttemp3
	ttemp3 set btemp+9
	global	ttemp4
	ttemp4 set btemp+1
	global	ltemp
	global	ltemp0
	ltemp set btemp
	ltemp0 set btemp
	global	ltemp1
	ltemp1 set btemp+4
	global	ltemp2
	ltemp2 set btemp+8
	global	ltemp3
	ltemp3 set btemp+2
	end
