

Microchip Technology PIC LITE Macro Assembler V1.32 build 58300 
                                                                                               Thu Jun 04 13:43:20 2015

Microchip Technology Omniscient Code Generator (Lite mode) build 58300
     1                           	processor	16F628A
     2                           	opt	pw 120
     3                           	opt	lm
     4                           	psect	text0,local,class=CODE,merge=1,delta=2
     5                           	psect	cinit,global,class=CODE,merge=1,delta=2
     6                           	psect	bssCOMMON,global,class=COMMON,space=1,delta=1
     7                           	psect	bssBANK0,global,class=BANK0,space=1,delta=1
     8                           	psect	clrtext,global,class=CODE,delta=2
     9                           	psect	cstackCOMMON,global,class=COMMON,space=1,delta=1
    10                           	psect	cstackBANK0,global,class=BANK0,space=1,delta=1
    11                           	psect	maintext,global,class=CODE,split=1,delta=2
    12                           	psect	text1,local,class=CODE,merge=1,delta=2
    13                           	psect	text2,local,class=CODE,merge=1,delta=2
    14                           	psect	text3,local,class=CODE,merge=1,delta=2
    15                           	psect	text4,local,class=CODE,merge=1,delta=2
    16                           	psect	text5,local,class=CODE,merge=1,delta=2
    17                           	psect	intentry,global,class=CODE,delta=2
    18                           	dabs	1,0x7E,2
    19  0F80                     	;# 
    20  0F81                     	;# 
    21  0F82                     	;# 
    22  0F83                     	;# 
    23  0F84                     	;# 
    24  0F89                     	;# 
    25  0F8A                     	;# 
    26  0F8B                     	;# 
    27  0F8C                     	;# 
    28  0F8D                     	;# 
    29  0F92                     	;# 
    30  0F92                     	;# 
    31  0F93                     	;# 
    32  0F93                     	;# 
    33  0F94                     	;# 
    34  0F94                     	;# 
    35  0F95                     	;# 
    36  0F95                     	;# 
    37  0F96                     	;# 
    38  0F96                     	;# 
    39  0F9D                     	;# 
    40  0F9E                     	;# 
    41  0F9F                     	;# 
    42  0FA0                     	;# 
    43  0FA1                     	;# 
    44  0FA2                     	;# 
    45  0FA6                     	;# 
    46  0FA7                     	;# 
    47  0FA8                     	;# 
    48  0FA9                     	;# 
    49  0FAB                     	;# 
    50  0FAB                     	;# 
    51  0FAC                     	;# 
    52  0FAC                     	;# 
    53  0FAD                     	;# 
    54  0FAD                     	;# 
    55  0FAE                     	;# 
    56  0FAE                     	;# 
    57  0FAF                     	;# 
    58  0FAF                     	;# 
    59  0FB1                     	;# 
    60  0FB2                     	;# 
    61  0FB2                     	;# 
    62  0FB3                     	;# 
    63  0FBA                     	;# 
    64  0FBB                     	;# 
    65  0FBB                     	;# 
    66  0FBC                     	;# 
    67  0FBD                     	;# 
    68  0FBE                     	;# 
    69  0FBE                     	;# 
    70  0FBF                     	;# 
    71  0FC1                     	;# 
    72  0FC2                     	;# 
    73  0FC3                     	;# 
    74  0FC3                     	;# 
    75  0FC4                     	;# 
    76  0FC5                     	;# 
    77  0FC6                     	;# 
    78  0FC7                     	;# 
    79  0FC8                     	;# 
    80  0FC9                     	;# 
    81  0FCA                     	;# 
    82  0FCB                     	;# 
    83  0FCB                     	;# 
    84  0FCC                     	;# 
    85  0FCD                     	;# 
    86  0FCE                     	;# 
    87  0FCE                     	;# 
    88  0FCF                     	;# 
    89  0FD0                     	;# 
    90  0FD1                     	;# 
    91  0FD2                     	;# 
    92  0FD3                     	;# 
    93  0FD5                     	;# 
    94  0FD6                     	;# 
    95  0FD6                     	;# 
    96  0FD7                     	;# 
    97  0FD8                     	;# 
    98  0FD9                     	;# 
    99  0FD9                     	;# 
   100  0FDA                     	;# 
   101  0FDB                     	;# 
   102  0FDC                     	;# 
   103  0FDD                     	;# 
   104  0FDE                     	;# 
   105  0FDF                     	;# 
   106  0FE0                     	;# 
   107  0FE1                     	;# 
   108  0FE1                     	;# 
   109  0FE2                     	;# 
   110  0FE3                     	;# 
   111  0FE4                     	;# 
   112  0FE5                     	;# 
   113  0FE6                     	;# 
   114  0FE7                     	;# 
   115  0FE8                     	;# 
   116  0FE9                     	;# 
   117  0FE9                     	;# 
   118  0FEA                     	;# 
   119  0FEB                     	;# 
   120  0FEC                     	;# 
   121  0FED                     	;# 
   122  0FEE                     	;# 
   123  0FEF                     	;# 
   124  0FF0                     	;# 
   125  0FF1                     	;# 
   126  0FF2                     	;# 
   127  0FF2                     	;# 
   128  0FF3                     	;# 
   129  0FF3                     	;# 
   130  0FF4                     	;# 
   131  0FF5                     	;# 
   132  0FF6                     	;# 
   133  0FF6                     	;# 
   134  0FF7                     	;# 
   135  0FF8                     	;# 
   136  0FF9                     	;# 
   137  0FF9                     	;# 
   138  0FF9                     	;# 
   139  0FFA                     	;# 
   140  0FFB                     	;# 
   141  0FFC                     	;# 
   142  0FFD                     	;# 
   143  0FFD                     	;# 
   144  0FFE                     	;# 
   145  0FFF                     	;# 
   146  0FD6                     _TMR0	set	4054
   147  0FC1                     _ADCON1	set	4033
   148  0FF2                     _INTCON	set	4082
   149  0F81                     _PORTB	set	3969
   150  0F82                     _PORTC	set	3970
   151  0F83                     _PORTD	set	3971
   152  0F84                     _PORTE	set	3972
   153  0FD0                     _RCON	set	4048
   154  0FD5                     _T0CON	set	4053
   155  0F92                     _TRISA	set	3986
   156  0F93                     _TRISB	set	3987
   157  0F94                     _TRISC	set	3988
   158  0F95                     _TRISD	set	3989
   159  0F96                     _TRISE	set	3990
   160  7EC0                     _CARRY	set	32448
   161  7C00                     _RA0	set	31744
   162  7C01                     _RA1	set	31745
   163  7C02                     _RA2	set	31746
   164  7C03                     _RA3	set	31747
   165  7C04                     _RA4	set	31748
   166  7C08                     _RB0	set	31752
   167  7C09                     _RB1	set	31753
   168  7C0A                     _RB2	set	31754
   169  7C0B                     _RB3	set	31755
   170  7C10                     _RC0	set	31760
   171  7C11                     _RC1	set	31761
   172  7C12                     _RC2	set	31762
   173  7C13                     _RC3	set	31763
   174  7C14                     _RC4	set	31764
   175  7C15                     _RC5	set	31765
   176  7C16                     _RC6	set	31766
   177  7C17                     _RC7	set	31767
   178  7C18                     _RD0	set	31768
   179  7C19                     _RD1	set	31769
   180  7C1A                     _RD2	set	31770
   181  7C1B                     _RD3	set	31771
   182  7C1C                     _RD4	set	31772
   183  7C1D                     _RD5	set	31773
   184  7C1E                     _RD6	set	31774
   185  7C1F                     _RD7	set	31775
   186  7F92                     _T0IF	set	32658
   187                           
   188                           	psect	text0
   189  0000                     __ptext0:	
   190                           ; #config settings
   191                           
   192                           
   193                           	psect	cinit
   194  07F5                     start_initialization:	
   195                           ;psect for function _tmr_int
   196                           
   197  07F5                     __initialization:	
   198                           
   199                           ; Clear objects allocated to COMMON
   200  07F5  3075               	movlw	low __pbssCOMMON
   201  07F6  0084               	movwf	4
   202  07F7  3079               	movlw	low (__pbssCOMMON+4)
   203  07F8  269E               	fcall	clear_ram0
   204                           
   205                           ; Clear objects allocated to BANK0
   206  07F9  1383               	bcf	3,7	;select IRP bank0
   207  07FA  303E               	movlw	low __pbssBANK0
   208  07FB  0084               	movwf	4
   209  07FC  304D               	movlw	low (__pbssBANK0+15)
   210  07FD  269E               	fcall	clear_ram0
   211  07FE                     end_of_initialization:	
   212                           ;End of C runtime variable initialization code
   213                           
   214  07FE                     __end_of__initialization:	
   215  07FE  0183               	clrf	3
   216  07FF  2800               	ljmp	_main	;jump to C main() function
   217                           
   218                           	psect	bssCOMMON
   219  0075                     __pbssCOMMON:	
   220  0075                     __on_time:	
   221  0075                     	ds	1
   222  0076                     _adr:	
   223  0076                     	ds	1
   224  0077                     _count:	
   225  0077                     	ds	1
   226  0078                     _on_time:	
   227  0078                     	ds	1
   228                           
   229                           	psect	bssBANK0
   230  003E                     __pbssBANK0:	
   231  003E                     _values:	
   232  003E                     	ds	14
   233  004C                     _hold:	
   234  004C                     	ds	1
   235                           
   236                           	psect	clrtext
   237  069E                     clear_ram0:	
   238                           ;	Called with FSR containing the base address, and
   239                           ;	W with the last address+1
   240                           
   241  069E  0064               	clrwdt	;clear the watchdog before getting into this loop
   242  069F                     clrloop0:	
   243  069F  0180               	clrf	0	;clear RAM location pointed to by FSR
   244  06A0  0A84               	incf	4,f	;increment pointer
   245  06A1  0604               	xorwf	4,w	;XOR with final address
   246  06A2  1903               	btfsc	3,2	;have we reached the end yet?
   247  06A3  3400               	retlw	0	;all done for this memory range, return
   248  06A4  0604               	xorwf	4,w	;XOR again to restore value
   249  06A5  2E9F               	goto	clrloop0	;do the next byte
   250                           
   251                           	psect	cstackCOMMON
   252  0070                     __pcstackCOMMON:	
   253  0070                     ?_main:	
   254  0070                     ?_tmr_int:	
   255                           ; 0 bytes @ 0x0
   256                           
   257  0070                     ??_tmr_int:	
   258                           ; 0 bytes @ 0x0
   259                           
   260                           
   261                           ; 0 bytes @ 0x0
   262  0070                     	ds	5
   263                           
   264                           	psect	cstackBANK0
   265  0020                     __pcstackBANK0:	
   266  0020                     ?___bmul:	
   267  0020                     ?___awdiv:	
   268                           ; 1 bytes @ 0x0
   269                           
   270  0020                     ?___awmod:	
   271                           ; 2 bytes @ 0x0
   272                           
   273  0020                     ?___lwdiv:	
   274                           ; 2 bytes @ 0x0
   275                           
   276  0020                     ___bmul@multiplicand:	
   277                           ; 2 bytes @ 0x0
   278                           
   279  0020                     ___awdiv@divisor:	
   280                           ; 1 bytes @ 0x0
   281                           
   282  0020                     ___awmod@divisor:	
   283                           ; 2 bytes @ 0x0
   284                           
   285  0020                     ___lwdiv@divisor:	
   286                           ; 2 bytes @ 0x0
   287                           
   288                           
   289                           ; 2 bytes @ 0x0
   290  0020                     	ds	1
   291  0021                     ??___bmul:	
   292                           
   293                           ; 0 bytes @ 0x1
   294  0021                     	ds	1
   295  0022                     ___bmul@product:	
   296  0022                     ___awdiv@dividend:	
   297                           ; 1 bytes @ 0x2
   298                           
   299  0022                     ___awmod@dividend:	
   300                           ; 2 bytes @ 0x2
   301                           
   302  0022                     ___lwdiv@dividend:	
   303                           ; 2 bytes @ 0x2
   304                           
   305                           
   306                           ; 2 bytes @ 0x2
   307  0022                     	ds	1
   308  0023                     ___bmul@multiplier:	
   309                           
   310                           ; 1 bytes @ 0x3
   311  0023                     	ds	1
   312  0024                     ??___awdiv:	
   313  0024                     ??___awmod:	
   314                           ; 0 bytes @ 0x4
   315                           
   316  0024                     ??___lwdiv:	
   317                           ; 0 bytes @ 0x4
   318                           
   319                           
   320                           ; 0 bytes @ 0x4
   321  0024                     	ds	1
   322  0025                     ___awdiv@counter:	
   323  0025                     ___awmod@counter:	
   324                           ; 1 bytes @ 0x5
   325                           
   326  0025                     ___lwdiv@counter:	
   327                           ; 1 bytes @ 0x5
   328                           
   329                           
   330                           ; 1 bytes @ 0x5
   331  0025                     	ds	1
   332  0026                     ___awdiv@sign:	
   333  0026                     ___awmod@sign:	
   334                           ; 1 bytes @ 0x6
   335                           
   336  0026                     ___lwdiv@quotient:	
   337                           ; 1 bytes @ 0x6
   338                           
   339                           
   340                           ; 2 bytes @ 0x6
   341  0026                     	ds	1
   342  0027                     ___awdiv@quotient:	
   343                           
   344                           ; 2 bytes @ 0x7
   345  0027                     	ds	2
   346  0029                     ??_main:	
   347                           
   348                           ; 0 bytes @ 0x9
   349  0029                     	ds	3
   350  002C                     main@R2:	
   351                           
   352                           ; 1 bytes @ 0xC
   353  002C                     	ds	1
   354  002D                     main@R1:	
   355                           
   356                           ; 1 bytes @ 0xD
   357  002D                     	ds	1
   358  002E                     main@progno:	
   359                           
   360                           ; 1 bytes @ 0xE
   361  002E                     	ds	1
   362  002F                     main@coagmode:	
   363                           
   364                           ; 1 bytes @ 0xF
   365  002F                     	ds	1
   366  0030                     main@bipomode:	
   367                           
   368                           ; 1 bytes @ 0x10
   369  0030                     	ds	1
   370  0031                     main@coagpower:	
   371                           
   372                           ; 1 bytes @ 0x11
   373  0031                     	ds	1
   374  0032                     main@cutpower:	
   375                           
   376                           ; 2 bytes @ 0x12
   377  0032                     	ds	2
   378  0034                     main@temp:	
   379                           
   380                           ; 1 bytes @ 0x14
   381  0034                     	ds	1
   382  0035                     main@j:	
   383                           
   384                           ; 1 bytes @ 0x15
   385  0035                     	ds	1
   386  0036                     main@cutmode:	
   387                           
   388                           ; 1 bytes @ 0x16
   389  0036                     	ds	1
   390  0037                     main@bipopower:	
   391                           
   392                           ; 1 bytes @ 0x17
   393  0037                     	ds	1
   394  0038                     main@hundreds:	
   395                           
   396                           ; 1 bytes @ 0x18
   397  0038                     	ds	1
   398  0039                     main@units:	
   399                           
   400                           ; 1 bytes @ 0x19
   401  0039                     	ds	1
   402  003A                     main@tens:	
   403                           
   404                           ; 1 bytes @ 0x1A
   405  003A                     	ds	1
   406  003B                     main@cnt:	
   407                           
   408                           ; 1 bytes @ 0x1B
   409  003B                     	ds	1
   410  003C                     main@i:	
   411                           
   412                           ; 1 bytes @ 0x1C
   413  003C                     	ds	1
   414  003D                     main@debounce:	
   415                           
   416                           ; 1 bytes @ 0x1D
   417  003D                     	ds	1
   418                           
   419                           	psect	maintext
   420  0000                     __pmaintext:	
   421 ;;
   422 ;;Main: autosize = 0, tempsize = 3, incstack = 0, save=0
   423 ;;
   424 ;; *************** function _main *****************
   425 ;; Defined at:
   426 ;;		line 13 in file "C:\XC8 PROJECTS\CO2\CO2.c"
   427 ;; Parameters:    Size  Location     Type
   428 ;;		None
   429 ;; Auto vars:     Size  Location     Type
   430 ;;  cutpower        2   18[BANK0 ] unsigned int 
   431 ;;  debounce        1   29[BANK0 ] unsigned char 
   432 ;;  i               1   28[BANK0 ] unsigned char 
   433 ;;  cnt             1   27[BANK0 ] unsigned char 
   434 ;;  tens            1   26[BANK0 ] unsigned char 
   435 ;;  units           1   25[BANK0 ] unsigned char 
   436 ;;  hundreds        1   24[BANK0 ] unsigned char 
   437 ;;  bipopower       1   23[BANK0 ] unsigned char 
   438 ;;  cutmode         1   22[BANK0 ] unsigned char 
   439 ;;  j               1   21[BANK0 ] unsigned char 
   440 ;;  temp            1   20[BANK0 ] unsigned char 
   441 ;;  coagpower       1   17[BANK0 ] unsigned char 
   442 ;;  bipomode        1   16[BANK0 ] unsigned char 
   443 ;;  coagmode        1   15[BANK0 ] unsigned char 
   444 ;;  progno          1   14[BANK0 ] unsigned char 
   445 ;;  R1              1   13[BANK0 ] unsigned char 
   446 ;;  R2              1   12[BANK0 ] unsigned char 
   447 ;; Return value:  Size  Location     Type
   448 ;;		None               void
   449 ;; Registers used:
   450 ;;		wreg, status,2, status,0, pclath, cstack
   451 ;; Tracked objects:
   452 ;;		On entry : 17F/0
   453 ;;		On exit  : 0/0
   454 ;;		Unchanged: 0/0
   455 ;; Data sizes:     COMMON   BANK0   BANK1   BANK2
   456 ;;      Params:         0       0       0       0
   457 ;;      Locals:         0      18       0       0
   458 ;;      Temps:          0       3       0       0
   459 ;;      Totals:         0      21       0       0
   460 ;;Total ram usage:       21 bytes
   461 ;; Hardware stack levels required when called:    2
   462 ;; This function calls:
   463 ;;		___awdiv
   464 ;;		___awmod
   465 ;;		___bmul
   466 ;;		___lwdiv
   467 ;; This function is called by:
   468 ;;		Startup code after reset
   469 ;; This function uses a non-reentrant model
   470 ;;
   471                           
   472                           
   473                           ;psect for function _main
   474  0000                     _main:	
   475                           
   476                           ;CO2.c: 14: unsigned char hundreds = 0,coagpower = 0, i =0,j = 0,R1 = 0x11,R2 = 0,temp =
      +                           0,cnt = 0,bipopower = 0,cutmode = 0,coagmode = 0,bipomode = 0,units = 0,tens = 0,deboun
      +                          ce = 0,progno = 0;
   477                           
   478                           ;incstack = 0
   479                           ; Regs used in _main: [wreg+status,2+status,0+pclath+cstack]
   480  0000  1283               	bcf	3,5	;RP0=0, select bank0
   481  0001  1303               	bcf	3,6	;RP1=0, select bank0
   482  0002  01B8               	clrf	main@hundreds
   483  0003  01B1               	clrf	main@coagpower
   484  0004  01BC               	clrf	main@i
   485  0005  01B5               	clrf	main@j
   486  0006  3011               	movlw	17
   487  0007  00A9               	movwf	??_main
   488  0008  0829               	movf	??_main,w
   489  0009  00AD               	movwf	main@R1
   490  000A  01AC               	clrf	main@R2
   491  000B  01B4               	clrf	main@temp
   492  000C  01BB               	clrf	main@cnt
   493  000D  01B7               	clrf	main@bipopower
   494  000E  01B6               	clrf	main@cutmode
   495  000F  01AF               	clrf	main@coagmode
   496  0010  01B0               	clrf	main@bipomode
   497  0011  01B9               	clrf	main@units
   498  0012  01BA               	clrf	main@tens
   499  0013  01BD               	clrf	main@debounce
   500  0014  01AE               	clrf	main@progno
   501                           
   502                           ;CO2.c: 15: unsigned int cutpower = 0;
   503  0015  01B2               	clrf	main@cutpower
   504  0016  01B3               	clrf	main@cutpower+1
   505                           
   506                           ;CO2.c: 18: TRISA = 0xFF;
   507  0017  30FF               	movlw	255
   508  0018  00A9               	movwf	??_main
   509  0019  0829               	movf	??_main,w
   510  001A  1683               	bsf	3,5	;RP0=1, select bank31
   511  001B  1703               	bsf	3,6	;RP1=1, select bank31
   512  001C  0092               	movwf	18	;volatile
   513                           
   514                           ;CO2.c: 19: TRISE = 0x00;
   515  001D  1683               	bsf	3,5	;RP0=1, select bank31
   516  001E  1703               	bsf	3,6	;RP1=1, select bank31
   517  001F  0196               	clrf	22	;volatile
   518                           
   519                           ;CO2.c: 20: TRISB = 0x00;
   520  0020  1683               	bsf	3,5	;RP0=1, select bank31
   521  0021  1703               	bsf	3,6	;RP1=1, select bank31
   522  0022  0193               	clrf	19	;volatile
   523                           
   524                           ;CO2.c: 21: TRISD = 0x0F;
   525  0023  300F               	movlw	15
   526  0024  1283               	bcf	3,5	;RP0=0, select bank0
   527  0025  1303               	bcf	3,6	;RP1=0, select bank0
   528  0026  00A9               	movwf	??_main
   529  0027  0829               	movf	??_main,w
   530  0028  1683               	bsf	3,5	;RP0=1, select bank31
   531  0029  1703               	bsf	3,6	;RP1=1, select bank31
   532  002A  0095               	movwf	21	;volatile
   533                           
   534                           ;CO2.c: 22: TRISC = 0x7F;
   535  002B  307F               	movlw	127
   536  002C  1283               	bcf	3,5	;RP0=0, select bank0
   537  002D  1303               	bcf	3,6	;RP1=0, select bank0
   538  002E  00A9               	movwf	??_main
   539  002F  0829               	movf	??_main,w
   540  0030  1683               	bsf	3,5	;RP0=1, select bank31
   541  0031  1703               	bsf	3,6	;RP1=1, select bank31
   542  0032  0094               	movwf	20	;volatile
   543                           
   544                           ;CO2.c: 24: ADCON1 = 0x07;
   545  0033  3007               	movlw	7
   546  0034  1283               	bcf	3,5	;RP0=0, select bank0
   547  0035  1303               	bcf	3,6	;RP1=0, select bank0
   548  0036  00A9               	movwf	??_main
   549  0037  0829               	movf	??_main,w
   550  0038  1683               	bsf	3,5	;RP0=1, select bank31
   551  0039  1703               	bsf	3,6	;RP1=1, select bank31
   552  003A  00C1               	movwf	65	;volatile
   553                           
   554                           ;CO2.c: 25: RCON = 0x9F;
   555  003B  309F               	movlw	159
   556  003C  1283               	bcf	3,5	;RP0=0, select bank0
   557  003D  1303               	bcf	3,6	;RP1=0, select bank0
   558  003E  00A9               	movwf	??_main
   559  003F  0829               	movf	??_main,w
   560  0040  1683               	bsf	3,5	;RP0=1, select bank31
   561  0041  1703               	bsf	3,6	;RP1=1, select bank31
   562  0042  00D0               	movwf	80	;volatile
   563                           
   564                           ;CO2.c: 26: INTCON = 0xA0;
   565  0043  30A0               	movlw	160
   566  0044  1283               	bcf	3,5	;RP0=0, select bank0
   567  0045  1303               	bcf	3,6	;RP1=0, select bank0
   568  0046  00A9               	movwf	??_main
   569  0047  0829               	movf	??_main,w
   570  0048  1683               	bsf	3,5	;RP0=1, select bank31
   571  0049  1703               	bsf	3,6	;RP1=1, select bank31
   572  004A  00F2               	movwf	114	;volatile
   573                           
   574                           ;CO2.c: 27: T0CON = 0xC2;
   575  004B  30C2               	movlw	194
   576  004C  1283               	bcf	3,5	;RP0=0, select bank0
   577  004D  1303               	bcf	3,6	;RP1=0, select bank0
   578  004E  00A9               	movwf	??_main
   579  004F  0829               	movf	??_main,w
   580  0050  1683               	bsf	3,5	;RP0=1, select bank31
   581  0051  1703               	bsf	3,6	;RP1=1, select bank31
   582  0052  00D5               	movwf	85	;volatile
   583                           
   584                           ;CO2.c: 28: TMR0 = 0x00;
   585  0053  1683               	bsf	3,5	;RP0=1, select bank31
   586  0054  1703               	bsf	3,6	;RP1=1, select bank31
   587  0055  01D6               	clrf	86	;volatile
   588  0056  1683               	bsf	3,5	;RP0=1, select bank31
   589  0057  1703               	bsf	3,6	;RP1=1, select bank31
   590  0058  01D7               	clrf	87	;volatile
   591                           
   592                           ;CO2.c: 29: cutmode = 0;
   593  0059  1283               	bcf	3,5	;RP0=0, select bank0
   594  005A  1303               	bcf	3,6	;RP1=0, select bank0
   595  005B  01B6               	clrf	main@cutmode
   596                           
   597                           ;CO2.c: 30: coagmode = 0;
   598  005C  01AF               	clrf	main@coagmode
   599                           
   600                           ;CO2.c: 31: bipomode = 0;
   601  005D  01B0               	clrf	main@bipomode
   602                           
   603                           ;CO2.c: 51: RB0 = 0;
   604  005E  1683               	bsf	3,5	;RP0=1, select bank31
   605  005F  1703               	bsf	3,6	;RP1=1, select bank31
   606  0060  1001               	bcf	1,0	;volatile
   607                           
   608                           ;CO2.c: 52: RB1 = 0;
   609  0061  1683               	bsf	3,5	;RP0=1, select bank31
   610  0062  1703               	bsf	3,6	;RP1=1, select bank31
   611  0063  1081               	bcf	1,1	;volatile
   612                           
   613                           ;CO2.c: 55: RB2 = 0;
   614  0064  1683               	bsf	3,5	;RP0=1, select bank31
   615  0065  1703               	bsf	3,6	;RP1=1, select bank31
   616  0066  1101               	bcf	1,2	;volatile
   617                           
   618                           ;CO2.c: 56: RB3 = 0;
   619  0067  1683               	bsf	3,5	;RP0=1, select bank31
   620  0068  1703               	bsf	3,6	;RP1=1, select bank31
   621  0069  1181               	bcf	1,3	;volatile
   622                           
   623                           ;CO2.c: 57: RD4 = 0;
   624  006A  1683               	bsf	3,5	;RP0=1, select bank31
   625  006B  1703               	bsf	3,6	;RP1=1, select bank31
   626  006C  1203               	bcf	3,4	;volatile
   627                           
   628                           ;CO2.c: 58: RC7 = 0;
   629  006D  1683               	bsf	3,5	;RP0=1, select bank31
   630  006E  1703               	bsf	3,6	;RP1=1, select bank31
   631  006F  1382               	bcf	2,7	;volatile
   632                           
   633                           ;CO2.c: 59: RD5 = 1;
   634  0070  1683               	bsf	3,5	;RP0=1, select bank31
   635  0071  1703               	bsf	3,6	;RP1=1, select bank31
   636  0072  1683               	bsf	3,5	;volatile
   637  0073                     l3165:	
   638                           ;CO2.c: 60: while (1)
   639                           
   640                           
   641                           ;CO2.c: 61: {
   642                           ;CO2.c: 64: if(RA1 == 1)
   643  0073  1683               	bsf	3,5	;RP0=1, select bank31
   644  0074  1703               	bsf	3,6	;RP1=1, select bank31
   645  0075  1C80               	btfss	0,1	;volatile
   646  0076  287A               	goto	l100
   647                           
   648                           ;CO2.c: 65: {
   649                           ;CO2.c: 66: RB3 = 0;
   650  0077  1683               	bsf	3,5	;RP0=1, select bank31
   651  0078  1703               	bsf	3,6	;RP1=1, select bank31
   652  0079  1181               	bcf	1,3	;volatile
   653  007A                     l100:	
   654                           
   655                           ;CO2.c: 67: }
   656                           ;CO2.c: 68: if(( RA2 || RA3 )== 1)
   657  007A  1683               	bsf	3,5	;RP0=1, select bank31
   658  007B  1703               	bsf	3,6	;RP1=1, select bank31
   659  007C  1900               	btfsc	0,2	;volatile
   660  007D  2882               	goto	l103
   661  007E  1683               	bsf	3,5	;RP0=1, select bank31
   662  007F  1703               	bsf	3,6	;RP1=1, select bank31
   663  0080  1D80               	btfss	0,3	;volatile
   664  0081  2885               	goto	l101
   665  0082                     l103:	
   666                           
   667                           ;CO2.c: 69: {
   668                           ;CO2.c: 70: RB2 = 0;
   669  0082  1683               	bsf	3,5	;RP0=1, select bank31
   670  0083  1703               	bsf	3,6	;RP1=1, select bank31
   671  0084  1101               	bcf	1,2	;volatile
   672  0085                     l101:	
   673                           
   674                           ;CO2.c: 71: }
   675                           ;CO2.c: 72: RC7 = 0;
   676  0085  1683               	bsf	3,5	;RP0=1, select bank31
   677  0086  1703               	bsf	3,6	;RP1=1, select bank31
   678  0087  1382               	bcf	2,7	;volatile
   679                           
   680                           ;CO2.c: 73: if( RA0 == 0 )
   681  0088  1683               	bsf	3,5	;RP0=1, select bank31
   682  0089  1703               	bsf	3,6	;RP1=1, select bank31
   683  008A  1800               	btfsc	0,0	;volatile
   684  008B  2963               	goto	l104
   685                           
   686                           ;CO2.c: 74: {
   687                           ;CO2.c: 76: if( RA4 == 1 )
   688  008C  1683               	bsf	3,5	;RP0=1, select bank31
   689  008D  1703               	bsf	3,6	;RP1=1, select bank31
   690  008E  1E00               	btfss	0,4	;volatile
   691  008F  289A               	goto	l3177
   692                           
   693                           ;CO2.c: 77: {
   694                           ;CO2.c: 78: RC7 = 1;
   695  0090  1683               	bsf	3,5	;RP0=1, select bank31
   696  0091  1703               	bsf	3,6	;RP1=1, select bank31
   697  0092  1782               	bsf	2,7	;volatile
   698                           
   699                           ;CO2.c: 79: _delay(100);
   700  0093  3021               	movlw	33
   701  0094  1283               	bcf	3,5	;RP0=0, select bank0
   702  0095  1303               	bcf	3,6	;RP1=0, select bank0
   703  0096  00A9               	movwf	??_main
   704  0097                     u6777:	
   705  0097  0BA9               	decfsz	??_main,f
   706  0098  2897               	goto	u6777
   707                           
   708                           ;CO2.c: 80: }
   709  0099  2963               	goto	l104
   710  009A                     l3177:	
   711                           
   712                           ;CO2.c: 81: else
   713                           ;CO2.c: 82: {
   714                           ;CO2.c: 85: cutpower = cutpower >> 1;
   715  009A  1283               	bcf	3,5	;RP0=0, select bank0
   716  009B  1303               	bcf	3,6	;RP1=0, select bank0
   717  009C  0833               	movf	main@cutpower+1,w
   718  009D  00AA               	movwf	??_main+1
   719  009E  0832               	movf	main@cutpower,w
   720  009F  00A9               	movwf	??_main
   721  00A0  1003               	clrc
   722  00A1  0CAA               	rrf	??_main+1,f
   723  00A2  0CA9               	rrf	??_main,f
   724  00A3  0829               	movf	??_main,w
   725  00A4  00B2               	movwf	main@cutpower
   726  00A5  082A               	movf	??_main+1,w
   727  00A6  00B3               	movwf	main@cutpower+1
   728                           
   729                           ;CO2.c: 86: temp = cutpower & 0x00FF;
   730  00A7  0832               	movf	main@cutpower,w
   731  00A8  00A9               	movwf	??_main
   732  00A9  0829               	movf	??_main,w
   733  00AA  00B4               	movwf	main@temp
   734                           
   735                           ;CO2.c: 87: RD5 = 0;
   736  00AB  1683               	bsf	3,5	;RP0=1, select bank31
   737  00AC  1703               	bsf	3,6	;RP1=1, select bank31
   738  00AD  1283               	bcf	3,5	;volatile
   739                           
   740                           ;CO2.c: 88: _delay(25);
   741  00AE  3008               	movlw	8
   742  00AF  1283               	bcf	3,5	;RP0=0, select bank0
   743  00B0  1303               	bcf	3,6	;RP1=0, select bank0
   744  00B1  00A9               	movwf	??_main
   745  00B2                     u6787:	
   746  00B2  0BA9               	decfsz	??_main,f
   747  00B3  28B2               	goto	u6787
   748                           
   749                           ;CO2.c: 89: j = 0;
   750  00B4  1283               	bcf	3,5	;RP0=0, select bank0
   751  00B5  1303               	bcf	3,6	;RP1=0, select bank0
   752  00B6  01B5               	clrf	main@j
   753                           
   754                           ;CO2.c: 90: for( j = 0;j <= 7;j ++ )
   755  00B7  01B5               	clrf	main@j
   756  00B8  3008               	movlw	8
   757  00B9  0235               	subwf	main@j,w
   758  00BA  1803               	btfsc	3,0
   759  00BB  28E3               	goto	l3203
   760  00BC                     l3193:	
   761                           
   762                           ;CO2.c: 91: {
   763                           ;CO2.c: 92: R1 = R1 << 1;
   764  00BC  082D               	movf	main@R1,w
   765  00BD  00A9               	movwf	??_main
   766  00BE  0729               	addwf	??_main,w
   767  00BF  00AA               	movwf	??_main+1
   768  00C0  082A               	movf	??_main+1,w
   769  00C1  00AD               	movwf	main@R1
   770                           
   771                           ;CO2.c: 93: if(CARRY == 1)
   772  00C2  1683               	bsf	3,5	;RP0=1, select bank31
   773  00C3  1703               	bsf	3,6	;RP1=1, select bank31
   774  00C4  1C58               	btfss	88,0	;volatile
   775  00C5  28CA               	goto	l109
   776                           
   777                           ;CO2.c: 94: {
   778                           ;CO2.c: 95: RD7 = 1;
   779  00C6  1683               	bsf	3,5	;RP0=1, select bank31
   780  00C7  1703               	bsf	3,6	;RP1=1, select bank31
   781  00C8  1783               	bsf	3,7	;volatile
   782                           
   783                           ;CO2.c: 96: }
   784  00C9  28CD               	goto	l110
   785  00CA                     l109:	
   786                           
   787                           ;CO2.c: 97: else
   788                           ;CO2.c: 98: {
   789                           ;CO2.c: 99: RD7 = 0;
   790  00CA  1683               	bsf	3,5	;RP0=1, select bank31
   791  00CB  1703               	bsf	3,6	;RP1=1, select bank31
   792  00CC  1383               	bcf	3,7	;volatile
   793  00CD                     l110:	
   794                           
   795                           ;CO2.c: 100: }
   796                           ;CO2.c: 101: RD6 = 1;
   797  00CD  1683               	bsf	3,5	;RP0=1, select bank31
   798  00CE  1703               	bsf	3,6	;RP1=1, select bank31
   799  00CF  1703               	bsf	3,6	;volatile
   800                           
   801                           ;CO2.c: 102: _delay(5);
   802  00D0  28D1               	nop2	;2 cycle nop
   803  00D1  28D2               	nop2	;2 cycle nop
   804  00D2  0000               	nop
   805                           
   806                           ;CO2.c: 103: RD6 = 0;
   807  00D3  1683               	bsf	3,5	;RP0=1, select bank31
   808  00D4  1703               	bsf	3,6	;RP1=1, select bank31
   809  00D5  1303               	bcf	3,6	;volatile
   810                           
   811                           ;CO2.c: 104: RD7 = 0;
   812  00D6  1683               	bsf	3,5	;RP0=1, select bank31
   813  00D7  1703               	bsf	3,6	;RP1=1, select bank31
   814  00D8  1383               	bcf	3,7	;volatile
   815  00D9  3001               	movlw	1
   816  00DA  1283               	bcf	3,5	;RP0=0, select bank0
   817  00DB  1303               	bcf	3,6	;RP1=0, select bank0
   818  00DC  00A9               	movwf	??_main
   819  00DD  0829               	movf	??_main,w
   820  00DE  07B5               	addwf	main@j,f
   821  00DF  3008               	movlw	8
   822  00E0  0235               	subwf	main@j,w
   823  00E1  1C03               	skipc
   824  00E2  28BC               	goto	l3193
   825  00E3                     l3203:	
   826                           
   827                           ;CO2.c: 105: }
   828                           ;CO2.c: 106: i = 0;
   829  00E3  01BC               	clrf	main@i
   830                           
   831                           ;CO2.c: 107: for(i = 0;i <= 7;i ++ )
   832  00E4  01BC               	clrf	main@i
   833  00E5  3008               	movlw	8
   834  00E6  023C               	subwf	main@i,w
   835  00E7  1803               	btfsc	3,0
   836  00E8  2910               	goto	l112
   837  00E9                     l3209:	
   838                           
   839                           ;CO2.c: 108: {
   840                           ;CO2.c: 109: temp = temp << 1;
   841  00E9  0834               	movf	main@temp,w
   842  00EA  00A9               	movwf	??_main
   843  00EB  0729               	addwf	??_main,w
   844  00EC  00AA               	movwf	??_main+1
   845  00ED  082A               	movf	??_main+1,w
   846  00EE  00B4               	movwf	main@temp
   847                           
   848                           ;CO2.c: 110: if(CARRY == 1)
   849  00EF  1683               	bsf	3,5	;RP0=1, select bank31
   850  00F0  1703               	bsf	3,6	;RP1=1, select bank31
   851  00F1  1C58               	btfss	88,0	;volatile
   852  00F2  28F7               	goto	l113
   853                           
   854                           ;CO2.c: 111: {
   855                           ;CO2.c: 112: RD7 = 1;
   856  00F3  1683               	bsf	3,5	;RP0=1, select bank31
   857  00F4  1703               	bsf	3,6	;RP1=1, select bank31
   858  00F5  1783               	bsf	3,7	;volatile
   859                           
   860                           ;CO2.c: 113: }
   861  00F6  28FA               	goto	l114
   862  00F7                     l113:	
   863                           
   864                           ;CO2.c: 114: else
   865                           ;CO2.c: 115: {
   866                           ;CO2.c: 116: RD7 = 0;
   867  00F7  1683               	bsf	3,5	;RP0=1, select bank31
   868  00F8  1703               	bsf	3,6	;RP1=1, select bank31
   869  00F9  1383               	bcf	3,7	;volatile
   870  00FA                     l114:	
   871                           
   872                           ;CO2.c: 117: }
   873                           ;CO2.c: 118: RD6 = 1;
   874  00FA  1683               	bsf	3,5	;RP0=1, select bank31
   875  00FB  1703               	bsf	3,6	;RP1=1, select bank31
   876  00FC  1703               	bsf	3,6	;volatile
   877                           
   878                           ;CO2.c: 119: _delay(5);
   879  00FD  28FE               	nop2	;2 cycle nop
   880  00FE  28FF               	nop2	;2 cycle nop
   881  00FF  0000               	nop
   882                           
   883                           ;CO2.c: 120: RD6 = 0;
   884  0100  1683               	bsf	3,5	;RP0=1, select bank31
   885  0101  1703               	bsf	3,6	;RP1=1, select bank31
   886  0102  1303               	bcf	3,6	;volatile
   887                           
   888                           ;CO2.c: 121: RD7 = 0;
   889  0103  1683               	bsf	3,5	;RP0=1, select bank31
   890  0104  1703               	bsf	3,6	;RP1=1, select bank31
   891  0105  1383               	bcf	3,7	;volatile
   892  0106  3001               	movlw	1
   893  0107  1283               	bcf	3,5	;RP0=0, select bank0
   894  0108  1303               	bcf	3,6	;RP1=0, select bank0
   895  0109  00A9               	movwf	??_main
   896  010A  0829               	movf	??_main,w
   897  010B  07BC               	addwf	main@i,f
   898  010C  3008               	movlw	8
   899  010D  023C               	subwf	main@i,w
   900  010E  1C03               	skipc
   901  010F  28E9               	goto	l3209
   902  0110                     l112:	
   903                           
   904                           ;CO2.c: 122: }
   905                           ;CO2.c: 124: RD5 = 1;
   906  0110  1683               	bsf	3,5	;RP0=1, select bank31
   907  0111  1703               	bsf	3,6	;RP1=1, select bank31
   908  0112  1683               	bsf	3,5	;volatile
   909                           
   910                           ;CO2.c: 125: R1 = 0x11;
   911  0113  3011               	movlw	17
   912  0114  1283               	bcf	3,5	;RP0=0, select bank0
   913  0115  1303               	bcf	3,6	;RP1=0, select bank0
   914  0116  00A9               	movwf	??_main
   915  0117  0829               	movf	??_main,w
   916  0118  00AD               	movwf	main@R1
   917                           
   918                           ;CO2.c: 127: if(cutmode == 0) if((cutmode == 0) && (hold <= 0))
   919  0119  08B6               	movf	main@cutmode,f
   920  011A  1D03               	skipz
   921  011B  2948               	goto	l3241
   922  011C  08B6               	movf	main@cutmode,f
   923  011D  1D03               	skipz
   924  011E  2948               	goto	l3241
   925  011F  084C               	movf	_hold,w	;volatile
   926  0120  3A80               	xorlw	128
   927  0121  3E7F               	addlw	-129
   928  0122  1803               	skipnc
   929  0123  2948               	goto	l3241
   930  0124  2943               	goto	L1
   931  0125                     l3233:	
   932                           ;CO2.c: 131: {
   933                           ;CO2.c: 132: while( i < 10 )
   934                           
   935                           ;CO2.c: 130: while(RA0 == 0)
   936                           
   937                           ;CO2.c: 128: {
   938                           ;CO2.c: 129: i = 0;
   939                           
   940  0125  300A               	movlw	10
   941  0126  1283               	bcf	3,5	;RP0=0, select bank0
   942  0127  1303               	bcf	3,6	;RP1=0, select bank0
   943  0128  023C               	subwf	main@i,w
   944  0129  1803               	btfsc	3,0
   945  012A  293C               	goto	l3235
   946                           
   947                           ;CO2.c: 133: {
   948                           ;CO2.c: 134: RD4 = 1;
   949  012B  1683               	bsf	3,5	;RP0=1, select bank31
   950  012C  1703               	bsf	3,6	;RP1=1, select bank31
   951  012D  1603               	bsf	3,4	;volatile
   952                           
   953                           ;CO2.c: 135: _delay(6);
   954  012E  292F               	nop2	;2 cycle nop
   955  012F  2930               	nop2	;2 cycle nop
   956  0130  2931               	nop2	;2 cycle nop
   957                           
   958                           ;CO2.c: 136: i = i + 1;
   959  0131  1283               	bcf	3,5	;RP0=0, select bank0
   960  0132  1303               	bcf	3,6	;RP1=0, select bank0
   961  0133  083C               	movf	main@i,w
   962  0134  3E01               	addlw	1
   963  0135  00A9               	movwf	??_main
   964  0136  0829               	movf	??_main,w
   965  0137  00BC               	movwf	main@i
   966                           
   967                           ;CO2.c: 137: RD4 = 0;
   968  0138  1683               	bsf	3,5	;RP0=1, select bank31
   969  0139  1703               	bsf	3,6	;RP1=1, select bank31
   970  013A  1203               	bcf	3,4	;volatile
   971  013B  2925               	goto	l3233
   972  013C                     l3235:	
   973                           
   974                           ;CO2.c: 138: }
   975                           ;CO2.c: 139: _delay(80);
   976  013C  301A               	movlw	26
   977  013D  00A9               	movwf	??_main
   978  013E                     u6797:	
   979  013E  0BA9               	decfsz	??_main,f
   980  013F  293E               	goto	u6797
   981  0140  0000               	nop
   982                           
   983                           ;CO2.c: 140: i = 0;
   984  0141  1283               	bcf	3,5	;RP0=0, select bank0
   985  0142  1303               	bcf	3,6	;RP1=0, select bank0
   986  0143                     L1:	
   987  0143  01BC               	clrf	main@i
   988  0144  1683               	bsf	3,5	;RP0=1, select bank31
   989  0145  1703               	bsf	3,6	;RP1=1, select bank31
   990  0146  1C00               	btfss	0,0	;volatile
   991  0147  2925               	goto	l3233
   992  0148                     l3241:	
   993                           
   994                           ;CO2.c: 141: }
   995                           ;CO2.c: 143: }
   996                           ;CO2.c: 144: if( cutmode == 1 )
   997  0148  1283               	bcf	3,5	;RP0=0, select bank0
   998  0149  1303               	bcf	3,6	;RP1=0, select bank0
   999  014A  0836               	movf	main@cutmode,w
  1000  014B  3A01               	xorlw	1
  1001  014C  1D03               	skipz
  1002  014D  2951               	goto	l3245
  1003                           
  1004                           ;CO2.c: 145: {
  1005                           ;CO2.c: 148: _delay(5);
  1006  014E  294F               	nop2	;2 cycle nop
  1007  014F  2950               	nop2	;2 cycle nop
  1008  0150  0000               	nop
  1009  0151                     l3245:	
  1010                           
  1011                           ;CO2.c: 150: }
  1012                           ;CO2.c: 151: if( cutmode == 2 )
  1013  0151  1283               	bcf	3,5	;RP0=0, select bank0
  1014  0152  1303               	bcf	3,6	;RP1=0, select bank0
  1015  0153  0836               	movf	main@cutmode,w
  1016  0154  3A02               	xorlw	2
  1017  0155  1D03               	skipz
  1018  0156  295A               	goto	l3249
  1019                           
  1020                           ;CO2.c: 152: {
  1021                           ;CO2.c: 156: _delay(5);
  1022  0157  2958               	nop2	;2 cycle nop
  1023  0158  2959               	nop2	;2 cycle nop
  1024  0159  0000               	nop
  1025  015A                     l3249:	
  1026                           
  1027                           ;CO2.c: 157: }
  1028                           ;CO2.c: 158: if( cutmode == 3 )
  1029  015A  1283               	bcf	3,5	;RP0=0, select bank0
  1030  015B  1303               	bcf	3,6	;RP1=0, select bank0
  1031  015C  0836               	movf	main@cutmode,w
  1032  015D  3A03               	xorlw	3
  1033  015E  1D03               	skipz
  1034  015F  2963               	goto	l104
  1035                           
  1036                           ;CO2.c: 159: {
  1037                           ;CO2.c: 162: _delay(5);
  1038  0160  2961               	nop2	;2 cycle nop
  1039  0161  2962               	nop2	;2 cycle nop
  1040  0162  0000               	nop
  1041  0163                     l104:	
  1042                           
  1043                           ;CO2.c: 163: }
  1044                           ;CO2.c: 164: }
  1045                           ;CO2.c: 165: }
  1046                           ;CO2.c: 166: if(RA1 == 0)
  1047  0163  1683               	bsf	3,5	;RP0=1, select bank31
  1048  0164  1703               	bsf	3,6	;RP1=1, select bank31
  1049  0165  1880               	btfsc	0,1	;volatile
  1050  0166  2A63               	goto	l126
  1051                           
  1052                           ;CO2.c: 167: {
  1053                           ;CO2.c: 168: if(RA4 == 1)
  1054  0167  1683               	bsf	3,5	;RP0=1, select bank31
  1055  0168  1703               	bsf	3,6	;RP1=1, select bank31
  1056  0169  1E00               	btfss	0,4	;volatile
  1057  016A  296F               	goto	l127
  1058                           
  1059                           ;CO2.c: 169: {
  1060                           ;CO2.c: 171: RC7 = 1;
  1061  016B  1683               	bsf	3,5	;RP0=1, select bank31
  1062  016C  1703               	bsf	3,6	;RP1=1, select bank31
  1063  016D  1782               	bsf	2,7	;volatile
  1064                           
  1065                           ;CO2.c: 172: }
  1066  016E  2A63               	goto	l126
  1067  016F                     l127:	
  1068                           
  1069                           ;CO2.c: 173: else
  1070                           ;CO2.c: 174: {
  1071                           ;CO2.c: 175: RB3 = 1;
  1072  016F  1683               	bsf	3,5	;RP0=1, select bank31
  1073  0170  1703               	bsf	3,6	;RP1=1, select bank31
  1074  0171  1581               	bsf	1,3	;volatile
  1075                           
  1076                           ;CO2.c: 176: _delay(25);
  1077  0172  3008               	movlw	8
  1078  0173  1283               	bcf	3,5	;RP0=0, select bank0
  1079  0174  1303               	bcf	3,6	;RP1=0, select bank0
  1080  0175  00A9               	movwf	??_main
  1081  0176                     u6807:	
  1082  0176  0BA9               	decfsz	??_main,f
  1083  0177  2976               	goto	u6807
  1084                           
  1085                           ;CO2.c: 179: RD5 = 0;
  1086  0178  1683               	bsf	3,5	;RP0=1, select bank31
  1087  0179  1703               	bsf	3,6	;RP1=1, select bank31
  1088  017A  1283               	bcf	3,5	;volatile
  1089                           
  1090                           ;CO2.c: 180: _delay(25);
  1091  017B  3008               	movlw	8
  1092  017C  1283               	bcf	3,5	;RP0=0, select bank0
  1093  017D  1303               	bcf	3,6	;RP1=0, select bank0
  1094  017E  00A9               	movwf	??_main
  1095  017F                     u6817:	
  1096  017F  0BA9               	decfsz	??_main,f
  1097  0180  297F               	goto	u6817
  1098                           
  1099                           ;CO2.c: 181: j = 0;
  1100  0181  1283               	bcf	3,5	;RP0=0, select bank0
  1101  0182  1303               	bcf	3,6	;RP1=0, select bank0
  1102  0183  01B5               	clrf	main@j
  1103                           
  1104                           ;CO2.c: 182: for( j = 0;j <= 7;j ++ )
  1105  0184  01B5               	clrf	main@j
  1106  0185  3008               	movlw	8
  1107  0186  0235               	subwf	main@j,w
  1108  0187  1803               	btfsc	3,0
  1109  0188  29B0               	goto	l3277
  1110  0189                     l3267:	
  1111                           
  1112                           ;CO2.c: 183: {
  1113                           ;CO2.c: 184: R1 = R1 << 1;
  1114  0189  082D               	movf	main@R1,w
  1115  018A  00A9               	movwf	??_main
  1116  018B  0729               	addwf	??_main,w
  1117  018C  00AA               	movwf	??_main+1
  1118  018D  082A               	movf	??_main+1,w
  1119  018E  00AD               	movwf	main@R1
  1120                           
  1121                           ;CO2.c: 185: if(CARRY == 1)
  1122  018F  1683               	bsf	3,5	;RP0=1, select bank31
  1123  0190  1703               	bsf	3,6	;RP1=1, select bank31
  1124  0191  1C58               	btfss	88,0	;volatile
  1125  0192  2997               	goto	l131
  1126                           
  1127                           ;CO2.c: 186: {
  1128                           ;CO2.c: 187: RD7 = 1;
  1129  0193  1683               	bsf	3,5	;RP0=1, select bank31
  1130  0194  1703               	bsf	3,6	;RP1=1, select bank31
  1131  0195  1783               	bsf	3,7	;volatile
  1132                           
  1133                           ;CO2.c: 188: }
  1134  0196  299A               	goto	l132
  1135  0197                     l131:	
  1136                           
  1137                           ;CO2.c: 189: else
  1138                           ;CO2.c: 190: {
  1139                           ;CO2.c: 191: RD7 = 0;
  1140  0197  1683               	bsf	3,5	;RP0=1, select bank31
  1141  0198  1703               	bsf	3,6	;RP1=1, select bank31
  1142  0199  1383               	bcf	3,7	;volatile
  1143  019A                     l132:	
  1144                           
  1145                           ;CO2.c: 192: }
  1146                           ;CO2.c: 193: RD6 = 1;
  1147  019A  1683               	bsf	3,5	;RP0=1, select bank31
  1148  019B  1703               	bsf	3,6	;RP1=1, select bank31
  1149  019C  1703               	bsf	3,6	;volatile
  1150                           
  1151                           ;CO2.c: 194: _delay(5);
  1152  019D  299E               	nop2	;2 cycle nop
  1153  019E  299F               	nop2	;2 cycle nop
  1154  019F  0000               	nop
  1155                           
  1156                           ;CO2.c: 195: RD6 = 0;
  1157  01A0  1683               	bsf	3,5	;RP0=1, select bank31
  1158  01A1  1703               	bsf	3,6	;RP1=1, select bank31
  1159  01A2  1303               	bcf	3,6	;volatile
  1160                           
  1161                           ;CO2.c: 196: RD7 = 0;
  1162  01A3  1683               	bsf	3,5	;RP0=1, select bank31
  1163  01A4  1703               	bsf	3,6	;RP1=1, select bank31
  1164  01A5  1383               	bcf	3,7	;volatile
  1165  01A6  3001               	movlw	1
  1166  01A7  1283               	bcf	3,5	;RP0=0, select bank0
  1167  01A8  1303               	bcf	3,6	;RP1=0, select bank0
  1168  01A9  00A9               	movwf	??_main
  1169  01AA  0829               	movf	??_main,w
  1170  01AB  07B5               	addwf	main@j,f
  1171  01AC  3008               	movlw	8
  1172  01AD  0235               	subwf	main@j,w
  1173  01AE  1C03               	skipc
  1174  01AF  2989               	goto	l3267
  1175  01B0                     l3277:	
  1176                           
  1177                           ;CO2.c: 197: }
  1178                           ;CO2.c: 198: i = 0;
  1179  01B0  01BC               	clrf	main@i
  1180                           
  1181                           ;CO2.c: 199: coagpower = 0xAA;
  1182  01B1  30AA               	movlw	170
  1183  01B2  00A9               	movwf	??_main
  1184  01B3  0829               	movf	??_main,w
  1185  01B4  00B1               	movwf	main@coagpower
  1186                           
  1187                           ;CO2.c: 200: for(i = 0;i <= 7;i ++ )
  1188  01B5  01BC               	clrf	main@i
  1189  01B6  3008               	movlw	8
  1190  01B7  023C               	subwf	main@i,w
  1191  01B8  1803               	btfsc	3,0
  1192  01B9  29E1               	goto	l134
  1193  01BA                     l3285:	
  1194                           
  1195                           ;CO2.c: 201: {
  1196                           ;CO2.c: 202: coagpower = coagpower << 1;
  1197  01BA  0831               	movf	main@coagpower,w
  1198  01BB  00A9               	movwf	??_main
  1199  01BC  0729               	addwf	??_main,w
  1200  01BD  00AA               	movwf	??_main+1
  1201  01BE  082A               	movf	??_main+1,w
  1202  01BF  00B1               	movwf	main@coagpower
  1203                           
  1204                           ;CO2.c: 203: if(CARRY == 1)
  1205  01C0  1683               	bsf	3,5	;RP0=1, select bank31
  1206  01C1  1703               	bsf	3,6	;RP1=1, select bank31
  1207  01C2  1C58               	btfss	88,0	;volatile
  1208  01C3  29C8               	goto	l135
  1209                           
  1210                           ;CO2.c: 204: {
  1211                           ;CO2.c: 205: RD7 = 1;
  1212  01C4  1683               	bsf	3,5	;RP0=1, select bank31
  1213  01C5  1703               	bsf	3,6	;RP1=1, select bank31
  1214  01C6  1783               	bsf	3,7	;volatile
  1215                           
  1216                           ;CO2.c: 206: }
  1217  01C7  29CB               	goto	l136
  1218  01C8                     l135:	
  1219                           
  1220                           ;CO2.c: 207: else
  1221                           ;CO2.c: 208: {
  1222                           ;CO2.c: 209: RD7 = 0;
  1223  01C8  1683               	bsf	3,5	;RP0=1, select bank31
  1224  01C9  1703               	bsf	3,6	;RP1=1, select bank31
  1225  01CA  1383               	bcf	3,7	;volatile
  1226  01CB                     l136:	
  1227                           
  1228                           ;CO2.c: 210: }
  1229                           ;CO2.c: 211: RD6 = 1;
  1230  01CB  1683               	bsf	3,5	;RP0=1, select bank31
  1231  01CC  1703               	bsf	3,6	;RP1=1, select bank31
  1232  01CD  1703               	bsf	3,6	;volatile
  1233                           
  1234                           ;CO2.c: 212: _delay(5);
  1235  01CE  29CF               	nop2	;2 cycle nop
  1236  01CF  29D0               	nop2	;2 cycle nop
  1237  01D0  0000               	nop
  1238                           
  1239                           ;CO2.c: 213: RD6 = 0;
  1240  01D1  1683               	bsf	3,5	;RP0=1, select bank31
  1241  01D2  1703               	bsf	3,6	;RP1=1, select bank31
  1242  01D3  1303               	bcf	3,6	;volatile
  1243                           
  1244                           ;CO2.c: 214: RD7 = 0;
  1245  01D4  1683               	bsf	3,5	;RP0=1, select bank31
  1246  01D5  1703               	bsf	3,6	;RP1=1, select bank31
  1247  01D6  1383               	bcf	3,7	;volatile
  1248  01D7  3001               	movlw	1
  1249  01D8  1283               	bcf	3,5	;RP0=0, select bank0
  1250  01D9  1303               	bcf	3,6	;RP1=0, select bank0
  1251  01DA  00A9               	movwf	??_main
  1252  01DB  0829               	movf	??_main,w
  1253  01DC  07BC               	addwf	main@i,f
  1254  01DD  3008               	movlw	8
  1255  01DE  023C               	subwf	main@i,w
  1256  01DF  1C03               	skipc
  1257  01E0  29BA               	goto	l3285
  1258  01E1                     l134:	
  1259                           
  1260                           ;CO2.c: 215: }
  1261                           ;CO2.c: 217: RD5 = 1;
  1262  01E1  1683               	bsf	3,5	;RP0=1, select bank31
  1263  01E2  1703               	bsf	3,6	;RP1=1, select bank31
  1264  01E3  1683               	bsf	3,5	;volatile
  1265                           
  1266                           ;CO2.c: 218: R1 = 0x11;
  1267  01E4  3011               	movlw	17
  1268  01E5  1283               	bcf	3,5	;RP0=0, select bank0
  1269  01E6  1303               	bcf	3,6	;RP1=0, select bank0
  1270  01E7  00A9               	movwf	??_main
  1271  01E8  0829               	movf	??_main,w
  1272  01E9  00AD               	movwf	main@R1
  1273                           
  1274                           ;CO2.c: 219: if(coagmode == 0)
  1275  01EA  08AF               	movf	main@coagmode,f
  1276  01EB  1D03               	skipz
  1277  01EC  2A10               	goto	l3313
  1278  01ED  2A0B               	goto	L2
  1279  01EE                     l3305:	
  1280                           ;CO2.c: 223: {
  1281                           ;CO2.c: 224: while( i < 1 )
  1282                           
  1283                           ;CO2.c: 222: while(RA1 == 0)
  1284                           
  1285                           ;CO2.c: 220: {
  1286                           ;CO2.c: 221: i = 0;
  1287                           
  1288  01EE  1283               	bcf	3,5	;RP0=0, select bank0
  1289  01EF  1303               	bcf	3,6	;RP1=0, select bank0
  1290  01F0  083C               	movf	main@i,w
  1291  01F1  1D03               	skipz
  1292  01F2  2A04               	goto	l3307
  1293                           
  1294                           ;CO2.c: 225: {
  1295                           ;CO2.c: 226: RD4 = 1;
  1296  01F3  1683               	bsf	3,5	;RP0=1, select bank31
  1297  01F4  1703               	bsf	3,6	;RP1=1, select bank31
  1298  01F5  1603               	bsf	3,4	;volatile
  1299                           
  1300                           ;CO2.c: 227: _delay(6);
  1301  01F6  29F7               	nop2	;2 cycle nop
  1302  01F7  29F8               	nop2	;2 cycle nop
  1303  01F8  29F9               	nop2	;2 cycle nop
  1304                           
  1305                           ;CO2.c: 228: i = i + 1;
  1306  01F9  1283               	bcf	3,5	;RP0=0, select bank0
  1307  01FA  1303               	bcf	3,6	;RP1=0, select bank0
  1308  01FB  083C               	movf	main@i,w
  1309  01FC  3E01               	addlw	1
  1310  01FD  00A9               	movwf	??_main
  1311  01FE  0829               	movf	??_main,w
  1312  01FF  00BC               	movwf	main@i
  1313                           
  1314                           ;CO2.c: 229: RD4 = 0;
  1315  0200  1683               	bsf	3,5	;RP0=1, select bank31
  1316  0201  1703               	bsf	3,6	;RP1=1, select bank31
  1317  0202  1203               	bcf	3,4	;volatile
  1318  0203  29EE               	goto	l3305
  1319  0204                     l3307:	
  1320                           
  1321                           ;CO2.c: 230: }
  1322                           ;CO2.c: 231: _delay(80);
  1323  0204  301A               	movlw	26
  1324  0205  00A9               	movwf	??_main
  1325  0206                     u6827:	
  1326  0206  0BA9               	decfsz	??_main,f
  1327  0207  2A06               	goto	u6827
  1328  0208  0000               	nop
  1329                           
  1330                           ;CO2.c: 232: i = 0;
  1331  0209  1283               	bcf	3,5	;RP0=0, select bank0
  1332  020A  1303               	bcf	3,6	;RP1=0, select bank0
  1333  020B                     L2:	
  1334  020B  01BC               	clrf	main@i
  1335  020C  1683               	bsf	3,5	;RP0=1, select bank31
  1336  020D  1703               	bsf	3,6	;RP1=1, select bank31
  1337  020E  1C80               	btfss	0,1	;volatile
  1338  020F  29EE               	goto	l3305
  1339  0210                     l3313:	
  1340                           
  1341                           ;CO2.c: 233: }
  1342                           ;CO2.c: 235: }
  1343                           ;CO2.c: 236: if( coagmode == 1 )
  1344  0210  1283               	bcf	3,5	;RP0=0, select bank0
  1345  0211  1303               	bcf	3,6	;RP1=0, select bank0
  1346  0212  082F               	movf	main@coagmode,w
  1347  0213  3A01               	xorlw	1
  1348  0214  1D03               	skipz
  1349  0215  2A3A               	goto	l3329
  1350  0216  2A35               	goto	L3
  1351  0217                     l3321:	
  1352                           ;CO2.c: 240: {
  1353                           ;CO2.c: 241: while(i < 3 )
  1354                           
  1355                           ;CO2.c: 239: while(RA1 == 0)
  1356                           
  1357                           ;CO2.c: 237: {
  1358                           ;CO2.c: 238: i = 0;
  1359                           
  1360  0217  3003               	movlw	3
  1361  0218  1283               	bcf	3,5	;RP0=0, select bank0
  1362  0219  1303               	bcf	3,6	;RP1=0, select bank0
  1363  021A  023C               	subwf	main@i,w
  1364  021B  1803               	btfsc	3,0
  1365  021C  2A2E               	goto	l3323
  1366                           
  1367                           ;CO2.c: 242: {
  1368                           ;CO2.c: 243: RD4 = 1;
  1369  021D  1683               	bsf	3,5	;RP0=1, select bank31
  1370  021E  1703               	bsf	3,6	;RP1=1, select bank31
  1371  021F  1603               	bsf	3,4	;volatile
  1372                           
  1373                           ;CO2.c: 244: _delay(6);
  1374  0220  2A21               	nop2	;2 cycle nop
  1375  0221  2A22               	nop2	;2 cycle nop
  1376  0222  2A23               	nop2	;2 cycle nop
  1377                           
  1378                           ;CO2.c: 245: i = i + 1;
  1379  0223  1283               	bcf	3,5	;RP0=0, select bank0
  1380  0224  1303               	bcf	3,6	;RP1=0, select bank0
  1381  0225  083C               	movf	main@i,w
  1382  0226  3E01               	addlw	1
  1383  0227  00A9               	movwf	??_main
  1384  0228  0829               	movf	??_main,w
  1385  0229  00BC               	movwf	main@i
  1386                           
  1387                           ;CO2.c: 246: RD4 = 0;
  1388  022A  1683               	bsf	3,5	;RP0=1, select bank31
  1389  022B  1703               	bsf	3,6	;RP1=1, select bank31
  1390  022C  1203               	bcf	3,4	;volatile
  1391  022D  2A17               	goto	l3321
  1392  022E                     l3323:	
  1393                           
  1394                           ;CO2.c: 247: }
  1395                           ;CO2.c: 248: _delay(50);
  1396  022E  3010               	movlw	16
  1397  022F  00A9               	movwf	??_main
  1398  0230                     u6837:	
  1399  0230  0BA9               	decfsz	??_main,f
  1400  0231  2A30               	goto	u6837
  1401  0232  0000               	nop
  1402                           
  1403                           ;CO2.c: 249: i = 0;
  1404  0233  1283               	bcf	3,5	;RP0=0, select bank0
  1405  0234  1303               	bcf	3,6	;RP1=0, select bank0
  1406  0235                     L3:	
  1407  0235  01BC               	clrf	main@i
  1408  0236  1683               	bsf	3,5	;RP0=1, select bank31
  1409  0237  1703               	bsf	3,6	;RP1=1, select bank31
  1410  0238  1C80               	btfss	0,1	;volatile
  1411  0239  2A17               	goto	l3321
  1412  023A                     l3329:	
  1413                           
  1414                           ;CO2.c: 250: }
  1415                           ;CO2.c: 252: }
  1416                           ;CO2.c: 253: if( coagmode == 2 )
  1417  023A  1283               	bcf	3,5	;RP0=0, select bank0
  1418  023B  1303               	bcf	3,6	;RP1=0, select bank0
  1419  023C  082F               	movf	main@coagmode,w
  1420  023D  3A02               	xorlw	2
  1421  023E  1D03               	skipz
  1422  023F  2A63               	goto	l126
  1423  0240  2A5E               	goto	L4
  1424  0241                     l3337:	
  1425                           ;CO2.c: 257: {
  1426                           ;CO2.c: 258: while(i < 4)
  1427                           
  1428                           ;CO2.c: 256: while(RA1 == 0)
  1429                           
  1430                           ;CO2.c: 254: {
  1431                           ;CO2.c: 255: i = 0;
  1432                           
  1433  0241  3004               	movlw	4
  1434  0242  1283               	bcf	3,5	;RP0=0, select bank0
  1435  0243  1303               	bcf	3,6	;RP1=0, select bank0
  1436  0244  023C               	subwf	main@i,w
  1437  0245  1803               	btfsc	3,0
  1438  0246  2A58               	goto	l3339
  1439                           
  1440                           ;CO2.c: 259: {
  1441                           ;CO2.c: 260: RD4 = 1;
  1442  0247  1683               	bsf	3,5	;RP0=1, select bank31
  1443  0248  1703               	bsf	3,6	;RP1=1, select bank31
  1444  0249  1603               	bsf	3,4	;volatile
  1445                           
  1446                           ;CO2.c: 261: _delay(6);
  1447  024A  2A4B               	nop2	;2 cycle nop
  1448  024B  2A4C               	nop2	;2 cycle nop
  1449  024C  2A4D               	nop2	;2 cycle nop
  1450                           
  1451                           ;CO2.c: 262: i = i + 1;
  1452  024D  1283               	bcf	3,5	;RP0=0, select bank0
  1453  024E  1303               	bcf	3,6	;RP1=0, select bank0
  1454  024F  083C               	movf	main@i,w
  1455  0250  3E01               	addlw	1
  1456  0251  00A9               	movwf	??_main
  1457  0252  0829               	movf	??_main,w
  1458  0253  00BC               	movwf	main@i
  1459                           
  1460                           ;CO2.c: 263: RD4 = 0;
  1461  0254  1683               	bsf	3,5	;RP0=1, select bank31
  1462  0255  1703               	bsf	3,6	;RP1=1, select bank31
  1463  0256  1203               	bcf	3,4	;volatile
  1464  0257  2A41               	goto	l3337
  1465  0258                     l3339:	
  1466                           
  1467                           ;CO2.c: 264: }
  1468                           ;CO2.c: 265: _delay(40);
  1469  0258  300D               	movlw	13
  1470  0259  00A9               	movwf	??_main
  1471  025A                     u6847:	
  1472  025A  0BA9               	decfsz	??_main,f
  1473  025B  2A5A               	goto	u6847
  1474                           
  1475                           ;CO2.c: 266: i = 0;
  1476  025C  1283               	bcf	3,5	;RP0=0, select bank0
  1477  025D  1303               	bcf	3,6	;RP1=0, select bank0
  1478  025E                     L4:	
  1479  025E  01BC               	clrf	main@i
  1480  025F  1683               	bsf	3,5	;RP0=1, select bank31
  1481  0260  1703               	bsf	3,6	;RP1=1, select bank31
  1482  0261  1C80               	btfss	0,1	;volatile
  1483  0262  2A41               	goto	l3337
  1484  0263                     l126:	
  1485                           
  1486                           ;CO2.c: 267: }
  1487                           ;CO2.c: 269: }
  1488                           ;CO2.c: 270: }
  1489                           ;CO2.c: 271: }
  1490                           ;CO2.c: 272: if(RA2 == 0)
  1491  0263  1683               	bsf	3,5	;RP0=1, select bank31
  1492  0264  1703               	bsf	3,6	;RP1=1, select bank31
  1493  0265  1900               	btfsc	0,2	;volatile
  1494  0266  2B3E               	goto	l158
  1495                           
  1496                           ;CO2.c: 273: {
  1497                           ;CO2.c: 274: if(bipomode == 2)
  1498  0267  1283               	bcf	3,5	;RP0=0, select bank0
  1499  0268  1303               	bcf	3,6	;RP1=0, select bank0
  1500  0269  0830               	movf	main@bipomode,w
  1501  026A  3A02               	xorlw	2
  1502  026B  1D03               	skipz
  1503  026C  2A6F               	goto	l159
  1504                           
  1505                           ;CO2.c: 275: {
  1506                           ;CO2.c: 276: bipomode = 0;
  1507  026D  01B0               	clrf	main@bipomode
  1508                           
  1509                           ;CO2.c: 277: }
  1510  026E  2B3E               	goto	l158
  1511  026F                     l159:	
  1512                           
  1513                           ;CO2.c: 278: else
  1514                           ;CO2.c: 279: {
  1515                           ;CO2.c: 280: RB2 = 1;;
  1516  026F  1683               	bsf	3,5	;RP0=1, select bank31
  1517  0270  1703               	bsf	3,6	;RP1=1, select bank31
  1518  0271  1501               	bsf	1,2	;volatile
  1519                           
  1520                           ;CO2.c: 281: _delay(25);
  1521  0272  3008               	movlw	8
  1522  0273  1283               	bcf	3,5	;RP0=0, select bank0
  1523  0274  1303               	bcf	3,6	;RP1=0, select bank0
  1524  0275  00A9               	movwf	??_main
  1525  0276                     u6857:	
  1526  0276  0BA9               	decfsz	??_main,f
  1527  0277  2A76               	goto	u6857
  1528                           
  1529                           ;CO2.c: 282: RD5 = 0;
  1530  0278  1683               	bsf	3,5	;RP0=1, select bank31
  1531  0279  1703               	bsf	3,6	;RP1=1, select bank31
  1532  027A  1283               	bcf	3,5	;volatile
  1533                           
  1534                           ;CO2.c: 283: _delay(25);
  1535  027B  3008               	movlw	8
  1536  027C  1283               	bcf	3,5	;RP0=0, select bank0
  1537  027D  1303               	bcf	3,6	;RP1=0, select bank0
  1538  027E  00A9               	movwf	??_main
  1539  027F                     u6867:	
  1540  027F  0BA9               	decfsz	??_main,f
  1541  0280  2A7F               	goto	u6867
  1542                           
  1543                           ;CO2.c: 285: bipopower = 0x63;
  1544  0281  3063               	movlw	99
  1545  0282  1283               	bcf	3,5	;RP0=0, select bank0
  1546  0283  1303               	bcf	3,6	;RP1=0, select bank0
  1547  0284  00A9               	movwf	??_main
  1548  0285  0829               	movf	??_main,w
  1549  0286  00B7               	movwf	main@bipopower
  1550                           
  1551                           ;CO2.c: 287: j = 0;
  1552  0287  01B5               	clrf	main@j
  1553                           
  1554                           ;CO2.c: 288: for( j = 0;j <= 7;j ++ )
  1555  0288  01B5               	clrf	main@j
  1556  0289  3008               	movlw	8
  1557  028A  0235               	subwf	main@j,w
  1558  028B  1803               	btfsc	3,0
  1559  028C  2AB4               	goto	l3369
  1560  028D                     l3359:	
  1561                           
  1562                           ;CO2.c: 289: {
  1563                           ;CO2.c: 290: R1 = R1 << 1;
  1564  028D  082D               	movf	main@R1,w
  1565  028E  00A9               	movwf	??_main
  1566  028F  0729               	addwf	??_main,w
  1567  0290  00AA               	movwf	??_main+1
  1568  0291  082A               	movf	??_main+1,w
  1569  0292  00AD               	movwf	main@R1
  1570                           
  1571                           ;CO2.c: 291: if(CARRY == 1)
  1572  0293  1683               	bsf	3,5	;RP0=1, select bank31
  1573  0294  1703               	bsf	3,6	;RP1=1, select bank31
  1574  0295  1C58               	btfss	88,0	;volatile
  1575  0296  2A9B               	goto	l163
  1576                           
  1577                           ;CO2.c: 292: {
  1578                           ;CO2.c: 293: RD7 = 1;
  1579  0297  1683               	bsf	3,5	;RP0=1, select bank31
  1580  0298  1703               	bsf	3,6	;RP1=1, select bank31
  1581  0299  1783               	bsf	3,7	;volatile
  1582                           
  1583                           ;CO2.c: 294: }
  1584  029A  2A9E               	goto	l164
  1585  029B                     l163:	
  1586                           
  1587                           ;CO2.c: 295: else
  1588                           ;CO2.c: 296: {
  1589                           ;CO2.c: 297: RD7 = 0;
  1590  029B  1683               	bsf	3,5	;RP0=1, select bank31
  1591  029C  1703               	bsf	3,6	;RP1=1, select bank31
  1592  029D  1383               	bcf	3,7	;volatile
  1593  029E                     l164:	
  1594                           
  1595                           ;CO2.c: 298: }
  1596                           ;CO2.c: 299: RD6 = 1;
  1597  029E  1683               	bsf	3,5	;RP0=1, select bank31
  1598  029F  1703               	bsf	3,6	;RP1=1, select bank31
  1599  02A0  1703               	bsf	3,6	;volatile
  1600                           
  1601                           ;CO2.c: 300: _delay(5);
  1602  02A1  2AA2               	nop2	;2 cycle nop
  1603  02A2  2AA3               	nop2	;2 cycle nop
  1604  02A3  0000               	nop
  1605                           
  1606                           ;CO2.c: 301: RD6 = 0;
  1607  02A4  1683               	bsf	3,5	;RP0=1, select bank31
  1608  02A5  1703               	bsf	3,6	;RP1=1, select bank31
  1609  02A6  1303               	bcf	3,6	;volatile
  1610                           
  1611                           ;CO2.c: 302: RD7 = 0;
  1612  02A7  1683               	bsf	3,5	;RP0=1, select bank31
  1613  02A8  1703               	bsf	3,6	;RP1=1, select bank31
  1614  02A9  1383               	bcf	3,7	;volatile
  1615  02AA  3001               	movlw	1
  1616  02AB  1283               	bcf	3,5	;RP0=0, select bank0
  1617  02AC  1303               	bcf	3,6	;RP1=0, select bank0
  1618  02AD  00A9               	movwf	??_main
  1619  02AE  0829               	movf	??_main,w
  1620  02AF  07B5               	addwf	main@j,f
  1621  02B0  3008               	movlw	8
  1622  02B1  0235               	subwf	main@j,w
  1623  02B2  1C03               	skipc
  1624  02B3  2A8D               	goto	l3359
  1625  02B4                     l3369:	
  1626                           
  1627                           ;CO2.c: 303: }
  1628                           ;CO2.c: 304: i = 0;
  1629  02B4  01BC               	clrf	main@i
  1630                           
  1631                           ;CO2.c: 305: bipopower = 0xAA;
  1632  02B5  30AA               	movlw	170
  1633  02B6  00A9               	movwf	??_main
  1634  02B7  0829               	movf	??_main,w
  1635  02B8  00B7               	movwf	main@bipopower
  1636                           
  1637                           ;CO2.c: 306: for(i = 0;i <= 7;i ++ )
  1638  02B9  01BC               	clrf	main@i
  1639  02BA  3008               	movlw	8
  1640  02BB  023C               	subwf	main@i,w
  1641  02BC  1803               	btfsc	3,0
  1642  02BD  2AE5               	goto	l166
  1643  02BE                     l3377:	
  1644                           
  1645                           ;CO2.c: 307: {
  1646                           ;CO2.c: 308: bipopower = bipopower << 1;
  1647  02BE  0837               	movf	main@bipopower,w
  1648  02BF  00A9               	movwf	??_main
  1649  02C0  0729               	addwf	??_main,w
  1650  02C1  00AA               	movwf	??_main+1
  1651  02C2  082A               	movf	??_main+1,w
  1652  02C3  00B7               	movwf	main@bipopower
  1653                           
  1654                           ;CO2.c: 309: if(CARRY == 1)
  1655  02C4  1683               	bsf	3,5	;RP0=1, select bank31
  1656  02C5  1703               	bsf	3,6	;RP1=1, select bank31
  1657  02C6  1C58               	btfss	88,0	;volatile
  1658  02C7  2ACC               	goto	l167
  1659                           
  1660                           ;CO2.c: 310: {
  1661                           ;CO2.c: 311: RD7 = 1;
  1662  02C8  1683               	bsf	3,5	;RP0=1, select bank31
  1663  02C9  1703               	bsf	3,6	;RP1=1, select bank31
  1664  02CA  1783               	bsf	3,7	;volatile
  1665                           
  1666                           ;CO2.c: 312: }
  1667  02CB  2ACF               	goto	l168
  1668  02CC                     l167:	
  1669                           
  1670                           ;CO2.c: 313: else
  1671                           ;CO2.c: 314: {
  1672                           ;CO2.c: 315: RD7 = 0;
  1673  02CC  1683               	bsf	3,5	;RP0=1, select bank31
  1674  02CD  1703               	bsf	3,6	;RP1=1, select bank31
  1675  02CE  1383               	bcf	3,7	;volatile
  1676  02CF                     l168:	
  1677                           
  1678                           ;CO2.c: 316: }
  1679                           ;CO2.c: 317: RD6 = 1;
  1680  02CF  1683               	bsf	3,5	;RP0=1, select bank31
  1681  02D0  1703               	bsf	3,6	;RP1=1, select bank31
  1682  02D1  1703               	bsf	3,6	;volatile
  1683                           
  1684                           ;CO2.c: 318: _delay(5);
  1685  02D2  2AD3               	nop2	;2 cycle nop
  1686  02D3  2AD4               	nop2	;2 cycle nop
  1687  02D4  0000               	nop
  1688                           
  1689                           ;CO2.c: 319: RD6 = 0;
  1690  02D5  1683               	bsf	3,5	;RP0=1, select bank31
  1691  02D6  1703               	bsf	3,6	;RP1=1, select bank31
  1692  02D7  1303               	bcf	3,6	;volatile
  1693                           
  1694                           ;CO2.c: 320: RD7 = 0;
  1695  02D8  1683               	bsf	3,5	;RP0=1, select bank31
  1696  02D9  1703               	bsf	3,6	;RP1=1, select bank31
  1697  02DA  1383               	bcf	3,7	;volatile
  1698  02DB  3001               	movlw	1
  1699  02DC  1283               	bcf	3,5	;RP0=0, select bank0
  1700  02DD  1303               	bcf	3,6	;RP1=0, select bank0
  1701  02DE  00A9               	movwf	??_main
  1702  02DF  0829               	movf	??_main,w
  1703  02E0  07BC               	addwf	main@i,f
  1704  02E1  3008               	movlw	8
  1705  02E2  023C               	subwf	main@i,w
  1706  02E3  1C03               	skipc
  1707  02E4  2ABE               	goto	l3377
  1708  02E5                     l166:	
  1709                           
  1710                           ;CO2.c: 321: }
  1711                           ;CO2.c: 322: RD5 = 1;
  1712  02E5  1683               	bsf	3,5	;RP0=1, select bank31
  1713  02E6  1703               	bsf	3,6	;RP1=1, select bank31
  1714  02E7  1683               	bsf	3,5	;volatile
  1715                           
  1716                           ;CO2.c: 323: R1 = 0x11;
  1717  02E8  3011               	movlw	17
  1718  02E9  1283               	bcf	3,5	;RP0=0, select bank0
  1719  02EA  1303               	bcf	3,6	;RP1=0, select bank0
  1720  02EB  00A9               	movwf	??_main
  1721  02EC  0829               	movf	??_main,w
  1722  02ED  00AD               	movwf	main@R1
  1723                           
  1724                           ;CO2.c: 325: if(bipomode == 0)
  1725  02EE  08B0               	movf	main@bipomode,f
  1726  02EF  1D03               	skipz
  1727  02F0  2B14               	goto	l3405
  1728  02F1  2B0F               	goto	L5
  1729  02F2                     l3397:	
  1730                           ;CO2.c: 329: {
  1731                           ;CO2.c: 330: while( i < 1 )
  1732                           
  1733                           ;CO2.c: 328: while(RA2 == 0)
  1734                           
  1735                           ;CO2.c: 326: {
  1736                           ;CO2.c: 327: i = 0;
  1737                           
  1738  02F2  1283               	bcf	3,5	;RP0=0, select bank0
  1739  02F3  1303               	bcf	3,6	;RP1=0, select bank0
  1740  02F4  083C               	movf	main@i,w
  1741  02F5  1D03               	skipz
  1742  02F6  2B08               	goto	l3399
  1743                           
  1744                           ;CO2.c: 331: {
  1745                           ;CO2.c: 332: RD4 = 1;
  1746  02F7  1683               	bsf	3,5	;RP0=1, select bank31
  1747  02F8  1703               	bsf	3,6	;RP1=1, select bank31
  1748  02F9  1603               	bsf	3,4	;volatile
  1749                           
  1750                           ;CO2.c: 333: _delay(6);
  1751  02FA  2AFB               	nop2	;2 cycle nop
  1752  02FB  2AFC               	nop2	;2 cycle nop
  1753  02FC  2AFD               	nop2	;2 cycle nop
  1754                           
  1755                           ;CO2.c: 334: i = i + 1;
  1756  02FD  1283               	bcf	3,5	;RP0=0, select bank0
  1757  02FE  1303               	bcf	3,6	;RP1=0, select bank0
  1758  02FF  083C               	movf	main@i,w
  1759  0300  3E01               	addlw	1
  1760  0301  00A9               	movwf	??_main
  1761  0302  0829               	movf	??_main,w
  1762  0303  00BC               	movwf	main@i
  1763                           
  1764                           ;CO2.c: 335: RD4 = 0;
  1765  0304  1683               	bsf	3,5	;RP0=1, select bank31
  1766  0305  1703               	bsf	3,6	;RP1=1, select bank31
  1767  0306  1203               	bcf	3,4	;volatile
  1768  0307  2AF2               	goto	l3397
  1769  0308                     l3399:	
  1770                           
  1771                           ;CO2.c: 336: }
  1772                           ;CO2.c: 337: _delay(80);
  1773  0308  301A               	movlw	26
  1774  0309  00A9               	movwf	??_main
  1775  030A                     u6877:	
  1776  030A  0BA9               	decfsz	??_main,f
  1777  030B  2B0A               	goto	u6877
  1778  030C  0000               	nop
  1779                           
  1780                           ;CO2.c: 338: i = 0;
  1781  030D  1283               	bcf	3,5	;RP0=0, select bank0
  1782  030E  1303               	bcf	3,6	;RP1=0, select bank0
  1783  030F                     L5:	
  1784  030F  01BC               	clrf	main@i
  1785  0310  1683               	bsf	3,5	;RP0=1, select bank31
  1786  0311  1703               	bsf	3,6	;RP1=1, select bank31
  1787  0312  1D00               	btfss	0,2	;volatile
  1788  0313  2AF2               	goto	l3397
  1789  0314                     l3405:	
  1790                           
  1791                           ;CO2.c: 339: }
  1792                           ;CO2.c: 341: }
  1793                           ;CO2.c: 342: if( bipomode == 1 )
  1794  0314  1283               	bcf	3,5	;RP0=0, select bank0
  1795  0315  1303               	bcf	3,6	;RP1=0, select bank0
  1796  0316  0830               	movf	main@bipomode,w
  1797  0317  3A01               	xorlw	1
  1798  0318  1D03               	skipz
  1799  0319  2B3E               	goto	l158
  1800  031A  2B39               	goto	L6
  1801  031B                     l3413:	
  1802                           ;CO2.c: 346: {
  1803                           ;CO2.c: 347: while(i < 3 )
  1804                           
  1805                           ;CO2.c: 345: while(RA2 == 0)
  1806                           
  1807                           ;CO2.c: 343: {
  1808                           ;CO2.c: 344: i = 0;
  1809                           
  1810  031B  3003               	movlw	3
  1811  031C  1283               	bcf	3,5	;RP0=0, select bank0
  1812  031D  1303               	bcf	3,6	;RP1=0, select bank0
  1813  031E  023C               	subwf	main@i,w
  1814  031F  1803               	btfsc	3,0
  1815  0320  2B32               	goto	l3415
  1816                           
  1817                           ;CO2.c: 348: {
  1818                           ;CO2.c: 349: RD4 = 1;
  1819  0321  1683               	bsf	3,5	;RP0=1, select bank31
  1820  0322  1703               	bsf	3,6	;RP1=1, select bank31
  1821  0323  1603               	bsf	3,4	;volatile
  1822                           
  1823                           ;CO2.c: 350: _delay(6);
  1824  0324  2B25               	nop2	;2 cycle nop
  1825  0325  2B26               	nop2	;2 cycle nop
  1826  0326  2B27               	nop2	;2 cycle nop
  1827                           
  1828                           ;CO2.c: 351: i = i + 1;
  1829  0327  1283               	bcf	3,5	;RP0=0, select bank0
  1830  0328  1303               	bcf	3,6	;RP1=0, select bank0
  1831  0329  083C               	movf	main@i,w
  1832  032A  3E01               	addlw	1
  1833  032B  00A9               	movwf	??_main
  1834  032C  0829               	movf	??_main,w
  1835  032D  00BC               	movwf	main@i
  1836                           
  1837                           ;CO2.c: 352: RD4 = 0;
  1838  032E  1683               	bsf	3,5	;RP0=1, select bank31
  1839  032F  1703               	bsf	3,6	;RP1=1, select bank31
  1840  0330  1203               	bcf	3,4	;volatile
  1841  0331  2B1B               	goto	l3413
  1842  0332                     l3415:	
  1843                           
  1844                           ;CO2.c: 353: }
  1845                           ;CO2.c: 354: _delay(50);
  1846  0332  3010               	movlw	16
  1847  0333  00A9               	movwf	??_main
  1848  0334                     u6887:	
  1849  0334  0BA9               	decfsz	??_main,f
  1850  0335  2B34               	goto	u6887
  1851  0336  0000               	nop
  1852                           
  1853                           ;CO2.c: 355: i = 0;
  1854  0337  1283               	bcf	3,5	;RP0=0, select bank0
  1855  0338  1303               	bcf	3,6	;RP1=0, select bank0
  1856  0339                     L6:	
  1857  0339  01BC               	clrf	main@i
  1858  033A  1683               	bsf	3,5	;RP0=1, select bank31
  1859  033B  1703               	bsf	3,6	;RP1=1, select bank31
  1860  033C  1D00               	btfss	0,2	;volatile
  1861  033D  2B1B               	goto	l3413
  1862  033E                     l158:	
  1863                           
  1864                           ;CO2.c: 356: }
  1865                           ;CO2.c: 357: }
  1866                           ;CO2.c: 358: }
  1867                           ;CO2.c: 360: }
  1868                           ;CO2.c: 361: if(RA3 == 0)
  1869  033E  1683               	bsf	3,5	;RP0=1, select bank31
  1870  033F  1703               	bsf	3,6	;RP1=1, select bank31
  1871  0340  1980               	btfsc	0,3	;volatile
  1872  0341  2BF0               	goto	l3477
  1873                           
  1874                           ;CO2.c: 362: {
  1875                           ;CO2.c: 363: bipomode = 2;
  1876  0342  3002               	movlw	2
  1877  0343  1283               	bcf	3,5	;RP0=0, select bank0
  1878  0344  1303               	bcf	3,6	;RP1=0, select bank0
  1879  0345  00A9               	movwf	??_main
  1880  0346  0829               	movf	??_main,w
  1881  0347  00B0               	movwf	main@bipomode
  1882                           
  1883                           ;CO2.c: 365: RB2 = 1;;
  1884  0348  1683               	bsf	3,5	;RP0=1, select bank31
  1885  0349  1703               	bsf	3,6	;RP1=1, select bank31
  1886  034A  1501               	bsf	1,2	;volatile
  1887                           
  1888                           ;CO2.c: 366: _delay(25);
  1889  034B  3008               	movlw	8
  1890  034C  1283               	bcf	3,5	;RP0=0, select bank0
  1891  034D  1303               	bcf	3,6	;RP1=0, select bank0
  1892  034E  00A9               	movwf	??_main
  1893  034F                     u6897:	
  1894  034F  0BA9               	decfsz	??_main,f
  1895  0350  2B4F               	goto	u6897
  1896                           
  1897                           ;CO2.c: 367: bipopower = 0x63;
  1898  0351  3063               	movlw	99
  1899  0352  1283               	bcf	3,5	;RP0=0, select bank0
  1900  0353  1303               	bcf	3,6	;RP1=0, select bank0
  1901  0354  00A9               	movwf	??_main
  1902  0355  0829               	movf	??_main,w
  1903  0356  00B7               	movwf	main@bipopower
  1904                           
  1905                           ;CO2.c: 368: RD5 = 0;
  1906  0357  1683               	bsf	3,5	;RP0=1, select bank31
  1907  0358  1703               	bsf	3,6	;RP1=1, select bank31
  1908  0359  1283               	bcf	3,5	;volatile
  1909                           
  1910                           ;CO2.c: 369: _delay(25);
  1911  035A  3008               	movlw	8
  1912  035B  1283               	bcf	3,5	;RP0=0, select bank0
  1913  035C  1303               	bcf	3,6	;RP1=0, select bank0
  1914  035D  00A9               	movwf	??_main
  1915  035E                     u6907:	
  1916  035E  0BA9               	decfsz	??_main,f
  1917  035F  2B5E               	goto	u6907
  1918                           
  1919                           ;CO2.c: 371: j = 0;
  1920  0360  1283               	bcf	3,5	;RP0=0, select bank0
  1921  0361  1303               	bcf	3,6	;RP1=0, select bank0
  1922  0362  01B5               	clrf	main@j
  1923                           
  1924                           ;CO2.c: 372: for( j = 0;j <= 7;j ++ )
  1925  0363  01B5               	clrf	main@j
  1926  0364  3008               	movlw	8
  1927  0365  0235               	subwf	main@j,w
  1928  0366  1803               	btfsc	3,0
  1929  0367  2B8C               	goto	l3443
  1930  0368                     l3433:	
  1931                           
  1932                           ;CO2.c: 373: {
  1933                           ;CO2.c: 374: R1 = R1 << 1;
  1934  0368  082D               	movf	main@R1,w
  1935  0369  00A9               	movwf	??_main
  1936  036A  0729               	addwf	??_main,w
  1937  036B  00AA               	movwf	??_main+1
  1938  036C  082A               	movf	??_main+1,w
  1939  036D  00AD               	movwf	main@R1
  1940                           
  1941                           ;CO2.c: 375: if(CARRY == 1)
  1942  036E  1683               	bsf	3,5	;RP0=1, select bank31
  1943  036F  1703               	bsf	3,6	;RP1=1, select bank31
  1944  0370  1C58               	btfss	88,0	;volatile
  1945  0371  2B76               	goto	l186
  1946                           
  1947                           ;CO2.c: 376: {
  1948                           ;CO2.c: 377: RD7 = 1;
  1949  0372  1683               	bsf	3,5	;RP0=1, select bank31
  1950  0373  1703               	bsf	3,6	;RP1=1, select bank31
  1951  0374  1783               	bsf	3,7	;volatile
  1952                           
  1953                           ;CO2.c: 378: }
  1954  0375  2B79               	goto	l187
  1955  0376                     l186:	
  1956                           
  1957                           ;CO2.c: 379: else
  1958                           ;CO2.c: 380: {
  1959                           ;CO2.c: 381: RD7 = 0;
  1960  0376  1683               	bsf	3,5	;RP0=1, select bank31
  1961  0377  1703               	bsf	3,6	;RP1=1, select bank31
  1962  0378  1383               	bcf	3,7	;volatile
  1963  0379                     l187:	
  1964                           
  1965                           ;CO2.c: 382: }
  1966                           ;CO2.c: 383: RD6 = 1;
  1967  0379  1683               	bsf	3,5	;RP0=1, select bank31
  1968  037A  1703               	bsf	3,6	;RP1=1, select bank31
  1969  037B  1703               	bsf	3,6	;volatile
  1970                           
  1971                           ;CO2.c: 384: _delay(5);
  1972  037C  2B7D               	nop2	;2 cycle nop
  1973  037D  2B7E               	nop2	;2 cycle nop
  1974  037E  0000               	nop
  1975                           
  1976                           ;CO2.c: 385: RD6 = 0;
  1977  037F  1683               	bsf	3,5	;RP0=1, select bank31
  1978  0380  1703               	bsf	3,6	;RP1=1, select bank31
  1979  0381  1303               	bcf	3,6	;volatile
  1980  0382  3001               	movlw	1
  1981  0383  1283               	bcf	3,5	;RP0=0, select bank0
  1982  0384  1303               	bcf	3,6	;RP1=0, select bank0
  1983  0385  00A9               	movwf	??_main
  1984  0386  0829               	movf	??_main,w
  1985  0387  07B5               	addwf	main@j,f
  1986  0388  3008               	movlw	8
  1987  0389  0235               	subwf	main@j,w
  1988  038A  1C03               	skipc
  1989  038B  2B68               	goto	l3433
  1990  038C                     l3443:	
  1991                           
  1992                           ;CO2.c: 387: }
  1993                           ;CO2.c: 388: i = 0;
  1994  038C  01BC               	clrf	main@i
  1995                           
  1996                           ;CO2.c: 389: bipopower = 0xAA;
  1997  038D  30AA               	movlw	170
  1998  038E  00A9               	movwf	??_main
  1999  038F  0829               	movf	??_main,w
  2000  0390  00B7               	movwf	main@bipopower
  2001                           
  2002                           ;CO2.c: 390: for(i = 0;i <= 7;i ++ )
  2003  0391  01BC               	clrf	main@i
  2004  0392  3008               	movlw	8
  2005  0393  023C               	subwf	main@i,w
  2006  0394  1803               	btfsc	3,0
  2007  0395  2BBA               	goto	l189
  2008  0396                     l3451:	
  2009                           
  2010                           ;CO2.c: 391: {
  2011                           ;CO2.c: 392: bipopower = bipopower << 1;
  2012  0396  0837               	movf	main@bipopower,w
  2013  0397  00A9               	movwf	??_main
  2014  0398  0729               	addwf	??_main,w
  2015  0399  00AA               	movwf	??_main+1
  2016  039A  082A               	movf	??_main+1,w
  2017  039B  00B7               	movwf	main@bipopower
  2018                           
  2019                           ;CO2.c: 393: if(CARRY == 1)
  2020  039C  1683               	bsf	3,5	;RP0=1, select bank31
  2021  039D  1703               	bsf	3,6	;RP1=1, select bank31
  2022  039E  1C58               	btfss	88,0	;volatile
  2023  039F  2BA4               	goto	l190
  2024                           
  2025                           ;CO2.c: 394: {
  2026                           ;CO2.c: 395: RD7 = 1;
  2027  03A0  1683               	bsf	3,5	;RP0=1, select bank31
  2028  03A1  1703               	bsf	3,6	;RP1=1, select bank31
  2029  03A2  1783               	bsf	3,7	;volatile
  2030                           
  2031                           ;CO2.c: 396: }
  2032  03A3  2BA7               	goto	l191
  2033  03A4                     l190:	
  2034                           
  2035                           ;CO2.c: 397: else
  2036                           ;CO2.c: 398: {
  2037                           ;CO2.c: 399: RD7 = 0;
  2038  03A4  1683               	bsf	3,5	;RP0=1, select bank31
  2039  03A5  1703               	bsf	3,6	;RP1=1, select bank31
  2040  03A6  1383               	bcf	3,7	;volatile
  2041  03A7                     l191:	
  2042                           
  2043                           ;CO2.c: 400: }
  2044                           ;CO2.c: 401: RD6 = 1;
  2045  03A7  1683               	bsf	3,5	;RP0=1, select bank31
  2046  03A8  1703               	bsf	3,6	;RP1=1, select bank31
  2047  03A9  1703               	bsf	3,6	;volatile
  2048                           
  2049                           ;CO2.c: 402: _delay(5);
  2050  03AA  2BAB               	nop2	;2 cycle nop
  2051  03AB  2BAC               	nop2	;2 cycle nop
  2052  03AC  0000               	nop
  2053                           
  2054                           ;CO2.c: 403: RD6 = 0;
  2055  03AD  1683               	bsf	3,5	;RP0=1, select bank31
  2056  03AE  1703               	bsf	3,6	;RP1=1, select bank31
  2057  03AF  1303               	bcf	3,6	;volatile
  2058  03B0  3001               	movlw	1
  2059  03B1  1283               	bcf	3,5	;RP0=0, select bank0
  2060  03B2  1303               	bcf	3,6	;RP1=0, select bank0
  2061  03B3  00A9               	movwf	??_main
  2062  03B4  0829               	movf	??_main,w
  2063  03B5  07BC               	addwf	main@i,f
  2064  03B6  3008               	movlw	8
  2065  03B7  023C               	subwf	main@i,w
  2066  03B8  1C03               	skipc
  2067  03B9  2B96               	goto	l3451
  2068  03BA                     l189:	
  2069                           
  2070                           ;CO2.c: 405: }
  2071                           ;CO2.c: 406: RD5 = 1;
  2072  03BA  1683               	bsf	3,5	;RP0=1, select bank31
  2073  03BB  1703               	bsf	3,6	;RP1=1, select bank31
  2074  03BC  1683               	bsf	3,5	;volatile
  2075                           
  2076                           ;CO2.c: 407: RB2 = 0;
  2077  03BD  1683               	bsf	3,5	;RP0=1, select bank31
  2078  03BE  1703               	bsf	3,6	;RP1=1, select bank31
  2079  03BF  1101               	bcf	1,2	;volatile
  2080                           
  2081                           ;CO2.c: 408: _delay(25);
  2082  03C0  3008               	movlw	8
  2083  03C1  1283               	bcf	3,5	;RP0=0, select bank0
  2084  03C2  1303               	bcf	3,6	;RP1=0, select bank0
  2085  03C3  00A9               	movwf	??_main
  2086  03C4                     u6917:	
  2087  03C4  0BA9               	decfsz	??_main,f
  2088  03C5  2BC4               	goto	u6917
  2089                           
  2090                           ;CO2.c: 409: R1 = 0X11;
  2091  03C6  3011               	movlw	17
  2092  03C7  1283               	bcf	3,5	;RP0=0, select bank0
  2093  03C8  1303               	bcf	3,6	;RP1=0, select bank0
  2094  03C9  00A9               	movwf	??_main
  2095  03CA  0829               	movf	??_main,w
  2096  03CB  00AD               	movwf	main@R1
  2097  03CC  2BEB               	goto	L7
  2098  03CD                     l3469:	
  2099                           ;CO2.c: 412: {
  2100                           ;CO2.c: 413: while(i < 3 )
  2101                           
  2102                           ;CO2.c: 411: while(RA3 == 0)
  2103                           
  2104                           ;CO2.c: 410: i = 0;
  2105                           
  2106  03CD  3003               	movlw	3
  2107  03CE  1283               	bcf	3,5	;RP0=0, select bank0
  2108  03CF  1303               	bcf	3,6	;RP1=0, select bank0
  2109  03D0  023C               	subwf	main@i,w
  2110  03D1  1803               	btfsc	3,0
  2111  03D2  2BE4               	goto	l3471
  2112                           
  2113                           ;CO2.c: 414: {
  2114                           ;CO2.c: 415: RD4 = 1;
  2115  03D3  1683               	bsf	3,5	;RP0=1, select bank31
  2116  03D4  1703               	bsf	3,6	;RP1=1, select bank31
  2117  03D5  1603               	bsf	3,4	;volatile
  2118                           
  2119                           ;CO2.c: 416: _delay(6);
  2120  03D6  2BD7               	nop2	;2 cycle nop
  2121  03D7  2BD8               	nop2	;2 cycle nop
  2122  03D8  2BD9               	nop2	;2 cycle nop
  2123                           
  2124                           ;CO2.c: 417: i = i + 1;
  2125  03D9  1283               	bcf	3,5	;RP0=0, select bank0
  2126  03DA  1303               	bcf	3,6	;RP1=0, select bank0
  2127  03DB  083C               	movf	main@i,w
  2128  03DC  3E01               	addlw	1
  2129  03DD  00A9               	movwf	??_main
  2130  03DE  0829               	movf	??_main,w
  2131  03DF  00BC               	movwf	main@i
  2132                           
  2133                           ;CO2.c: 418: RD4 = 0;
  2134  03E0  1683               	bsf	3,5	;RP0=1, select bank31
  2135  03E1  1703               	bsf	3,6	;RP1=1, select bank31
  2136  03E2  1203               	bcf	3,4	;volatile
  2137  03E3  2BCD               	goto	l3469
  2138  03E4                     l3471:	
  2139                           
  2140                           ;CO2.c: 419: }
  2141                           ;CO2.c: 420: _delay(50);
  2142  03E4  3010               	movlw	16
  2143  03E5  00A9               	movwf	??_main
  2144  03E6                     u6927:	
  2145  03E6  0BA9               	decfsz	??_main,f
  2146  03E7  2BE6               	goto	u6927
  2147  03E8  0000               	nop
  2148                           
  2149                           ;CO2.c: 421: i = 0;
  2150  03E9  1283               	bcf	3,5	;RP0=0, select bank0
  2151  03EA  1303               	bcf	3,6	;RP1=0, select bank0
  2152  03EB                     L7:	
  2153  03EB  01BC               	clrf	main@i
  2154  03EC  1683               	bsf	3,5	;RP0=1, select bank31
  2155  03ED  1703               	bsf	3,6	;RP1=1, select bank31
  2156  03EE  1D80               	btfss	0,3	;volatile
  2157  03EF  2BCD               	goto	l3469
  2158  03F0                     l3477:	
  2159                           
  2160                           ;CO2.c: 422: }
  2161                           ;CO2.c: 424: }
  2162                           ;CO2.c: 428: PORTD = PORTD & 0X0F;
  2163  03F0  1683               	bsf	3,5	;RP0=1, select bank31
  2164  03F1  1703               	bsf	3,6	;RP1=1, select bank31
  2165  03F2  0803               	movf	3,w	;volatile
  2166  03F3  390F               	andlw	15
  2167  03F4  1283               	bcf	3,5	;RP0=0, select bank0
  2168  03F5  1303               	bcf	3,6	;RP1=0, select bank0
  2169  03F6  00A9               	movwf	??_main
  2170  03F7  0829               	movf	??_main,w
  2171  03F8  1683               	bsf	3,5	;RP0=1, select bank31
  2172  03F9  1703               	bsf	3,6	;RP1=1, select bank31
  2173  03FA  0083               	movwf	3	;volatile
  2174                           
  2175                           ;CO2.c: 429: PORTC = PORTC & 0x7F;
  2176  03FB  1683               	bsf	3,5	;RP0=1, select bank31
  2177  03FC  1703               	bsf	3,6	;RP1=1, select bank31
  2178  03FD  0802               	movf	2,w	;volatile
  2179  03FE  397F               	andlw	127
  2180  03FF  1283               	bcf	3,5	;RP0=0, select bank0
  2181  0400  1303               	bcf	3,6	;RP1=0, select bank0
  2182  0401  00A9               	movwf	??_main
  2183  0402  0829               	movf	??_main,w
  2184  0403  1683               	bsf	3,5	;RP0=1, select bank31
  2185  0404  1703               	bsf	3,6	;RP1=1, select bank31
  2186  0405  0082               	movwf	2	;volatile
  2187                           
  2188                           ;CO2.c: 431: if (( PORTC == 0x7F ) &&( PORTD == 0x0F))
  2189  0406  1683               	bsf	3,5	;RP0=1, select bank31
  2190  0407  1703               	bsf	3,6	;RP1=1, select bank31
  2191  0408  0802               	movf	2,w	;volatile
  2192  0409  3A7F               	xorlw	127
  2193  040A  1D03               	skipz
  2194  040B  2C15               	goto	l3485
  2195  040C  1683               	bsf	3,5	;RP0=1, select bank31
  2196  040D  1703               	bsf	3,6	;RP1=1, select bank31
  2197  040E  0803               	movf	3,w	;volatile
  2198  040F  3A0F               	xorlw	15
  2199  0410  1D03               	skipz
  2200  0411  2C15               	goto	l3485
  2201                           
  2202                           ;CO2.c: 432: {
  2203                           ;CO2.c: 433: {
  2204                           ;CO2.c: 434: cnt = 0;
  2205  0412  1283               	bcf	3,5	;RP0=0, select bank0
  2206  0413  1303               	bcf	3,6	;RP1=0, select bank0
  2207  0414  01BB               	clrf	main@cnt
  2208  0415                     l3485:	
  2209                           
  2210                           ;CO2.c: 435: }
  2211                           ;CO2.c: 436: }
  2212                           ;CO2.c: 437: if(( RC0 == 0 ) && ( cnt == 0 ))
  2213  0415  1683               	bsf	3,5	;RP0=1, select bank31
  2214  0416  1703               	bsf	3,6	;RP1=1, select bank31
  2215  0417  1802               	btfsc	2,0	;volatile
  2216  0418  2C31               	goto	l199
  2217  0419  1283               	bcf	3,5	;RP0=0, select bank0
  2218  041A  1303               	bcf	3,6	;RP1=0, select bank0
  2219  041B  08BB               	movf	main@cnt,f
  2220  041C  1D03               	skipz
  2221  041D  2C31               	goto	l199
  2222                           
  2223                           ;CO2.c: 438: {
  2224                           ;CO2.c: 439: for (debounce = 0; debounce <= 99; debounce ++)
  2225  041E  01BD               	clrf	main@debounce
  2226  041F  3064               	movlw	100
  2227  0420  023D               	subwf	main@debounce,w
  2228  0421  1803               	btfsc	3,0
  2229  0422  2C31               	goto	l199
  2230  0423                     l3495:	
  2231                           
  2232                           ;CO2.c: 440: {
  2233                           ;CO2.c: 441: _delay(250);
  2234  0423  3053               	movlw	83
  2235  0424  00A9               	movwf	??_main
  2236  0425                     u6937:	
  2237  0425  0BA9               	decfsz	??_main,f
  2238  0426  2C25               	goto	u6937
  2239  0427  3001               	movlw	1
  2240  0428  1283               	bcf	3,5	;RP0=0, select bank0
  2241  0429  1303               	bcf	3,6	;RP1=0, select bank0
  2242  042A  00A9               	movwf	??_main
  2243  042B  0829               	movf	??_main,w
  2244  042C  07BD               	addwf	main@debounce,f
  2245  042D  3064               	movlw	100
  2246  042E  023D               	subwf	main@debounce,w
  2247  042F  1C03               	skipc
  2248  0430  2C23               	goto	l3495
  2249  0431                     l199:	
  2250                           
  2251                           ;CO2.c: 442: }
  2252                           ;CO2.c: 443: }
  2253                           ;CO2.c: 444: if( RC0 == 0 )
  2254  0431  1683               	bsf	3,5	;RP0=1, select bank31
  2255  0432  1703               	bsf	3,6	;RP1=1, select bank31
  2256  0433  1802               	btfsc	2,0	;volatile
  2257  0434  2CBF               	goto	l202
  2258                           
  2259                           ;CO2.c: 445: {
  2260                           ;CO2.c: 446: if( progno < 99 )
  2261  0435  3063               	movlw	99
  2262  0436  1283               	bcf	3,5	;RP0=0, select bank0
  2263  0437  1303               	bcf	3,6	;RP1=0, select bank0
  2264  0438  022E               	subwf	main@progno,w
  2265  0439  1803               	skipnc
  2266  043A  2C86               	goto	l3517
  2267                           
  2268                           ;CO2.c: 447: {
  2269                           ;CO2.c: 448: progno = progno + 1;
  2270  043B  082E               	movf	main@progno,w
  2271  043C  3E01               	addlw	1
  2272  043D  00A9               	movwf	??_main
  2273  043E  0829               	movf	??_main,w
  2274  043F  00AE               	movwf	main@progno
  2275                           
  2276                           ;CO2.c: 449: tens = progno / 10;
  2277  0440  300A               	movlw	10
  2278  0441  00A0               	movwf	___awdiv@divisor
  2279  0442  3000               	movlw	0
  2280  0443  00A1               	movwf	___awdiv@divisor+1
  2281  0444  082E               	movf	main@progno,w
  2282  0445  00A9               	movwf	??_main
  2283  0446  01AA               	clrf	??_main+1
  2284  0447  0829               	movf	??_main,w
  2285  0448  00A2               	movwf	___awdiv@dividend
  2286  0449  082A               	movf	??_main+1,w
  2287  044A  00A3               	movwf	___awdiv@dividend+1
  2288  044B  2798               	fcall	___awdiv
  2289  044C  1283               	bcf	3,5	;RP0=0, select bank0
  2290  044D  1303               	bcf	3,6	;RP1=0, select bank0
  2291  044E  0820               	movf	?___awdiv,w
  2292  044F  00AB               	movwf	??_main+2
  2293  0450  082B               	movf	??_main+2,w
  2294  0451  00BA               	movwf	main@tens
  2295                           
  2296                           ;CO2.c: 450: tens = tens << 4;
  2297  0452  083A               	movf	main@tens,w
  2298  0453  00A9               	movwf	??_main
  2299  0454  3003               	movlw	3
  2300  0455                     u5485:	
  2301  0455  1003               	clrc
  2302  0456  0DA9               	rlf	??_main,f
  2303  0457  3EFF               	addlw	-1
  2304  0458  1D03               	skipz
  2305  0459  2C55               	goto	u5485
  2306  045A  1003               	clrc
  2307  045B  0D29               	rlf	??_main,w
  2308  045C  00AA               	movwf	??_main+1
  2309  045D  082A               	movf	??_main+1,w
  2310  045E  00BA               	movwf	main@tens
  2311                           
  2312                           ;CO2.c: 451: values[0] = tens;
  2313  045F  083A               	movf	main@tens,w
  2314  0460  00A9               	movwf	??_main
  2315  0461  0829               	movf	??_main,w
  2316  0462  00BE               	movwf	_values	;volatile
  2317                           
  2318                           ;CO2.c: 452: units = progno % 10;
  2319  0463  300A               	movlw	10
  2320  0464  00A0               	movwf	___awmod@divisor
  2321  0465  3000               	movlw	0
  2322  0466  00A1               	movwf	___awmod@divisor+1
  2323  0467  082E               	movf	main@progno,w
  2324  0468  00A9               	movwf	??_main
  2325  0469  01AA               	clrf	??_main+1
  2326  046A  0829               	movf	??_main,w
  2327  046B  00A2               	movwf	___awmod@dividend
  2328  046C  082A               	movf	??_main+1,w
  2329  046D  00A3               	movwf	___awmod@dividend+1
  2330  046E  26F9               	fcall	___awmod
  2331  046F  1283               	bcf	3,5	;RP0=0, select bank0
  2332  0470  1303               	bcf	3,6	;RP1=0, select bank0
  2333  0471  0820               	movf	?___awmod,w
  2334  0472  00AB               	movwf	??_main+2
  2335  0473  082B               	movf	??_main+2,w
  2336  0474  00B9               	movwf	main@units
  2337                           
  2338                           ;CO2.c: 453: units = units << 4;
  2339  0475  0839               	movf	main@units,w
  2340  0476  00A9               	movwf	??_main
  2341  0477  3003               	movlw	3
  2342  0478                     u5495:	
  2343  0478  1003               	clrc
  2344  0479  0DA9               	rlf	??_main,f
  2345  047A  3EFF               	addlw	-1
  2346  047B  1D03               	skipz
  2347  047C  2C78               	goto	u5495
  2348  047D  1003               	clrc
  2349  047E  0D29               	rlf	??_main,w
  2350  047F  00AA               	movwf	??_main+1
  2351  0480  082A               	movf	??_main+1,w
  2352  0481  00B9               	movwf	main@units
  2353                           
  2354                           ;CO2.c: 454: values[1] = units;
  2355  0482  0839               	movf	main@units,w
  2356  0483  00A9               	movwf	??_main
  2357  0484  0829               	movf	??_main,w
  2358  0485  00BF               	movwf	_values+1	;volatile
  2359  0486                     l3517:	
  2360                           
  2361                           ;CO2.c: 455: }
  2362                           ;CO2.c: 456: if(cnt == 0)
  2363  0486  08BB               	movf	main@cnt,f
  2364  0487  1D03               	skipz
  2365  0488  2CA7               	goto	l3533
  2366                           
  2367                           ;CO2.c: 457: {
  2368                           ;CO2.c: 458: for (debounce = 0; debounce <= 200; debounce ++)
  2369  0489  01BD               	clrf	main@debounce
  2370  048A  30C9               	movlw	201
  2371  048B  023D               	subwf	main@debounce,w
  2372  048C  1803               	btfsc	3,0
  2373  048D  2CA1               	goto	l3531
  2374  048E                     l3525:	
  2375                           
  2376                           ;CO2.c: 459: {
  2377                           ;CO2.c: 460: _delay(20000);
  2378  048E  301A               	movlw	26
  2379  048F  00AA               	movwf	??_main+1
  2380  0490  30F8               	movlw	248
  2381  0491  00A9               	movwf	??_main
  2382  0492                     u6947:	
  2383  0492  0BA9               	decfsz	??_main,f
  2384  0493  2C92               	goto	u6947
  2385  0494  0BAA               	decfsz	??_main+1,f
  2386  0495  2C92               	goto	u6947
  2387  0496  0000               	nop
  2388  0497  3001               	movlw	1
  2389  0498  1283               	bcf	3,5	;RP0=0, select bank0
  2390  0499  1303               	bcf	3,6	;RP1=0, select bank0
  2391  049A  00A9               	movwf	??_main
  2392  049B  0829               	movf	??_main,w
  2393  049C  07BD               	addwf	main@debounce,f
  2394  049D  30C9               	movlw	201
  2395  049E  023D               	subwf	main@debounce,w
  2396  049F  1C03               	skipc
  2397  04A0  2C8E               	goto	l3525
  2398  04A1                     l3531:	
  2399                           
  2400                           ;CO2.c: 461: }
  2401                           ;CO2.c: 462: cnt = cnt + 1;
  2402  04A1  083B               	movf	main@cnt,w
  2403  04A2  3E01               	addlw	1
  2404  04A3  00A9               	movwf	??_main
  2405  04A4  0829               	movf	??_main,w
  2406  04A5  00BB               	movwf	main@cnt
  2407                           
  2408                           ;CO2.c: 463: }
  2409  04A6  2CBF               	goto	l202
  2410  04A7                     l3533:	
  2411                           
  2412                           ;CO2.c: 464: else
  2413                           ;CO2.c: 465: {
  2414                           ;CO2.c: 466: for (debounce = 0; debounce <= 100; debounce ++)
  2415  04A7  01BD               	clrf	main@debounce
  2416  04A8  3065               	movlw	101
  2417  04A9  023D               	subwf	main@debounce,w
  2418  04AA  1803               	btfsc	3,0
  2419  04AB  2CBF               	goto	l202
  2420  04AC                     l3539:	
  2421                           
  2422                           ;CO2.c: 467: {
  2423                           ;CO2.c: 468: _delay(3000);
  2424  04AC  3004               	movlw	4
  2425  04AD  00AA               	movwf	??_main+1
  2426  04AE  30E4               	movlw	228
  2427  04AF  00A9               	movwf	??_main
  2428  04B0                     u6957:	
  2429  04B0  0BA9               	decfsz	??_main,f
  2430  04B1  2CB0               	goto	u6957
  2431  04B2  0BAA               	decfsz	??_main+1,f
  2432  04B3  2CB0               	goto	u6957
  2433  04B4  0000               	nop
  2434  04B5  3001               	movlw	1
  2435  04B6  1283               	bcf	3,5	;RP0=0, select bank0
  2436  04B7  1303               	bcf	3,6	;RP1=0, select bank0
  2437  04B8  00A9               	movwf	??_main
  2438  04B9  0829               	movf	??_main,w
  2439  04BA  07BD               	addwf	main@debounce,f
  2440  04BB  3065               	movlw	101
  2441  04BC  023D               	subwf	main@debounce,w
  2442  04BD  1C03               	skipc
  2443  04BE  2CAC               	goto	l3539
  2444  04BF                     l202:	
  2445                           
  2446                           ;CO2.c: 469: }
  2447                           ;CO2.c: 470: }
  2448                           ;CO2.c: 474: }
  2449                           ;CO2.c: 475: if(( RC1 == 0 ) && ( cnt == 0 ))
  2450  04BF  1683               	bsf	3,5	;RP0=1, select bank31
  2451  04C0  1703               	bsf	3,6	;RP1=1, select bank31
  2452  04C1  1882               	btfsc	2,1	;volatile
  2453  04C2  2CDB               	goto	l210
  2454  04C3  1283               	bcf	3,5	;RP0=0, select bank0
  2455  04C4  1303               	bcf	3,6	;RP1=0, select bank0
  2456  04C5  08BB               	movf	main@cnt,f
  2457  04C6  1D03               	skipz
  2458  04C7  2CDB               	goto	l210
  2459                           
  2460                           ;CO2.c: 476: {
  2461                           ;CO2.c: 478: for (debounce = 0; debounce <= 99; debounce ++)
  2462  04C8  01BD               	clrf	main@debounce
  2463  04C9  3064               	movlw	100
  2464  04CA  023D               	subwf	main@debounce,w
  2465  04CB  1803               	btfsc	3,0
  2466  04CC  2CDB               	goto	l210
  2467  04CD                     l3553:	
  2468                           
  2469                           ;CO2.c: 479: {
  2470                           ;CO2.c: 480: _delay(250);
  2471  04CD  3053               	movlw	83
  2472  04CE  00A9               	movwf	??_main
  2473  04CF                     u6967:	
  2474  04CF  0BA9               	decfsz	??_main,f
  2475  04D0  2CCF               	goto	u6967
  2476  04D1  3001               	movlw	1
  2477  04D2  1283               	bcf	3,5	;RP0=0, select bank0
  2478  04D3  1303               	bcf	3,6	;RP1=0, select bank0
  2479  04D4  00A9               	movwf	??_main
  2480  04D5  0829               	movf	??_main,w
  2481  04D6  07BD               	addwf	main@debounce,f
  2482  04D7  3064               	movlw	100
  2483  04D8  023D               	subwf	main@debounce,w
  2484  04D9  1C03               	skipc
  2485  04DA  2CCD               	goto	l3553
  2486  04DB                     l210:	
  2487                           
  2488                           ;CO2.c: 481: }
  2489                           ;CO2.c: 482: }
  2490                           ;CO2.c: 483: if( RC1 == 0 )
  2491  04DB  1683               	bsf	3,5	;RP0=1, select bank31
  2492  04DC  1703               	bsf	3,6	;RP1=1, select bank31
  2493  04DD  1882               	btfsc	2,1	;volatile
  2494  04DE  2D68               	goto	l213
  2495                           
  2496                           ;CO2.c: 484: {
  2497                           ;CO2.c: 485: if( progno > 0 )
  2498  04DF  1283               	bcf	3,5	;RP0=0, select bank0
  2499  04E0  1303               	bcf	3,6	;RP1=0, select bank0
  2500  04E1  082E               	movf	main@progno,w
  2501  04E2  1903               	btfsc	3,2
  2502  04E3  2D2F               	goto	l3575
  2503                           
  2504                           ;CO2.c: 486: {
  2505                           ;CO2.c: 487: progno = progno - 1;
  2506  04E4  082E               	movf	main@progno,w
  2507  04E5  3EFF               	addlw	255
  2508  04E6  00A9               	movwf	??_main
  2509  04E7  0829               	movf	??_main,w
  2510  04E8  00AE               	movwf	main@progno
  2511                           
  2512                           ;CO2.c: 488: tens = progno / 10;
  2513  04E9  300A               	movlw	10
  2514  04EA  00A0               	movwf	___awdiv@divisor
  2515  04EB  3000               	movlw	0
  2516  04EC  00A1               	movwf	___awdiv@divisor+1
  2517  04ED  082E               	movf	main@progno,w
  2518  04EE  00A9               	movwf	??_main
  2519  04EF  01AA               	clrf	??_main+1
  2520  04F0  0829               	movf	??_main,w
  2521  04F1  00A2               	movwf	___awdiv@dividend
  2522  04F2  082A               	movf	??_main+1,w
  2523  04F3  00A3               	movwf	___awdiv@dividend+1
  2524  04F4  2798               	fcall	___awdiv
  2525  04F5  1283               	bcf	3,5	;RP0=0, select bank0
  2526  04F6  1303               	bcf	3,6	;RP1=0, select bank0
  2527  04F7  0820               	movf	?___awdiv,w
  2528  04F8  00AB               	movwf	??_main+2
  2529  04F9  082B               	movf	??_main+2,w
  2530  04FA  00BA               	movwf	main@tens
  2531                           
  2532                           ;CO2.c: 489: tens = tens << 4;
  2533  04FB  083A               	movf	main@tens,w
  2534  04FC  00A9               	movwf	??_main
  2535  04FD  3003               	movlw	3
  2536  04FE                     u5615:	
  2537  04FE  1003               	clrc
  2538  04FF  0DA9               	rlf	??_main,f
  2539  0500  3EFF               	addlw	-1
  2540  0501  1D03               	skipz
  2541  0502  2CFE               	goto	u5615
  2542  0503  1003               	clrc
  2543  0504  0D29               	rlf	??_main,w
  2544  0505  00AA               	movwf	??_main+1
  2545  0506  082A               	movf	??_main+1,w
  2546  0507  00BA               	movwf	main@tens
  2547                           
  2548                           ;CO2.c: 490: values[0] = tens;
  2549  0508  083A               	movf	main@tens,w
  2550  0509  00A9               	movwf	??_main
  2551  050A  0829               	movf	??_main,w
  2552  050B  00BE               	movwf	_values	;volatile
  2553                           
  2554                           ;CO2.c: 491: units = progno % 10;
  2555  050C  300A               	movlw	10
  2556  050D  00A0               	movwf	___awmod@divisor
  2557  050E  3000               	movlw	0
  2558  050F  00A1               	movwf	___awmod@divisor+1
  2559  0510  082E               	movf	main@progno,w
  2560  0511  00A9               	movwf	??_main
  2561  0512  01AA               	clrf	??_main+1
  2562  0513  0829               	movf	??_main,w
  2563  0514  00A2               	movwf	___awmod@dividend
  2564  0515  082A               	movf	??_main+1,w
  2565  0516  00A3               	movwf	___awmod@dividend+1
  2566  0517  26F9               	fcall	___awmod
  2567  0518  1283               	bcf	3,5	;RP0=0, select bank0
  2568  0519  1303               	bcf	3,6	;RP1=0, select bank0
  2569  051A  0820               	movf	?___awmod,w
  2570  051B  00AB               	movwf	??_main+2
  2571  051C  082B               	movf	??_main+2,w
  2572  051D  00B9               	movwf	main@units
  2573                           
  2574                           ;CO2.c: 492: units = units << 4;
  2575  051E  0839               	movf	main@units,w
  2576  051F  00A9               	movwf	??_main
  2577  0520  3003               	movlw	3
  2578  0521                     u5625:	
  2579  0521  1003               	clrc
  2580  0522  0DA9               	rlf	??_main,f
  2581  0523  3EFF               	addlw	-1
  2582  0524  1D03               	skipz
  2583  0525  2D21               	goto	u5625
  2584  0526  1003               	clrc
  2585  0527  0D29               	rlf	??_main,w
  2586  0528  00AA               	movwf	??_main+1
  2587  0529  082A               	movf	??_main+1,w
  2588  052A  00B9               	movwf	main@units
  2589                           
  2590                           ;CO2.c: 493: values[1] = units;
  2591  052B  0839               	movf	main@units,w
  2592  052C  00A9               	movwf	??_main
  2593  052D  0829               	movf	??_main,w
  2594  052E  00BF               	movwf	_values+1	;volatile
  2595  052F                     l3575:	
  2596                           
  2597                           ;CO2.c: 494: }
  2598                           ;CO2.c: 495: if(cnt == 0)
  2599  052F  08BB               	movf	main@cnt,f
  2600  0530  1D03               	skipz
  2601  0531  2D50               	goto	l3591
  2602                           
  2603                           ;CO2.c: 496: {
  2604                           ;CO2.c: 497: for (debounce = 0; debounce <= 200; debounce ++)
  2605  0532  01BD               	clrf	main@debounce
  2606  0533  30C9               	movlw	201
  2607  0534  023D               	subwf	main@debounce,w
  2608  0535  1803               	btfsc	3,0
  2609  0536  2D4A               	goto	l3589
  2610  0537                     l3583:	
  2611                           
  2612                           ;CO2.c: 498: {
  2613                           ;CO2.c: 499: _delay(20000);
  2614  0537  301A               	movlw	26
  2615  0538  00AA               	movwf	??_main+1
  2616  0539  30F8               	movlw	248
  2617  053A  00A9               	movwf	??_main
  2618  053B                     u6977:	
  2619  053B  0BA9               	decfsz	??_main,f
  2620  053C  2D3B               	goto	u6977
  2621  053D  0BAA               	decfsz	??_main+1,f
  2622  053E  2D3B               	goto	u6977
  2623  053F  0000               	nop
  2624  0540  3001               	movlw	1
  2625  0541  1283               	bcf	3,5	;RP0=0, select bank0
  2626  0542  1303               	bcf	3,6	;RP1=0, select bank0
  2627  0543  00A9               	movwf	??_main
  2628  0544  0829               	movf	??_main,w
  2629  0545  07BD               	addwf	main@debounce,f
  2630  0546  30C9               	movlw	201
  2631  0547  023D               	subwf	main@debounce,w
  2632  0548  1C03               	skipc
  2633  0549  2D37               	goto	l3583
  2634  054A                     l3589:	
  2635                           
  2636                           ;CO2.c: 500: }
  2637                           ;CO2.c: 501: cnt = cnt + 1;
  2638  054A  083B               	movf	main@cnt,w
  2639  054B  3E01               	addlw	1
  2640  054C  00A9               	movwf	??_main
  2641  054D  0829               	movf	??_main,w
  2642  054E  00BB               	movwf	main@cnt
  2643                           
  2644                           ;CO2.c: 502: }
  2645  054F  2D68               	goto	l213
  2646  0550                     l3591:	
  2647                           
  2648                           ;CO2.c: 503: else
  2649                           ;CO2.c: 504: {
  2650                           ;CO2.c: 506: for (debounce = 0; debounce <= 100; debounce ++)
  2651  0550  01BD               	clrf	main@debounce
  2652  0551  3065               	movlw	101
  2653  0552  023D               	subwf	main@debounce,w
  2654  0553  1803               	btfsc	3,0
  2655  0554  2D68               	goto	l213
  2656  0555                     l3597:	
  2657                           
  2658                           ;CO2.c: 507: {
  2659                           ;CO2.c: 508: _delay(3000);
  2660  0555  3004               	movlw	4
  2661  0556  00AA               	movwf	??_main+1
  2662  0557  30E4               	movlw	228
  2663  0558  00A9               	movwf	??_main
  2664  0559                     u6987:	
  2665  0559  0BA9               	decfsz	??_main,f
  2666  055A  2D59               	goto	u6987
  2667  055B  0BAA               	decfsz	??_main+1,f
  2668  055C  2D59               	goto	u6987
  2669  055D  0000               	nop
  2670  055E  3001               	movlw	1
  2671  055F  1283               	bcf	3,5	;RP0=0, select bank0
  2672  0560  1303               	bcf	3,6	;RP1=0, select bank0
  2673  0561  00A9               	movwf	??_main
  2674  0562  0829               	movf	??_main,w
  2675  0563  07BD               	addwf	main@debounce,f
  2676  0564  3065               	movlw	101
  2677  0565  023D               	subwf	main@debounce,w
  2678  0566  1C03               	skipc
  2679  0567  2D55               	goto	l3597
  2680  0568                     l213:	
  2681                           
  2682                           ;CO2.c: 509: }
  2683                           ;CO2.c: 510: }
  2684                           ;CO2.c: 512: }
  2685                           ;CO2.c: 513: if(( RC2 == 0 ) && ( cnt == 0 ))
  2686  0568  1683               	bsf	3,5	;RP0=1, select bank31
  2687  0569  1703               	bsf	3,6	;RP1=1, select bank31
  2688  056A  1902               	btfsc	2,2	;volatile
  2689  056B  2D84               	goto	l221
  2690  056C  1283               	bcf	3,5	;RP0=0, select bank0
  2691  056D  1303               	bcf	3,6	;RP1=0, select bank0
  2692  056E  08BB               	movf	main@cnt,f
  2693  056F  1D03               	skipz
  2694  0570  2D84               	goto	l221
  2695                           
  2696                           ;CO2.c: 514: {
  2697                           ;CO2.c: 515: for (debounce = 0; debounce <= 99; debounce ++)
  2698  0571  01BD               	clrf	main@debounce
  2699  0572  3064               	movlw	100
  2700  0573  023D               	subwf	main@debounce,w
  2701  0574  1803               	btfsc	3,0
  2702  0575  2D84               	goto	l221
  2703  0576                     l3611:	
  2704                           
  2705                           ;CO2.c: 516: {
  2706                           ;CO2.c: 517: _delay(250);
  2707  0576  3053               	movlw	83
  2708  0577  00A9               	movwf	??_main
  2709  0578                     u6997:	
  2710  0578  0BA9               	decfsz	??_main,f
  2711  0579  2D78               	goto	u6997
  2712  057A  3001               	movlw	1
  2713  057B  1283               	bcf	3,5	;RP0=0, select bank0
  2714  057C  1303               	bcf	3,6	;RP1=0, select bank0
  2715  057D  00A9               	movwf	??_main
  2716  057E  0829               	movf	??_main,w
  2717  057F  07BD               	addwf	main@debounce,f
  2718  0580  3064               	movlw	100
  2719  0581  023D               	subwf	main@debounce,w
  2720  0582  1C03               	skipc
  2721  0583  2D76               	goto	l3611
  2722  0584                     l221:	
  2723                           
  2724                           ;CO2.c: 518: }
  2725                           ;CO2.c: 520: }
  2726                           ;CO2.c: 522: if( RC2 == 0 )
  2727  0584  1683               	bsf	3,5	;RP0=1, select bank31
  2728  0585  1703               	bsf	3,6	;RP1=1, select bank31
  2729  0586  1902               	btfsc	2,2	;volatile
  2730  0587  2E48               	goto	l224
  2731                           
  2732                           ;CO2.c: 523: {
  2733                           ;CO2.c: 525: if( cutpower < 400 )
  2734  0588  3001               	movlw	1
  2735  0589  1283               	bcf	3,5	;RP0=0, select bank0
  2736  058A  1303               	bcf	3,6	;RP1=0, select bank0
  2737  058B  0233               	subwf	main@cutpower+1,w
  2738  058C  3090               	movlw	144
  2739  058D  1903               	skipnz
  2740  058E  0232               	subwf	main@cutpower,w
  2741  058F  1803               	skipnc
  2742  0590  2E0F               	goto	l225
  2743                           
  2744                           ;CO2.c: 526: {
  2745                           ;CO2.c: 527: cutpower = cutpower + 1;
  2746  0591  0832               	movf	main@cutpower,w
  2747  0592  3E01               	addlw	1
  2748  0593  00B2               	movwf	main@cutpower
  2749  0594  0833               	movf	main@cutpower+1,w
  2750  0595  1803               	skipnc
  2751  0596  3E01               	addlw	1
  2752  0597  3E00               	addlw	0
  2753  0598  00B3               	movwf	main@cutpower+1
  2754                           
  2755                           ;CO2.c: 528: hundreds = cutpower / 100;
  2756  0599  3064               	movlw	100
  2757  059A  00A0               	movwf	___lwdiv@divisor
  2758  059B  3000               	movlw	0
  2759  059C  00A1               	movwf	___lwdiv@divisor+1
  2760  059D  0833               	movf	main@cutpower+1,w
  2761  059E  01A3               	clrf	___lwdiv@dividend+1
  2762  059F  07A3               	addwf	___lwdiv@dividend+1,f
  2763  05A0  0832               	movf	main@cutpower,w
  2764  05A1  01A2               	clrf	___lwdiv@dividend
  2765  05A2  07A2               	addwf	___lwdiv@dividend,f
  2766  05A3  26B9               	fcall	___lwdiv
  2767  05A4  1283               	bcf	3,5	;RP0=0, select bank0
  2768  05A5  1303               	bcf	3,6	;RP1=0, select bank0
  2769  05A6  0820               	movf	?___lwdiv,w
  2770  05A7  00A9               	movwf	??_main
  2771  05A8  0829               	movf	??_main,w
  2772  05A9  00B8               	movwf	main@hundreds
  2773                           
  2774                           ;CO2.c: 529: temp = (cutpower - ( hundreds * 100 ));
  2775  05AA  3064               	movlw	100
  2776  05AB  00A9               	movwf	??_main
  2777  05AC  0829               	movf	??_main,w
  2778  05AD  00A0               	movwf	___bmul@multiplicand
  2779  05AE  0838               	movf	main@hundreds,w
  2780  05AF  26A6               	fcall	___bmul
  2781  05B0  3AFF               	xorlw	255
  2782  05B1  3E01               	addlw	1
  2783  05B2  1283               	bcf	3,5	;RP0=0, select bank0
  2784  05B3  1303               	bcf	3,6	;RP1=0, select bank0
  2785  05B4  0732               	addwf	main@cutpower,w
  2786  05B5  00AA               	movwf	??_main+1
  2787  05B6  082A               	movf	??_main+1,w
  2788  05B7  00B4               	movwf	main@temp
  2789                           
  2790                           ;CO2.c: 530: units = temp % 10;
  2791  05B8  300A               	movlw	10
  2792  05B9  00A0               	movwf	___awmod@divisor
  2793  05BA  3000               	movlw	0
  2794  05BB  00A1               	movwf	___awmod@divisor+1
  2795  05BC  0834               	movf	main@temp,w
  2796  05BD  00A9               	movwf	??_main
  2797  05BE  01AA               	clrf	??_main+1
  2798  05BF  0829               	movf	??_main,w
  2799  05C0  00A2               	movwf	___awmod@dividend
  2800  05C1  082A               	movf	??_main+1,w
  2801  05C2  00A3               	movwf	___awmod@dividend+1
  2802  05C3  26F9               	fcall	___awmod
  2803  05C4  1283               	bcf	3,5	;RP0=0, select bank0
  2804  05C5  1303               	bcf	3,6	;RP1=0, select bank0
  2805  05C6  0820               	movf	?___awmod,w
  2806  05C7  00AB               	movwf	??_main+2
  2807  05C8  082B               	movf	??_main+2,w
  2808  05C9  00B9               	movwf	main@units
  2809                           
  2810                           ;CO2.c: 531: units = units << 4;
  2811  05CA  0839               	movf	main@units,w
  2812  05CB  00A9               	movwf	??_main
  2813  05CC  3003               	movlw	3
  2814  05CD                     u5745:	
  2815  05CD  1003               	clrc
  2816  05CE  0DA9               	rlf	??_main,f
  2817  05CF  3EFF               	addlw	-1
  2818  05D0  1D03               	skipz
  2819  05D1  2DCD               	goto	u5745
  2820  05D2  1003               	clrc
  2821  05D3  0D29               	rlf	??_main,w
  2822  05D4  00AA               	movwf	??_main+1
  2823  05D5  082A               	movf	??_main+1,w
  2824  05D6  00B9               	movwf	main@units
  2825                           
  2826                           ;CO2.c: 532: values[8] = units;
  2827  05D7  0839               	movf	main@units,w
  2828  05D8  00A9               	movwf	??_main
  2829  05D9  0829               	movf	??_main,w
  2830  05DA  00C6               	movwf	_values+8	;volatile
  2831                           
  2832                           ;CO2.c: 533: tens = temp / 10;
  2833  05DB  300A               	movlw	10
  2834  05DC  00A0               	movwf	___awdiv@divisor
  2835  05DD  3000               	movlw	0
  2836  05DE  00A1               	movwf	___awdiv@divisor+1
  2837  05DF  0834               	movf	main@temp,w
  2838  05E0  00A9               	movwf	??_main
  2839  05E1  01AA               	clrf	??_main+1
  2840  05E2  0829               	movf	??_main,w
  2841  05E3  00A2               	movwf	___awdiv@dividend
  2842  05E4  082A               	movf	??_main+1,w
  2843  05E5  00A3               	movwf	___awdiv@dividend+1
  2844  05E6  2798               	fcall	___awdiv
  2845  05E7  1283               	bcf	3,5	;RP0=0, select bank0
  2846  05E8  1303               	bcf	3,6	;RP1=0, select bank0
  2847  05E9  0820               	movf	?___awdiv,w
  2848  05EA  00AB               	movwf	??_main+2
  2849  05EB  082B               	movf	??_main+2,w
  2850  05EC  00BA               	movwf	main@tens
  2851                           
  2852                           ;CO2.c: 534: tens = tens << 4;
  2853  05ED  083A               	movf	main@tens,w
  2854  05EE  00A9               	movwf	??_main
  2855  05EF  3003               	movlw	3
  2856  05F0                     u5755:	
  2857  05F0  1003               	clrc
  2858  05F1  0DA9               	rlf	??_main,f
  2859  05F2  3EFF               	addlw	-1
  2860  05F3  1D03               	skipz
  2861  05F4  2DF0               	goto	u5755
  2862  05F5  1003               	clrc
  2863  05F6  0D29               	rlf	??_main,w
  2864  05F7  00AA               	movwf	??_main+1
  2865  05F8  082A               	movf	??_main+1,w
  2866  05F9  00BA               	movwf	main@tens
  2867                           
  2868                           ;CO2.c: 535: values[3] = tens;
  2869  05FA  083A               	movf	main@tens,w
  2870  05FB  00A9               	movwf	??_main
  2871  05FC  0829               	movf	??_main,w
  2872  05FD  00C1               	movwf	_values+3	;volatile
  2873                           
  2874                           ;CO2.c: 536: hundreds = hundreds << 4;
  2875  05FE  0838               	movf	main@hundreds,w
  2876  05FF  00A9               	movwf	??_main
  2877  0600  3003               	movlw	3
  2878  0601                     u5765:	
  2879  0601  1003               	clrc
  2880  0602  0DA9               	rlf	??_main,f
  2881  0603  3EFF               	addlw	-1
  2882  0604  1D03               	skipz
  2883  0605  2E01               	goto	u5765
  2884  0606  1003               	clrc
  2885  0607  0D29               	rlf	??_main,w
  2886  0608  00AA               	movwf	??_main+1
  2887  0609  082A               	movf	??_main+1,w
  2888  060A  00B8               	movwf	main@hundreds
  2889                           
  2890                           ;CO2.c: 537: values[2] = hundreds;
  2891  060B  0838               	movf	main@hundreds,w
  2892  060C  00A9               	movwf	??_main
  2893  060D  0829               	movf	??_main,w
  2894  060E  00C0               	movwf	_values+2	;volatile
  2895  060F                     l225:	
  2896                           
  2897                           ;CO2.c: 538: }
  2898                           ;CO2.c: 539: if(cnt == 0)
  2899  060F  08BB               	movf	main@cnt,f
  2900  0610  1D03               	skipz
  2901  0611  2E30               	goto	l3653
  2902                           
  2903                           ;CO2.c: 540: {
  2904                           ;CO2.c: 541: for (debounce = 0; debounce <= 200; debounce ++)
  2905  0612  01BD               	clrf	main@debounce
  2906  0613  30C9               	movlw	201
  2907  0614  023D               	subwf	main@debounce,w
  2908  0615  1803               	btfsc	3,0
  2909  0616  2E2A               	goto	l3651
  2910  0617                     l3645:	
  2911                           
  2912                           ;CO2.c: 542: {
  2913                           ;CO2.c: 543: _delay(20000);
  2914  0617  301A               	movlw	26
  2915  0618  00AA               	movwf	??_main+1
  2916  0619  30F8               	movlw	248
  2917  061A  00A9               	movwf	??_main
  2918  061B                     u7007:	
  2919  061B  0BA9               	decfsz	??_main,f
  2920  061C  2E1B               	goto	u7007
  2921  061D  0BAA               	decfsz	??_main+1,f
  2922  061E  2E1B               	goto	u7007
  2923  061F  0000               	nop
  2924  0620  3001               	movlw	1
  2925  0621  1283               	bcf	3,5	;RP0=0, select bank0
  2926  0622  1303               	bcf	3,6	;RP1=0, select bank0
  2927  0623  00A9               	movwf	??_main
  2928  0624  0829               	movf	??_main,w
  2929  0625  07BD               	addwf	main@debounce,f
  2930  0626  30C9               	movlw	201
  2931  0627  023D               	subwf	main@debounce,w
  2932  0628  1C03               	skipc
  2933  0629  2E17               	goto	l3645
  2934  062A                     l3651:	
  2935                           
  2936                           ;CO2.c: 544: }
  2937                           ;CO2.c: 545: cnt = cnt + 1;
  2938  062A  083B               	movf	main@cnt,w
  2939  062B  3E01               	addlw	1
  2940  062C  00A9               	movwf	??_main
  2941  062D  0829               	movf	??_main,w
  2942  062E  00BB               	movwf	main@cnt
  2943                           
  2944                           ;CO2.c: 546: }
  2945  062F  2E48               	goto	l224
  2946  0630                     l3653:	
  2947                           
  2948                           ;CO2.c: 547: else
  2949                           ;CO2.c: 548: {
  2950                           ;CO2.c: 550: for (debounce = 0; debounce <= 100; debounce ++)
  2951  0630  01BD               	clrf	main@debounce
  2952  0631  3065               	movlw	101
  2953  0632  023D               	subwf	main@debounce,w
  2954  0633  1803               	btfsc	3,0
  2955  0634  2E48               	goto	l224
  2956  0635                     l3659:	
  2957                           
  2958                           ;CO2.c: 551: {
  2959                           ;CO2.c: 552: _delay(3000);
  2960  0635  3004               	movlw	4
  2961  0636  00AA               	movwf	??_main+1
  2962  0637  30E4               	movlw	228
  2963  0638  00A9               	movwf	??_main
  2964  0639                     u7017:	
  2965  0639  0BA9               	decfsz	??_main,f
  2966  063A  2E39               	goto	u7017
  2967  063B  0BAA               	decfsz	??_main+1,f
  2968  063C  2E39               	goto	u7017
  2969  063D  0000               	nop
  2970  063E  3001               	movlw	1
  2971  063F  1283               	bcf	3,5	;RP0=0, select bank0
  2972  0640  1303               	bcf	3,6	;RP1=0, select bank0
  2973  0641  00A9               	movwf	??_main
  2974  0642  0829               	movf	??_main,w
  2975  0643  07BD               	addwf	main@debounce,f
  2976  0644  3065               	movlw	101
  2977  0645  023D               	subwf	main@debounce,w
  2978  0646  1C03               	skipc
  2979  0647  2E35               	goto	l3659
  2980  0648                     l224:	
  2981                           
  2982                           ;CO2.c: 553: }
  2983                           ;CO2.c: 554: }
  2984                           ;CO2.c: 558: }
  2985                           ;CO2.c: 559: if(( RC3 == 0 ) && ( cnt == 0 ))
  2986  0648  1683               	bsf	3,5	;RP0=1, select bank31
  2987  0649  1703               	bsf	3,6	;RP1=1, select bank31
  2988  064A  1982               	btfsc	2,3	;volatile
  2989  064B  2E64               	goto	l232
  2990  064C  1283               	bcf	3,5	;RP0=0, select bank0
  2991  064D  1303               	bcf	3,6	;RP1=0, select bank0
  2992  064E  08BB               	movf	main@cnt,f
  2993  064F  1D03               	skipz
  2994  0650  2E64               	goto	l232
  2995                           
  2996                           ;CO2.c: 560: {
  2997                           ;CO2.c: 562: for (debounce = 0; debounce <= 99; debounce ++)
  2998  0651  01BD               	clrf	main@debounce
  2999  0652  3064               	movlw	100
  3000  0653  023D               	subwf	main@debounce,w
  3001  0654  1803               	btfsc	3,0
  3002  0655  2E64               	goto	l232
  3003  0656                     l3673:	
  3004                           
  3005                           ;CO2.c: 563: {
  3006                           ;CO2.c: 564: _delay(250);
  3007  0656  3053               	movlw	83
  3008  0657  00A9               	movwf	??_main
  3009  0658                     u7027:	
  3010  0658  0BA9               	decfsz	??_main,f
  3011  0659  2E58               	goto	u7027
  3012  065A  3001               	movlw	1
  3013  065B  1283               	bcf	3,5	;RP0=0, select bank0
  3014  065C  1303               	bcf	3,6	;RP1=0, select bank0
  3015  065D  00A9               	movwf	??_main
  3016  065E  0829               	movf	??_main,w
  3017  065F  07BD               	addwf	main@debounce,f
  3018  0660  3064               	movlw	100
  3019  0661  023D               	subwf	main@debounce,w
  3020  0662  1C03               	skipc
  3021  0663  2E56               	goto	l3673
  3022  0664                     l232:	
  3023                           
  3024                           ;CO2.c: 565: }
  3025                           ;CO2.c: 566: }
  3026                           ;CO2.c: 567: if( RC3 == 0 )
  3027  0664  1683               	bsf	3,5	;RP0=1, select bank31
  3028  0665  1703               	bsf	3,6	;RP1=1, select bank31
  3029  0666  1982               	btfsc	2,3	;volatile
  3030  0667  2F25               	goto	l235
  3031                           
  3032                           ;CO2.c: 568: {
  3033                           ;CO2.c: 569: if( cutpower > 0 )
  3034  0668  1283               	bcf	3,5	;RP0=0, select bank0
  3035  0669  1303               	bcf	3,6	;RP1=0, select bank0
  3036  066A  0833               	movf	main@cutpower+1,w
  3037  066B  0432               	iorwf	main@cutpower,w
  3038  066C  1903               	skipnz
  3039  066D  2EEC               	goto	l236
  3040                           
  3041                           ;CO2.c: 570: {
  3042                           ;CO2.c: 571: cutpower = cutpower - 1;
  3043  066E  0832               	movf	main@cutpower,w
  3044  066F  3EFF               	addlw	255
  3045  0670  00B2               	movwf	main@cutpower
  3046  0671  0833               	movf	main@cutpower+1,w
  3047  0672  1803               	skipnc
  3048  0673  3E01               	addlw	1
  3049  0674  3EFF               	addlw	255
  3050  0675  00B3               	movwf	main@cutpower+1
  3051                           
  3052                           ;CO2.c: 572: hundreds = cutpower / 100;
  3053  0676  3064               	movlw	100
  3054  0677  00A0               	movwf	___lwdiv@divisor
  3055  0678  3000               	movlw	0
  3056  0679  00A1               	movwf	___lwdiv@divisor+1
  3057  067A  0833               	movf	main@cutpower+1,w
  3058  067B  01A3               	clrf	___lwdiv@dividend+1
  3059  067C  07A3               	addwf	___lwdiv@dividend+1,f
  3060  067D  0832               	movf	main@cutpower,w
  3061  067E  01A2               	clrf	___lwdiv@dividend
  3062  067F  07A2               	addwf	___lwdiv@dividend,f
  3063  0680  26B9               	fcall	___lwdiv
  3064  0681  1283               	bcf	3,5	;RP0=0, select bank0
  3065  0682  1303               	bcf	3,6	;RP1=0, select bank0
  3066  0683  0820               	movf	?___lwdiv,w
  3067  0684  00A9               	movwf	??_main
  3068  0685  0829               	movf	??_main,w
  3069  0686  00B8               	movwf	main@hundreds
  3070                           
  3071                           ;CO2.c: 573: temp = (cutpower - ( hundreds * 100 ));
  3072  0687  3064               	movlw	100
  3073  0688  00A9               	movwf	??_main
  3074  0689  0829               	movf	??_main,w
  3075  068A  00A0               	movwf	___bmul@multiplicand
  3076  068B  0838               	movf	main@hundreds,w
  3077  068C  26A6               	fcall	___bmul
  3078  068D  3AFF               	xorlw	255
  3079  068E  3E01               	addlw	1
  3080  068F  1283               	bcf	3,5	;RP0=0, select bank0
  3081  0690  1303               	bcf	3,6	;RP1=0, select bank0
  3082  0691  0732               	addwf	main@cutpower,w
  3083  0692  00AA               	movwf	??_main+1
  3084  0693  082A               	movf	??_main+1,w
  3085  0694  00B4               	movwf	main@temp
  3086                           
  3087                           ;CO2.c: 575: units = temp % 10;
  3088  0695  300A               	movlw	10
  3089  0696  00A0               	movwf	___awmod@divisor
  3090  0697  3000               	movlw	0
  3091  0698  00A1               	movwf	___awmod@divisor+1
  3092  0699  0834               	movf	main@temp,w
  3093  069A  00A9               	movwf	??_main
  3094  069B  01AA               	clrf	??_main+1
  3095  069C  0829               	movf	??_main,w
  3096  069D  00A2               	movwf	___awmod@dividend
  3097  069E  082A               	movf	??_main+1,w
  3098  069F  00A3               	movwf	___awmod@dividend+1
  3099  06A0  26F9               	fcall	___awmod
  3100  06A1  1283               	bcf	3,5	;RP0=0, select bank0
  3101  06A2  1303               	bcf	3,6	;RP1=0, select bank0
  3102  06A3  0820               	movf	?___awmod,w
  3103  06A4  00AB               	movwf	??_main+2
  3104  06A5  082B               	movf	??_main+2,w
  3105  06A6  00B9               	movwf	main@units
  3106                           
  3107                           ;CO2.c: 576: units = units << 4;
  3108  06A7  0839               	movf	main@units,w
  3109  06A8  00A9               	movwf	??_main
  3110  06A9  3003               	movlw	3
  3111  06AA                     u5885:	
  3112  06AA  1003               	clrc
  3113  06AB  0DA9               	rlf	??_main,f
  3114  06AC  3EFF               	addlw	-1
  3115  06AD  1D03               	skipz
  3116  06AE  2EAA               	goto	u5885
  3117  06AF  1003               	clrc
  3118  06B0  0D29               	rlf	??_main,w
  3119  06B1  00AA               	movwf	??_main+1
  3120  06B2  082A               	movf	??_main+1,w
  3121  06B3  00B9               	movwf	main@units
  3122                           
  3123                           ;CO2.c: 577: values[8] = units;
  3124  06B4  0839               	movf	main@units,w
  3125  06B5  00A9               	movwf	??_main
  3126  06B6  0829               	movf	??_main,w
  3127  06B7  00C6               	movwf	_values+8	;volatile
  3128                           
  3129                           ;CO2.c: 578: tens = temp / 10;
  3130  06B8  300A               	movlw	10
  3131  06B9  00A0               	movwf	___awdiv@divisor
  3132  06BA  3000               	movlw	0
  3133  06BB  00A1               	movwf	___awdiv@divisor+1
  3134  06BC  0834               	movf	main@temp,w
  3135  06BD  00A9               	movwf	??_main
  3136  06BE  01AA               	clrf	??_main+1
  3137  06BF  0829               	movf	??_main,w
  3138  06C0  00A2               	movwf	___awdiv@dividend
  3139  06C1  082A               	movf	??_main+1,w
  3140  06C2  00A3               	movwf	___awdiv@dividend+1
  3141  06C3  2798               	fcall	___awdiv
  3142  06C4  1283               	bcf	3,5	;RP0=0, select bank0
  3143  06C5  1303               	bcf	3,6	;RP1=0, select bank0
  3144  06C6  0820               	movf	?___awdiv,w
  3145  06C7  00AB               	movwf	??_main+2
  3146  06C8  082B               	movf	??_main+2,w
  3147  06C9  00BA               	movwf	main@tens
  3148                           
  3149                           ;CO2.c: 579: tens = tens << 4;
  3150  06CA  083A               	movf	main@tens,w
  3151  06CB  00A9               	movwf	??_main
  3152  06CC  3003               	movlw	3
  3153  06CD                     u5895:	
  3154  06CD  1003               	clrc
  3155  06CE  0DA9               	rlf	??_main,f
  3156  06CF  3EFF               	addlw	-1
  3157  06D0  1D03               	skipz
  3158  06D1  2ECD               	goto	u5895
  3159  06D2  1003               	clrc
  3160  06D3  0D29               	rlf	??_main,w
  3161  06D4  00AA               	movwf	??_main+1
  3162  06D5  082A               	movf	??_main+1,w
  3163  06D6  00BA               	movwf	main@tens
  3164                           
  3165                           ;CO2.c: 580: values[3] = tens;
  3166  06D7  083A               	movf	main@tens,w
  3167  06D8  00A9               	movwf	??_main
  3168  06D9  0829               	movf	??_main,w
  3169  06DA  00C1               	movwf	_values+3	;volatile
  3170                           
  3171                           ;CO2.c: 581: hundreds = hundreds << 4;
  3172  06DB  0838               	movf	main@hundreds,w
  3173  06DC  00A9               	movwf	??_main
  3174  06DD  3003               	movlw	3
  3175  06DE                     u5905:	
  3176  06DE  1003               	clrc
  3177  06DF  0DA9               	rlf	??_main,f
  3178  06E0  3EFF               	addlw	-1
  3179  06E1  1D03               	skipz
  3180  06E2  2EDE               	goto	u5905
  3181  06E3  1003               	clrc
  3182  06E4  0D29               	rlf	??_main,w
  3183  06E5  00AA               	movwf	??_main+1
  3184  06E6  082A               	movf	??_main+1,w
  3185  06E7  00B8               	movwf	main@hundreds
  3186                           
  3187                           ;CO2.c: 582: values[2] = hundreds;
  3188  06E8  0838               	movf	main@hundreds,w
  3189  06E9  00A9               	movwf	??_main
  3190  06EA  0829               	movf	??_main,w
  3191  06EB  00C0               	movwf	_values+2	;volatile
  3192  06EC                     l236:	
  3193                           
  3194                           ;CO2.c: 585: }
  3195                           ;CO2.c: 586: if(cnt == 0)
  3196  06EC  08BB               	movf	main@cnt,f
  3197  06ED  1D03               	skipz
  3198  06EE  2F0D               	goto	l3715
  3199                           
  3200                           ;CO2.c: 587: {
  3201                           ;CO2.c: 588: for (debounce = 0; debounce <= 200; debounce ++)
  3202  06EF  01BD               	clrf	main@debounce
  3203  06F0  30C9               	movlw	201
  3204  06F1  023D               	subwf	main@debounce,w
  3205  06F2  1803               	btfsc	3,0
  3206  06F3  2F07               	goto	l3713
  3207  06F4                     l3707:	
  3208                           
  3209                           ;CO2.c: 589: {
  3210                           ;CO2.c: 590: _delay(20000);
  3211  06F4  301A               	movlw	26
  3212  06F5  00AA               	movwf	??_main+1
  3213  06F6  30F8               	movlw	248
  3214  06F7  00A9               	movwf	??_main
  3215  06F8                     u7037:	
  3216  06F8  0BA9               	decfsz	??_main,f
  3217  06F9  2EF8               	goto	u7037
  3218  06FA  0BAA               	decfsz	??_main+1,f
  3219  06FB  2EF8               	goto	u7037
  3220  06FC  0000               	nop
  3221  06FD  3001               	movlw	1
  3222  06FE  1283               	bcf	3,5	;RP0=0, select bank0
  3223  06FF  1303               	bcf	3,6	;RP1=0, select bank0
  3224  0700  00A9               	movwf	??_main
  3225  0701  0829               	movf	??_main,w
  3226  0702  07BD               	addwf	main@debounce,f
  3227  0703  30C9               	movlw	201
  3228  0704  023D               	subwf	main@debounce,w
  3229  0705  1C03               	skipc
  3230  0706  2EF4               	goto	l3707
  3231  0707                     l3713:	
  3232                           
  3233                           ;CO2.c: 591: }
  3234                           ;CO2.c: 592: cnt = cnt + 1;
  3235  0707  083B               	movf	main@cnt,w
  3236  0708  3E01               	addlw	1
  3237  0709  00A9               	movwf	??_main
  3238  070A  0829               	movf	??_main,w
  3239  070B  00BB               	movwf	main@cnt
  3240                           
  3241                           ;CO2.c: 593: }
  3242  070C  2F25               	goto	l235
  3243  070D                     l3715:	
  3244                           
  3245                           ;CO2.c: 594: else
  3246                           ;CO2.c: 595: {
  3247                           ;CO2.c: 597: for (debounce = 0; debounce <= 100; debounce ++)
  3248  070D  01BD               	clrf	main@debounce
  3249  070E  3065               	movlw	101
  3250  070F  023D               	subwf	main@debounce,w
  3251  0710  1803               	btfsc	3,0
  3252  0711  2F25               	goto	l235
  3253  0712                     l3721:	
  3254                           
  3255                           ;CO2.c: 598: {
  3256                           ;CO2.c: 599: _delay(3000);
  3257  0712  3004               	movlw	4
  3258  0713  00AA               	movwf	??_main+1
  3259  0714  30E4               	movlw	228
  3260  0715  00A9               	movwf	??_main
  3261  0716                     u7047:	
  3262  0716  0BA9               	decfsz	??_main,f
  3263  0717  2F16               	goto	u7047
  3264  0718  0BAA               	decfsz	??_main+1,f
  3265  0719  2F16               	goto	u7047
  3266  071A  0000               	nop
  3267  071B  3001               	movlw	1
  3268  071C  1283               	bcf	3,5	;RP0=0, select bank0
  3269  071D  1303               	bcf	3,6	;RP1=0, select bank0
  3270  071E  00A9               	movwf	??_main
  3271  071F  0829               	movf	??_main,w
  3272  0720  07BD               	addwf	main@debounce,f
  3273  0721  3065               	movlw	101
  3274  0722  023D               	subwf	main@debounce,w
  3275  0723  1C03               	skipc
  3276  0724  2F12               	goto	l3721
  3277  0725                     l235:	
  3278                           
  3279                           ;CO2.c: 600: }
  3280                           ;CO2.c: 601: }
  3281                           ;CO2.c: 606: }
  3282                           ;CO2.c: 607: if(( RD0 == 0 ) && ( cnt == 0 ))
  3283  0725  1683               	bsf	3,5	;RP0=1, select bank31
  3284  0726  1703               	bsf	3,6	;RP1=1, select bank31
  3285  0727  1803               	btfsc	3,0	;volatile
  3286  0728  2F41               	goto	l243
  3287  0729  1283               	bcf	3,5	;RP0=0, select bank0
  3288  072A  1303               	bcf	3,6	;RP1=0, select bank0
  3289  072B  08BB               	movf	main@cnt,f
  3290  072C  1D03               	skipz
  3291  072D  2F41               	goto	l243
  3292                           
  3293                           ;CO2.c: 608: {
  3294                           ;CO2.c: 610: for (debounce = 0; debounce <= 99; debounce ++)
  3295  072E  01BD               	clrf	main@debounce
  3296  072F  3064               	movlw	100
  3297  0730  023D               	subwf	main@debounce,w
  3298  0731  1803               	btfsc	3,0
  3299  0732  2F41               	goto	l243
  3300  0733                     l3735:	
  3301                           
  3302                           ;CO2.c: 611: {
  3303                           ;CO2.c: 612: _delay(250);
  3304  0733  3053               	movlw	83
  3305  0734  00A9               	movwf	??_main
  3306  0735                     u7057:	
  3307  0735  0BA9               	decfsz	??_main,f
  3308  0736  2F35               	goto	u7057
  3309  0737  3001               	movlw	1
  3310  0738  1283               	bcf	3,5	;RP0=0, select bank0
  3311  0739  1303               	bcf	3,6	;RP1=0, select bank0
  3312  073A  00A9               	movwf	??_main
  3313  073B  0829               	movf	??_main,w
  3314  073C  07BD               	addwf	main@debounce,f
  3315  073D  3064               	movlw	100
  3316  073E  023D               	subwf	main@debounce,w
  3317  073F  1C03               	skipc
  3318  0740  2F33               	goto	l3735
  3319  0741                     l243:	
  3320                           
  3321                           ;CO2.c: 613: }
  3322                           ;CO2.c: 614: }
  3323                           ;CO2.c: 615: if( RD0 == 0 )
  3324  0741  1683               	bsf	3,5	;RP0=1, select bank31
  3325  0742  1703               	bsf	3,6	;RP1=1, select bank31
  3326  0743  1803               	btfsc	3,0	;volatile
  3327  0744  2FC2               	goto	l246
  3328                           
  3329                           ;CO2.c: 616: {
  3330                           ;CO2.c: 617: cutmode = cutmode + 1;
  3331  0745  1283               	bcf	3,5	;RP0=0, select bank0
  3332  0746  1303               	bcf	3,6	;RP1=0, select bank0
  3333  0747  0836               	movf	main@cutmode,w
  3334  0748  3E01               	addlw	1
  3335  0749  00A9               	movwf	??_main
  3336  074A  0829               	movf	??_main,w
  3337  074B  00B6               	movwf	main@cutmode
  3338                           
  3339                           ;CO2.c: 618: if( cutmode == 0x00 )
  3340  074C  08B6               	movf	main@cutmode,f
  3341  074D  1D03               	skipz
  3342  074E  2F5C               	goto	l247
  3343                           
  3344                           ;CO2.c: 619: {
  3345                           ;CO2.c: 620: values[5] = 0x70;
  3346  074F  3070               	movlw	112
  3347  0750  00A9               	movwf	??_main
  3348  0751  0829               	movf	??_main,w
  3349  0752  00C3               	movwf	_values+5	;volatile
  3350                           
  3351                           ;CO2.c: 621: _delay(25000);
  3352  0753  3021               	movlw	33
  3353  0754  00AA               	movwf	??_main+1
  3354  0755  3076               	movlw	118
  3355  0756  00A9               	movwf	??_main
  3356  0757                     u7067:	
  3357  0757  0BA9               	decfsz	??_main,f
  3358  0758  2F57               	goto	u7067
  3359  0759  0BAA               	decfsz	??_main+1,f
  3360  075A  2F57               	goto	u7067
  3361  075B  0000               	nop
  3362  075C                     l247:	
  3363                           
  3364                           ;CO2.c: 622: }
  3365                           ;CO2.c: 623: if( cutmode == 0x01 )
  3366  075C  1283               	bcf	3,5	;RP0=0, select bank0
  3367  075D  1303               	bcf	3,6	;RP1=0, select bank0
  3368  075E  0836               	movf	main@cutmode,w
  3369  075F  3A01               	xorlw	1
  3370  0760  1D03               	skipz
  3371  0761  2F6F               	goto	l248
  3372                           
  3373                           ;CO2.c: 624: {
  3374                           ;CO2.c: 626: values[5] = 0x40;
  3375  0762  3040               	movlw	64
  3376  0763  00A9               	movwf	??_main
  3377  0764  0829               	movf	??_main,w
  3378  0765  00C3               	movwf	_values+5	;volatile
  3379                           
  3380                           ;CO2.c: 627: _delay(25000);
  3381  0766  3021               	movlw	33
  3382  0767  00AA               	movwf	??_main+1
  3383  0768  3076               	movlw	118
  3384  0769  00A9               	movwf	??_main
  3385  076A                     u7077:	
  3386  076A  0BA9               	decfsz	??_main,f
  3387  076B  2F6A               	goto	u7077
  3388  076C  0BAA               	decfsz	??_main+1,f
  3389  076D  2F6A               	goto	u7077
  3390  076E  0000               	nop
  3391  076F                     l248:	
  3392                           
  3393                           ;CO2.c: 628: }
  3394                           ;CO2.c: 629: if( cutmode == 0x02 )
  3395  076F  1283               	bcf	3,5	;RP0=0, select bank0
  3396  0770  1303               	bcf	3,6	;RP1=0, select bank0
  3397  0771  0836               	movf	main@cutmode,w
  3398  0772  3A02               	xorlw	2
  3399  0773  1D03               	skipz
  3400  0774  2F82               	goto	l249
  3401                           
  3402                           ;CO2.c: 630: {
  3403                           ;CO2.c: 631: values[5] = 0xF0;
  3404  0775  30F0               	movlw	240
  3405  0776  00A9               	movwf	??_main
  3406  0777  0829               	movf	??_main,w
  3407  0778  00C3               	movwf	_values+5	;volatile
  3408                           
  3409                           ;CO2.c: 632: _delay(25000);
  3410  0779  3021               	movlw	33
  3411  077A  00AA               	movwf	??_main+1
  3412  077B  3076               	movlw	118
  3413  077C  00A9               	movwf	??_main
  3414  077D                     u7087:	
  3415  077D  0BA9               	decfsz	??_main,f
  3416  077E  2F7D               	goto	u7087
  3417  077F  0BAA               	decfsz	??_main+1,f
  3418  0780  2F7D               	goto	u7087
  3419  0781  0000               	nop
  3420  0782                     l249:	
  3421                           
  3422                           ;CO2.c: 633: }
  3423                           ;CO2.c: 635: if( cutmode ==0x03 )
  3424  0782  1283               	bcf	3,5	;RP0=0, select bank0
  3425  0783  1303               	bcf	3,6	;RP1=0, select bank0
  3426  0784  0836               	movf	main@cutmode,w
  3427  0785  3A03               	xorlw	3
  3428  0786  1D03               	skipz
  3429  0787  2F95               	goto	l250
  3430                           
  3431                           ;CO2.c: 636: {
  3432                           ;CO2.c: 637: values[4] = 0x70;
  3433  0788  3070               	movlw	112
  3434  0789  00A9               	movwf	??_main
  3435  078A  0829               	movf	??_main,w
  3436  078B  00C2               	movwf	_values+4	;volatile
  3437                           
  3438                           ;CO2.c: 638: _delay(25000);
  3439  078C  3021               	movlw	33
  3440  078D  00AA               	movwf	??_main+1
  3441  078E  3076               	movlw	118
  3442  078F  00A9               	movwf	??_main
  3443  0790                     u7097:	
  3444  0790  0BA9               	decfsz	??_main,f
  3445  0791  2F90               	goto	u7097
  3446  0792  0BAA               	decfsz	??_main+1,f
  3447  0793  2F90               	goto	u7097
  3448  0794  0000               	nop
  3449  0795                     l250:	
  3450                           
  3451                           ;CO2.c: 639: }
  3452                           ;CO2.c: 640: if(cutmode ==0x04)
  3453  0795  1283               	bcf	3,5	;RP0=0, select bank0
  3454  0796  1303               	bcf	3,6	;RP1=0, select bank0
  3455  0797  0836               	movf	main@cutmode,w
  3456  0798  3A04               	xorlw	4
  3457  0799  1D03               	skipz
  3458  079A  2FA8               	goto	l3755
  3459                           
  3460                           ;CO2.c: 641: {
  3461                           ;CO2.c: 642: cutmode = 0xFF;
  3462  079B  30FF               	movlw	255
  3463  079C  00A9               	movwf	??_main
  3464  079D  0829               	movf	??_main,w
  3465  079E  00B6               	movwf	main@cutmode
  3466                           
  3467                           ;CO2.c: 643: _delay(25000);
  3468  079F  3021               	movlw	33
  3469  07A0  00AA               	movwf	??_main+1
  3470  07A1  3076               	movlw	118
  3471  07A2  00A9               	movwf	??_main
  3472  07A3                     u7107:	
  3473  07A3  0BA9               	decfsz	??_main,f
  3474  07A4  2FA3               	goto	u7107
  3475  07A5  0BAA               	decfsz	??_main+1,f
  3476  07A6  2FA3               	goto	u7107
  3477  07A7  0000               	nop
  3478  07A8                     l3755:	
  3479                           
  3480                           ;CO2.c: 644: }
  3481                           ;CO2.c: 646: for (debounce = 0; debounce <= 200; debounce ++)
  3482  07A8  1283               	bcf	3,5	;RP0=0, select bank0
  3483  07A9  1303               	bcf	3,6	;RP1=0, select bank0
  3484  07AA  01BD               	clrf	main@debounce
  3485  07AB  30C9               	movlw	201
  3486  07AC  023D               	subwf	main@debounce,w
  3487  07AD  1803               	btfsc	3,0
  3488  07AE  2FC2               	goto	l246
  3489  07AF                     l3761:	
  3490                           
  3491                           ;CO2.c: 647: { {
  3492                           ;CO2.c: 648: _delay(25000);
  3493  07AF  3021               	movlw	33
  3494  07B0  00AA               	movwf	??_main+1
  3495  07B1  3076               	movlw	118
  3496  07B2  00A9               	movwf	??_main
  3497  07B3                     u7117:	
  3498  07B3  0BA9               	decfsz	??_main,f
  3499  07B4  2FB3               	goto	u7117
  3500  07B5  0BAA               	decfsz	??_main+1,f
  3501  07B6  2FB3               	goto	u7117
  3502  07B7  0000               	nop
  3503  07B8  3001               	movlw	1
  3504  07B9  1283               	bcf	3,5	;RP0=0, select bank0
  3505  07BA  1303               	bcf	3,6	;RP1=0, select bank0
  3506  07BB  00A9               	movwf	??_main
  3507  07BC  0829               	movf	??_main,w
  3508  07BD  07BD               	addwf	main@debounce,f
  3509  07BE  30C9               	movlw	201
  3510  07BF  023D               	subwf	main@debounce,w
  3511  07C0  1C03               	skipc
  3512  07C1  2FAF               	goto	l3761
  3513  07C2                     l246:	
  3514                           
  3515                           ;CO2.c: 649: }
  3516                           ;CO2.c: 650: }
  3517                           ;CO2.c: 652: }
  3518                           ;CO2.c: 653: if( RD1 == 0 )
  3519  07C2  1683               	bsf	3,5	;RP0=1, select bank31
  3520  07C3  1703               	bsf	3,6	;RP1=1, select bank31
  3521  07C4  1883               	btfsc	3,1	;volatile
  3522  07C5  2881               	goto	l254
  3523                           
  3524                           ;CO2.c: 654: {
  3525                           ;CO2.c: 655: if( coagpower < 150 )
  3526  07C6  3096               	movlw	150
  3527  07C7  1283               	bcf	3,5	;RP0=0, select bank0
  3528  07C8  1303               	bcf	3,6	;RP1=0, select bank0
  3529  07C9  0231               	subwf	main@coagpower,w
  3530  07CA  1803               	skipnc
  3531  07CB  2848               	goto	l255
  3532                           
  3533                           ;CO2.c: 656: {
  3534                           ;CO2.c: 658: coagpower = coagpower + 1;
  3535  07CC  0831               	movf	main@coagpower,w
  3536  07CD  3E01               	addlw	1
  3537  07CE  00A9               	movwf	??_main
  3538  07CF  0829               	movf	??_main,w
  3539  07D0  00B1               	movwf	main@coagpower
  3540                           
  3541                           ;CO2.c: 659: hundreds = coagpower / 100;
  3542  07D1  3064               	movlw	100
  3543  07D2  00A0               	movwf	___awdiv@divisor
  3544  07D3  3000               	movlw	0
  3545  07D4  00A1               	movwf	___awdiv@divisor+1
  3546  07D5  0831               	movf	main@coagpower,w
  3547  07D6  00A9               	movwf	??_main
  3548  07D7  01AA               	clrf	??_main+1
  3549  07D8  0829               	movf	??_main,w
  3550  07D9  00A2               	movwf	___awdiv@dividend
  3551  07DA  082A               	movf	??_main+1,w
  3552  07DB  00A3               	movwf	___awdiv@dividend+1
  3553  07DC  2798               	fcall	___awdiv
  3554  07DD  1283               	bcf	3,5	;RP0=0, select bank0
  3555  07DE  1303               	bcf	3,6	;RP1=0, select bank0
  3556  07DF  0820               	movf	?___awdiv,w
  3557  07E0  00AB               	movwf	??_main+2
  3558  07E1  082B               	movf	??_main+2,w
  3559  07E2  00B8               	movwf	main@hundreds
  3560                           
  3561                           ;CO2.c: 660: temp = (coagpower - ( hundreds * 100 ));
  3562  07E3  3064               	movlw	100
  3563  07E4  00A9               	movwf	??_main
  3564  07E5  0829               	movf	??_main,w
  3565  07E6  00A0               	movwf	___bmul@multiplicand
  3566  07E7  0838               	movf	main@hundreds,w
  3567  07E8  26A6               	fcall	___bmul
  3568  07E9  3AFF               	xorlw	255
  3569  07EA  3E01               	addlw	1
  3570  07EB  1283               	bcf	3,5	;RP0=0, select bank0
  3571  07EC  1303               	bcf	3,6	;RP1=0, select bank0
  3572  07ED  0731               	addwf	main@coagpower,w
  3573  07EE  00AA               	movwf	??_main+1
  3574  07EF  082A               	movf	??_main+1,w
  3575  07F0  00B4               	movwf	main@temp
  3576                           
  3577                           ;CO2.c: 661: units = temp % 10;
  3578  07F1  300A               	movlw	10
  3579  07F2  00A0               	movwf	___awmod@divisor
  3580  07F3  3000               	movlw	0
  3581  07F4  00A1               	movwf	___awmod@divisor+1
  3582  07F5  0834               	movf	main@temp,w
  3583  07F6  00A9               	movwf	??_main
  3584  07F7  01AA               	clrf	??_main+1
  3585  07F8  0829               	movf	??_main,w
  3586  07F9  00A2               	movwf	___awmod@dividend
  3587  07FA  082A               	movf	??_main+1,w
  3588  07FB  00A3               	movwf	___awmod@dividend+1
  3589  07FC  26F9               	fcall	___awmod
  3590  07FD  1283               	bcf	3,5	;RP0=0, select bank0
  3591  07FE  1303               	bcf	3,6	;RP1=0, select bank0
  3592  07FF  0820               	movf	?___awmod,w
  3593  0800  00AB               	movwf	??_main+2
  3594  0801  082B               	movf	??_main+2,w
  3595  0802  00B9               	movwf	main@units
  3596                           
  3597                           ;CO2.c: 662: units = units << 4;
  3598  0803  0839               	movf	main@units,w
  3599  0804  00A9               	movwf	??_main
  3600  0805  3003               	movlw	3
  3601  0806                     u6105:	
  3602  0806  1003               	clrc
  3603  0807  0DA9               	rlf	??_main,f
  3604  0808  3EFF               	addlw	-1
  3605  0809  1D03               	skipz
  3606  080A  2806               	goto	u6105
  3607  080B  1003               	clrc
  3608  080C  0D29               	rlf	??_main,w
  3609  080D  00AA               	movwf	??_main+1
  3610  080E  082A               	movf	??_main+1,w
  3611  080F  00B9               	movwf	main@units
  3612                           
  3613                           ;CO2.c: 663: values[12] = units;
  3614  0810  0839               	movf	main@units,w
  3615  0811  00A9               	movwf	??_main
  3616  0812  0829               	movf	??_main,w
  3617  0813  00CA               	movwf	_values+12	;volatile
  3618                           
  3619                           ;CO2.c: 664: tens = temp / 10;
  3620  0814  300A               	movlw	10
  3621  0815  00A0               	movwf	___awdiv@divisor
  3622  0816  3000               	movlw	0
  3623  0817  00A1               	movwf	___awdiv@divisor+1
  3624  0818  0834               	movf	main@temp,w
  3625  0819  00A9               	movwf	??_main
  3626  081A  01AA               	clrf	??_main+1
  3627  081B  0829               	movf	??_main,w
  3628  081C  00A2               	movwf	___awdiv@dividend
  3629  081D  082A               	movf	??_main+1,w
  3630  081E  00A3               	movwf	___awdiv@dividend+1
  3631  081F  2798               	fcall	___awdiv
  3632  0820  1283               	bcf	3,5	;RP0=0, select bank0
  3633  0821  1303               	bcf	3,6	;RP1=0, select bank0
  3634  0822  0820               	movf	?___awdiv,w
  3635  0823  00AB               	movwf	??_main+2
  3636  0824  082B               	movf	??_main+2,w
  3637  0825  00BA               	movwf	main@tens
  3638                           
  3639                           ;CO2.c: 665: tens = tens << 4;
  3640  0826  083A               	movf	main@tens,w
  3641  0827  00A9               	movwf	??_main
  3642  0828  3003               	movlw	3
  3643  0829                     u6115:	
  3644  0829  1003               	clrc
  3645  082A  0DA9               	rlf	??_main,f
  3646  082B  3EFF               	addlw	-1
  3647  082C  1D03               	skipz
  3648  082D  2829               	goto	u6115
  3649  082E  1003               	clrc
  3650  082F  0D29               	rlf	??_main,w
  3651  0830  00AA               	movwf	??_main+1
  3652  0831  082A               	movf	??_main+1,w
  3653  0832  00BA               	movwf	main@tens
  3654                           
  3655                           ;CO2.c: 666: values[10] = tens;
  3656  0833  083A               	movf	main@tens,w
  3657  0834  00A9               	movwf	??_main
  3658  0835  0829               	movf	??_main,w
  3659  0836  00C8               	movwf	_values+10	;volatile
  3660                           
  3661                           ;CO2.c: 667: hundreds = hundreds << 4;
  3662  0837  0838               	movf	main@hundreds,w
  3663  0838  00A9               	movwf	??_main
  3664  0839  3003               	movlw	3
  3665  083A                     u6125:	
  3666  083A  1003               	clrc
  3667  083B  0DA9               	rlf	??_main,f
  3668  083C  3EFF               	addlw	-1
  3669  083D  1D03               	skipz
  3670  083E  283A               	goto	u6125
  3671  083F  1003               	clrc
  3672  0840  0D29               	rlf	??_main,w
  3673  0841  00AA               	movwf	??_main+1
  3674  0842  082A               	movf	??_main+1,w
  3675  0843  00B8               	movwf	main@hundreds
  3676                           
  3677                           ;CO2.c: 668: values[9] = hundreds;
  3678  0844  0838               	movf	main@hundreds,w
  3679  0845  00A9               	movwf	??_main
  3680  0846  0829               	movf	??_main,w
  3681  0847  00C7               	movwf	_values+9	;volatile
  3682  0848                     l255:	
  3683                           
  3684                           ;CO2.c: 669: }
  3685                           ;CO2.c: 670: if(cnt == 0)
  3686  0848  08BB               	movf	main@cnt,f
  3687  0849  1D03               	skipz
  3688  084A  2869               	goto	l3803
  3689                           
  3690                           ;CO2.c: 671: {
  3691                           ;CO2.c: 672: for (debounce = 0; debounce <= 200; debounce ++)
  3692  084B  01BD               	clrf	main@debounce
  3693  084C  30C9               	movlw	201
  3694  084D  023D               	subwf	main@debounce,w
  3695  084E  1803               	btfsc	3,0
  3696  084F  2863               	goto	l3801
  3697  0850                     l3795:	
  3698                           
  3699                           ;CO2.c: 673: {
  3700                           ;CO2.c: 674: _delay(20000);
  3701  0850  301A               	movlw	26
  3702  0851  00AA               	movwf	??_main+1
  3703  0852  30F8               	movlw	248
  3704  0853  00A9               	movwf	??_main
  3705  0854                     u7127:	
  3706  0854  0BA9               	decfsz	??_main,f
  3707  0855  2854               	goto	u7127
  3708  0856  0BAA               	decfsz	??_main+1,f
  3709  0857  2854               	goto	u7127
  3710  0858  0000               	nop
  3711  0859  3001               	movlw	1
  3712  085A  1283               	bcf	3,5	;RP0=0, select bank0
  3713  085B  1303               	bcf	3,6	;RP1=0, select bank0
  3714  085C  00A9               	movwf	??_main
  3715  085D  0829               	movf	??_main,w
  3716  085E  07BD               	addwf	main@debounce,f
  3717  085F  30C9               	movlw	201
  3718  0860  023D               	subwf	main@debounce,w
  3719  0861  1C03               	skipc
  3720  0862  2850               	goto	l3795
  3721  0863                     l3801:	
  3722                           
  3723                           ;CO2.c: 675: }
  3724                           ;CO2.c: 676: cnt = cnt + 1;
  3725  0863  083B               	movf	main@cnt,w
  3726  0864  3E01               	addlw	1
  3727  0865  00A9               	movwf	??_main
  3728  0866  0829               	movf	??_main,w
  3729  0867  00BB               	movwf	main@cnt
  3730                           
  3731                           ;CO2.c: 677: }
  3732  0868  2881               	goto	l254
  3733  0869                     l3803:	
  3734                           
  3735                           ;CO2.c: 678: else
  3736                           ;CO2.c: 679: {
  3737                           ;CO2.c: 681: for (debounce = 0; debounce <= 100; debounce ++)
  3738  0869  01BD               	clrf	main@debounce
  3739  086A  3065               	movlw	101
  3740  086B  023D               	subwf	main@debounce,w
  3741  086C  1803               	btfsc	3,0
  3742  086D  2881               	goto	l254
  3743  086E                     l3809:	
  3744                           
  3745                           ;CO2.c: 682: {
  3746                           ;CO2.c: 683: _delay(3000);
  3747  086E  3004               	movlw	4
  3748  086F  00AA               	movwf	??_main+1
  3749  0870  30E4               	movlw	228
  3750  0871  00A9               	movwf	??_main
  3751  0872                     u7137:	
  3752  0872  0BA9               	decfsz	??_main,f
  3753  0873  2872               	goto	u7137
  3754  0874  0BAA               	decfsz	??_main+1,f
  3755  0875  2872               	goto	u7137
  3756  0876  0000               	nop
  3757  0877  3001               	movlw	1
  3758  0878  1283               	bcf	3,5	;RP0=0, select bank0
  3759  0879  1303               	bcf	3,6	;RP1=0, select bank0
  3760  087A  00A9               	movwf	??_main
  3761  087B  0829               	movf	??_main,w
  3762  087C  07BD               	addwf	main@debounce,f
  3763  087D  3065               	movlw	101
  3764  087E  023D               	subwf	main@debounce,w
  3765  087F  1C03               	skipc
  3766  0880  286E               	goto	l3809
  3767  0881                     l254:	
  3768                           
  3769                           ;CO2.c: 684: }
  3770                           ;CO2.c: 685: }
  3771                           ;CO2.c: 689: }
  3772                           ;CO2.c: 691: if(( RD2 == 0 ) && ( cnt == 0 ))
  3773  0881  1683               	bsf	3,5	;RP0=1, select bank31
  3774  0882  1703               	bsf	3,6	;RP1=1, select bank31
  3775  0883  1903               	btfsc	3,2	;volatile
  3776  0884  289D               	goto	l262
  3777  0885  1283               	bcf	3,5	;RP0=0, select bank0
  3778  0886  1303               	bcf	3,6	;RP1=0, select bank0
  3779  0887  08BB               	movf	main@cnt,f
  3780  0888  1D03               	skipz
  3781  0889  289D               	goto	l262
  3782                           
  3783                           ;CO2.c: 692: {
  3784                           ;CO2.c: 693: for (debounce = 0; debounce <= 99; debounce ++)
  3785  088A  01BD               	clrf	main@debounce
  3786  088B  3064               	movlw	100
  3787  088C  023D               	subwf	main@debounce,w
  3788  088D  1803               	btfsc	3,0
  3789  088E  289D               	goto	l262
  3790  088F                     l3823:	
  3791                           
  3792                           ;CO2.c: 694: {
  3793                           ;CO2.c: 695: _delay(250);
  3794  088F  3053               	movlw	83
  3795  0890  00A9               	movwf	??_main
  3796  0891                     u7147:	
  3797  0891  0BA9               	decfsz	??_main,f
  3798  0892  2891               	goto	u7147
  3799  0893  3001               	movlw	1
  3800  0894  1283               	bcf	3,5	;RP0=0, select bank0
  3801  0895  1303               	bcf	3,6	;RP1=0, select bank0
  3802  0896  00A9               	movwf	??_main
  3803  0897  0829               	movf	??_main,w
  3804  0898  07BD               	addwf	main@debounce,f
  3805  0899  3064               	movlw	100
  3806  089A  023D               	subwf	main@debounce,w
  3807  089B  1C03               	skipc
  3808  089C  288F               	goto	l3823
  3809  089D                     l262:	
  3810                           
  3811                           ;CO2.c: 696: }
  3812                           ;CO2.c: 697: }
  3813                           ;CO2.c: 698: if( RD2 == 0 )
  3814  089D  1683               	bsf	3,5	;RP0=1, select bank31
  3815  089E  1703               	bsf	3,6	;RP1=1, select bank31
  3816  089F  1903               	btfsc	3,2	;volatile
  3817  08A0  2955               	goto	l265
  3818                           
  3819                           ;CO2.c: 699: {
  3820                           ;CO2.c: 700: if( coagpower > 0 )
  3821  08A1  1283               	bcf	3,5	;RP0=0, select bank0
  3822  08A2  1303               	bcf	3,6	;RP1=0, select bank0
  3823  08A3  0831               	movf	main@coagpower,w
  3824  08A4  1903               	btfsc	3,2
  3825  08A5  2922               	goto	l3851
  3826                           
  3827                           ;CO2.c: 701: {
  3828                           ;CO2.c: 702: coagpower = coagpower - 1;
  3829  08A6  0831               	movf	main@coagpower,w
  3830  08A7  3EFF               	addlw	255
  3831  08A8  00A9               	movwf	??_main
  3832  08A9  0829               	movf	??_main,w
  3833  08AA  00B1               	movwf	main@coagpower
  3834                           
  3835                           ;CO2.c: 703: hundreds = coagpower / 100;
  3836  08AB  3064               	movlw	100
  3837  08AC  00A0               	movwf	___awdiv@divisor
  3838  08AD  3000               	movlw	0
  3839  08AE  00A1               	movwf	___awdiv@divisor+1
  3840  08AF  0831               	movf	main@coagpower,w
  3841  08B0  00A9               	movwf	??_main
  3842  08B1  01AA               	clrf	??_main+1
  3843  08B2  0829               	movf	??_main,w
  3844  08B3  00A2               	movwf	___awdiv@dividend
  3845  08B4  082A               	movf	??_main+1,w
  3846  08B5  00A3               	movwf	___awdiv@dividend+1
  3847  08B6  2798               	fcall	___awdiv
  3848  08B7  1283               	bcf	3,5	;RP0=0, select bank0
  3849  08B8  1303               	bcf	3,6	;RP1=0, select bank0
  3850  08B9  0820               	movf	?___awdiv,w
  3851  08BA  00AB               	movwf	??_main+2
  3852  08BB  082B               	movf	??_main+2,w
  3853  08BC  00B8               	movwf	main@hundreds
  3854                           
  3855                           ;CO2.c: 704: hundreds = hundreds << 4;
  3856  08BD  0838               	movf	main@hundreds,w
  3857  08BE  00A9               	movwf	??_main
  3858  08BF  3003               	movlw	3
  3859  08C0                     u6245:	
  3860  08C0  1003               	clrc
  3861  08C1  0DA9               	rlf	??_main,f
  3862  08C2  3EFF               	addlw	-1
  3863  08C3  1D03               	skipz
  3864  08C4  28C0               	goto	u6245
  3865  08C5  1003               	clrc
  3866  08C6  0D29               	rlf	??_main,w
  3867  08C7  00AA               	movwf	??_main+1
  3868  08C8  082A               	movf	??_main+1,w
  3869  08C9  00B8               	movwf	main@hundreds
  3870                           
  3871                           ;CO2.c: 705: values[9] = hundreds;
  3872  08CA  0838               	movf	main@hundreds,w
  3873  08CB  00A9               	movwf	??_main
  3874  08CC  0829               	movf	??_main,w
  3875  08CD  00C7               	movwf	_values+9	;volatile
  3876                           
  3877                           ;CO2.c: 706: temp = (coagpower - ( hundreds * 100 ));
  3878  08CE  3064               	movlw	100
  3879  08CF  00A9               	movwf	??_main
  3880  08D0  0829               	movf	??_main,w
  3881  08D1  00A0               	movwf	___bmul@multiplicand
  3882  08D2  0838               	movf	main@hundreds,w
  3883  08D3  26A6               	fcall	___bmul
  3884  08D4  3AFF               	xorlw	255
  3885  08D5  3E01               	addlw	1
  3886  08D6  1283               	bcf	3,5	;RP0=0, select bank0
  3887  08D7  1303               	bcf	3,6	;RP1=0, select bank0
  3888  08D8  0731               	addwf	main@coagpower,w
  3889  08D9  00AA               	movwf	??_main+1
  3890  08DA  082A               	movf	??_main+1,w
  3891  08DB  00B4               	movwf	main@temp
  3892                           
  3893                           ;CO2.c: 707: tens = temp / 10;
  3894  08DC  300A               	movlw	10
  3895  08DD  00A0               	movwf	___awdiv@divisor
  3896  08DE  3000               	movlw	0
  3897  08DF  00A1               	movwf	___awdiv@divisor+1
  3898  08E0  0834               	movf	main@temp,w
  3899  08E1  00A9               	movwf	??_main
  3900  08E2  01AA               	clrf	??_main+1
  3901  08E3  0829               	movf	??_main,w
  3902  08E4  00A2               	movwf	___awdiv@dividend
  3903  08E5  082A               	movf	??_main+1,w
  3904  08E6  00A3               	movwf	___awdiv@dividend+1
  3905  08E7  2798               	fcall	___awdiv
  3906  08E8  1283               	bcf	3,5	;RP0=0, select bank0
  3907  08E9  1303               	bcf	3,6	;RP1=0, select bank0
  3908  08EA  0820               	movf	?___awdiv,w
  3909  08EB  00AB               	movwf	??_main+2
  3910  08EC  082B               	movf	??_main+2,w
  3911  08ED  00BA               	movwf	main@tens
  3912                           
  3913                           ;CO2.c: 708: tens = tens << 4;
  3914  08EE  083A               	movf	main@tens,w
  3915  08EF  00A9               	movwf	??_main
  3916  08F0  3003               	movlw	3
  3917  08F1                     u6255:	
  3918  08F1  1003               	clrc
  3919  08F2  0DA9               	rlf	??_main,f
  3920  08F3  3EFF               	addlw	-1
  3921  08F4  1D03               	skipz
  3922  08F5  28F1               	goto	u6255
  3923  08F6  1003               	clrc
  3924  08F7  0D29               	rlf	??_main,w
  3925  08F8  00AA               	movwf	??_main+1
  3926  08F9  082A               	movf	??_main+1,w
  3927  08FA  00BA               	movwf	main@tens
  3928                           
  3929                           ;CO2.c: 709: values[10] = tens;
  3930  08FB  083A               	movf	main@tens,w
  3931  08FC  00A9               	movwf	??_main
  3932  08FD  0829               	movf	??_main,w
  3933  08FE  00C8               	movwf	_values+10	;volatile
  3934                           
  3935                           ;CO2.c: 710: units = temp % 10;
  3936  08FF  300A               	movlw	10
  3937  0900  00A0               	movwf	___awmod@divisor
  3938  0901  3000               	movlw	0
  3939  0902  00A1               	movwf	___awmod@divisor+1
  3940  0903  0834               	movf	main@temp,w
  3941  0904  00A9               	movwf	??_main
  3942  0905  01AA               	clrf	??_main+1
  3943  0906  0829               	movf	??_main,w
  3944  0907  00A2               	movwf	___awmod@dividend
  3945  0908  082A               	movf	??_main+1,w
  3946  0909  00A3               	movwf	___awmod@dividend+1
  3947  090A  26F9               	fcall	___awmod
  3948  090B  1283               	bcf	3,5	;RP0=0, select bank0
  3949  090C  1303               	bcf	3,6	;RP1=0, select bank0
  3950  090D  0820               	movf	?___awmod,w
  3951  090E  00AB               	movwf	??_main+2
  3952  090F  082B               	movf	??_main+2,w
  3953  0910  00B9               	movwf	main@units
  3954                           
  3955                           ;CO2.c: 711: units = units << 4;
  3956  0911  0839               	movf	main@units,w
  3957  0912  00A9               	movwf	??_main
  3958  0913  3003               	movlw	3
  3959  0914                     u6265:	
  3960  0914  1003               	clrc
  3961  0915  0DA9               	rlf	??_main,f
  3962  0916  3EFF               	addlw	-1
  3963  0917  1D03               	skipz
  3964  0918  2914               	goto	u6265
  3965  0919  1003               	clrc
  3966  091A  0D29               	rlf	??_main,w
  3967  091B  00AA               	movwf	??_main+1
  3968  091C  082A               	movf	??_main+1,w
  3969  091D  00B9               	movwf	main@units
  3970                           
  3971                           ;CO2.c: 712: values[12] = units;
  3972  091E  0839               	movf	main@units,w
  3973  091F  00A9               	movwf	??_main
  3974  0920  0829               	movf	??_main,w
  3975  0921  00CA               	movwf	_values+12	;volatile
  3976  0922                     l3851:	
  3977                           
  3978                           ;CO2.c: 713: }
  3979                           ;CO2.c: 714: if(cnt = 0)
  3980  0922  01BB               	clrf	main@cnt
  3981  0923  293D               	goto	l3867
  3982  0924                     l3859:	
  3983                           ;CO2.c: 715: {
  3984                           ;CO2.c: 716: for (debounce = 0; debounce <= 200; debounce ++)
  3985                           
  3986                           
  3987                           ;CO2.c: 717: {
  3988                           ;CO2.c: 718: _delay(20000);
  3989  0924  301A               	movlw	26
  3990  0925  00AA               	movwf	??_main+1
  3991  0926  30F8               	movlw	248
  3992  0927  00A9               	movwf	??_main
  3993  0928                     u7157:	
  3994  0928  0BA9               	decfsz	??_main,f
  3995  0929  2928               	goto	u7157
  3996  092A  0BAA               	decfsz	??_main+1,f
  3997  092B  2928               	goto	u7157
  3998  092C  0000               	nop
  3999  092D  3001               	movlw	1
  4000  092E  1283               	bcf	3,5	;RP0=0, select bank0
  4001  092F  1303               	bcf	3,6	;RP1=0, select bank0
  4002  0930  00A9               	movwf	??_main
  4003  0931  0829               	movf	??_main,w
  4004  0932  07BD               	addwf	main@debounce,f
  4005  0933  30C9               	movlw	201
  4006  0934  023D               	subwf	main@debounce,w
  4007  0935  1C03               	skipc
  4008  0936  2924               	goto	l3859
  4009                           
  4010                           ;CO2.c: 719: }
  4011                           ;CO2.c: 720: cnt = cnt + 1;
  4012  0937  083B               	movf	main@cnt,w
  4013  0938  3E01               	addlw	1
  4014  0939  00A9               	movwf	??_main
  4015  093A  0829               	movf	??_main,w
  4016  093B  00BB               	movwf	main@cnt
  4017                           
  4018                           ;CO2.c: 721: }
  4019  093C  2955               	goto	l265
  4020  093D                     l3867:	
  4021                           
  4022                           ;CO2.c: 722: else
  4023                           ;CO2.c: 723: {
  4024                           ;CO2.c: 725: for (debounce = 0; debounce <= 100; debounce ++)
  4025  093D  01BD               	clrf	main@debounce
  4026  093E  3065               	movlw	101
  4027  093F  023D               	subwf	main@debounce,w
  4028  0940  1803               	btfsc	3,0
  4029  0941  2955               	goto	l265
  4030  0942                     l3873:	
  4031                           
  4032                           ;CO2.c: 726: {
  4033                           ;CO2.c: 727: _delay(3000);
  4034  0942  3004               	movlw	4
  4035  0943  00AA               	movwf	??_main+1
  4036  0944  30E4               	movlw	228
  4037  0945  00A9               	movwf	??_main
  4038  0946                     u7167:	
  4039  0946  0BA9               	decfsz	??_main,f
  4040  0947  2946               	goto	u7167
  4041  0948  0BAA               	decfsz	??_main+1,f
  4042  0949  2946               	goto	u7167
  4043  094A  0000               	nop
  4044  094B  3001               	movlw	1
  4045  094C  1283               	bcf	3,5	;RP0=0, select bank0
  4046  094D  1303               	bcf	3,6	;RP1=0, select bank0
  4047  094E  00A9               	movwf	??_main
  4048  094F  0829               	movf	??_main,w
  4049  0950  07BD               	addwf	main@debounce,f
  4050  0951  3065               	movlw	101
  4051  0952  023D               	subwf	main@debounce,w
  4052  0953  1C03               	skipc
  4053  0954  2942               	goto	l3873
  4054  0955                     l265:	
  4055                           
  4056                           ;CO2.c: 728: }
  4057                           ;CO2.c: 729: }
  4058                           ;CO2.c: 730: }
  4059                           ;CO2.c: 734: if(( RD3 == 0 ) && ( cnt == 0 ))
  4060  0955  1683               	bsf	3,5	;RP0=1, select bank31
  4061  0956  1703               	bsf	3,6	;RP1=1, select bank31
  4062  0957  1983               	btfsc	3,3	;volatile
  4063  0958  2976               	goto	l273
  4064  0959  1283               	bcf	3,5	;RP0=0, select bank0
  4065  095A  1303               	bcf	3,6	;RP1=0, select bank0
  4066  095B  08BB               	movf	main@cnt,f
  4067  095C  1D03               	skipz
  4068  095D  2976               	goto	l273
  4069                           
  4070                           ;CO2.c: 735: {
  4071                           ;CO2.c: 737: for (debounce = 0; debounce <= 200; debounce ++)
  4072  095E  01BD               	clrf	main@debounce
  4073  095F  30C9               	movlw	201
  4074  0960  023D               	subwf	main@debounce,w
  4075  0961  1803               	btfsc	3,0
  4076  0962  2976               	goto	l273
  4077  0963                     l3887:	
  4078                           
  4079                           ;CO2.c: 738: {
  4080                           ;CO2.c: 739: _delay(25000);
  4081  0963  3021               	movlw	33
  4082  0964  00AA               	movwf	??_main+1
  4083  0965  3076               	movlw	118
  4084  0966  00A9               	movwf	??_main
  4085  0967                     u7177:	
  4086  0967  0BA9               	decfsz	??_main,f
  4087  0968  2967               	goto	u7177
  4088  0969  0BAA               	decfsz	??_main+1,f
  4089  096A  2967               	goto	u7177
  4090  096B  0000               	nop
  4091  096C  3001               	movlw	1
  4092  096D  1283               	bcf	3,5	;RP0=0, select bank0
  4093  096E  1303               	bcf	3,6	;RP1=0, select bank0
  4094  096F  00A9               	movwf	??_main
  4095  0970  0829               	movf	??_main,w
  4096  0971  07BD               	addwf	main@debounce,f
  4097  0972  30C9               	movlw	201
  4098  0973  023D               	subwf	main@debounce,w
  4099  0974  1C03               	skipc
  4100  0975  2963               	goto	l3887
  4101  0976                     l273:	
  4102                           
  4103                           ;CO2.c: 740: }
  4104                           ;CO2.c: 741: }
  4105                           ;CO2.c: 742: if( RD3 == 0 )
  4106  0976  1683               	bsf	3,5	;RP0=1, select bank31
  4107  0977  1703               	bsf	3,6	;RP1=1, select bank31
  4108  0978  1983               	btfsc	3,3	;volatile
  4109  0979  29CA               	goto	l3905
  4110                           
  4111                           ;CO2.c: 743: {
  4112                           ;CO2.c: 744: coagmode = coagmode + 1;
  4113  097A  1283               	bcf	3,5	;RP0=0, select bank0
  4114  097B  1303               	bcf	3,6	;RP1=0, select bank0
  4115  097C  082F               	movf	main@coagmode,w
  4116  097D  3E01               	addlw	1
  4117  097E  00A9               	movwf	??_main
  4118  097F  0829               	movf	??_main,w
  4119  0980  00AF               	movwf	main@coagmode
  4120                           
  4121                           ;CO2.c: 746: if( coagmode == 0x00 )
  4122  0981  08AF               	movf	main@coagmode,f
  4123  0982  1D03               	skipz
  4124  0983  2991               	goto	l277
  4125                           
  4126                           ;CO2.c: 747: {
  4127                           ;CO2.c: 748: values[4] = 0x40;
  4128  0984  3040               	movlw	64
  4129  0985  00A9               	movwf	??_main
  4130  0986  0829               	movf	??_main,w
  4131  0987  00C2               	movwf	_values+4	;volatile
  4132                           
  4133                           ;CO2.c: 749: _delay(25000);
  4134  0988  3021               	movlw	33
  4135  0989  00AA               	movwf	??_main+1
  4136  098A  3076               	movlw	118
  4137  098B  00A9               	movwf	??_main
  4138  098C                     u7187:	
  4139  098C  0BA9               	decfsz	??_main,f
  4140  098D  298C               	goto	u7187
  4141  098E  0BAA               	decfsz	??_main+1,f
  4142  098F  298C               	goto	u7187
  4143  0990  0000               	nop
  4144  0991                     l277:	
  4145                           
  4146                           ;CO2.c: 750: }
  4147                           ;CO2.c: 751: if( coagmode == 0x01 )
  4148  0991  1283               	bcf	3,5	;RP0=0, select bank0
  4149  0992  1303               	bcf	3,6	;RP1=0, select bank0
  4150  0993  082F               	movf	main@coagmode,w
  4151  0994  3A01               	xorlw	1
  4152  0995  1D03               	skipz
  4153  0996  29A4               	goto	l278
  4154                           
  4155                           ;CO2.c: 752: {
  4156                           ;CO2.c: 753: values[4] = 0xF0;
  4157  0997  30F0               	movlw	240
  4158  0998  00A9               	movwf	??_main
  4159  0999  0829               	movf	??_main,w
  4160  099A  00C2               	movwf	_values+4	;volatile
  4161                           
  4162                           ;CO2.c: 754: _delay(25000);
  4163  099B  3021               	movlw	33
  4164  099C  00AA               	movwf	??_main+1
  4165  099D  3076               	movlw	118
  4166  099E  00A9               	movwf	??_main
  4167  099F                     u7197:	
  4168  099F  0BA9               	decfsz	??_main,f
  4169  09A0  299F               	goto	u7197
  4170  09A1  0BAA               	decfsz	??_main+1,f
  4171  09A2  299F               	goto	u7197
  4172  09A3  0000               	nop
  4173  09A4                     l278:	
  4174                           
  4175                           ;CO2.c: 755: }
  4176                           ;CO2.c: 756: if( coagmode == 0x02 )
  4177  09A4  1283               	bcf	3,5	;RP0=0, select bank0
  4178  09A5  1303               	bcf	3,6	;RP1=0, select bank0
  4179  09A6  082F               	movf	main@coagmode,w
  4180  09A7  3A02               	xorlw	2
  4181  09A8  1D03               	skipz
  4182  09A9  29B7               	goto	l279
  4183                           
  4184                           ;CO2.c: 757: {
  4185                           ;CO2.c: 758: values[11] = 0x70;
  4186  09AA  3070               	movlw	112
  4187  09AB  00A9               	movwf	??_main
  4188  09AC  0829               	movf	??_main,w
  4189  09AD  00C9               	movwf	_values+11	;volatile
  4190                           
  4191                           ;CO2.c: 759: _delay(25000);
  4192  09AE  3021               	movlw	33
  4193  09AF  00AA               	movwf	??_main+1
  4194  09B0  3076               	movlw	118
  4195  09B1  00A9               	movwf	??_main
  4196  09B2                     u7207:	
  4197  09B2  0BA9               	decfsz	??_main,f
  4198  09B3  29B2               	goto	u7207
  4199  09B4  0BAA               	decfsz	??_main+1,f
  4200  09B5  29B2               	goto	u7207
  4201  09B6  0000               	nop
  4202  09B7                     l279:	
  4203                           
  4204                           ;CO2.c: 760: }
  4205                           ;CO2.c: 762: if( coagmode == 0x03 )
  4206  09B7  1283               	bcf	3,5	;RP0=0, select bank0
  4207  09B8  1303               	bcf	3,6	;RP1=0, select bank0
  4208  09B9  082F               	movf	main@coagmode,w
  4209  09BA  3A03               	xorlw	3
  4210  09BB  1D03               	skipz
  4211  09BC  29CA               	goto	l3905
  4212                           
  4213                           ;CO2.c: 763: {
  4214                           ;CO2.c: 764: coagmode = 0xFF;
  4215  09BD  30FF               	movlw	255
  4216  09BE  00A9               	movwf	??_main
  4217  09BF  0829               	movf	??_main,w
  4218  09C0  00AF               	movwf	main@coagmode
  4219                           
  4220                           ;CO2.c: 765: _delay(25000);
  4221  09C1  3021               	movlw	33
  4222  09C2  00AA               	movwf	??_main+1
  4223  09C3  3076               	movlw	118
  4224  09C4  00A9               	movwf	??_main
  4225  09C5                     u7217:	
  4226  09C5  0BA9               	decfsz	??_main,f
  4227  09C6  29C5               	goto	u7217
  4228  09C7  0BAA               	decfsz	??_main+1,f
  4229  09C8  29C5               	goto	u7217
  4230  09C9  0000               	nop
  4231  09CA                     l3905:	
  4232                           
  4233                           ;CO2.c: 766: }
  4234                           ;CO2.c: 769: }
  4235                           ;CO2.c: 770: if(( RC4 == 0 ) && ( cnt == 0 ))
  4236  09CA  1683               	bsf	3,5	;RP0=1, select bank31
  4237  09CB  1703               	bsf	3,6	;RP1=1, select bank31
  4238  09CC  1A02               	btfsc	2,4	;volatile
  4239  09CD  29E6               	goto	l281
  4240  09CE  1283               	bcf	3,5	;RP0=0, select bank0
  4241  09CF  1303               	bcf	3,6	;RP1=0, select bank0
  4242  09D0  08BB               	movf	main@cnt,f
  4243  09D1  1D03               	skipz
  4244  09D2  29E6               	goto	l281
  4245                           
  4246                           ;CO2.c: 771: {
  4247                           ;CO2.c: 773: for (debounce = 0; debounce <= 99; debounce ++)
  4248  09D3  01BD               	clrf	main@debounce
  4249  09D4  3064               	movlw	100
  4250  09D5  023D               	subwf	main@debounce,w
  4251  09D6  1803               	btfsc	3,0
  4252  09D7  29E6               	goto	l281
  4253  09D8                     l3915:	
  4254                           
  4255                           ;CO2.c: 774: {
  4256                           ;CO2.c: 775: _delay(250);
  4257  09D8  3053               	movlw	83
  4258  09D9  00A9               	movwf	??_main
  4259  09DA                     u7227:	
  4260  09DA  0BA9               	decfsz	??_main,f
  4261  09DB  29DA               	goto	u7227
  4262  09DC  3001               	movlw	1
  4263  09DD  1283               	bcf	3,5	;RP0=0, select bank0
  4264  09DE  1303               	bcf	3,6	;RP1=0, select bank0
  4265  09DF  00A9               	movwf	??_main
  4266  09E0  0829               	movf	??_main,w
  4267  09E1  07BD               	addwf	main@debounce,f
  4268  09E2  3064               	movlw	100
  4269  09E3  023D               	subwf	main@debounce,w
  4270  09E4  1C03               	skipc
  4271  09E5  29D8               	goto	l3915
  4272  09E6                     l281:	
  4273                           
  4274                           ;CO2.c: 776: }
  4275                           ;CO2.c: 777: }
  4276                           ;CO2.c: 778: if( RC4 == 0 )
  4277  09E6  1683               	bsf	3,5	;RP0=1, select bank31
  4278  09E7  1703               	bsf	3,6	;RP1=1, select bank31
  4279  09E8  1A02               	btfsc	2,4	;volatile
  4280  09E9  2A74               	goto	l284
  4281                           
  4282                           ;CO2.c: 779: {
  4283                           ;CO2.c: 780: if( bipopower < 99 )
  4284  09EA  3063               	movlw	99
  4285  09EB  1283               	bcf	3,5	;RP0=0, select bank0
  4286  09EC  1303               	bcf	3,6	;RP1=0, select bank0
  4287  09ED  0237               	subwf	main@bipopower,w
  4288  09EE  1803               	skipnc
  4289  09EF  2A3B               	goto	l3937
  4290                           
  4291                           ;CO2.c: 781: {
  4292                           ;CO2.c: 782: bipopower = bipopower + 1;
  4293  09F0  0837               	movf	main@bipopower,w
  4294  09F1  3E01               	addlw	1
  4295  09F2  00A9               	movwf	??_main
  4296  09F3  0829               	movf	??_main,w
  4297  09F4  00B7               	movwf	main@bipopower
  4298                           
  4299                           ;CO2.c: 783: tens = bipopower / 10;
  4300  09F5  300A               	movlw	10
  4301  09F6  00A0               	movwf	___awdiv@divisor
  4302  09F7  3000               	movlw	0
  4303  09F8  00A1               	movwf	___awdiv@divisor+1
  4304  09F9  0837               	movf	main@bipopower,w
  4305  09FA  00A9               	movwf	??_main
  4306  09FB  01AA               	clrf	??_main+1
  4307  09FC  0829               	movf	??_main,w
  4308  09FD  00A2               	movwf	___awdiv@dividend
  4309  09FE  082A               	movf	??_main+1,w
  4310  09FF  00A3               	movwf	___awdiv@dividend+1
  4311  0A00  2798               	fcall	___awdiv
  4312  0A01  1283               	bcf	3,5	;RP0=0, select bank0
  4313  0A02  1303               	bcf	3,6	;RP1=0, select bank0
  4314  0A03  0820               	movf	?___awdiv,w
  4315  0A04  00AB               	movwf	??_main+2
  4316  0A05  082B               	movf	??_main+2,w
  4317  0A06  00BA               	movwf	main@tens
  4318                           
  4319                           ;CO2.c: 784: tens = tens << 4;
  4320  0A07  083A               	movf	main@tens,w
  4321  0A08  00A9               	movwf	??_main
  4322  0A09  3003               	movlw	3
  4323  0A0A                     u6465:	
  4324  0A0A  1003               	clrc
  4325  0A0B  0DA9               	rlf	??_main,f
  4326  0A0C  3EFF               	addlw	-1
  4327  0A0D  1D03               	skipz
  4328  0A0E  2A0A               	goto	u6465
  4329  0A0F  1003               	clrc
  4330  0A10  0D29               	rlf	??_main,w
  4331  0A11  00AA               	movwf	??_main+1
  4332  0A12  082A               	movf	??_main+1,w
  4333  0A13  00BA               	movwf	main@tens
  4334                           
  4335                           ;CO2.c: 785: values[13] = tens;
  4336  0A14  083A               	movf	main@tens,w
  4337  0A15  00A9               	movwf	??_main
  4338  0A16  0829               	movf	??_main,w
  4339  0A17  00CB               	movwf	_values+13	;volatile
  4340                           
  4341                           ;CO2.c: 786: units = bipopower % 10;
  4342  0A18  300A               	movlw	10
  4343  0A19  00A0               	movwf	___awmod@divisor
  4344  0A1A  3000               	movlw	0
  4345  0A1B  00A1               	movwf	___awmod@divisor+1
  4346  0A1C  0837               	movf	main@bipopower,w
  4347  0A1D  00A9               	movwf	??_main
  4348  0A1E  01AA               	clrf	??_main+1
  4349  0A1F  0829               	movf	??_main,w
  4350  0A20  00A2               	movwf	___awmod@dividend
  4351  0A21  082A               	movf	??_main+1,w
  4352  0A22  00A3               	movwf	___awmod@dividend+1
  4353  0A23  26F9               	fcall	___awmod
  4354  0A24  1283               	bcf	3,5	;RP0=0, select bank0
  4355  0A25  1303               	bcf	3,6	;RP1=0, select bank0
  4356  0A26  0820               	movf	?___awmod,w
  4357  0A27  00AB               	movwf	??_main+2
  4358  0A28  082B               	movf	??_main+2,w
  4359  0A29  00B9               	movwf	main@units
  4360                           
  4361                           ;CO2.c: 787: units = units << 4;
  4362  0A2A  0839               	movf	main@units,w
  4363  0A2B  00A9               	movwf	??_main
  4364  0A2C  3003               	movlw	3
  4365  0A2D                     u6475:	
  4366  0A2D  1003               	clrc
  4367  0A2E  0DA9               	rlf	??_main,f
  4368  0A2F  3EFF               	addlw	-1
  4369  0A30  1D03               	skipz
  4370  0A31  2A2D               	goto	u6475
  4371  0A32  1003               	clrc
  4372  0A33  0D29               	rlf	??_main,w
  4373  0A34  00AA               	movwf	??_main+1
  4374  0A35  082A               	movf	??_main+1,w
  4375  0A36  00B9               	movwf	main@units
  4376                           
  4377                           ;CO2.c: 788: values[6] = units;
  4378  0A37  0839               	movf	main@units,w
  4379  0A38  00A9               	movwf	??_main
  4380  0A39  0829               	movf	??_main,w
  4381  0A3A  00C4               	movwf	_values+6	;volatile
  4382  0A3B                     l3937:	
  4383                           
  4384                           ;CO2.c: 789: }
  4385                           ;CO2.c: 790: if(cnt == 0)
  4386  0A3B  08BB               	movf	main@cnt,f
  4387  0A3C  1D03               	skipz
  4388  0A3D  2A5C               	goto	l3953
  4389                           
  4390                           ;CO2.c: 791: {
  4391                           ;CO2.c: 792: for (debounce = 0; debounce <= 200; debounce ++)
  4392  0A3E  01BD               	clrf	main@debounce
  4393  0A3F  30C9               	movlw	201
  4394  0A40  023D               	subwf	main@debounce,w
  4395  0A41  1803               	btfsc	3,0
  4396  0A42  2A56               	goto	l3951
  4397  0A43                     l3945:	
  4398                           
  4399                           ;CO2.c: 793: {
  4400                           ;CO2.c: 794: _delay(20000);
  4401  0A43  301A               	movlw	26
  4402  0A44  00AA               	movwf	??_main+1
  4403  0A45  30F8               	movlw	248
  4404  0A46  00A9               	movwf	??_main
  4405  0A47                     u7237:	
  4406  0A47  0BA9               	decfsz	??_main,f
  4407  0A48  2A47               	goto	u7237
  4408  0A49  0BAA               	decfsz	??_main+1,f
  4409  0A4A  2A47               	goto	u7237
  4410  0A4B  0000               	nop
  4411  0A4C  3001               	movlw	1
  4412  0A4D  1283               	bcf	3,5	;RP0=0, select bank0
  4413  0A4E  1303               	bcf	3,6	;RP1=0, select bank0
  4414  0A4F  00A9               	movwf	??_main
  4415  0A50  0829               	movf	??_main,w
  4416  0A51  07BD               	addwf	main@debounce,f
  4417  0A52  30C9               	movlw	201
  4418  0A53  023D               	subwf	main@debounce,w
  4419  0A54  1C03               	skipc
  4420  0A55  2A43               	goto	l3945
  4421  0A56                     l3951:	
  4422                           
  4423                           ;CO2.c: 795: }
  4424                           ;CO2.c: 796: cnt = cnt + 1;
  4425  0A56  083B               	movf	main@cnt,w
  4426  0A57  3E01               	addlw	1
  4427  0A58  00A9               	movwf	??_main
  4428  0A59  0829               	movf	??_main,w
  4429  0A5A  00BB               	movwf	main@cnt
  4430                           
  4431                           ;CO2.c: 797: }
  4432  0A5B  2A74               	goto	l284
  4433  0A5C                     l3953:	
  4434                           
  4435                           ;CO2.c: 798: else
  4436                           ;CO2.c: 799: {
  4437                           ;CO2.c: 801: for (debounce = 0; debounce <= 100; debounce ++)
  4438  0A5C  01BD               	clrf	main@debounce
  4439  0A5D  3065               	movlw	101
  4440  0A5E  023D               	subwf	main@debounce,w
  4441  0A5F  1803               	btfsc	3,0
  4442  0A60  2A74               	goto	l284
  4443  0A61                     l3959:	
  4444                           
  4445                           ;CO2.c: 802: {
  4446                           ;CO2.c: 803: _delay(3000);
  4447  0A61  3004               	movlw	4
  4448  0A62  00AA               	movwf	??_main+1
  4449  0A63  30E4               	movlw	228
  4450  0A64  00A9               	movwf	??_main
  4451  0A65                     u7247:	
  4452  0A65  0BA9               	decfsz	??_main,f
  4453  0A66  2A65               	goto	u7247
  4454  0A67  0BAA               	decfsz	??_main+1,f
  4455  0A68  2A65               	goto	u7247
  4456  0A69  0000               	nop
  4457  0A6A  3001               	movlw	1
  4458  0A6B  1283               	bcf	3,5	;RP0=0, select bank0
  4459  0A6C  1303               	bcf	3,6	;RP1=0, select bank0
  4460  0A6D  00A9               	movwf	??_main
  4461  0A6E  0829               	movf	??_main,w
  4462  0A6F  07BD               	addwf	main@debounce,f
  4463  0A70  3065               	movlw	101
  4464  0A71  023D               	subwf	main@debounce,w
  4465  0A72  1C03               	skipc
  4466  0A73  2A61               	goto	l3959
  4467  0A74                     l284:	
  4468                           
  4469                           ;CO2.c: 804: }
  4470                           ;CO2.c: 805: }
  4471                           ;CO2.c: 809: }
  4472                           ;CO2.c: 810: if(( RC5 == 0 ) && ( cnt == 0 ))
  4473  0A74  1683               	bsf	3,5	;RP0=1, select bank31
  4474  0A75  1703               	bsf	3,6	;RP1=1, select bank31
  4475  0A76  1A82               	btfsc	2,5	;volatile
  4476  0A77  2A90               	goto	l292
  4477  0A78  1283               	bcf	3,5	;RP0=0, select bank0
  4478  0A79  1303               	bcf	3,6	;RP1=0, select bank0
  4479  0A7A  08BB               	movf	main@cnt,f
  4480  0A7B  1D03               	skipz
  4481  0A7C  2A90               	goto	l292
  4482                           
  4483                           ;CO2.c: 811: {
  4484                           ;CO2.c: 813: for (debounce = 0; debounce <= 99; debounce ++)
  4485  0A7D  01BD               	clrf	main@debounce
  4486  0A7E  3064               	movlw	100
  4487  0A7F  023D               	subwf	main@debounce,w
  4488  0A80  1803               	btfsc	3,0
  4489  0A81  2A90               	goto	l292
  4490  0A82                     l3973:	
  4491                           
  4492                           ;CO2.c: 814: {
  4493                           ;CO2.c: 815: _delay(250);
  4494  0A82  3053               	movlw	83
  4495  0A83  00A9               	movwf	??_main
  4496  0A84                     u7257:	
  4497  0A84  0BA9               	decfsz	??_main,f
  4498  0A85  2A84               	goto	u7257
  4499  0A86  3001               	movlw	1
  4500  0A87  1283               	bcf	3,5	;RP0=0, select bank0
  4501  0A88  1303               	bcf	3,6	;RP1=0, select bank0
  4502  0A89  00A9               	movwf	??_main
  4503  0A8A  0829               	movf	??_main,w
  4504  0A8B  07BD               	addwf	main@debounce,f
  4505  0A8C  3064               	movlw	100
  4506  0A8D  023D               	subwf	main@debounce,w
  4507  0A8E  1C03               	skipc
  4508  0A8F  2A82               	goto	l3973
  4509  0A90                     l292:	
  4510                           
  4511                           ;CO2.c: 816: }
  4512                           ;CO2.c: 817: }
  4513                           ;CO2.c: 818: if( RC5 == 0 )
  4514  0A90  1683               	bsf	3,5	;RP0=1, select bank31
  4515  0A91  1703               	bsf	3,6	;RP1=1, select bank31
  4516  0A92  1A82               	btfsc	2,5	;volatile
  4517  0A93  2B1D               	goto	l295
  4518                           
  4519                           ;CO2.c: 819: {
  4520                           ;CO2.c: 820: if( bipopower > 0 )
  4521  0A94  1283               	bcf	3,5	;RP0=0, select bank0
  4522  0A95  1303               	bcf	3,6	;RP1=0, select bank0
  4523  0A96  0837               	movf	main@bipopower,w
  4524  0A97  1903               	btfsc	3,2
  4525  0A98  2AE4               	goto	l3995
  4526                           
  4527                           ;CO2.c: 821: {
  4528                           ;CO2.c: 822: bipopower = bipopower - 1;
  4529  0A99  0837               	movf	main@bipopower,w
  4530  0A9A  3EFF               	addlw	255
  4531  0A9B  00A9               	movwf	??_main
  4532  0A9C  0829               	movf	??_main,w
  4533  0A9D  00B7               	movwf	main@bipopower
  4534                           
  4535                           ;CO2.c: 823: tens = bipopower / 10;
  4536  0A9E  300A               	movlw	10
  4537  0A9F  00A0               	movwf	___awdiv@divisor
  4538  0AA0  3000               	movlw	0
  4539  0AA1  00A1               	movwf	___awdiv@divisor+1
  4540  0AA2  0837               	movf	main@bipopower,w
  4541  0AA3  00A9               	movwf	??_main
  4542  0AA4  01AA               	clrf	??_main+1
  4543  0AA5  0829               	movf	??_main,w
  4544  0AA6  00A2               	movwf	___awdiv@dividend
  4545  0AA7  082A               	movf	??_main+1,w
  4546  0AA8  00A3               	movwf	___awdiv@dividend+1
  4547  0AA9  2798               	fcall	___awdiv
  4548  0AAA  1283               	bcf	3,5	;RP0=0, select bank0
  4549  0AAB  1303               	bcf	3,6	;RP1=0, select bank0
  4550  0AAC  0820               	movf	?___awdiv,w
  4551  0AAD  00AB               	movwf	??_main+2
  4552  0AAE  082B               	movf	??_main+2,w
  4553  0AAF  00BA               	movwf	main@tens
  4554                           
  4555                           ;CO2.c: 824: tens = tens << 4;
  4556  0AB0  083A               	movf	main@tens,w
  4557  0AB1  00A9               	movwf	??_main
  4558  0AB2  3003               	movlw	3
  4559  0AB3                     u6595:	
  4560  0AB3  1003               	clrc
  4561  0AB4  0DA9               	rlf	??_main,f
  4562  0AB5  3EFF               	addlw	-1
  4563  0AB6  1D03               	skipz
  4564  0AB7  2AB3               	goto	u6595
  4565  0AB8  1003               	clrc
  4566  0AB9  0D29               	rlf	??_main,w
  4567  0ABA  00AA               	movwf	??_main+1
  4568  0ABB  082A               	movf	??_main+1,w
  4569  0ABC  00BA               	movwf	main@tens
  4570                           
  4571                           ;CO2.c: 825: values[13] = tens;
  4572  0ABD  083A               	movf	main@tens,w
  4573  0ABE  00A9               	movwf	??_main
  4574  0ABF  0829               	movf	??_main,w
  4575  0AC0  00CB               	movwf	_values+13	;volatile
  4576                           
  4577                           ;CO2.c: 826: units = bipopower % 10;
  4578  0AC1  300A               	movlw	10
  4579  0AC2  00A0               	movwf	___awmod@divisor
  4580  0AC3  3000               	movlw	0
  4581  0AC4  00A1               	movwf	___awmod@divisor+1
  4582  0AC5  0837               	movf	main@bipopower,w
  4583  0AC6  00A9               	movwf	??_main
  4584  0AC7  01AA               	clrf	??_main+1
  4585  0AC8  0829               	movf	??_main,w
  4586  0AC9  00A2               	movwf	___awmod@dividend
  4587  0ACA  082A               	movf	??_main+1,w
  4588  0ACB  00A3               	movwf	___awmod@dividend+1
  4589  0ACC  26F9               	fcall	___awmod
  4590  0ACD  1283               	bcf	3,5	;RP0=0, select bank0
  4591  0ACE  1303               	bcf	3,6	;RP1=0, select bank0
  4592  0ACF  0820               	movf	?___awmod,w
  4593  0AD0  00AB               	movwf	??_main+2
  4594  0AD1  082B               	movf	??_main+2,w
  4595  0AD2  00B9               	movwf	main@units
  4596                           
  4597                           ;CO2.c: 827: units = units << 4;
  4598  0AD3  0839               	movf	main@units,w
  4599  0AD4  00A9               	movwf	??_main
  4600  0AD5  3003               	movlw	3
  4601  0AD6                     u6605:	
  4602  0AD6  1003               	clrc
  4603  0AD7  0DA9               	rlf	??_main,f
  4604  0AD8  3EFF               	addlw	-1
  4605  0AD9  1D03               	skipz
  4606  0ADA  2AD6               	goto	u6605
  4607  0ADB  1003               	clrc
  4608  0ADC  0D29               	rlf	??_main,w
  4609  0ADD  00AA               	movwf	??_main+1
  4610  0ADE  082A               	movf	??_main+1,w
  4611  0ADF  00B9               	movwf	main@units
  4612                           
  4613                           ;CO2.c: 828: values[6] = units;
  4614  0AE0  0839               	movf	main@units,w
  4615  0AE1  00A9               	movwf	??_main
  4616  0AE2  0829               	movf	??_main,w
  4617  0AE3  00C4               	movwf	_values+6	;volatile
  4618  0AE4                     l3995:	
  4619                           
  4620                           ;CO2.c: 829: }
  4621                           ;CO2.c: 830: if(cnt == 0)
  4622  0AE4  08BB               	movf	main@cnt,f
  4623  0AE5  1D03               	skipz
  4624  0AE6  2B05               	goto	l4011
  4625                           
  4626                           ;CO2.c: 831: {
  4627                           ;CO2.c: 832: for (debounce = 0; debounce <= 200; debounce ++)
  4628  0AE7  01BD               	clrf	main@debounce
  4629  0AE8  30C9               	movlw	201
  4630  0AE9  023D               	subwf	main@debounce,w
  4631  0AEA  1803               	btfsc	3,0
  4632  0AEB  2AFF               	goto	l4009
  4633  0AEC                     l4003:	
  4634                           
  4635                           ;CO2.c: 833: {
  4636                           ;CO2.c: 834: _delay(20000);
  4637  0AEC  301A               	movlw	26
  4638  0AED  00AA               	movwf	??_main+1
  4639  0AEE  30F8               	movlw	248
  4640  0AEF  00A9               	movwf	??_main
  4641  0AF0                     u7267:	
  4642  0AF0  0BA9               	decfsz	??_main,f
  4643  0AF1  2AF0               	goto	u7267
  4644  0AF2  0BAA               	decfsz	??_main+1,f
  4645  0AF3  2AF0               	goto	u7267
  4646  0AF4  0000               	nop
  4647  0AF5  3001               	movlw	1
  4648  0AF6  1283               	bcf	3,5	;RP0=0, select bank0
  4649  0AF7  1303               	bcf	3,6	;RP1=0, select bank0
  4650  0AF8  00A9               	movwf	??_main
  4651  0AF9  0829               	movf	??_main,w
  4652  0AFA  07BD               	addwf	main@debounce,f
  4653  0AFB  30C9               	movlw	201
  4654  0AFC  023D               	subwf	main@debounce,w
  4655  0AFD  1C03               	skipc
  4656  0AFE  2AEC               	goto	l4003
  4657  0AFF                     l4009:	
  4658                           
  4659                           ;CO2.c: 835: }
  4660                           ;CO2.c: 836: cnt = cnt + 1;
  4661  0AFF  083B               	movf	main@cnt,w
  4662  0B00  3E01               	addlw	1
  4663  0B01  00A9               	movwf	??_main
  4664  0B02  0829               	movf	??_main,w
  4665  0B03  00BB               	movwf	main@cnt
  4666                           
  4667                           ;CO2.c: 837: }
  4668  0B04  2B1D               	goto	l295
  4669  0B05                     l4011:	
  4670                           
  4671                           ;CO2.c: 838: else
  4672                           ;CO2.c: 839: {
  4673                           ;CO2.c: 841: for (debounce = 0; debounce <= 100; debounce ++)
  4674  0B05  01BD               	clrf	main@debounce
  4675  0B06  3065               	movlw	101
  4676  0B07  023D               	subwf	main@debounce,w
  4677  0B08  1803               	btfsc	3,0
  4678  0B09  2B1D               	goto	l295
  4679  0B0A                     l4017:	
  4680                           
  4681                           ;CO2.c: 842: {
  4682                           ;CO2.c: 843: _delay(3000);
  4683  0B0A  3004               	movlw	4
  4684  0B0B  00AA               	movwf	??_main+1
  4685  0B0C  30E4               	movlw	228
  4686  0B0D  00A9               	movwf	??_main
  4687  0B0E                     u7277:	
  4688  0B0E  0BA9               	decfsz	??_main,f
  4689  0B0F  2B0E               	goto	u7277
  4690  0B10  0BAA               	decfsz	??_main+1,f
  4691  0B11  2B0E               	goto	u7277
  4692  0B12  0000               	nop
  4693  0B13  3001               	movlw	1
  4694  0B14  1283               	bcf	3,5	;RP0=0, select bank0
  4695  0B15  1303               	bcf	3,6	;RP1=0, select bank0
  4696  0B16  00A9               	movwf	??_main
  4697  0B17  0829               	movf	??_main,w
  4698  0B18  07BD               	addwf	main@debounce,f
  4699  0B19  3065               	movlw	101
  4700  0B1A  023D               	subwf	main@debounce,w
  4701  0B1B  1C03               	skipc
  4702  0B1C  2B0A               	goto	l4017
  4703  0B1D                     l295:	
  4704                           
  4705                           ;CO2.c: 844: }
  4706                           ;CO2.c: 845: }
  4707                           ;CO2.c: 851: }
  4708                           ;CO2.c: 852: if(( RC6 == 0 ) && ( cnt == 0 ))
  4709  0B1D  1683               	bsf	3,5	;RP0=1, select bank31
  4710  0B1E  1703               	bsf	3,6	;RP1=1, select bank31
  4711  0B1F  1B02               	btfsc	2,6	;volatile
  4712  0B20  2B39               	goto	l303
  4713  0B21  1283               	bcf	3,5	;RP0=0, select bank0
  4714  0B22  1303               	bcf	3,6	;RP1=0, select bank0
  4715  0B23  08BB               	movf	main@cnt,f
  4716  0B24  1D03               	skipz
  4717  0B25  2B39               	goto	l303
  4718                           
  4719                           ;CO2.c: 853: {
  4720                           ;CO2.c: 855: for (debounce = 0; debounce <= 99; debounce ++)
  4721  0B26  01BD               	clrf	main@debounce
  4722  0B27  3064               	movlw	100
  4723  0B28  023D               	subwf	main@debounce,w
  4724  0B29  1803               	btfsc	3,0
  4725  0B2A  2B39               	goto	l303
  4726  0B2B                     l4031:	
  4727                           
  4728                           ;CO2.c: 856: {
  4729                           ;CO2.c: 857: _delay(250);
  4730  0B2B  3053               	movlw	83
  4731  0B2C  00A9               	movwf	??_main
  4732  0B2D                     u7287:	
  4733  0B2D  0BA9               	decfsz	??_main,f
  4734  0B2E  2B2D               	goto	u7287
  4735  0B2F  3001               	movlw	1
  4736  0B30  1283               	bcf	3,5	;RP0=0, select bank0
  4737  0B31  1303               	bcf	3,6	;RP1=0, select bank0
  4738  0B32  00A9               	movwf	??_main
  4739  0B33  0829               	movf	??_main,w
  4740  0B34  07BD               	addwf	main@debounce,f
  4741  0B35  3064               	movlw	100
  4742  0B36  023D               	subwf	main@debounce,w
  4743  0B37  1C03               	skipc
  4744  0B38  2B2B               	goto	l4031
  4745  0B39                     l303:	
  4746                           
  4747                           ;CO2.c: 858: }
  4748                           ;CO2.c: 859: }
  4749                           ;CO2.c: 860: if( RC6 == 0 )
  4750  0B39  1683               	bsf	3,5	;RP0=1, select bank31
  4751  0B3A  1703               	bsf	3,6	;RP1=1, select bank31
  4752  0B3B  1B02               	btfsc	2,6	;volatile
  4753  0B3C  2873               	goto	l3165
  4754                           
  4755                           ;CO2.c: 861: {
  4756                           ;CO2.c: 862: bipomode = bipomode + 1;
  4757  0B3D  1283               	bcf	3,5	;RP0=0, select bank0
  4758  0B3E  1303               	bcf	3,6	;RP1=0, select bank0
  4759  0B3F  0830               	movf	main@bipomode,w
  4760  0B40  3E01               	addlw	1
  4761  0B41  00A9               	movwf	??_main
  4762  0B42  0829               	movf	??_main,w
  4763  0B43  00B0               	movwf	main@bipomode
  4764                           
  4765                           ;CO2.c: 865: if( bipomode == 0x00 )
  4766  0B44  08B0               	movf	main@bipomode,f
  4767  0B45  1D03               	skipz
  4768  0B46  2B54               	goto	l307
  4769                           
  4770                           ;CO2.c: 866: {
  4771                           ;CO2.c: 867: values[11] = 0x40;
  4772  0B47  3040               	movlw	64
  4773  0B48  00A9               	movwf	??_main
  4774  0B49  0829               	movf	??_main,w
  4775  0B4A  00C9               	movwf	_values+11	;volatile
  4776                           
  4777                           ;CO2.c: 868: _delay(25000);
  4778  0B4B  3021               	movlw	33
  4779  0B4C  00AA               	movwf	??_main+1
  4780  0B4D  3076               	movlw	118
  4781  0B4E  00A9               	movwf	??_main
  4782  0B4F                     u7297:	
  4783  0B4F  0BA9               	decfsz	??_main,f
  4784  0B50  2B4F               	goto	u7297
  4785  0B51  0BAA               	decfsz	??_main+1,f
  4786  0B52  2B4F               	goto	u7297
  4787  0B53  0000               	nop
  4788  0B54                     l307:	
  4789                           
  4790                           ;CO2.c: 869: }
  4791                           ;CO2.c: 870: if( bipomode == 0x01 )
  4792  0B54  1283               	bcf	3,5	;RP0=0, select bank0
  4793  0B55  1303               	bcf	3,6	;RP1=0, select bank0
  4794  0B56  0830               	movf	main@bipomode,w
  4795  0B57  3A01               	xorlw	1
  4796  0B58  1D03               	skipz
  4797  0B59  2B67               	goto	l308
  4798                           
  4799                           ;CO2.c: 871: {
  4800                           ;CO2.c: 872: values[7] = 0x70;
  4801  0B5A  3070               	movlw	112
  4802  0B5B  00A9               	movwf	??_main
  4803  0B5C  0829               	movf	??_main,w
  4804  0B5D  00C5               	movwf	_values+7	;volatile
  4805                           
  4806                           ;CO2.c: 873: _delay(25000);
  4807  0B5E  3021               	movlw	33
  4808  0B5F  00AA               	movwf	??_main+1
  4809  0B60  3076               	movlw	118
  4810  0B61  00A9               	movwf	??_main
  4811  0B62                     u7307:	
  4812  0B62  0BA9               	decfsz	??_main,f
  4813  0B63  2B62               	goto	u7307
  4814  0B64  0BAA               	decfsz	??_main+1,f
  4815  0B65  2B62               	goto	u7307
  4816  0B66  0000               	nop
  4817  0B67                     l308:	
  4818                           
  4819                           ;CO2.c: 874: }
  4820                           ;CO2.c: 875: if( bipomode == 0x02 )
  4821  0B67  1283               	bcf	3,5	;RP0=0, select bank0
  4822  0B68  1303               	bcf	3,6	;RP1=0, select bank0
  4823  0B69  0830               	movf	main@bipomode,w
  4824  0B6A  3A02               	xorlw	2
  4825  0B6B  1D03               	skipz
  4826  0B6C  2B7A               	goto	l309
  4827                           
  4828                           ;CO2.c: 876: {
  4829                           ;CO2.c: 877: values[7] = 0x40;
  4830  0B6D  3040               	movlw	64
  4831  0B6E  00A9               	movwf	??_main
  4832  0B6F  0829               	movf	??_main,w
  4833  0B70  00C5               	movwf	_values+7	;volatile
  4834                           
  4835                           ;CO2.c: 878: _delay(25000);
  4836  0B71  3021               	movlw	33
  4837  0B72  00AA               	movwf	??_main+1
  4838  0B73  3076               	movlw	118
  4839  0B74  00A9               	movwf	??_main
  4840  0B75                     u7317:	
  4841  0B75  0BA9               	decfsz	??_main,f
  4842  0B76  2B75               	goto	u7317
  4843  0B77  0BAA               	decfsz	??_main+1,f
  4844  0B78  2B75               	goto	u7317
  4845  0B79  0000               	nop
  4846  0B7A                     l309:	
  4847                           
  4848                           ;CO2.c: 879: }
  4849                           ;CO2.c: 881: if( bipomode == 0X03 )
  4850  0B7A  1283               	bcf	3,5	;RP0=0, select bank0
  4851  0B7B  1303               	bcf	3,6	;RP1=0, select bank0
  4852  0B7C  0830               	movf	main@bipomode,w
  4853  0B7D  3A03               	xorlw	3
  4854  0B7E  1D03               	skipz
  4855  0B7F  2B8D               	goto	l4049
  4856                           
  4857                           ;CO2.c: 882: {
  4858                           ;CO2.c: 883: bipomode = 0xFF;
  4859  0B80  30FF               	movlw	255
  4860  0B81  00A9               	movwf	??_main
  4861  0B82  0829               	movf	??_main,w
  4862  0B83  00B0               	movwf	main@bipomode
  4863                           
  4864                           ;CO2.c: 884: _delay(25000);
  4865  0B84  3021               	movlw	33
  4866  0B85  00AA               	movwf	??_main+1
  4867  0B86  3076               	movlw	118
  4868  0B87  00A9               	movwf	??_main
  4869  0B88                     u7327:	
  4870  0B88  0BA9               	decfsz	??_main,f
  4871  0B89  2B88               	goto	u7327
  4872  0B8A  0BAA               	decfsz	??_main+1,f
  4873  0B8B  2B88               	goto	u7327
  4874  0B8C  0000               	nop
  4875  0B8D                     l4049:	
  4876                           
  4877                           ;CO2.c: 885: }
  4878                           ;CO2.c: 886: for (debounce = 0; debounce <= 200; debounce ++)
  4879  0B8D  1283               	bcf	3,5	;RP0=0, select bank0
  4880  0B8E  1303               	bcf	3,6	;RP1=0, select bank0
  4881  0B8F  01BD               	clrf	main@debounce
  4882  0B90                     L8:	
  4883  0B90  30C9               	movlw	201
  4884  0B91  023D               	subwf	main@debounce,w
  4885  0B92  1803               	btfsc	3,0
  4886  0B93  2873               	goto	l3165
  4887                           
  4888                           ;CO2.c: 887: {
  4889                           ;CO2.c: 888: _delay(25000);
  4890  0B94  3021               	movlw	33
  4891  0B95  00AA               	movwf	??_main+1
  4892  0B96  3076               	movlw	118
  4893  0B97  00A9               	movwf	??_main
  4894  0B98                     u7337:	
  4895  0B98  0BA9               	decfsz	??_main,f
  4896  0B99  2B98               	goto	u7337
  4897  0B9A  0BAA               	decfsz	??_main+1,f
  4898  0B9B  2B98               	goto	u7337
  4899  0B9C  0000               	nop
  4900  0B9D  3001               	movlw	1
  4901  0B9E  1283               	bcf	3,5	;RP0=0, select bank0
  4902  0B9F  1303               	bcf	3,6	;RP1=0, select bank0
  4903  0BA0  00A9               	movwf	??_main
  4904  0BA1  0829               	movf	??_main,w
  4905  0BA2  07BD               	addwf	main@debounce,f
  4906  0BA3  2B90               	goto	L8
  4907  0BA4                     __end_of_main:	
  4908                           
  4909                           	psect	text1
  4910  06B9                     __ptext1:	
  4911 ;; *************** function ___lwdiv *****************
  4912 ;; Defined at:
  4913 ;;		line 6 in file "C:\Program Files (x86)\Microchip\xc8\v1.32\sources\common\lwdiv.c"
  4914 ;; Parameters:    Size  Location     Type
  4915 ;;  divisor         2    0[BANK0 ] unsigned int 
  4916 ;;  dividend        2    2[BANK0 ] unsigned int 
  4917 ;; Auto vars:     Size  Location     Type
  4918 ;;  quotient        2    6[BANK0 ] unsigned int 
  4919 ;;  counter         1    5[BANK0 ] unsigned char 
  4920 ;; Return value:  Size  Location     Type
  4921 ;;                  2    0[BANK0 ] unsigned int 
  4922 ;; Registers used:
  4923 ;;		wreg, status,2, status,0
  4924 ;; Tracked objects:
  4925 ;;		On entry : 0/0
  4926 ;;		On exit  : 0/0
  4927 ;;		Unchanged: 0/0
  4928 ;; Data sizes:     COMMON   BANK0   BANK1   BANK2
  4929 ;;      Params:         0       4       0       0
  4930 ;;      Locals:         0       3       0       0
  4931 ;;      Temps:          0       1       0       0
  4932 ;;      Totals:         0       8       0       0
  4933 ;;Total ram usage:        8 bytes
  4934 ;; Hardware stack levels used:    1
  4935 ;; Hardware stack levels required when called:    1
  4936 ;; This function calls:
  4937 ;;		Nothing
  4938 ;; This function is called by:
  4939 ;;		_main
  4940 ;; This function uses a non-reentrant model
  4941 ;;
  4942                           
  4943                           
  4944                           ;psect for function ___lwdiv
  4945  06B9                     ___lwdiv:	
  4946                           
  4947                           ;incstack = 0
  4948                           ; Regs used in ___lwdiv: [wreg+status,2+status,0]
  4949  06B9  1283               	bcf	3,5	;RP0=0, select bank0
  4950  06BA  1303               	bcf	3,6	;RP1=0, select bank0
  4951  06BB  01A6               	clrf	___lwdiv@quotient
  4952  06BC  01A7               	clrf	___lwdiv@quotient+1
  4953  06BD  0821               	movf	___lwdiv@divisor+1,w
  4954  06BE  0420               	iorwf	___lwdiv@divisor,w
  4955  06BF  1903               	skipnz
  4956  06C0  2EF2               	goto	l3105
  4957  06C1  01A5               	clrf	___lwdiv@counter
  4958  06C2  0AA5               	incf	___lwdiv@counter,f
  4959  06C3                     l3093:	
  4960  06C3  1BA1               	btfsc	___lwdiv@divisor+1,7
  4961  06C4  2ED1               	goto	l3095
  4962  06C5  3001               	movlw	1
  4963  06C6                     u4755:	
  4964  06C6  1003               	clrc
  4965  06C7  0DA0               	rlf	___lwdiv@divisor,f
  4966  06C8  0DA1               	rlf	___lwdiv@divisor+1,f
  4967  06C9  3EFF               	addlw	-1
  4968  06CA  1D03               	skipz
  4969  06CB  2EC6               	goto	u4755
  4970  06CC  3001               	movlw	1
  4971  06CD  00A4               	movwf	??___lwdiv
  4972  06CE  0824               	movf	??___lwdiv,w
  4973  06CF  07A5               	addwf	___lwdiv@counter,f
  4974  06D0  2EC3               	goto	l3093
  4975  06D1                     l3095:	
  4976  06D1  3001               	movlw	1
  4977  06D2                     u4775:	
  4978  06D2  1003               	clrc
  4979  06D3  0DA6               	rlf	___lwdiv@quotient,f
  4980  06D4  0DA7               	rlf	___lwdiv@quotient+1,f
  4981  06D5  3EFF               	addlw	-1
  4982  06D6  1D03               	skipz
  4983  06D7  2ED2               	goto	u4775
  4984  06D8  0821               	movf	___lwdiv@divisor+1,w
  4985  06D9  0223               	subwf	___lwdiv@dividend+1,w
  4986  06DA  1D03               	skipz
  4987  06DB  2EDE               	goto	u4785
  4988  06DC  0820               	movf	___lwdiv@divisor,w
  4989  06DD  0222               	subwf	___lwdiv@dividend,w
  4990  06DE                     u4785:	
  4991  06DE  1C03               	skipc
  4992  06DF  2EE7               	goto	l3101
  4993  06E0  0820               	movf	___lwdiv@divisor,w
  4994  06E1  02A2               	subwf	___lwdiv@dividend,f
  4995  06E2  0821               	movf	___lwdiv@divisor+1,w
  4996  06E3  1C03               	skipc
  4997  06E4  03A3               	decf	___lwdiv@dividend+1,f
  4998  06E5  02A3               	subwf	___lwdiv@dividend+1,f
  4999  06E6  1426               	bsf	___lwdiv@quotient,0
  5000  06E7                     l3101:	
  5001  06E7  3001               	movlw	1
  5002  06E8                     u4795:	
  5003  06E8  1003               	clrc
  5004  06E9  0CA1               	rrf	___lwdiv@divisor+1,f
  5005  06EA  0CA0               	rrf	___lwdiv@divisor,f
  5006  06EB  3EFF               	addlw	-1
  5007  06EC  1D03               	skipz
  5008  06ED  2EE8               	goto	u4795
  5009  06EE  3001               	movlw	1
  5010  06EF  02A5               	subwf	___lwdiv@counter,f
  5011  06F0  1D03               	btfss	3,2
  5012  06F1  2ED1               	goto	l3095
  5013  06F2                     l3105:	
  5014  06F2  0827               	movf	___lwdiv@quotient+1,w
  5015  06F3  01A1               	clrf	?___lwdiv+1
  5016  06F4  07A1               	addwf	?___lwdiv+1,f
  5017  06F5  0826               	movf	___lwdiv@quotient,w
  5018  06F6  01A0               	clrf	?___lwdiv
  5019  06F7  07A0               	addwf	?___lwdiv,f
  5020  06F8  0008               	return
  5021  06F9                     __end_of___lwdiv:	
  5022                           
  5023                           	psect	text2
  5024  06A6                     __ptext2:	
  5025 ;; *************** function ___bmul *****************
  5026 ;; Defined at:
  5027 ;;		line 4 in file "C:\Program Files (x86)\Microchip\xc8\v1.32\sources\common\Umul8.c"
  5028 ;; Parameters:    Size  Location     Type
  5029 ;;  multiplier      1    wreg     unsigned char 
  5030 ;;  multiplicand    1    0[BANK0 ] unsigned char 
  5031 ;; Auto vars:     Size  Location     Type
  5032 ;;  multiplier      1    3[BANK0 ] unsigned char 
  5033 ;;  product         1    2[BANK0 ] unsigned char 
  5034 ;; Return value:  Size  Location     Type
  5035 ;;                  1    wreg      unsigned char 
  5036 ;; Registers used:
  5037 ;;		wreg, status,2, status,0
  5038 ;; Tracked objects:
  5039 ;;		On entry : 0/0
  5040 ;;		On exit  : 0/0
  5041 ;;		Unchanged: 0/0
  5042 ;; Data sizes:     COMMON   BANK0   BANK1   BANK2
  5043 ;;      Params:         0       1       0       0
  5044 ;;      Locals:         0       2       0       0
  5045 ;;      Temps:          0       1       0       0
  5046 ;;      Totals:         0       4       0       0
  5047 ;;Total ram usage:        4 bytes
  5048 ;; Hardware stack levels used:    1
  5049 ;; Hardware stack levels required when called:    1
  5050 ;; This function calls:
  5051 ;;		Nothing
  5052 ;; This function is called by:
  5053 ;;		_main
  5054 ;; This function uses a non-reentrant model
  5055 ;;
  5056                           
  5057                           
  5058                           ;psect for function ___bmul
  5059  06A6                     ___bmul:	
  5060                           
  5061                           ;incstack = 0
  5062                           ; Regs used in ___bmul: [wreg+status,2+status,0]
  5063                           ;___bmul@multiplier stored from wreg
  5064  06A6  1283               	bcf	3,5	;RP0=0, select bank0
  5065  06A7  1303               	bcf	3,6	;RP1=0, select bank0
  5066  06A8  00A3               	movwf	___bmul@multiplier
  5067  06A9  01A2               	clrf	___bmul@product
  5068  06AA                     l2987:	
  5069  06AA  1C23               	btfss	___bmul@multiplier,0
  5070  06AB  2EB0               	goto	l2991
  5071  06AC  0820               	movf	___bmul@multiplicand,w
  5072  06AD  00A1               	movwf	??___bmul
  5073  06AE  0821               	movf	??___bmul,w
  5074  06AF  07A2               	addwf	___bmul@product,f
  5075  06B0                     l2991:	
  5076  06B0  1003               	clrc
  5077  06B1  0DA0               	rlf	___bmul@multiplicand,f
  5078  06B2  1003               	clrc
  5079  06B3  0CA3               	rrf	___bmul@multiplier,f
  5080  06B4  08A3               	movf	___bmul@multiplier,f
  5081  06B5  1D03               	skipz
  5082  06B6  2EAA               	goto	l2987
  5083  06B7  0822               	movf	___bmul@product,w
  5084  06B8  0008               	return
  5085  06B9                     __end_of___bmul:	
  5086                           
  5087                           	psect	text3
  5088  06F9                     __ptext3:	
  5089 ;; *************** function ___awmod *****************
  5090 ;; Defined at:
  5091 ;;		line 6 in file "C:\Program Files (x86)\Microchip\xc8\v1.32\sources\common\awmod.c"
  5092 ;; Parameters:    Size  Location     Type
  5093 ;;  divisor         2    0[BANK0 ] int 
  5094 ;;  dividend        2    2[BANK0 ] int 
  5095 ;; Auto vars:     Size  Location     Type
  5096 ;;  sign            1    6[BANK0 ] unsigned char 
  5097 ;;  counter         1    5[BANK0 ] unsigned char 
  5098 ;; Return value:  Size  Location     Type
  5099 ;;                  2    0[BANK0 ] int 
  5100 ;; Registers used:
  5101 ;;		wreg, status,2, status,0
  5102 ;; Tracked objects:
  5103 ;;		On entry : 0/0
  5104 ;;		On exit  : 0/0
  5105 ;;		Unchanged: 0/0
  5106 ;; Data sizes:     COMMON   BANK0   BANK1   BANK2
  5107 ;;      Params:         0       4       0       0
  5108 ;;      Locals:         0       2       0       0
  5109 ;;      Temps:          0       1       0       0
  5110 ;;      Totals:         0       7       0       0
  5111 ;;Total ram usage:        7 bytes
  5112 ;; Hardware stack levels used:    1
  5113 ;; Hardware stack levels required when called:    1
  5114 ;; This function calls:
  5115 ;;		Nothing
  5116 ;; This function is called by:
  5117 ;;		_main
  5118 ;; This function uses a non-reentrant model
  5119 ;;
  5120                           
  5121                           
  5122                           ;psect for function ___awmod
  5123  06F9                     ___awmod:	
  5124                           
  5125                           ;incstack = 0
  5126                           ; Regs used in ___awmod: [wreg+status,2+status,0]
  5127  06F9  1283               	bcf	3,5	;RP0=0, select bank0
  5128  06FA  1303               	bcf	3,6	;RP1=0, select bank0
  5129  06FB  01A6               	clrf	___awmod@sign
  5130  06FC  1FA3               	btfss	___awmod@dividend+1,7
  5131  06FD  2F05               	goto	l3053
  5132  06FE  09A2               	comf	___awmod@dividend,f
  5133  06FF  09A3               	comf	___awmod@dividend+1,f
  5134  0700  0AA2               	incf	___awmod@dividend,f
  5135  0701  1903               	skipnz
  5136  0702  0AA3               	incf	___awmod@dividend+1,f
  5137  0703  01A6               	clrf	___awmod@sign
  5138  0704  0AA6               	incf	___awmod@sign,f
  5139  0705                     l3053:	
  5140  0705  1FA1               	btfss	___awmod@divisor+1,7
  5141  0706  2F0C               	goto	l3057
  5142  0707  09A0               	comf	___awmod@divisor,f
  5143  0708  09A1               	comf	___awmod@divisor+1,f
  5144  0709  0AA0               	incf	___awmod@divisor,f
  5145  070A  1903               	skipnz
  5146  070B  0AA1               	incf	___awmod@divisor+1,f
  5147  070C                     l3057:	
  5148  070C  0821               	movf	___awmod@divisor+1,w
  5149  070D  0420               	iorwf	___awmod@divisor,w
  5150  070E  1903               	skipnz
  5151  070F  2F39               	goto	l3075
  5152  0710  01A5               	clrf	___awmod@counter
  5153  0711  0AA5               	incf	___awmod@counter,f
  5154  0712                     l3065:	
  5155  0712  1BA1               	btfsc	___awmod@divisor+1,7
  5156  0713  2F20               	goto	l3067
  5157  0714  3001               	movlw	1
  5158  0715                     u4685:	
  5159  0715  1003               	clrc
  5160  0716  0DA0               	rlf	___awmod@divisor,f
  5161  0717  0DA1               	rlf	___awmod@divisor+1,f
  5162  0718  3EFF               	addlw	-1
  5163  0719  1D03               	skipz
  5164  071A  2F15               	goto	u4685
  5165  071B  3001               	movlw	1
  5166  071C  00A4               	movwf	??___awmod
  5167  071D  0824               	movf	??___awmod,w
  5168  071E  07A5               	addwf	___awmod@counter,f
  5169  071F  2F12               	goto	l3065
  5170  0720                     l3067:	
  5171  0720  0821               	movf	___awmod@divisor+1,w
  5172  0721  0223               	subwf	___awmod@dividend+1,w
  5173  0722  1D03               	skipz
  5174  0723  2F26               	goto	u4705
  5175  0724  0820               	movf	___awmod@divisor,w
  5176  0725  0222               	subwf	___awmod@dividend,w
  5177  0726                     u4705:	
  5178  0726  1C03               	skipc
  5179  0727  2F2E               	goto	l3071
  5180  0728  0820               	movf	___awmod@divisor,w
  5181  0729  02A2               	subwf	___awmod@dividend,f
  5182  072A  0821               	movf	___awmod@divisor+1,w
  5183  072B  1C03               	skipc
  5184  072C  03A3               	decf	___awmod@dividend+1,f
  5185  072D  02A3               	subwf	___awmod@dividend+1,f
  5186  072E                     l3071:	
  5187  072E  3001               	movlw	1
  5188  072F                     u4715:	
  5189  072F  1003               	clrc
  5190  0730  0CA1               	rrf	___awmod@divisor+1,f
  5191  0731  0CA0               	rrf	___awmod@divisor,f
  5192  0732  3EFF               	addlw	-1
  5193  0733  1D03               	skipz
  5194  0734  2F2F               	goto	u4715
  5195  0735  3001               	movlw	1
  5196  0736  02A5               	subwf	___awmod@counter,f
  5197  0737  1D03               	btfss	3,2
  5198  0738  2F20               	goto	l3067
  5199  0739                     l3075:	
  5200  0739  0826               	movf	___awmod@sign,w
  5201  073A  1903               	btfsc	3,2
  5202  073B  2F41               	goto	l3079
  5203  073C  09A2               	comf	___awmod@dividend,f
  5204  073D  09A3               	comf	___awmod@dividend+1,f
  5205  073E  0AA2               	incf	___awmod@dividend,f
  5206  073F  1903               	skipnz
  5207  0740  0AA3               	incf	___awmod@dividend+1,f
  5208  0741                     l3079:	
  5209  0741  0823               	movf	___awmod@dividend+1,w
  5210  0742  01A1               	clrf	?___awmod+1
  5211  0743  07A1               	addwf	?___awmod+1,f
  5212  0744  0822               	movf	___awmod@dividend,w
  5213  0745  01A0               	clrf	?___awmod
  5214  0746  07A0               	addwf	?___awmod,f
  5215  0747  0008               	return
  5216  0748                     __end_of___awmod:	
  5217                           
  5218                           	psect	text4
  5219  0798                     __ptext4:	
  5220 ;; *************** function ___awdiv *****************
  5221 ;; Defined at:
  5222 ;;		line 6 in file "C:\Program Files (x86)\Microchip\xc8\v1.32\sources\common\awdiv.c"
  5223 ;; Parameters:    Size  Location     Type
  5224 ;;  divisor         2    0[BANK0 ] int 
  5225 ;;  dividend        2    2[BANK0 ] int 
  5226 ;; Auto vars:     Size  Location     Type
  5227 ;;  quotient        2    7[BANK0 ] int 
  5228 ;;  sign            1    6[BANK0 ] unsigned char 
  5229 ;;  counter         1    5[BANK0 ] unsigned char 
  5230 ;; Return value:  Size  Location     Type
  5231 ;;                  2    0[BANK0 ] int 
  5232 ;; Registers used:
  5233 ;;		wreg, status,2, status,0
  5234 ;; Tracked objects:
  5235 ;;		On entry : 0/0
  5236 ;;		On exit  : 0/0
  5237 ;;		Unchanged: 0/0
  5238 ;; Data sizes:     COMMON   BANK0   BANK1   BANK2
  5239 ;;      Params:         0       4       0       0
  5240 ;;      Locals:         0       4       0       0
  5241 ;;      Temps:          0       1       0       0
  5242 ;;      Totals:         0       9       0       0
  5243 ;;Total ram usage:        9 bytes
  5244 ;; Hardware stack levels used:    1
  5245 ;; Hardware stack levels required when called:    1
  5246 ;; This function calls:
  5247 ;;		Nothing
  5248 ;; This function is called by:
  5249 ;;		_main
  5250 ;; This function uses a non-reentrant model
  5251 ;;
  5252                           
  5253                           
  5254                           ;psect for function ___awdiv
  5255  0798                     ___awdiv:	
  5256                           
  5257                           ;incstack = 0
  5258                           ; Regs used in ___awdiv: [wreg+status,2+status,0]
  5259  0798  1283               	bcf	3,5	;RP0=0, select bank0
  5260  0799  1303               	bcf	3,6	;RP1=0, select bank0
  5261  079A  01A6               	clrf	___awdiv@sign
  5262  079B  1FA1               	btfss	___awdiv@divisor+1,7
  5263  079C  2FA4               	goto	l3009
  5264  079D  09A0               	comf	___awdiv@divisor,f
  5265  079E  09A1               	comf	___awdiv@divisor+1,f
  5266  079F  0AA0               	incf	___awdiv@divisor,f
  5267  07A0  1903               	skipnz
  5268  07A1  0AA1               	incf	___awdiv@divisor+1,f
  5269  07A2  01A6               	clrf	___awdiv@sign
  5270  07A3  0AA6               	incf	___awdiv@sign,f
  5271  07A4                     l3009:	
  5272  07A4  1FA3               	btfss	___awdiv@dividend+1,7
  5273  07A5  2FAF               	goto	l3015
  5274  07A6  09A2               	comf	___awdiv@dividend,f
  5275  07A7  09A3               	comf	___awdiv@dividend+1,f
  5276  07A8  0AA2               	incf	___awdiv@dividend,f
  5277  07A9  1903               	skipnz
  5278  07AA  0AA3               	incf	___awdiv@dividend+1,f
  5279  07AB  3001               	movlw	1
  5280  07AC  00A4               	movwf	??___awdiv
  5281  07AD  0824               	movf	??___awdiv,w
  5282  07AE  06A6               	xorwf	___awdiv@sign,f
  5283  07AF                     l3015:	
  5284  07AF  01A7               	clrf	___awdiv@quotient
  5285  07B0  01A8               	clrf	___awdiv@quotient+1
  5286  07B1  0821               	movf	___awdiv@divisor+1,w
  5287  07B2  0420               	iorwf	___awdiv@divisor,w
  5288  07B3  1903               	skipnz
  5289  07B4  2FE6               	goto	l3037
  5290  07B5  01A5               	clrf	___awdiv@counter
  5291  07B6  0AA5               	incf	___awdiv@counter,f
  5292  07B7                     l3025:	
  5293  07B7  1BA1               	btfsc	___awdiv@divisor+1,7
  5294  07B8  2FC5               	goto	l3027
  5295  07B9  3001               	movlw	1
  5296  07BA                     u4585:	
  5297  07BA  1003               	clrc
  5298  07BB  0DA0               	rlf	___awdiv@divisor,f
  5299  07BC  0DA1               	rlf	___awdiv@divisor+1,f
  5300  07BD  3EFF               	addlw	-1
  5301  07BE  1D03               	skipz
  5302  07BF  2FBA               	goto	u4585
  5303  07C0  3001               	movlw	1
  5304  07C1  00A4               	movwf	??___awdiv
  5305  07C2  0824               	movf	??___awdiv,w
  5306  07C3  07A5               	addwf	___awdiv@counter,f
  5307  07C4  2FB7               	goto	l3025
  5308  07C5                     l3027:	
  5309  07C5  3001               	movlw	1
  5310  07C6                     u4605:	
  5311  07C6  1003               	clrc
  5312  07C7  0DA7               	rlf	___awdiv@quotient,f
  5313  07C8  0DA8               	rlf	___awdiv@quotient+1,f
  5314  07C9  3EFF               	addlw	-1
  5315  07CA  1D03               	skipz
  5316  07CB  2FC6               	goto	u4605
  5317  07CC  0821               	movf	___awdiv@divisor+1,w
  5318  07CD  0223               	subwf	___awdiv@dividend+1,w
  5319  07CE  1D03               	skipz
  5320  07CF  2FD2               	goto	u4615
  5321  07D0  0820               	movf	___awdiv@divisor,w
  5322  07D1  0222               	subwf	___awdiv@dividend,w
  5323  07D2                     u4615:	
  5324  07D2  1C03               	skipc
  5325  07D3  2FDB               	goto	l3033
  5326  07D4  0820               	movf	___awdiv@divisor,w
  5327  07D5  02A2               	subwf	___awdiv@dividend,f
  5328  07D6  0821               	movf	___awdiv@divisor+1,w
  5329  07D7  1C03               	skipc
  5330  07D8  03A3               	decf	___awdiv@dividend+1,f
  5331  07D9  02A3               	subwf	___awdiv@dividend+1,f
  5332  07DA  1427               	bsf	___awdiv@quotient,0
  5333  07DB                     l3033:	
  5334  07DB  3001               	movlw	1
  5335  07DC                     u4625:	
  5336  07DC  1003               	clrc
  5337  07DD  0CA1               	rrf	___awdiv@divisor+1,f
  5338  07DE  0CA0               	rrf	___awdiv@divisor,f
  5339  07DF  3EFF               	addlw	-1
  5340  07E0  1D03               	skipz
  5341  07E1  2FDC               	goto	u4625
  5342  07E2  3001               	movlw	1
  5343  07E3  02A5               	subwf	___awdiv@counter,f
  5344  07E4  1D03               	btfss	3,2
  5345  07E5  2FC5               	goto	l3027
  5346  07E6                     l3037:	
  5347  07E6  0826               	movf	___awdiv@sign,w
  5348  07E7  1903               	btfsc	3,2
  5349  07E8  2FEE               	goto	l3041
  5350  07E9  09A7               	comf	___awdiv@quotient,f
  5351  07EA  09A8               	comf	___awdiv@quotient+1,f
  5352  07EB  0AA7               	incf	___awdiv@quotient,f
  5353  07EC  1903               	skipnz
  5354  07ED  0AA8               	incf	___awdiv@quotient+1,f
  5355  07EE                     l3041:	
  5356  07EE  0828               	movf	___awdiv@quotient+1,w
  5357  07EF  01A1               	clrf	?___awdiv+1
  5358  07F0  07A1               	addwf	?___awdiv+1,f
  5359  07F1  0827               	movf	___awdiv@quotient,w
  5360  07F2  01A0               	clrf	?___awdiv
  5361  07F3  07A0               	addwf	?___awdiv,f
  5362  07F4  0008               	return
  5363  07F5                     __end_of___awdiv:	
  5364                           
  5365                           	psect	text5
  5366  0748                     __ptext5:	
  5367 ;; *************** function _tmr_int *****************
  5368 ;; Defined at:
  5369 ;;		line 900 in file "C:\XC8 PROJECTS\CO2\CO2.c"
  5370 ;; Parameters:    Size  Location     Type
  5371 ;;		None
  5372 ;; Auto vars:     Size  Location     Type
  5373 ;;		None
  5374 ;; Return value:  Size  Location     Type
  5375 ;;		None               void
  5376 ;; Registers used:
  5377 ;;		wreg, fsr0l, fsr0h, status,2, status,0
  5378 ;; Tracked objects:
  5379 ;;		On entry : 0/0
  5380 ;;		On exit  : 0/0
  5381 ;;		Unchanged: 0/0
  5382 ;; Data sizes:     COMMON   BANK0   BANK1   BANK2
  5383 ;;      Params:         0       0       0       0
  5384 ;;      Locals:         0       0       0       0
  5385 ;;      Temps:          5       0       0       0
  5386 ;;      Totals:         5       0       0       0
  5387 ;;Total ram usage:        5 bytes
  5388 ;; Hardware stack levels used:    1
  5389 ;; This function calls:
  5390 ;;		Nothing
  5391 ;; This function is called by:
  5392 ;;		Interrupt level 1
  5393 ;; This function uses a non-reentrant model
  5394 ;;
  5395                           
  5396                           
  5397                           ;psect for function _tmr_int
  5398  0748                     _tmr_int:	
  5399                           
  5400                           ;CO2.c: 901: if(adr == 7)
  5401  0748  0876               	movf	_adr,w	;volatile
  5402  0749  3A07               	xorlw	7
  5403  074A  1D03               	skipz
  5404  074B  2F51               	goto	i1l2963
  5405                           
  5406                           ;CO2.c: 902: {
  5407                           ;CO2.c: 903: RB0 = ~(RB0);
  5408  074C  3001               	movlw	1
  5409  074D  1683               	bsf	3,5	;RP0=1, select bank31
  5410  074E  1703               	bsf	3,6	;RP1=1, select bank31
  5411  074F  0681               	xorwf	1,f
  5412                           
  5413                           ;CO2.c: 904: adr = 0;
  5414  0750  01F6               	clrf	_adr	;volatile
  5415  0751                     i1l2963:	
  5416                           
  5417                           ;CO2.c: 905: }
  5418                           ;CO2.c: 906: PORTE = adr;
  5419  0751  0876               	movf	_adr,w	;volatile
  5420  0752  00F0               	movwf	??_tmr_int
  5421  0753  0870               	movf	??_tmr_int,w
  5422  0754  1683               	bsf	3,5	;RP0=1, select bank31
  5423  0755  1703               	bsf	3,6	;RP1=1, select bank31
  5424  0756  0084               	movwf	4	;volatile
  5425                           
  5426                           ;CO2.c: 907: PORTB = PORTB & 0x0F;
  5427  0757  1683               	bsf	3,5	;RP0=1, select bank31
  5428  0758  1703               	bsf	3,6	;RP1=1, select bank31
  5429  0759  0801               	movf	1,w	;volatile
  5430  075A  390F               	andlw	15
  5431  075B  00F0               	movwf	??_tmr_int
  5432  075C  0870               	movf	??_tmr_int,w
  5433  075D  1683               	bsf	3,5	;RP0=1, select bank31
  5434  075E  1703               	bsf	3,6	;RP1=1, select bank31
  5435  075F  0081               	movwf	1	;volatile
  5436                           
  5437                           ;CO2.c: 908: PORTB = PORTB | values[count];
  5438  0760  0877               	movf	_count,w
  5439  0761  3E3E               	addlw	_values& (0+255)
  5440  0762  0084               	movwf	4
  5441  0763  1383               	bcf	3,7	;select IRP bank0
  5442  0764  0800               	movf	0,w
  5443  0765  1683               	bsf	3,5	;RP0=1, select bank31
  5444  0766  1703               	bsf	3,6	;RP1=1, select bank31
  5445  0767  0401               	iorwf	1,w	;volatile
  5446  0768  00F0               	movwf	??_tmr_int
  5447  0769  0870               	movf	??_tmr_int,w
  5448  076A  1683               	bsf	3,5	;RP0=1, select bank31
  5449  076B  1703               	bsf	3,6	;RP1=1, select bank31
  5450  076C  0081               	movwf	1	;volatile
  5451                           
  5452                           ;CO2.c: 909: adr = adr + 1;
  5453  076D  0876               	movf	_adr,w	;volatile
  5454  076E  3E01               	addlw	1
  5455  076F  00F0               	movwf	??_tmr_int
  5456  0770  0870               	movf	??_tmr_int,w
  5457  0771  00F6               	movwf	_adr	;volatile
  5458                           
  5459                           ;CO2.c: 910: count = count + 1;
  5460  0772  0877               	movf	_count,w	;volatile
  5461  0773  3E01               	addlw	1
  5462  0774  00F0               	movwf	??_tmr_int
  5463  0775  0870               	movf	??_tmr_int,w
  5464  0776  00F7               	movwf	_count	;volatile
  5465                           
  5466                           ;CO2.c: 911: if(count == 14)
  5467  0777  0877               	movf	_count,w	;volatile
  5468  0778  3A0E               	xorlw	14
  5469  0779  1903               	btfsc	3,2
  5470                           
  5471                           ;CO2.c: 912: {
  5472                           ;CO2.c: 913: count = 0;
  5473  077A  01F7               	clrf	_count	;volatile
  5474                           
  5475                           ;CO2.c: 914: }
  5476                           ;CO2.c: 915: hold = hold - 1;
  5477  077B  1283               	bcf	3,5	;RP0=0, select bank0
  5478  077C  1303               	bcf	3,6	;RP1=0, select bank0
  5479  077D  084C               	movf	_hold,w
  5480  077E  3EFF               	addlw	-1
  5481  077F  00F0               	movwf	??_tmr_int
  5482  0780  0870               	movf	??_tmr_int,w
  5483  0781  00CC               	movwf	_hold	;volatile
  5484                           
  5485                           ;CO2.c: 917: T0IF = 0;
  5486  0782  1683               	bsf	3,5	;RP0=1, select bank31
  5487  0783  1703               	bsf	3,6	;RP1=1, select bank31
  5488  0784  1172               	bcf	114,2	;volatile
  5489                           
  5490                           ;CO2.c: 918: TMR0 = 0;
  5491  0785  1683               	bsf	3,5	;RP0=1, select bank31
  5492  0786  1703               	bsf	3,6	;RP1=1, select bank31
  5493  0787  01D6               	clrf	86	;volatile
  5494  0788  1683               	bsf	3,5	;RP0=1, select bank31
  5495  0789  1703               	bsf	3,6	;RP1=1, select bank31
  5496  078A  01D7               	clrf	87	;volatile
  5497                           
  5498                           ;CO2.c: 919: return;
  5499  078B  0874               	movf	??_tmr_int+4,w
  5500  078C  1283               	bcf	3,5	;RP0=0, select bank0
  5501  078D  1303               	bcf	3,6	;RP1=0, select bank0
  5502  078E  00FF               	movwf	127
  5503  078F  0873               	movf	??_tmr_int+3,w
  5504  0790  008A               	movwf	10
  5505  0791  0872               	movf	??_tmr_int+2,w
  5506  0792  0084               	movwf	4
  5507  0793  0E71               	swapf	(??_tmr_int+1)^(0+-128),w
  5508  0794  0083               	movwf	3
  5509  0795  0EFE               	swapf	126,f
  5510  0796  0E7E               	swapf	126,w
  5511  0797  0009               	retfie
  5512  0798                     __end_of_tmr_int:	
  5513  007E                     btemp	set	126	;btemp
  5514  007E                     wtemp	set	126
  5515  007E                     wtemp0	set	126
  5516  0080                     wtemp1	set	128
  5517  0082                     wtemp2	set	130
  5518  0084                     wtemp3	set	132
  5519  0086                     wtemp4	set	134
  5520  0088                     wtemp5	set	136
  5521  007F                     wtemp6	set	127
  5522  007E                     ttemp	set	126
  5523  007E                     ttemp0	set	126
  5524  0081                     ttemp1	set	129
  5525  0084                     ttemp2	set	132
  5526  0087                     ttemp3	set	135
  5527  007F                     ttemp4	set	127
  5528  007E                     ltemp	set	126
  5529  007E                     ltemp0	set	126
  5530  0082                     ltemp1	set	130
  5531  0086                     ltemp2	set	134
  5532  0080                     ltemp3	set	128
  5533                           
  5534                           	psect	intentry
  5535  0000                     __pintentry:	
  5536                           ;incstack = 0
  5537                           ; Regs used in _tmr_int: [wreg-fsr0h+status,2+status,0]
  5538                           
  5539  0000                     interrupt_function:	
  5540  007E                     saved_w	set	btemp
  5541  0000  00FE               	movwf	btemp
  5542  0001  0E03               	swapf	3,w
  5543  0002  00F1               	movwf	??_tmr_int+1
  5544  0003  0804               	movf	4,w
  5545  0004  00F2               	movwf	??_tmr_int+2
  5546  0005  080A               	movf	10,w
  5547  0006  00F3               	movwf	??_tmr_int+3
  5548  0007  1283               	bcf	3,5	;RP0=0, select bank0
  5549  0008  1303               	bcf	3,6	;RP1=0, select bank0
  5550  0009  087F               	movf	btemp+1,w
  5551  000A  00F4               	movwf	??_tmr_int+4
  5552  000B  2F48               	ljmp	_tmr_int


Data Sizes:
    Strings     0
    Constant    0
    Data        0
    BSS         19
    Persistent  0
    Stack       0

Auto Spaces:
    Space          Size  Autos    Used
    COMMON           14      5       9
    BANK0            80     30      45
    BANK1            80      0       0
    BANK2            48      0       0

Pointer List with Targets:

    None.

Critical Paths under _main in COMMON

    None.

Critical Paths under _tmr_int in COMMON

    None.

Critical Paths under _main in BANK0

    _main->___awdiv

Critical Paths under _tmr_int in BANK0

    None.

Critical Paths under _main in BANK1

    None.

Critical Paths under _tmr_int in BANK1

    None.

Critical Paths under _main in BANK2

    None.

Critical Paths under _tmr_int in BANK2

    None.

Call Graph Tables:

 ---------------------------------------------------------------------------------
 (Depth) Function   	        Calls       Base Space   Used Autos Params    Refs
 ---------------------------------------------------------------------------------
 (0) _main                                                21    21      0   11937
                                              9 BANK0     21    21      0
                            ___awdiv
                            ___awmod
                             ___bmul
                            ___lwdiv
 ---------------------------------------------------------------------------------
 (1) ___lwdiv                                              8     4      4     501
                                              0 BANK0      8     4      4
 ---------------------------------------------------------------------------------
 (1) ___bmul                                               4     3      1     396
                                              0 BANK0      4     3      1
 ---------------------------------------------------------------------------------
 (1) ___awmod                                              7     3      4    1473
                                              0 BANK0      7     3      4
 ---------------------------------------------------------------------------------
 (1) ___awdiv                                              9     5      4    1745
                                              0 BANK0      9     5      4
 ---------------------------------------------------------------------------------
 Estimated maximum stack depth 1
 ---------------------------------------------------------------------------------
 (Depth) Function   	        Calls       Base Space   Used Autos Params    Refs
 ---------------------------------------------------------------------------------
 (2) _tmr_int                                              5     5      0       0
                                              0 COMMON     5     5      0
 ---------------------------------------------------------------------------------
 Estimated maximum stack depth 2
 ---------------------------------------------------------------------------------

 Call Graph Graphs:

 _main (ROOT)
   ___awdiv
   ___awmod
   ___bmul
   ___lwdiv

 _tmr_int (ROOT)

 Address spaces:
Name               Size   Autos  Total    Cost      Usage
BITCOMMON            E      0       0       0        0.0%
EEDATA              80      0       0       0        0.0%
NULL                 0      0       0       0        0.0%
CODE                 0      0       0       0        0.0%
COMMON               E      5       9       1       64.3%
BITSFR0              0      0       0       1        0.0%
SFR0                 0      0       0       1        0.0%
BITSFR1              0      0       0       2        0.0%
SFR1                 0      0       0       2        0.0%
STACK                0      0       0       2        0.0%
BANK0               50     1E      2D       3       56.3%
BITSFR3              0      0       0       4        0.0%
SFR3                 0      0       0       4        0.0%
ABS                  0      0      36       4        0.0%
BITBANK0            50      0       0       5        0.0%
BITSFR2              0      0       0       5        0.0%
SFR2                 0      0       0       5        0.0%
BITBANK1            50      0       0       6        0.0%
BANK1               50      0       0       7        0.0%
BITBANK2            30      0       0       8        0.0%
BANK2               30      0       0       9        0.0%
DATA                 0      0      36      10        0.0%


Microchip Technology PIC Macro Assembler V1.32 build 58300 
Symbol Table                                                                                   Thu Jun 04 13:43:20 2015

         ___bmul@product 0022             ___awdiv@sign 0026                       fsr 0004  
                    l100 007A                      l101 0085                      l110 00CD  
                    l103 0082                      l112 0110                      l104 0163  
                    l113 00F7                      l210 04DB                      l202 04BF  
                    l114 00FA                      l131 0197                      l132 019A  
                    l221 0584                      l213 0568                      l109 00CA  
                    l134 01E1                      l126 0263                      l303 0B39  
                    l135 01C8                      l127 016F                      l232 0664  
                    l224 0648                      l136 01CB                      l225 060F  
                    l250 0795                      l307 0B54                      l243 0741  
                    l235 0725                      l163 029B                      l308 0B67  
                    l236 06EC                      l164 029E                      l309 0B7A  
                    l262 089D                      l254 0881                      l246 07C2  
                    l190 03A4                      l166 02E5                      l158 033E  
                    l255 0848                      l247 075C                      l191 03A7  
                    l167 02CC                      l159 026F                      l248 076F  
                    l168 02CF                      l281 09E6                      l273 0976  
                    l265 0955                      l249 0782                      l186 0376  
                    l187 0379                      l292 0A90                      l284 0A74  
                    l277 0991                      l189 03BA                      l278 09A4  
                    l295 0B1D                      l279 09B7                      l199 0431  
                    _RA0 7C00                      _RA1 7C01                      _RB0 7C08  
                    _RA2 7C02                      _RB1 7C09                      _RA3 7C03  
                    _RC0 7C10                      _RB2 7C0A                      _RA4 7C04  
                    _RC1 7C11                      _RB3 7C0B                      _RD0 7C18  
                    _RC2 7C12                      _RD1 7C19                      _RC3 7C13  
                    _RD2 7C1A                      _RC4 7C14                      _RD3 7C1B  
                    _RC5 7C15                      _RD4 7C1C                      _RC6 7C16  
                    _RD5 7C1D                      _RC7 7C17                      _RD6 7C1E  
                    _RD7 7C1F                      _adr 0076                      fsr0 0004  
                    indf 0000             ___awmod@sign 0026                     l3101 06E7  
                   l3015 07AF                     l3041 07EE                     l3033 07DB  
                   l3025 07B7                     l3009 07A4                     l3105 06F2  
                   l3027 07C5                     l4003 0AEC                     l4011 0B05  
                   l3203 00E3                     l3037 07E6                     l3053 0705  
                   l3071 072E                     l4031 0B2B                     l3065 0712  
                   l3057 070C                     l4017 0B0A                     l4009 0AFF  
                   l3321 0217                     l3305 01EE                     l3313 0210  
                   l3233 0125                     l3241 0148                     l3209 00E9  
                   l3067 0720                     l3075 0739                     l3323 022E  
                   l3307 0204                     l3235 013C                     l3093 06C3  
                   l3413 031B                     l3405 0314                     l3245 0151  
                   l3165 0073                     l3079 0741                     l3095 06D1  
                   l3415 0332                     l4049 0B8D                     l3433 0368  
                   l3337 0241                     l3329 023A                     l3249 015A  
                   l3193 00BC                     l3177 009A                     l3611 0576  
                   l3531 04A1                     l3451 0396                     l3443 038C  
                   l3339 0258                     l3267 0189                     l3525 048E  
                   l3533 04A7                     l3517 0486                     l3285 01BA  
                   l3277 01B0                     l3471 03E4                     l3359 028D  
                   l3801 0863                     l3721 0712                     l3713 0707  
                   l3553 04CD                     l3377 02BE                     l3369 02B4  
                   l3803 0869                     l3707 06F4                     l3715 070D  
                   l3651 062A                     l3539 04AC                     l3645 0617  
                   l3653 0630                     l3485 0415                     l3469 03CD  
                   l3477 03F0                     l3397 02F2                     l3823 088F  
                   l3735 0733                     l3583 0537                     l3591 0550  
                   l3575 052F                     l3495 0423                     l3399 0308  
                   l3905 09CA                     l3809 086E                     l3761 07AF  
                   l3673 0656                     l3915 09D8                     l3851 0922  
                   l3755 07A8                     l3659 0635                     l3597 0555  
                   l3589 054A                     l2991 06B0                     l3951 0A56  
                   l3945 0A43                     l3953 0A5C                     l3937 0A3B  
                   l3873 0942                     l2987 06AA                     l3859 0924  
                   l3867 093D                     l3795 0850                     l3973 0A82  
                   l3959 0A61                     l3887 0963                     l3995 0AE4  
                   _T0IF 7F92                     u6105 0806                     u6115 0829  
                   u4605 07C6                     u6125 083A                     u4615 07D2  
                   u7007 061B                     u4625 07DC                     u4705 0726  
                   u7017 0639                     u4715 072F                     u7107 07A3  
                   u7027 0658                     u6245 08C0                     u7117 07B3  
                   u7037 06F8                     u7207 09B2                     u6255 08F1  
                   u7127 0854                     u7047 0716                     u5615 04FE  
                   u4585 07BA                     u7217 09C5                     u6265 0914  
                   u7137 0872                     u7057 0735                     u5625 0521  
                   u4755 06C6                     u7307 0B62                     u7227 09DA  
                   u7147 0891                     u7067 0757                     u4685 0715  
                   u7317 0B75                     u6605 0AD6                     u7237 0A47  
                   u7157 0928                     u7077 076A                     u5485 0455  
                   u4775 06D2                     u7327 0B88                     u7247 0A65  
                   u7167 0946                     u7087 077D                     u5495 0478  
                   u4785 06DE                     u7337 0B98                     u7257 0A84  
                   u6465 0A0A                     u7177 0967                     u7097 0790  
                   u5905 06DE                     u5745 05CD                     u4795 06E8  
                   u7267 0AF0                     u6475 0A2D                     u7187 098C  
                   u5755 05F0                     u7277 0B0E                     u7197 099F  
                   u5765 0601                     u7287 0B2D                     u6807 0176  
                   _RCON 0FD0                     u7297 0B4F                     u6817 017F  
                   u6595 0AB3                     u6907 035E                     u6827 0206  
                   u5885 06AA                     u6917 03C4                     u6837 0230  
                   u5895 06CD                     u6927 03E6                     u6847 025A  
                   u6937 0425                     u6857 0276                     u6777 0097  
                   u6947 0492                     u6867 027F                     u6787 00B2  
                   u6957 04B0                     u6877 030A                     u6797 013E  
                   u6967 04CF                     u6887 0334                     u6977 053B  
                   u6897 034F                     u6987 0559                     u6997 0578  
                   _TMR0 0FD6              main@cutmode 0036                     _main 0000  
                   _hold 004C                     btemp 007E                     ltemp 007E  
                   start 000C                     ttemp 007E                     wtemp 007E  
      ___bmul@multiplier 0023             main@debounce 003D             main@coagmode 002F  
           main@bipomode 0030                    ?_main 0070          __end_of___awdiv 07F5  
        __end_of___awmod 0748                    _CARRY 7EC0                    _T0CON 0FD5  
        ___awdiv@divisor 0020          __end_of___lwdiv 06F9          ___awdiv@counter 0025  
                  _PORTB 0F81                    _PORTC 0F82                    _PORTD 0F83  
                  _PORTE 0F84                    _TRISA 0F92                    _TRISB 0F93  
                  _TRISC 0F94                    _TRISD 0F95                    _TRISE 0F96  
           main@cutpower 0032             main@hundreds 0038                    _count 0077  
                  main@i 003C                    main@j 0035                    pclath 000A  
                  ltemp0 007E                    ltemp1 0082                    ltemp2 0086  
                  ltemp3 0080          __end_of_tmr_int 0798                    ttemp0 007E  
                  ttemp1 0081                    ttemp2 0084                    ttemp3 0087  
                  ttemp4 007F                    status 0003                    wtemp0 007E  
                  wtemp1 0080                    wtemp2 0082                    wtemp3 0084  
                  wtemp4 0086                    wtemp5 0088                    wtemp6 007F  
        __initialization 07F5             __end_of_main 0BA4                   ??_main 0029  
          main@coagpower 0031            main@bipopower 0037                   _ADCON1 0FC1  
       ___awdiv@dividend 0022                   i1l2963 0751                   _INTCON 0FF2  
                 ___bmul 06A6                ??___awdiv 0024                ??___awmod 0024  
              ??___lwdiv 0024         ___awdiv@quotient 0027          ___awmod@divisor 0020  
                 _values 003E          ___awmod@counter 0025                   main@R1 002D  
                 main@R2 002C                   saved_w 007E                ??_tmr_int 0070  
__end_of__initialization 07FE      ___bmul@multiplicand 0020           __pcstackCOMMON 0070  
             __pbssBANK0 003E               __pmaintext 0000                  ?___bmul 0020  
             __pintentry 0000          __size_of___bmul 0013                  ___awdiv 0798  
                ___awmod 06F9                  ___lwdiv 06B9                  __ptext0 0000  
                __ptext1 06B9                  __ptext2 06A6                  __ptext3 06F9  
                __ptext4 0798                  __ptext5 0748         ___awmod@dividend 0022  
                _on_time 0078                  _tmr_int 0748                  main@cnt 003B  
                clrloop0 069F     end_of_initialization 07FE               main@progno 002E  
         __end_of___bmul 06B9      start_initialization 07F5                 ??___bmul 0021  
            __pbssCOMMON 0075                ___latbits 0000            __pcstackBANK0 0020  
       ___lwdiv@dividend 0022                 ?___awdiv 0020                 ?___awmod 0020  
               ?___lwdiv 0020                 ?_tmr_int 0070         ___lwdiv@quotient 0026  
      interrupt_function 0000                clear_ram0 069E                main@units 0039  
       __size_of___awdiv 005D         __size_of___awmod 004F         __size_of___lwdiv 0040  
               __on_time 0075          ___lwdiv@divisor 0020          ___lwdiv@counter 0025  
       __size_of_tmr_int 0050            __size_of_main 0BA4                 main@temp 0034  
               main@tens 003A                 intlevel1 0000  
