

Microchip Technology PIC LITE Macro Assembler V1.12 build 49521 
                                                                                               Thu Sep 04 16:17:26 2014

HI-TECH Software Omniscient Code Generator (Lite mode) build 49521
     1  0000                     opt subtitle "HI-TECH Software Omniscient Code Generator (Lite mode) build 49521"
     2                           opt subtitle "HI-TECH Software Omniscient Code Generator (Lite mode) build 49521"
     3                           
     4                           opt pagewidth 120
     5                           
     6                           	opt lm
     7                           
     8                           	processor	16F870
     9                           clrc	macro
    10  0000                     	endm
    11                           opt subtitle "HI-TECH Software Omniscient Code Generator (Lite mode) build 49521"
    12                           
    13  0000                     	endm
    14                           opt subtitle "HI-TECH Software Omniscient Code Generator (Lite mode) build 49521"
    15                           
    16  0000                     	endm
    17                           opt subtitle "HI-TECH Software Omniscient Code Generator (Lite mode) build 49521"
    18                           
    19  0000                     	endm
    20                           opt subtitle "HI-TECH Software Omniscient Code Generator (Lite mode) build 49521"
    21                           
    22  0000                     	endm
    23                           opt subtitle "HI-TECH Software Omniscient Code Generator (Lite mode) build 49521"
    24                           
    25  0000                     	endm
    26                           opt subtitle "HI-TECH Software Omniscient Code Generator (Lite mode) build 49521"
    27                           
    28  0000                     	endm
    29                           opt subtitle "HI-TECH Software Omniscient Code Generator (Lite mode) build 49521"
    30                           
    31  0000                     	endm
    32  0000                     indf	equ	0
    33  0000                     indf0	equ	0
    34  0002                     pc	equ	2
    35  0002                     pcl	equ	2
    36  0003                     status	equ	3
    37  0004                     fsr	equ	4
    38  0004                     fsr0	equ	4
    39  0001                     c	equ	1
    40  0000                     z	equ	0
    41  000A                     pclath	equ	10
    42                           opt subtitle "HI-TECH Software Omniscient Code Generator (Lite mode) build 49521"
    43  0000                     INDF equ 00h ;# 
    44                           opt subtitle "HI-TECH Software Omniscient Code Generator (Lite mode) build 49521"
    45  0001                     TMR0 equ 01h ;# 
    46                           opt subtitle "HI-TECH Software Omniscient Code Generator (Lite mode) build 49521"
    47  0002                     PCL equ 02h ;# 
    48                           opt subtitle "HI-TECH Software Omniscient Code Generator (Lite mode) build 49521"
    49  0003                     STATUS equ 03h ;# 
    50                           opt subtitle "HI-TECH Software Omniscient Code Generator (Lite mode) build 49521"
    51  0004                     FSR equ 04h ;# 
    52                           opt subtitle "HI-TECH Software Omniscient Code Generator (Lite mode) build 49521"
    53  0005                     PORTA equ 05h ;# 
    54                           opt subtitle "HI-TECH Software Omniscient Code Generator (Lite mode) build 49521"
    55  0006                     PORTB equ 06h ;# 
    56                           opt subtitle "HI-TECH Software Omniscient Code Generator (Lite mode) build 49521"
    57  0007                     PORTC equ 07h ;# 
    58                           opt subtitle "HI-TECH Software Omniscient Code Generator (Lite mode) build 49521"
    59  000A                     PCLATH equ 0Ah ;# 
    60                           opt subtitle "HI-TECH Software Omniscient Code Generator (Lite mode) build 49521"
    61  000B                     INTCON equ 0Bh ;# 
    62                           opt subtitle "HI-TECH Software Omniscient Code Generator (Lite mode) build 49521"
    63  000C                     PIR1 equ 0Ch ;# 
    64                           opt subtitle "HI-TECH Software Omniscient Code Generator (Lite mode) build 49521"
    65  000D                     PIR2 equ 0Dh ;# 
    66                           opt subtitle "HI-TECH Software Omniscient Code Generator (Lite mode) build 49521"
    67  000E                     TMR1 equ 0Eh ;# 
    68                           opt subtitle "HI-TECH Software Omniscient Code Generator (Lite mode) build 49521"
    69  000E                     TMR1L equ 0Eh ;# 
    70                           opt subtitle "HI-TECH Software Omniscient Code Generator (Lite mode) build 49521"
    71  000F                     TMR1H equ 0Fh ;# 
    72                           opt subtitle "HI-TECH Software Omniscient Code Generator (Lite mode) build 49521"
    73  0010                     T1CON equ 010h ;# 
    74                           opt subtitle "HI-TECH Software Omniscient Code Generator (Lite mode) build 49521"
    75  0011                     TMR2 equ 011h ;# 
    76                           opt subtitle "HI-TECH Software Omniscient Code Generator (Lite mode) build 49521"
    77  0012                     T2CON equ 012h ;# 
    78                           opt subtitle "HI-TECH Software Omniscient Code Generator (Lite mode) build 49521"
    79  0015                     CCPR1 equ 015h ;# 
    80                           opt subtitle "HI-TECH Software Omniscient Code Generator (Lite mode) build 49521"
    81  0015                     CCPR1L equ 015h ;# 
    82                           opt subtitle "HI-TECH Software Omniscient Code Generator (Lite mode) build 49521"
    83  0016                     CCPR1H equ 016h ;# 
    84                           opt subtitle "HI-TECH Software Omniscient Code Generator (Lite mode) build 49521"
    85  0017                     CCP1CON equ 017h ;# 
    86                           opt subtitle "HI-TECH Software Omniscient Code Generator (Lite mode) build 49521"
    87  0018                     RCSTA equ 018h ;# 
    88                           opt subtitle "HI-TECH Software Omniscient Code Generator (Lite mode) build 49521"
    89  0019                     TXREG equ 019h ;# 
    90                           opt subtitle "HI-TECH Software Omniscient Code Generator (Lite mode) build 49521"
    91  001A                     RCREG equ 01Ah ;# 
    92                           opt subtitle "HI-TECH Software Omniscient Code Generator (Lite mode) build 49521"
    93  001E                     ADRESH equ 01Eh ;# 
    94                           opt subtitle "HI-TECH Software Omniscient Code Generator (Lite mode) build 49521"
    95  001F                     ADCON0 equ 01Fh ;# 
    96                           opt subtitle "HI-TECH Software Omniscient Code Generator (Lite mode) build 49521"
    97  0081                     OPTION_REG equ 081h ;# 
    98                           opt subtitle "HI-TECH Software Omniscient Code Generator (Lite mode) build 49521"
    99  0085                     TRISA equ 085h ;# 
   100                           opt subtitle "HI-TECH Software Omniscient Code Generator (Lite mode) build 49521"
   101  0086                     TRISB equ 086h ;# 
   102                           opt subtitle "HI-TECH Software Omniscient Code Generator (Lite mode) build 49521"
   103  0087                     TRISC equ 087h ;# 
   104                           opt subtitle "HI-TECH Software Omniscient Code Generator (Lite mode) build 49521"
   105  008C                     PIE1 equ 08Ch ;# 
   106                           opt subtitle "HI-TECH Software Omniscient Code Generator (Lite mode) build 49521"
   107  008D                     PIE2 equ 08Dh ;# 
   108                           opt subtitle "HI-TECH Software Omniscient Code Generator (Lite mode) build 49521"
   109  008E                     PCON equ 08Eh ;# 
   110                           opt subtitle "HI-TECH Software Omniscient Code Generator (Lite mode) build 49521"
   111  0092                     PR2 equ 092h ;# 
   112                           opt subtitle "HI-TECH Software Omniscient Code Generator (Lite mode) build 49521"
   113  0098                     TXSTA equ 098h ;# 
   114                           opt subtitle "HI-TECH Software Omniscient Code Generator (Lite mode) build 49521"
   115  0099                     SPBRG equ 099h ;# 
   116                           opt subtitle "HI-TECH Software Omniscient Code Generator (Lite mode) build 49521"
   117  009E                     ADRESL equ 09Eh ;# 
   118                           opt subtitle "HI-TECH Software Omniscient Code Generator (Lite mode) build 49521"
   119  009F                     ADCON1 equ 09Fh ;# 
   120                           opt subtitle "HI-TECH Software Omniscient Code Generator (Lite mode) build 49521"
   121  010C                     EEDATA equ 010Ch ;# 
   122                           opt subtitle "HI-TECH Software Omniscient Code Generator (Lite mode) build 49521"
   123  010D                     EEADR equ 010Dh ;# 
   124                           opt subtitle "HI-TECH Software Omniscient Code Generator (Lite mode) build 49521"
   125  010E                     EEDATH equ 010Eh ;# 
   126                           opt subtitle "HI-TECH Software Omniscient Code Generator (Lite mode) build 49521"
   127  010F                     EEADRH equ 010Fh ;# 
   128                           opt subtitle "HI-TECH Software Omniscient Code Generator (Lite mode) build 49521"
   129  018C                     EECON1 equ 018Ch ;# 
   130                           opt subtitle "HI-TECH Software Omniscient Code Generator (Lite mode) build 49521"
   131  018D                     EECON2 equ 018Dh ;# 
   132                           opt subtitle "HI-TECH Software Omniscient Code Generator (Lite mode) build 49521"
   133                           
   134                           opt pagewidth 120
   135                           
   136                           	opt lm
   137                           
   138                           	processor	16F870
   139                           clrc	macro
   140                           	bcf	3,0
   141                           	endm
   142                           clrz	macro
   143                           	bcf	3,2
   144                           	endm
   145                           setc	macro
   146                           	bsf	3,0
   147                           	endm
   148                           setz	macro
   149                           	bsf	3,2
   150                           	endm
   151                           skipc	macro
   152                           	btfss	3,0
   153                           	endm
   154                           skipz	macro
   155                           	btfss	3,2
   156                           	endm
   157                           skipnc	macro
   158  000C                     _PIR1bits	set	0xC
   159                           opt subtitle "HI-TECH Software Omniscient Code Generator (Lite mode) build 49521"
   160  001A                     _RCREG	set	0x1A
   161                           opt subtitle "HI-TECH Software Omniscient Code Generator (Lite mode) build 49521"
   162  0018                     _RCSTAbits	set	0x18
   163                           opt subtitle "HI-TECH Software Omniscient Code Generator (Lite mode) build 49521"
   164  0019                     _TXREG	set	0x19
   165                           opt subtitle "HI-TECH Software Omniscient Code Generator (Lite mode) build 49521"
   166  005F                     _GIE	set	0x5F
   167                           opt subtitle "HI-TECH Software Omniscient Code Generator (Lite mode) build 49521"
   168  005E                     _PEIE	set	0x5E
   169                           opt subtitle "HI-TECH Software Omniscient Code Generator (Lite mode) build 49521"
   170  002D                     _RA5	set	0x2D
   171                           opt subtitle "HI-TECH Software Omniscient Code Generator (Lite mode) build 49521"
   172  0037                     _RB7	set	0x37
   173                           opt subtitle "HI-TECH Software Omniscient Code Generator (Lite mode) build 49521"
   174  0038                     _RC0	set	0x38
   175                           opt subtitle "HI-TECH Software Omniscient Code Generator (Lite mode) build 49521"
   176  0039                     _RC1	set	0x39
   177                           opt subtitle "HI-TECH Software Omniscient Code Generator (Lite mode) build 49521"
   178  003A                     _RC2	set	0x3A
   179                           opt subtitle "HI-TECH Software Omniscient Code Generator (Lite mode) build 49521"
   180  003B                     _RC3	set	0x3B
   181                           opt subtitle "HI-TECH Software Omniscient Code Generator (Lite mode) build 49521"
   182  003C                     _RC4	set	0x3C
   183                           opt subtitle "HI-TECH Software Omniscient Code Generator (Lite mode) build 49521"
   184  0065                     _RCIF	set	0x65
   185                           opt subtitle "HI-TECH Software Omniscient Code Generator (Lite mode) build 49521"
   186  009F                     _ADCON1	set	0x9F
   187                           opt subtitle "HI-TECH Software Omniscient Code Generator (Lite mode) build 49521"
   188  0099                     _SPBRG	set	0x99
   189                           opt subtitle "HI-TECH Software Omniscient Code Generator (Lite mode) build 49521"
   190  0085                     _TRISA	set	0x85
   191                           opt subtitle "HI-TECH Software Omniscient Code Generator (Lite mode) build 49521"
   192  0086                     _TRISB	set	0x86
   193                           opt subtitle "HI-TECH Software Omniscient Code Generator (Lite mode) build 49521"
   194  0087                     _TRISC	set	0x87
   195                           opt subtitle "HI-TECH Software Omniscient Code Generator (Lite mode) build 49521"
   196  0098                     _TXSTAbits	set	0x98
   197                           opt subtitle "HI-TECH Software Omniscient Code Generator (Lite mode) build 49521"
   198  0465                     _RCIE	set	0x465
   199                           opt subtitle "HI-TECH Software Omniscient Code Generator (Lite mode) build 49521"
   200  010D                     _EEADR	set	0x10D
   201                           opt subtitle "HI-TECH Software Omniscient Code Generator (Lite mode) build 49521"
   202  010C                     _EEDATA	set	0x10C
   203                           opt subtitle "HI-TECH Software Omniscient Code Generator (Lite mode) build 49521"
   204  018C                     _EECON1bits	set	0x18C
   205                           opt subtitle "HI-TECH Software Omniscient Code Generator (Lite mode) build 49521"
   206  018D                     _EECON2	set	0x18D
   207                           opt subtitle "HI-TECH Software Omniscient Code Generator (Lite mode) build 49521"
   208                           
   209  0409                     __pstrings:
   210                           opt subtitle "HI-TECH Software Omniscient Code Generator (Lite mode) build 49521"
   211  0409                     stringtab:
   212                           opt subtitle "HI-TECH Software Omniscient Code Generator (Lite mode) build 49521"
   213  0409                     __stringtab:
   214                           opt subtitle "HI-TECH Software Omniscient Code Generator (Lite mode) build 49521"
   215  0409  1BFF               	btfsc	(btemp+1),7
   216  040A  2C13               	ljmp	stringcode
   217  040B  1383               	bcf	status,7
   218  040C  187F               	btfsc	(btemp+1),0
   219  040D  1783               	bsf	status,7
   220  040E  0800               	movf	indf,w
   221  040F  0A84               	incf fsr
   222  0410  1903               skipnz
   223  0411  0AFF               incf btemp+1
   224  0412  0008               	return
   225  0413                     stringcode:stringdir:
      + 0413                     stringdir:	
   226  0413  3004               movlw high(stringdir)
   227  0414  008A               movwf pclath
   228  0415  0804               movf fsr,w
   229  0416  0A84               incf fsr
   230  0417  0782               	addwf pc
   231  0418                     __stringbase:
   232  0418  3400               	retlw	0
   233                           opt subtitle "HI-TECH Software Omniscient Code Generator (Lite mode) build 49521"
   234                           
   235  0419                     __end_of__stringtab:
   236                           opt subtitle "HI-TECH Software Omniscient Code Generator (Lite mode) build 49521"
   237  0419                     __stringdata:
   238                           opt subtitle "HI-TECH Software Omniscient Code Generator (Lite mode) build 49521"
   239  0419                     STR_1:	
   240  0419  3441               	retlw	65	;'A'
   241  041A  3454               	retlw	84	;'T'
   242  041B  342B               	retlw	43	;'+'
   243  041C  3443               	retlw	67	;'C'
   244  041D  344C               	retlw	76	;'L'
   245  041E  3449               	retlw	73	;'I'
   246  041F  3450               	retlw	80	;'P'
   247  0420  343D               	retlw	61	;'='
   248  0421  3431               	retlw	49	;'1'
   249  0422  3400               	retlw	0
   250                           opt subtitle "HI-TECH Software Omniscient Code Generator (Lite mode) build 49521"
   251                           
   252  0423                     STR_9:	
   253  0423  342B               	retlw	43	;'+'
   254  0424  3443               	retlw	67	;'C'
   255  0425  344C               	retlw	76	;'L'
   256  0426  3449               	retlw	73	;'I'
   257  0427  3450               	retlw	80	;'P'
   258  0428  3400               	retlw	0
   259                           opt subtitle "HI-TECH Software Omniscient Code Generator (Lite mode) build 49521"
   260                           
   261  0429                     STR_3:	
   262  0429  3441               	retlw	65	;'A'
   263  042A  3454               	retlw	84	;'T'
   264  042B  3444               	retlw	68	;'D'
   265  042C  3400               	retlw	0
   266                           opt subtitle "HI-TECH Software Omniscient Code Generator (Lite mode) build 49521"
   267                           
   268  042D                     STR_2:	
   269  042D  3441               	retlw	65	;'A'
   270  042E  3454               	retlw	84	;'T'
   271  042F  3448               	retlw	72	;'H'
   272  0430  3400               	retlw	0
   273                           opt subtitle "HI-TECH Software Omniscient Code Generator (Lite mode) build 49521"
   274  042D                     STR_4	equ	STR_2+0
   275  042D                     STR_5	equ	STR_2+0
   276  042D                     STR_7	equ	STR_2+0
   277  042D                     STR_8	equ	STR_2+0
   278  0429                     STR_6	equ	STR_3+0
   279                           opt subtitle "HI-TECH Software Omniscient Code Generator (Lite mode) build 49521"
   280  0431                     __end_of__stringdata:
   281                           opt subtitle "HI-TECH Software Omniscient Code Generator (Lite mode) build 49521"
   282                           
   283                           opt pagewidth 120
   284                           
   285                           	opt lm
   286  04F0                     start_initialization:
   287                           opt subtitle "HI-TECH Software Omniscient Code Generator (Lite mode) build 49521"
   288                           
   289  04F0                     __initialization:
   290                           opt subtitle "HI-TECH Software Omniscient Code Generator (Lite mode) build 49521"
   291                           
   292  007C                     __pbssCOMMON:
   293  007C                     _PLUSE_FLAG:
   294  007C                            ds      1
   295                           opt subtitle "HI-TECH Software Omniscient Code Generator (Lite mode) build 49521"
   296  007D                     _index:
   297  007D                            ds      1
   298                           opt subtitle "HI-TECH Software Omniscient Code Generator (Lite mode) build 49521"
   299                           
   300                           opt pagewidth 120
   301  0020                     __pbssBANK0:
   302  0020                     _CALL_FLAG:
   303  0020                            ds      1
   304                           opt subtitle "HI-TECH Software Omniscient Code Generator (Lite mode) build 49521"
   305  0021                     _CLIP_FLAG:
   306  0021                            ds      1
   307                           opt subtitle "HI-TECH Software Omniscient Code Generator (Lite mode) build 49521"
   308  0022                     _CUT_FLAG:
   309  0022                            ds      1
   310                           opt subtitle "HI-TECH Software Omniscient Code Generator (Lite mode) build 49521"
   311  0023                     _LP_FLAG:
   312  0023                            ds      1
   313                           opt subtitle "HI-TECH Software Omniscient Code Generator (Lite mode) build 49521"
   314  0024                     _MOTOR_FLAG:
   315  0024                            ds      1
   316                           opt subtitle "HI-TECH Software Omniscient Code Generator (Lite mode) build 49521"
   317  0025                     _NUMBER_FLAG:
   318  0025                            ds      1
   319                           opt subtitle "HI-TECH Software Omniscient Code Generator (Lite mode) build 49521"
   320  0026                     _RING_COUNT:
   321  0026                            ds      1
   322                           opt subtitle "HI-TECH Software Omniscient Code Generator (Lite mode) build 49521"
   323  0027                     _WRONG_NUMBER:
   324  0027                            ds      1
   325                           opt subtitle "HI-TECH Software Omniscient Code Generator (Lite mode) build 49521"
   326  0028                     _buffer:
   327  0028                            ds      15
   328                           opt subtitle "HI-TECH Software Omniscient Code Generator (Lite mode) build 49521"
   329                           
   330                           opt pagewidth 120
   331                           
   332                           	opt lm
   333  04F9                     clear_ram:
   334  04F9  0064               	clrwdt			;clear the watchdog before getting into this loop
   335  04FA                     clrloop:
   336  04FA  0180               	clrf	indf		;clear RAM location pointed to by FSR
   337  04FB  0A84               	incf	fsr,f		;increment pointer
   338  04FC  0604               	xorwf	fsr,w		;XOR with final address
   339  04FD  1903               	btfsc	status,2	;have we reached the end yet?
   340  04FE  3400               	retlw	0		;all done for this memory range, return
   341  04FF  0604               	xorwf	fsr,w		;XOR again to restore value
   342  0500  2CFA               	goto	clrloop		;do the next byte
   343                           opt subtitle "HI-TECH Software Omniscient Code Generator (Lite mode) build 49521"
   344                           
   345                           opt pagewidth 120
   346  04F0  01FC               	clrf	((__pbssCOMMON)+0)&07Fh
   347  04F1  01FD               	clrf	((__pbssCOMMON)+1)&07Fh
   348                           opt subtitle "HI-TECH Software Omniscient Code Generator (Lite mode) build 49521"
   349                           
   350  04F2  1383               	bcf	status, 7	;select IRP bank0
   351  04F3  3020               	movlw	low(__pbssBANK0)
   352  04F4  0084               	movwf	fsr
   353  04F5  3037               	movlw	low((__pbssBANK0)+017h)
   354  04F6  24F9               	fcall	clear_ram
   355                           opt subtitle "HI-TECH Software Omniscient Code Generator (Lite mode) build 49521"
   356                           
   357                           opt pagewidth 120
   358                           
   359                           	opt lm
   360  04F7                     end_of_initialization:
   361  04F7                     __end_of__initialization:clrf status
      + 04F7  0183               	clrf	3
   362  04F8  2811               ljmp _main	;jump to C main() function
   363                           opt subtitle "HI-TECH Software Omniscient Code Generator (Lite mode) build 49521"
   364                           
   365  0070                     __pcstackCOMMON:
   366  0070                     ?_start:	; 0 bytes @ 0x0
   367  0070                     ?_stop:	; 0 bytes @ 0x0
   368  0070                     ?_USARTWritestring:	; 0 bytes @ 0x0
   369  0070                     ?_USARTHandleRxInt:	; 0 bytes @ 0x0
   370  0070                     ?_main:	; 0 bytes @ 0x0
   371  0070                     ?_ISR:	; 0 bytes @ 0x0
   372  0070                     ?_USARTWriteChar:	; 0 bytes @ 0x0
   373  0070                     ?_phase_check:	; 1 bytes @ 0x0
   374                           opt subtitle "HI-TECH Software Omniscient Code Generator (Lite mode) build 49521"
   375  0070                     ?_strcmp:	; 2 bytes @ 0x0
   376                           opt subtitle "HI-TECH Software Omniscient Code Generator (Lite mode) build 49521"
   377  0070                     strcmp@s2:	; 1 bytes @ 0x0
   378  0070                     	ds	2
   379  0072                     ??_strcmp:	; 0 bytes @ 0x2
   380  0072                     	ds	2
   381                           opt subtitle "HI-TECH Software Omniscient Code Generator (Lite mode) build 49521"
   382  0074                     strcmp@r:	; 1 bytes @ 0x4
   383  0074                     	ds	1
   384                           opt subtitle "HI-TECH Software Omniscient Code Generator (Lite mode) build 49521"
   385  0075                     strcmp@s1:	; 1 bytes @ 0x5
   386  0075                     	ds	1
   387  0076                     ??_USARTHandleRxInt:	; 0 bytes @ 0x6
   388  0076                     	ds	1
   389                           opt subtitle "HI-TECH Software Omniscient Code Generator (Lite mode) build 49521"
   390  0077                     USARTHandleRxInt@data:	; 1 bytes @ 0x7
   391  0077                     	ds	1
   392  0078                     ??_ISR:	; 0 bytes @ 0x8
   393  0078                     	ds	4
   394                           opt subtitle "HI-TECH Software Omniscient Code Generator (Lite mode) build 49521"
   395                           
   396  0037                     __pcstackBANK0:
   397                           opt subtitle "HI-TECH Software Omniscient Code Generator (Lite mode) build 49521"
   398  0037                     ?_USARTInit:	; 0 bytes @ 0x0
   399  0037                     ??_phase_check:	; 0 bytes @ 0x0
   400  0037                     ??_start:	; 0 bytes @ 0x0
   401  0037                     ??_stop:	; 0 bytes @ 0x0
   402  0037                     ??_USARTWriteChar:	; 0 bytes @ 0x0
   403                           opt subtitle "HI-TECH Software Omniscient Code Generator (Lite mode) build 49521"
   404  0037                     USARTWriteChar@ch:	; 1 bytes @ 0x0
   405                           opt subtitle "HI-TECH Software Omniscient Code Generator (Lite mode) build 49521"
   406  0037                     USARTInit@baud_rate:	; 2 bytes @ 0x0
   407  0037                     	ds	1
   408                           opt subtitle "HI-TECH Software Omniscient Code Generator (Lite mode) build 49521"
   409  0038                     ?_ATCommand:	; 0 bytes @ 0x1
   410  0038                     ??_USARTWritestring:	; 0 bytes @ 0x1
   411                           opt subtitle "HI-TECH Software Omniscient Code Generator (Lite mode) build 49521"
   412  0038                     ATCommand@str:	; 2 bytes @ 0x1
   413  0038                     	ds	1
   414  0039                     ??_USARTInit:	; 0 bytes @ 0x2
   415                           opt subtitle "HI-TECH Software Omniscient Code Generator (Lite mode) build 49521"
   416  0039                     USARTWritestring@str:	; 1 bytes @ 0x2
   417  0039                     	ds	1
   418  003A                     ??_ATCommand:	; 0 bytes @ 0x3
   419  003A                     ??_main:	; 0 bytes @ 0x3
   420  003A                     	ds	3
   421                           opt subtitle "HI-TECH Software Omniscient Code Generator (Lite mode) build 49521"
   422  003D                     main@seconds:	; 1 bytes @ 0x6
   423  003D                     	ds	1
   424                           opt subtitle "HI-TECH Software Omniscient Code Generator (Lite mode) build 49521"
   425  003E                     main@temp:	; 1 bytes @ 0x7
   426  003E                     	ds	1
   427                           opt subtitle "HI-TECH Software Omniscient Code Generator (Lite mode) build 49521"
   428  003F                     main@i:	; 1 bytes @ 0x8
   429  003F                     	ds	1
   430                           opt subtitle "HI-TECH Software Omniscient Code Generator (Lite mode) build 49521"
   431  0040                     main@count:	; 1 bytes @ 0x9
   432  0040                     	ds	1
   433                           opt subtitle "HI-TECH Software Omniscient Code Generator (Lite mode) build 49521"
   434                           
   435                           opt pagewidth 120
   436                           
   437                           	opt lm
   438                           
   439                           	processor	16F870
   440                           clrc	macro
   441                           	bcf	3,0
   442                           	endm
   443                           clrz	macro
   444                           	bcf	3,2
   445                           	endm
   446                           setc	macro
   447                           	bsf	3,0
   448                           	endm
   449                           setz	macro
   450                           	bsf	3,2
   451                           	endm
   452                           skipc	macro
   453                           	btfss	3,0
   454                           	endm
   455                           skipz	macro
   456                           	btfss	3,2
   457                           	endm
   458                           skipnc	macro
   459                           	btfsc	3,0
   460                           	endm
   461                           skipnz	macro
   462                           	btfsc	3,2
   463                           	endm
   464                           indf	equ	0
   465                           indf0	equ	0
   466                           pc	equ	2
   467                           pcl	equ	2
   468                           status	equ	3
   469                           fsr	equ	4
   470                           fsr0	equ	4
   471                           c	equ	1
   472                           z	equ	0
   473                           pclath	equ	10
   474                           # 46 "C:\Program Files (x86)\Microchip\xc8\v1.12\include\pic16f870.h"
   475                           INDF equ 00h ;# 
   476                           # 52 "C:\Program Files (x86)\Microchip\xc8\v1.12\include\pic16f870.h"
   477                           TMR0 equ 01h ;# 
   478                           # 58 "C:\Program Files (x86)\Microchip\xc8\v1.12\include\pic16f870.h"
   479                           PCL equ 02h ;# 
   480                           # 64 "C:\Program Files (x86)\Microchip\xc8\v1.12\include\pic16f870.h"
   481                           STATUS equ 03h ;# 
   482                           # 151 "C:\Program Files (x86)\Microchip\xc8\v1.12\include\pic16f870.h"
   483                           FSR equ 04h ;# 
   484                           # 157 "C:\Program Files (x86)\Microchip\xc8\v1.12\include\pic16f870.h"
   485                           PORTA equ 05h ;# 
   486                           # 206 "C:\Program Files (x86)\Microchip\xc8\v1.12\include\pic16f870.h"
   487                           PORTB equ 06h ;# 
   488                           # 267 "C:\Program Files (x86)\Microchip\xc8\v1.12\include\pic16f870.h"
   489                           PORTC equ 07h ;# 
   490                           # 328 "C:\Program Files (x86)\Microchip\xc8\v1.12\include\pic16f870.h"
   491                           PCLATH equ 0Ah ;# 
   492                           # 347 "C:\Program Files (x86)\Microchip\xc8\v1.12\include\pic16f870.h"
   493                           INTCON equ 0Bh ;# 
   494                           # 424 "C:\Program Files (x86)\Microchip\xc8\v1.12\include\pic16f870.h"
   495                           PIR1 equ 0Ch ;# 
   496                           # 474 "C:\Program Files (x86)\Microchip\xc8\v1.12\include\pic16f870.h"
   497                           PIR2 equ 0Dh ;# 
   498                           # 494 "C:\Program Files (x86)\Microchip\xc8\v1.12\include\pic16f870.h"
   499                           TMR1 equ 0Eh ;# 
   500                           # 500 "C:\Program Files (x86)\Microchip\xc8\v1.12\include\pic16f870.h"
   501                           TMR1L equ 0Eh ;# 
   502                           # 506 "C:\Program Files (x86)\Microchip\xc8\v1.12\include\pic16f870.h"
   503                           TMR1H equ 0Fh ;# 
   504                           # 512 "C:\Program Files (x86)\Microchip\xc8\v1.12\include\pic16f870.h"
   505                           T1CON equ 010h ;# 
   506                           # 588 "C:\Program Files (x86)\Microchip\xc8\v1.12\include\pic16f870.h"
   507                           TMR2 equ 011h ;# 
   508                           # 594 "C:\Program Files (x86)\Microchip\xc8\v1.12\include\pic16f870.h"
   509                           T2CON equ 012h ;# 
   510                           # 664 "C:\Program Files (x86)\Microchip\xc8\v1.12\include\pic16f870.h"
   511                           CCPR1 equ 015h ;# 
   512                           # 670 "C:\Program Files (x86)\Microchip\xc8\v1.12\include\pic16f870.h"
   513                           CCPR1L equ 015h ;# 
   514                           # 676 "C:\Program Files (x86)\Microchip\xc8\v1.12\include\pic16f870.h"
   515                           CCPR1H equ 016h ;# 
   516                           # 682 "C:\Program Files (x86)\Microchip\xc8\v1.12\include\pic16f870.h"
   517                           CCP1CON equ 017h ;# 
   518                           # 739 "C:\Program Files (x86)\Microchip\xc8\v1.12\include\pic16f870.h"
   519                           RCSTA equ 018h ;# 
   520                           # 833 "C:\Program Files (x86)\Microchip\xc8\v1.12\include\pic16f870.h"
   521                           TXREG equ 019h ;# 
   522                           # 839 "C:\Program Files (x86)\Microchip\xc8\v1.12\include\pic16f870.h"
   523                           RCREG equ 01Ah ;# 
   524                           # 845 "C:\Program Files (x86)\Microchip\xc8\v1.12\include\pic16f870.h"
   525                           ADRESH equ 01Eh ;# 
   526                           # 851 "C:\Program Files (x86)\Microchip\xc8\v1.12\include\pic16f870.h"
   527                           ADCON0 equ 01Fh ;# 
   528                           # 946 "C:\Program Files (x86)\Microchip\xc8\v1.12\include\pic16f870.h"
   529                           OPTION_REG equ 081h ;# 
   530                           # 1015 "C:\Program Files (x86)\Microchip\xc8\v1.12\include\pic16f870.h"
   531                           TRISA equ 085h ;# 
   532                           # 1064 "C:\Program Files (x86)\Microchip\xc8\v1.12\include\pic16f870.h"
   533                           TRISB equ 086h ;# 
   534                           # 1125 "C:\Program Files (x86)\Microchip\xc8\v1.12\include\pic16f870.h"
   535                           TRISC equ 087h ;# 
   536                           # 1186 "C:\Program Files (x86)\Microchip\xc8\v1.12\include\pic16f870.h"
   537                           PIE1 equ 08Ch ;# 
   538                           # 1236 "C:\Program Files (x86)\Microchip\xc8\v1.12\include\pic16f870.h"
   539                           PIE2 equ 08Dh ;# 
   540                           # 1256 "C:\Program Files (x86)\Microchip\xc8\v1.12\include\pic16f870.h"
   541                           PCON equ 08Eh ;# 
   542                           # 1289 "C:\Program Files (x86)\Microchip\xc8\v1.12\include\pic16f870.h"
   543                           PR2 equ 092h ;# 
   544                           # 1295 "C:\Program Files (x86)\Microchip\xc8\v1.12\include\pic16f870.h"
   545                           TXSTA equ 098h ;# 
   546                           # 1375 "C:\Program Files (x86)\Microchip\xc8\v1.12\include\pic16f870.h"
   547                           SPBRG equ 099h ;# 
   548                           # 1381 "C:\Program Files (x86)\Microchip\xc8\v1.12\include\pic16f870.h"
   549                           ADRESL equ 09Eh ;# 
   550                           # 1387 "C:\Program Files (x86)\Microchip\xc8\v1.12\include\pic16f870.h"
   551                           ADCON1 equ 09Fh ;# 
   552                           # 1439 "C:\Program Files (x86)\Microchip\xc8\v1.12\include\pic16f870.h"
   553                           EEDATA equ 010Ch ;# 
   554                           # 1445 "C:\Program Files (x86)\Microchip\xc8\v1.12\include\pic16f870.h"
   555                           EEADR equ 010Dh ;# 
   556                           # 1451 "C:\Program Files (x86)\Microchip\xc8\v1.12\include\pic16f870.h"
   557                           EEDATH equ 010Eh ;# 
   558                           # 1457 "C:\Program Files (x86)\Microchip\xc8\v1.12\include\pic16f870.h"
   559                           EEADRH equ 010Fh ;# 
   560                           # 1463 "C:\Program Files (x86)\Microchip\xc8\v1.12\include\pic16f870.h"
   561                           EECON1 equ 018Ch ;# 
   562                           # 1507 "C:\Program Files (x86)\Microchip\xc8\v1.12\include\pic16f870.h"
   563                           EECON2 equ 018Dh ;# 
   564                           	FNCALL	_main,_USARTInit
   565                           	FNCALL	_main,_ATCommand
   566                           	FNCALL	_main,_phase_check
   567                           	FNCALL	_main,_start
   568                           	FNCALL	_main,_stop
   569                           	FNCALL	_main,_USARTWritestring
   570                           	FNCALL	_ATCommand,_USARTWriteChar
   571                           	FNCALL	_USARTWritestring,_USARTWriteChar
   572                           	FNROOT	_main
   573                           	FNCALL	_ISR,_USARTHandleRxInt
   574                           	FNCALL	_USARTHandleRxInt,_strcmp
   575                           	FNCALL	intlevel1,_ISR
   576                           	global	intlevel1
   577                           	FNROOT	intlevel1
   578                           	global	_PLUSE_FLAG
   579                           	global	_index
   580                           	global	_CALL_FLAG
   581                           	global	_CLIP_FLAG
   582                           	global	_CUT_FLAG
   583                           	global	_LP_FLAG
   584                           	global	_MOTOR_FLAG
   585                           	global	_NUMBER_FLAG
   586                           	global	_RING_COUNT
   587                           	global	_WRONG_NUMBER
   588                           	global	_buffer
   589                           	global	_PIR1bits
   590                           _PIR1bits	set	0xC
   591                           	global	_RCREG
   592                           _RCREG	set	0x1A
   593                           	global	_RCSTAbits
   594                           _RCSTAbits	set	0x18
   595                           	global	_TXREG
   596                           _TXREG	set	0x19
   597                           	global	_GIE
   598                           _GIE	set	0x5F
   599                           	global	_PEIE
   600                           _PEIE	set	0x5E
   601                           	global	_RA5
   602                           _RA5	set	0x2D
   603                           	global	_RB7
   604                           _RB7	set	0x37
   605                           	global	_RC0
   606                           _RC0	set	0x38
   607                           	global	_RC1
   608                           _RC1	set	0x39
   609                           	global	_RC2
   610                           _RC2	set	0x3A
   611                           	global	_RC3
   612                           _RC3	set	0x3B
   613                           	global	_RC4
   614                           _RC4	set	0x3C
   615                           	global	_RCIF
   616                           _RCIF	set	0x65
   617                           	global	_ADCON1
   618                           _ADCON1	set	0x9F
   619                           	global	_SPBRG
   620                           _SPBRG	set	0x99
   621                           	global	_TRISA
   622                           _TRISA	set	0x85
   623                           	global	_TRISB
   624                           _TRISB	set	0x86
   625                           	global	_TRISC
   626                           _TRISC	set	0x87
   627                           	global	_TXSTAbits
   628                           _TXSTAbits	set	0x98
   629                           	global	_RCIE
   630                           _RCIE	set	0x465
   631                           	global	_EEADR
   632                           _EEADR	set	0x10D
   633                           	global	_EEDATA
   634                           _EEDATA	set	0x10C
   635                           	global	_EECON1bits
   636                           _EECON1bits	set	0x18C
   637                           	global	_EECON2
   638                           _EECON2	set	0x18D
   639  0011                     __pmaintext:	;psect for function _main
   640                           opt subtitle "HI-TECH Software Omniscient Code Generator (Lite mode) build 49521"
   641                           
   642                           opt pagewidth 120
   643                           
   644  0257                     	__size_of_main	equ	__end_of_main-_main
   645                           opt subtitle "HI-TECH Software Omniscient Code Generator (Lite mode) build 49521"
   646  0011                     _main:	
   647                           opt subtitle "HI-TECH Software Omniscient Code Generator (Lite mode) build 49521"
   648                           
   649                           opt pagewidth 120
   650                           
   651  0011                     l1175:	
   652                           opt subtitle "HI-TECH Software Omniscient Code Generator (Lite mode) build 49521"
   653  0011  30FE               	movlw	(0FEh)
   654  0012  1683               	bsf	status, 5	;RP0=1, select bank1
   655  0013  1303               	bcf	status, 6	;RP1=0, select bank1
   656  0014  0085               	movwf	(133)^080h	;volatile
   657                           opt subtitle "HI-TECH Software Omniscient Code Generator (Lite mode) build 49521"
   658                           
   659  0015                     l1177:	
   660                           opt subtitle "HI-TECH Software Omniscient Code Generator (Lite mode) build 49521"
   661  0015  0186               	clrf	(134)^080h	;volatile
   662                           opt subtitle "HI-TECH Software Omniscient Code Generator (Lite mode) build 49521"
   663                           
   664  0016                     l1179:	
   665                           opt subtitle "HI-TECH Software Omniscient Code Generator (Lite mode) build 49521"
   666  0016  3087               	movlw	(087h)
   667  0017  0087               	movwf	(135)^080h	;volatile
   668                           opt subtitle "HI-TECH Software Omniscient Code Generator (Lite mode) build 49521"
   669                           
   670  0018                     l1181:	
   671                           opt subtitle "HI-TECH Software Omniscient Code Generator (Lite mode) build 49521"
   672  0018  3006               	movlw	(06h)
   673  0019  009F               	movwf	(159)^080h	;volatile
   674                           opt subtitle "HI-TECH Software Omniscient Code Generator (Lite mode) build 49521"
   675                           
   676  001A                     l1183:	
   677                           opt subtitle "HI-TECH Software Omniscient Code Generator (Lite mode) build 49521"
   678  001A  1283               	bcf	status, 5	;RP0=0, select bank0
   679  001B  1303               	bcf	status, 6	;RP1=0, select bank0
   680  001C  01C0               	clrf	(main@count)
   681                           opt subtitle "HI-TECH Software Omniscient Code Generator (Lite mode) build 49521"
   682                           
   683  001D                     l1185:	
   684                           opt subtitle "HI-TECH Software Omniscient Code Generator (Lite mode) build 49521"
   685  001D  3001               	movlw	(01h)
   686  001E  1283               	bcf	status, 5	;RP0=0, select bank2
   687  001F  1703               	bsf	status, 6	;RP1=1, select bank2
   688  0020  008D               	movwf	(269)^0100h	;volatile
   689                           opt subtitle "HI-TECH Software Omniscient Code Generator (Lite mode) build 49521"
   690                           
   691  0021                     l1187:	
   692                           opt subtitle "HI-TECH Software Omniscient Code Generator (Lite mode) build 49521"
   693  0021  1683               	bsf	status, 5	;RP0=1, select bank3
   694  0022  1703               	bsf	status, 6	;RP1=1, select bank3
   695  0023  138C               	bcf	(396)^0180h,7	;volatile
   696                           opt subtitle "HI-TECH Software Omniscient Code Generator (Lite mode) build 49521"
   697                           
   698  0024                     l1189:	
   699                           opt subtitle "HI-TECH Software Omniscient Code Generator (Lite mode) build 49521"
   700  0024  140C               	bsf	(396)^0180h,0	;volatile
   701                           opt subtitle "HI-TECH Software Omniscient Code Generator (Lite mode) build 49521"
   702                           
   703  0025  2826               	goto	l93
   704                           opt subtitle "HI-TECH Software Omniscient Code Generator (Lite mode) build 49521"
   705  0026                     l94:	
   706                           opt subtitle "HI-TECH Software Omniscient Code Generator (Lite mode) build 49521"
   707                           
   708                           opt pagewidth 120
   709  0026                     l93:	
   710                           opt subtitle "HI-TECH Software Omniscient Code Generator (Lite mode) build 49521"
   711  0026  180C               	btfsc	(396)^0180h,0	;volatile
   712  0027  2829               	goto	u611
   713  0028  282A               	goto	u610
   714  0029                     u611:
   715  0029  2826               	goto	l93
   716  002A                     u610:
   717  002A  282B               	goto	l1191
   718                           opt subtitle "HI-TECH Software Omniscient Code Generator (Lite mode) build 49521"
   719  002B                     l95:	
   720                           opt subtitle "HI-TECH Software Omniscient Code Generator (Lite mode) build 49521"
   721                           
   722  002B                     l1191:	
   723                           opt subtitle "HI-TECH Software Omniscient Code Generator (Lite mode) build 49521"
   724                           
   725  002B  1283               	bcf	status, 5	;RP0=0, select bank2
   726  002C  1703               	bsf	status, 6	;RP1=1, select bank2
   727  002D  080C               	movf	(268)^0100h,w	;volatile
   728  002E  1283               	bcf	status, 5	;RP0=0, select bank0
   729  002F  1303               	bcf	status, 6	;RP1=0, select bank0
   730  0030  00BA               	movwf	(??_main+0)+0
   731  0031  083A               	movf	(??_main+0)+0,w
   732  0032  00A4               	movwf	(_MOTOR_FLAG)
   733                           opt subtitle "HI-TECH Software Omniscient Code Generator (Lite mode) build 49521"
   734                           
   735  0033  0824               	movf	(_MOTOR_FLAG),w
   736  0034  3A01               	xorlw	01h
   737  0035  1D03               	skipz
   738  0036  2838               	goto	u621
   739  0037  2839               	goto	u620
   740  0038                     u621:
   741  0038  283D               	goto	l98
   742  0039                     u620:
   743                           opt subtitle "HI-TECH Software Omniscient Code Generator (Lite mode) build 49521"
   744  0039                     l1193:	
   745  0039  0824               	movf	(_MOTOR_FLAG),w
   746  003A  1D03               	skipz
   747  003B  283D               	goto	u630
   748  003C  283E               	goto	l96
   749  003D                     u630:
   750                           opt subtitle "HI-TECH Software Omniscient Code Generator (Lite mode) build 49521"
   751  003D                     l98:	
   752                           opt subtitle "HI-TECH Software Omniscient Code Generator (Lite mode) build 49521"
   753                           
   754  003D  01A4               	clrf	(_MOTOR_FLAG)
   755                           opt subtitle "HI-TECH Software Omniscient Code Generator (Lite mode) build 49521"
   756  003E                     l96:	
   757                           opt subtitle "HI-TECH Software Omniscient Code Generator (Lite mode) build 49521"
   758                           
   759  003E  01C0               	clrf	(main@count)
   760                           opt subtitle "HI-TECH Software Omniscient Code Generator (Lite mode) build 49521"
   761  003F                     l1195:	
   762  003F  300B               	movlw	(0Bh)
   763  0040  0240               	subwf	(main@count),w
   764  0041  1C03               	skipc
   765  0042  2844               	goto	u641
   766  0043  2845               	goto	u640
   767  0044                     u641:
   768  0044  2847               	goto	l99
   769  0045                     u640:
   770  0045  2872               	goto	l1207
   771                           opt subtitle "HI-TECH Software Omniscient Code Generator (Lite mode) build 49521"
   772  0046                     l1197:	
   773  0046  2872               	goto	l1207
   774                           opt subtitle "HI-TECH Software Omniscient Code Generator (Lite mode) build 49521"
   775                           
   776  0047                     l99:	
   777                           opt subtitle "HI-TECH Software Omniscient Code Generator (Lite mode) build 49521"
   778                           
   779                           opt pagewidth 120
   780  0047  1786               	bsf	(55/8),(55)&7	;volatile
   781                           opt subtitle "HI-TECH Software Omniscient Code Generator (Lite mode) build 49521"
   782                           
   783  0048                     l1199:	
   784                           opt subtitle "HI-TECH Software Omniscient Code Generator (Lite mode) build 49521"
   785                           
   786  0048  3006               movlw  6
   787  0049  00BC               movwf	((??_main+0)+0+2),f
   788  004A  3013               movlw	19
   789  004B  00BB               movwf	((??_main+0)+0+1),f
   790  004C  30B1               	movlw	177
   791  004D  00BA               movwf	((??_main+0)+0),f
   792  004E                     u1217:
   793  004E  0BBA               	decfsz	((??_main+0)+0),f
   794  004F  284E               	goto	u1217
   795  0050  0BBB               	decfsz	((??_main+0)+0+1),f
   796  0051  284E               	goto	u1217
   797  0052  0BBC               	decfsz	((??_main+0)+0+2),f
   798  0053  284E               	goto	u1217
   799  0054  2855               	nop2
   800                           opt subtitle "HI-TECH Software Omniscient Code Generator (Lite mode) build 49521"
   801                           
   802                           opt pagewidth 120
   803                           
   804  0055                     l1201:	
   805                           opt subtitle "HI-TECH Software Omniscient Code Generator (Lite mode) build 49521"
   806  0055  1283               	bcf	status, 5	;RP0=0, select bank0
   807  0056  1303               	bcf	status, 6	;RP1=0, select bank0
   808  0057  1386               	bcf	(55/8),(55)&7	;volatile
   809                           opt subtitle "HI-TECH Software Omniscient Code Generator (Lite mode) build 49521"
   810                           
   811                           opt pagewidth 120
   812  0058  3006               movlw  6
   813  0059  00BC               movwf	((??_main+0)+0+2),f
   814  005A  3013               movlw	19
   815  005B  00BB               movwf	((??_main+0)+0+1),f
   816  005C  30B1               	movlw	177
   817  005D  00BA               movwf	((??_main+0)+0),f
   818  005E                     u1227:
   819  005E  0BBA               	decfsz	((??_main+0)+0),f
   820  005F  285E               	goto	u1227
   821  0060  0BBB               	decfsz	((??_main+0)+0+1),f
   822  0061  285E               	goto	u1227
   823  0062  0BBC               	decfsz	((??_main+0)+0+2),f
   824  0063  285E               	goto	u1227
   825  0064  2865               	nop2
   826                           opt subtitle "HI-TECH Software Omniscient Code Generator (Lite mode) build 49521"
   827                           
   828                           opt pagewidth 120
   829                           
   830  0065                     l1203:	
   831  0065  3001               	movlw	(01h)
   832  0066  1283               	bcf	status, 5	;RP0=0, select bank0
   833  0067  1303               	bcf	status, 6	;RP1=0, select bank0
   834  0068  00BA               	movwf	(??_main+0)+0
   835  0069  083A               	movf	(??_main+0)+0,w
   836  006A  07C0               	addwf	(main@count),f
   837                           opt subtitle "HI-TECH Software Omniscient Code Generator (Lite mode) build 49521"
   838  006B                     l1205:	
   839  006B  300B               	movlw	(0Bh)
   840  006C  0240               	subwf	(main@count),w
   841  006D  1C03               	skipc
   842  006E  2870               	goto	u651
   843  006F  2871               	goto	u650
   844  0070                     u651:
   845  0070  2847               	goto	l99
   846  0071                     u650:
   847  0071  2872               	goto	l1207
   848                           opt subtitle "HI-TECH Software Omniscient Code Generator (Lite mode) build 49521"
   849  0072                     l100:	
   850                           opt subtitle "HI-TECH Software Omniscient Code Generator (Lite mode) build 49521"
   851                           
   852  0072                     l1207:	
   853                           opt subtitle "HI-TECH Software Omniscient Code Generator (Lite mode) build 49521"
   854                           
   855  0072  3080               	movlw	low(02580h)
   856  0073  00B7               	movwf	(?_USARTInit)
   857  0074  3025               	movlw	high(02580h)
   858  0075  00B8               	movwf	((?_USARTInit))+1
   859  0076  238F               	fcall	_USARTInit
   860                           opt subtitle "HI-TECH Software Omniscient Code Generator (Lite mode) build 49521"
   861                           
   862  0077                     l1209:	
   863                           opt subtitle "HI-TECH Software Omniscient Code Generator (Lite mode) build 49521"
   864  0077  138B               	bcf	(95/8),(95)&7	;volatile
   865                           opt subtitle "HI-TECH Software Omniscient Code Generator (Lite mode) build 49521"
   866                           
   867  0078                     l1211:	
   868                           opt subtitle "HI-TECH Software Omniscient Code Generator (Lite mode) build 49521"
   869  0078  3001               	movlw	low((STR_1-__stringbase))
   870  0079  1283               	bcf	status, 5	;RP0=0, select bank0
   871  007A  1303               	bcf	status, 6	;RP1=0, select bank0
   872  007B  00B8               	movwf	(?_ATCommand)
   873  007C  3080               	movlw	80h
   874  007D  00B9               	movwf	(?_ATCommand+1)
   875  007E  2479               	fcall	_ATCommand
   876                           opt subtitle "HI-TECH Software Omniscient Code Generator (Lite mode) build 49521"
   877                           
   878  007F                     l1213:	
   879                           opt subtitle "HI-TECH Software Omniscient Code Generator (Lite mode) build 49521"
   880                           
   881  007F  3033               movlw  51
   882  0080  1283               	bcf	status, 5	;RP0=0, select bank0
   883  0081  1303               	bcf	status, 6	;RP1=0, select bank0
   884  0082  00BC               movwf	((??_main+0)+0+2),f
   885  0083  30BC               movlw	188
   886  0084  00BB               movwf	((??_main+0)+0+1),f
   887  0085  3010               	movlw	16
   888  0086  00BA               movwf	((??_main+0)+0),f
   889  0087                     u1237:
   890  0087  0BBA               	decfsz	((??_main+0)+0),f
   891  0088  2887               	goto	u1237
   892  0089  0BBB               	decfsz	((??_main+0)+0+1),f
   893  008A  2887               	goto	u1237
   894  008B  0BBC               	decfsz	((??_main+0)+0+2),f
   895  008C  2887               	goto	u1237
   896                           opt subtitle "HI-TECH Software Omniscient Code Generator (Lite mode) build 49521"
   897                           
   898                           opt pagewidth 120
   899                           
   900  008D                     l1215:	
   901                           opt subtitle "HI-TECH Software Omniscient Code Generator (Lite mode) build 49521"
   902  008D  178B               	bsf	(95/8),(95)&7	;volatile
   903  008E  288F               	goto	l1217
   904                           opt subtitle "HI-TECH Software Omniscient Code Generator (Lite mode) build 49521"
   905                           
   906                           opt pagewidth 120
   907  008F                     l101:	
   908                           opt subtitle "HI-TECH Software Omniscient Code Generator (Lite mode) build 49521"
   909                           
   910  008F                     l1217:	
   911                           opt subtitle "HI-TECH Software Omniscient Code Generator (Lite mode) build 49521"
   912                           
   913  008F  1283               	bcf	status, 5	;RP0=0, select bank0
   914  0090  1303               	bcf	status, 6	;RP1=0, select bank0
   915  0091  0824               	movf	(_MOTOR_FLAG),w
   916  0092  3A01               	xorlw	01h
   917  0093  1D03               	skipz
   918  0094  2896               	goto	u661
   919  0095  2897               	goto	u660
   920  0096                     u661:
   921  0096  29B3               	goto	l1311
   922  0097                     u660:
   923                           opt subtitle "HI-TECH Software Omniscient Code Generator (Lite mode) build 49521"
   924                           
   925  0097                     l1219:	
   926                           opt subtitle "HI-TECH Software Omniscient Code Generator (Lite mode) build 49521"
   927                           
   928  0097  138B               	bcf	(95/8),(95)&7	;volatile
   929                           opt subtitle "HI-TECH Software Omniscient Code Generator (Lite mode) build 49521"
   930                           
   931  0098                     l1221:	
   932                           opt subtitle "HI-TECH Software Omniscient Code Generator (Lite mode) build 49521"
   933  0098  24CE               	fcall	_phase_check
   934  0099  3A01               	xorlw	01h
   935  009A  1D03               	skipz
   936  009B  289D               	goto	u671
   937  009C  289E               	goto	u670
   938  009D                     u671:
   939  009D  28CB               	goto	l1239
   940  009E                     u670:
   941                           opt subtitle "HI-TECH Software Omniscient Code Generator (Lite mode) build 49521"
   942                           
   943  009E                     l1223:	
   944                           opt subtitle "HI-TECH Software Omniscient Code Generator (Lite mode) build 49521"
   945                           
   946  009E  1283               	bcf	status, 5	;RP0=0, select bank0
   947  009F  1303               	bcf	status, 6	;RP1=0, select bank0
   948  00A0  08A3               	movf	(_LP_FLAG),f
   949  00A1  1D03               	skipz
   950  00A2  28A4               	goto	u681
   951  00A3  28A5               	goto	u680
   952  00A4                     u681:
   953  00A4  290E               	goto	l1263
   954  00A5                     u680:
   955                           opt subtitle "HI-TECH Software Omniscient Code Generator (Lite mode) build 49521"
   956                           
   957  00A5                     l1225:	
   958                           opt subtitle "HI-TECH Software Omniscient Code Generator (Lite mode) build 49521"
   959                           
   960  00A5  2431               	fcall	_start
   961                           opt subtitle "HI-TECH Software Omniscient Code Generator (Lite mode) build 49521"
   962                           
   963  00A6                     l1227:	
   964                           opt subtitle "HI-TECH Software Omniscient Code Generator (Lite mode) build 49521"
   965  00A6  1283               	bcf	status, 5	;RP0=0, select bank0
   966  00A7  1303               	bcf	status, 6	;RP1=0, select bank0
   967  00A8  01A3               	clrf	(_LP_FLAG)
   968  00A9  0AA3               	incf	(_LP_FLAG),f
   969                           opt subtitle "HI-TECH Software Omniscient Code Generator (Lite mode) build 49521"
   970                           
   971  00AA                     l1229:	
   972                           opt subtitle "HI-TECH Software Omniscient Code Generator (Lite mode) build 49521"
   973  00AA  0822               	movf	(_CUT_FLAG),w
   974  00AB  3A01               	xorlw	01h
   975  00AC  1D03               	skipz
   976  00AD  28AF               	goto	u691
   977  00AE  28B0               	goto	u690
   978  00AF                     u691:
   979  00AF  290E               	goto	l1263
   980  00B0                     u690:
   981                           opt subtitle "HI-TECH Software Omniscient Code Generator (Lite mode) build 49521"
   982                           
   983  00B0                     l1231:	
   984                           opt subtitle "HI-TECH Software Omniscient Code Generator (Lite mode) build 49521"
   985                           
   986  00B0  3015               	movlw	low((STR_2-__stringbase))
   987  00B1  00B8               	movwf	(?_ATCommand)
   988  00B2  3080               	movlw	80h
   989  00B3  00B9               	movwf	(?_ATCommand+1)
   990  00B4  2479               	fcall	_ATCommand
   991                           opt subtitle "HI-TECH Software Omniscient Code Generator (Lite mode) build 49521"
   992                           
   993  00B5                     l1233:	
   994                           opt subtitle "HI-TECH Software Omniscient Code Generator (Lite mode) build 49521"
   995                           
   996  00B5  3006               movlw  6
   997  00B6  1283               	bcf	status, 5	;RP0=0, select bank0
   998  00B7  1303               	bcf	status, 6	;RP1=0, select bank0
   999  00B8  00BC               movwf	((??_main+0)+0+2),f
  1000  00B9  3013               movlw	19
  1001  00BA  00BB               movwf	((??_main+0)+0+1),f
  1002  00BB  30B1               	movlw	177
  1003  00BC  00BA               movwf	((??_main+0)+0),f
  1004  00BD                     u1247:
  1005  00BD  0BBA               	decfsz	((??_main+0)+0),f
  1006  00BE  28BD               	goto	u1247
  1007  00BF  0BBB               	decfsz	((??_main+0)+0+1),f
  1008  00C0  28BD               	goto	u1247
  1009  00C1  0BBC               	decfsz	((??_main+0)+0+2),f
  1010  00C2  28BD               	goto	u1247
  1011  00C3  28C4               	nop2
  1012                           opt subtitle "HI-TECH Software Omniscient Code Generator (Lite mode) build 49521"
  1013                           
  1014                           opt pagewidth 120
  1015                           
  1016  00C4                     l1235:	
  1017                           opt subtitle "HI-TECH Software Omniscient Code Generator (Lite mode) build 49521"
  1018  00C4  1283               	bcf	status, 5	;RP0=0, select bank0
  1019  00C5  1303               	bcf	status, 6	;RP1=0, select bank0
  1020  00C6  01A2               	clrf	(_CUT_FLAG)
  1021                           opt subtitle "HI-TECH Software Omniscient Code Generator (Lite mode) build 49521"
  1022                           
  1023  00C7                     l1237:	
  1024                           opt subtitle "HI-TECH Software Omniscient Code Generator (Lite mode) build 49521"
  1025  00C7  01C0               	clrf	(main@count)
  1026  00C8  290E               	goto	l1263
  1027                           opt subtitle "HI-TECH Software Omniscient Code Generator (Lite mode) build 49521"
  1028                           
  1029  00C9                     l105:	
  1030  00C9  290E               	goto	l1263
  1031                           opt subtitle "HI-TECH Software Omniscient Code Generator (Lite mode) build 49521"
  1032                           
  1033  00CA                     l104:	
  1034                           opt subtitle "HI-TECH Software Omniscient Code Generator (Lite mode) build 49521"
  1035                           
  1036                           opt pagewidth 120
  1037                           
  1038  00CA  290E               	goto	l1263
  1039                           opt subtitle "HI-TECH Software Omniscient Code Generator (Lite mode) build 49521"
  1040                           
  1041  00CB                     l103:	
  1042                           opt subtitle "HI-TECH Software Omniscient Code Generator (Lite mode) build 49521"
  1043                           
  1044  00CB                     l1239:	
  1045                           opt subtitle "HI-TECH Software Omniscient Code Generator (Lite mode) build 49521"
  1046                           
  1047                           opt pagewidth 120
  1048  00CB  1283               	bcf	status, 5	;RP0=0, select bank0
  1049  00CC  1303               	bcf	status, 6	;RP1=0, select bank0
  1050  00CD  0823               	movf	(_LP_FLAG),w
  1051  00CE  3A01               	xorlw	01h
  1052  00CF  1D03               	skipz
  1053  00D0  28D2               	goto	u701
  1054  00D1  28D3               	goto	u700
  1055  00D2                     u701:
  1056  00D2  290E               	goto	l1263
  1057  00D3                     u700:
  1058                           opt subtitle "HI-TECH Software Omniscient Code Generator (Lite mode) build 49521"
  1059                           
  1060  00D3                     l1241:	
  1061                           opt subtitle "HI-TECH Software Omniscient Code Generator (Lite mode) build 49521"
  1062                           
  1063  00D3  2455               	fcall	_stop
  1064                           opt subtitle "HI-TECH Software Omniscient Code Generator (Lite mode) build 49521"
  1065                           
  1066  00D4                     l1243:	
  1067                           opt subtitle "HI-TECH Software Omniscient Code Generator (Lite mode) build 49521"
  1068  00D4  1283               	bcf	status, 5	;RP0=0, select bank0
  1069  00D5  1303               	bcf	status, 6	;RP1=0, select bank0
  1070  00D6  01A3               	clrf	(_LP_FLAG)
  1071                           opt subtitle "HI-TECH Software Omniscient Code Generator (Lite mode) build 49521"
  1072                           
  1073  00D7                     l1245:	
  1074                           opt subtitle "HI-TECH Software Omniscient Code Generator (Lite mode) build 49521"
  1075  00D7  0822               	movf	(_CUT_FLAG),w
  1076  00D8  3A01               	xorlw	01h
  1077  00D9  1D03               	skipz
  1078  00DA  28DC               	goto	u711
  1079  00DB  28DD               	goto	u710
  1080  00DC                     u711:
  1081  00DC  2903               	goto	l1259
  1082  00DD                     u710:
  1083                           opt subtitle "HI-TECH Software Omniscient Code Generator (Lite mode) build 49521"
  1084                           
  1085  00DD                     l1247:	
  1086                           opt subtitle "HI-TECH Software Omniscient Code Generator (Lite mode) build 49521"
  1087                           
  1088                           opt pagewidth 120
  1089  00DD  01BF               	clrf	(main@i)
  1090                           opt subtitle "HI-TECH Software Omniscient Code Generator (Lite mode) build 49521"
  1091  00DE                     l1249:	
  1092  00DE  303C               	movlw	(03Ch)
  1093  00DF  023F               	subwf	(main@i),w
  1094  00E0  1C03               	skipc
  1095  00E1  28E3               	goto	u721
  1096  00E2  28E4               	goto	u720
  1097  00E3                     u721:
  1098  00E3  28E6               	goto	l1253
  1099  00E4                     u720:
  1100  00E4  28FF               	goto	l110
  1101                           opt subtitle "HI-TECH Software Omniscient Code Generator (Lite mode) build 49521"
  1102  00E5                     l1251:	
  1103  00E5  28FF               	goto	l110
  1104                           opt subtitle "HI-TECH Software Omniscient Code Generator (Lite mode) build 49521"
  1105                           
  1106  00E6                     l109:	
  1107                           opt subtitle "HI-TECH Software Omniscient Code Generator (Lite mode) build 49521"
  1108                           
  1109  00E6                     l1253:	
  1110                           opt subtitle "HI-TECH Software Omniscient Code Generator (Lite mode) build 49521"
  1111                           
  1112                           opt pagewidth 120
  1113  00E6  3006               movlw  6
  1114  00E7  00BC               movwf	((??_main+0)+0+2),f
  1115  00E8  3013               movlw	19
  1116  00E9  00BB               movwf	((??_main+0)+0+1),f
  1117  00EA  30B1               	movlw	177
  1118  00EB  00BA               movwf	((??_main+0)+0),f
  1119  00EC                     u1257:
  1120  00EC  0BBA               	decfsz	((??_main+0)+0),f
  1121  00ED  28EC               	goto	u1257
  1122  00EE  0BBB               	decfsz	((??_main+0)+0+1),f
  1123  00EF  28EC               	goto	u1257
  1124  00F0  0BBC               	decfsz	((??_main+0)+0+2),f
  1125  00F1  28EC               	goto	u1257
  1126  00F2  28F3               	nop2
  1127                           opt subtitle "HI-TECH Software Omniscient Code Generator (Lite mode) build 49521"
  1128                           
  1129                           opt pagewidth 120
  1130                           
  1131  00F3                     l1255:	
  1132  00F3  3001               	movlw	(01h)
  1133  00F4  1283               	bcf	status, 5	;RP0=0, select bank0
  1134  00F5  1303               	bcf	status, 6	;RP1=0, select bank0
  1135  00F6  00BA               	movwf	(??_main+0)+0
  1136  00F7  083A               	movf	(??_main+0)+0,w
  1137  00F8  07BF               	addwf	(main@i),f
  1138                           opt subtitle "HI-TECH Software Omniscient Code Generator (Lite mode) build 49521"
  1139  00F9                     l1257:	
  1140  00F9  303C               	movlw	(03Ch)
  1141  00FA  023F               	subwf	(main@i),w
  1142  00FB  1C03               	skipc
  1143  00FC  28FE               	goto	u731
  1144  00FD  28FF               	goto	u730
  1145  00FE                     u731:
  1146  00FE  28E6               	goto	l1253
  1147  00FF                     u730:
  1148                           opt subtitle "HI-TECH Software Omniscient Code Generator (Lite mode) build 49521"
  1149  00FF                     l110:	
  1150                           opt subtitle "HI-TECH Software Omniscient Code Generator (Lite mode) build 49521"
  1151                           
  1152                           opt pagewidth 120
  1153  00FF  01A2               	clrf	(_CUT_FLAG)
  1154                           opt subtitle "HI-TECH Software Omniscient Code Generator (Lite mode) build 49521"
  1155                           
  1156  0100  01A0               	clrf	(_CALL_FLAG)
  1157                           opt subtitle "HI-TECH Software Omniscient Code Generator (Lite mode) build 49521"
  1158                           
  1159  0101  01A4               	clrf	(_MOTOR_FLAG)
  1160  0102  2903               	goto	l1259
  1161                           opt subtitle "HI-TECH Software Omniscient Code Generator (Lite mode) build 49521"
  1162                           
  1163  0103                     l108:	
  1164                           opt subtitle "HI-TECH Software Omniscient Code Generator (Lite mode) build 49521"
  1165                           
  1166  0103                     l1259:	
  1167                           opt subtitle "HI-TECH Software Omniscient Code Generator (Lite mode) build 49521"
  1168                           
  1169  0103  0820               	movf	(_CALL_FLAG),w
  1170  0104  3A01               	xorlw	01h
  1171  0105  1D03               	skipz
  1172  0106  2908               	goto	u741
  1173  0107  2909               	goto	u740
  1174  0108                     u741:
  1175  0108  290E               	goto	l1263
  1176  0109                     u740:
  1177                           opt subtitle "HI-TECH Software Omniscient Code Generator (Lite mode) build 49521"
  1178                           
  1179  0109                     l1261:	
  1180                           opt subtitle "HI-TECH Software Omniscient Code Generator (Lite mode) build 49521"
  1181                           
  1182  0109  01A0               	clrf	(_CALL_FLAG)
  1183                           opt subtitle "HI-TECH Software Omniscient Code Generator (Lite mode) build 49521"
  1184                           
  1185  010A  01A4               	clrf	(_MOTOR_FLAG)
  1186  010B  290E               	goto	l1263
  1187                           opt subtitle "HI-TECH Software Omniscient Code Generator (Lite mode) build 49521"
  1188                           
  1189  010C                     l111:	
  1190  010C  290E               	goto	l1263
  1191                           opt subtitle "HI-TECH Software Omniscient Code Generator (Lite mode) build 49521"
  1192                           
  1193  010D                     l107:	
  1194  010D  290E               	goto	l1263
  1195                           opt subtitle "HI-TECH Software Omniscient Code Generator (Lite mode) build 49521"
  1196                           
  1197  010E                     l106:	
  1198                           opt subtitle "HI-TECH Software Omniscient Code Generator (Lite mode) build 49521"
  1199                           
  1200  010E                     l1263:	
  1201                           opt subtitle "HI-TECH Software Omniscient Code Generator (Lite mode) build 49521"
  1202                           
  1203                           opt pagewidth 120
  1204                           
  1205  010E  08A0               	movf	(_CALL_FLAG),f
  1206  010F  1D03               	skipz
  1207  0110  2912               	goto	u751
  1208  0111  2913               	goto	u750
  1209  0112                     u751:
  1210  0112  2915               	goto	l1267
  1211  0113                     u750:
  1212                           opt subtitle "HI-TECH Software Omniscient Code Generator (Lite mode) build 49521"
  1213                           
  1214  0113                     l1265:	
  1215                           opt subtitle "HI-TECH Software Omniscient Code Generator (Lite mode) build 49521"
  1216                           
  1217  0113  178B               	bsf	(95/8),(95)&7	;volatile
  1218  0114  2915               	goto	l1267
  1219                           opt subtitle "HI-TECH Software Omniscient Code Generator (Lite mode) build 49521"
  1220                           
  1221  0115                     l112:	
  1222                           opt subtitle "HI-TECH Software Omniscient Code Generator (Lite mode) build 49521"
  1223                           
  1224  0115                     l1267:	
  1225                           opt subtitle "HI-TECH Software Omniscient Code Generator (Lite mode) build 49521"
  1226                           
  1227  0115  0840               	movf	(main@count),w
  1228  0116  3A04               	xorlw	04h
  1229  0117  1D03               	skipz
  1230  0118  291A               	goto	u761
  1231  0119  291B               	goto	u760
  1232  011A                     u761:
  1233  011A  2989               	goto	l1299
  1234  011B                     u760:
  1235                           opt subtitle "HI-TECH Software Omniscient Code Generator (Lite mode) build 49521"
  1236                           
  1237  011B                     l1269:	
  1238                           opt subtitle "HI-TECH Software Omniscient Code Generator (Lite mode) build 49521"
  1239                           
  1240  011B  1E85               	btfss	(45/8),(45)&7	;volatile
  1241  011C  291E               	goto	u771
  1242  011D  291F               	goto	u770
  1243  011E                     u771:
  1244  011E  296E               	goto	l1287
  1245  011F                     u770:
  1246                           opt subtitle "HI-TECH Software Omniscient Code Generator (Lite mode) build 49521"
  1247                           
  1248  011F                     l1271:	
  1249                           opt subtitle "HI-TECH Software Omniscient Code Generator (Lite mode) build 49521"
  1250                           
  1251  011F  0820               	movf	(_CALL_FLAG),w
  1252  0120  3A01               	xorlw	01h
  1253  0121  1D03               	skipz
  1254  0122  2924               	goto	u781
  1255  0123  2925               	goto	u780
  1256  0124                     u781:
  1257  0124  2985               	goto	l119
  1258  0125                     u780:
  1259                           opt subtitle "HI-TECH Software Omniscient Code Generator (Lite mode) build 49521"
  1260                           
  1261  0125                     l1273:	
  1262                           opt subtitle "HI-TECH Software Omniscient Code Generator (Lite mode) build 49521"
  1263                           
  1264  0125  3011               	movlw	((STR_3-__stringbase))&0ffh
  1265  0126  24B5               	fcall	_USARTWritestring
  1266                           opt subtitle "HI-TECH Software Omniscient Code Generator (Lite mode) build 49521"
  1267                           
  1268  0127  3028               	movlw	(_buffer&0ffh)
  1269  0128  1283               	bcf	status, 5	;RP0=0, select bank0
  1270  0129  1303               	bcf	status, 6	;RP1=0, select bank0
  1271  012A  00B8               	movwf	(?_ATCommand)
  1272  012B  3000               	movlw	(0x0/2)
  1273  012C  00B9               	movwf	(?_ATCommand+1)
  1274  012D  2479               	fcall	_ATCommand
  1275                           opt subtitle "HI-TECH Software Omniscient Code Generator (Lite mode) build 49521"
  1276                           
  1277  012E                     l1275:	
  1278                           opt subtitle "HI-TECH Software Omniscient Code Generator (Lite mode) build 49521"
  1279                           
  1280  012E  3099               movlw  153
  1281  012F  1283               	bcf	status, 5	;RP0=0, select bank0
  1282  0130  1303               	bcf	status, 6	;RP1=0, select bank0
  1283  0131  00BC               movwf	((??_main+0)+0+2),f
  1284  0132  3032               movlw	50
  1285  0133  00BB               movwf	((??_main+0)+0+1),f
  1286  0134  3038               	movlw	56
  1287  0135  00BA               movwf	((??_main+0)+0),f
  1288  0136                     u1267:
  1289  0136  0BBA               	decfsz	((??_main+0)+0),f
  1290  0137  2936               	goto	u1267
  1291  0138  0BBB               	decfsz	((??_main+0)+0+1),f
  1292  0139  2936               	goto	u1267
  1293  013A  0BBC               	decfsz	((??_main+0)+0+2),f
  1294  013B  2936               	goto	u1267
  1295  013C  293D               	nop2
  1296                           opt subtitle "HI-TECH Software Omniscient Code Generator (Lite mode) build 49521"
  1297                           
  1298                           opt pagewidth 120
  1299                           
  1300  013D                     l1277:	
  1301                           opt subtitle "HI-TECH Software Omniscient Code Generator (Lite mode) build 49521"
  1302  013D  3015               	movlw	low((STR_4-__stringbase))
  1303  013E  1283               	bcf	status, 5	;RP0=0, select bank0
  1304  013F  1303               	bcf	status, 6	;RP1=0, select bank0
  1305  0140  00B8               	movwf	(?_ATCommand)
  1306  0141  3080               	movlw	80h
  1307  0142  00B9               	movwf	(?_ATCommand+1)
  1308  0143  2479               	fcall	_ATCommand
  1309                           opt subtitle "HI-TECH Software Omniscient Code Generator (Lite mode) build 49521"
  1310                           
  1311                           opt pagewidth 120
  1312  0144  3006               movlw  6
  1313  0145  1283               	bcf	status, 5	;RP0=0, select bank0
  1314  0146  1303               	bcf	status, 6	;RP1=0, select bank0
  1315  0147  00BC               movwf	((??_main+0)+0+2),f
  1316  0148  3013               movlw	19
  1317  0149  00BB               movwf	((??_main+0)+0+1),f
  1318  014A  30B1               	movlw	177
  1319  014B  00BA               movwf	((??_main+0)+0),f
  1320  014C                     u1277:
  1321  014C  0BBA               	decfsz	((??_main+0)+0),f
  1322  014D  294C               	goto	u1277
  1323  014E  0BBB               	decfsz	((??_main+0)+0+1),f
  1324  014F  294C               	goto	u1277
  1325  0150  0BBC               	decfsz	((??_main+0)+0+2),f
  1326  0151  294C               	goto	u1277
  1327  0152  2953               	nop2
  1328                           opt subtitle "HI-TECH Software Omniscient Code Generator (Lite mode) build 49521"
  1329                           
  1330                           opt pagewidth 120
  1331                           
  1332  0153                     l1279:	
  1333                           opt subtitle "HI-TECH Software Omniscient Code Generator (Lite mode) build 49521"
  1334  0153  1283               	bcf	status, 5	;RP0=0, select bank0
  1335  0154  1303               	bcf	status, 6	;RP1=0, select bank0
  1336  0155  01A0               	clrf	(_CALL_FLAG)
  1337                           opt subtitle "HI-TECH Software Omniscient Code Generator (Lite mode) build 49521"
  1338                           
  1339  0156  3001               	movlw	(01h)
  1340  0157  1283               	bcf	status, 5	;RP0=0, select bank2
  1341  0158  1703               	bsf	status, 6	;RP1=1, select bank2
  1342  0159  008D               	movwf	(269)^0100h	;volatile
  1343                           opt subtitle "HI-TECH Software Omniscient Code Generator (Lite mode) build 49521"
  1344                           
  1345  015A  3001               	movlw	(01h)
  1346  015B  008C               	movwf	(268)^0100h	;volatile
  1347                           opt subtitle "HI-TECH Software Omniscient Code Generator (Lite mode) build 49521"
  1348                           
  1349  015C                     l1281:	
  1350                           opt subtitle "HI-TECH Software Omniscient Code Generator (Lite mode) build 49521"
  1351  015C  1683               	bsf	status, 5	;RP0=1, select bank3
  1352  015D  1703               	bsf	status, 6	;RP1=1, select bank3
  1353  015E  138C               	bcf	(396)^0180h,7	;volatile
  1354                           opt subtitle "HI-TECH Software Omniscient Code Generator (Lite mode) build 49521"
  1355                           
  1356  015F                     l1283:	
  1357                           opt subtitle "HI-TECH Software Omniscient Code Generator (Lite mode) build 49521"
  1358  015F  150C               	bsf	(396)^0180h,2	;volatile
  1359                           opt subtitle "HI-TECH Software Omniscient Code Generator (Lite mode) build 49521"
  1360                           
  1361  0160  3055               	movlw	(055h)
  1362  0161  008D               	movwf	(397)^0180h	;volatile
  1363                           opt subtitle "HI-TECH Software Omniscient Code Generator (Lite mode) build 49521"
  1364                           
  1365  0162  30AA               	movlw	(0AAh)
  1366  0163  008D               	movwf	(397)^0180h	;volatile
  1367                           opt subtitle "HI-TECH Software Omniscient Code Generator (Lite mode) build 49521"
  1368                           
  1369  0164                     l1285:	
  1370                           opt subtitle "HI-TECH Software Omniscient Code Generator (Lite mode) build 49521"
  1371  0164  148C               	bsf	(396)^0180h,1	;volatile
  1372                           opt subtitle "HI-TECH Software Omniscient Code Generator (Lite mode) build 49521"
  1373                           
  1374  0165  2966               	goto	l116
  1375                           opt subtitle "HI-TECH Software Omniscient Code Generator (Lite mode) build 49521"
  1376  0166                     l117:	
  1377                           opt subtitle "HI-TECH Software Omniscient Code Generator (Lite mode) build 49521"
  1378                           
  1379                           opt pagewidth 120
  1380  0166                     l116:	
  1381                           opt subtitle "HI-TECH Software Omniscient Code Generator (Lite mode) build 49521"
  1382  0166  188C               	btfsc	(396)^0180h,1	;volatile
  1383  0167  2969               	goto	u791
  1384  0168  296A               	goto	u790
  1385  0169                     u791:
  1386  0169  2966               	goto	l116
  1387  016A                     u790:
  1388                           opt subtitle "HI-TECH Software Omniscient Code Generator (Lite mode) build 49521"
  1389  016A                     l118:	
  1390                           opt subtitle "HI-TECH Software Omniscient Code Generator (Lite mode) build 49521"
  1391                           
  1392                           opt pagewidth 120
  1393  016A  110C               	bcf	(396)^0180h,2	;volatile
  1394                           opt subtitle "HI-TECH Software Omniscient Code Generator (Lite mode) build 49521"
  1395                           
  1396  016B  178B               	bsf	(95/8),(95)&7	;volatile
  1397  016C  2985               	goto	l119
  1398                           opt subtitle "HI-TECH Software Omniscient Code Generator (Lite mode) build 49521"
  1399                           
  1400  016D                     l115:	
  1401                           opt subtitle "HI-TECH Software Omniscient Code Generator (Lite mode) build 49521"
  1402                           
  1403                           opt pagewidth 120
  1404  016D  2985               	goto	l119
  1405                           opt subtitle "HI-TECH Software Omniscient Code Generator (Lite mode) build 49521"
  1406                           
  1407  016E                     l114:	
  1408                           opt subtitle "HI-TECH Software Omniscient Code Generator (Lite mode) build 49521"
  1409                           
  1410  016E                     l1287:	
  1411                           opt subtitle "HI-TECH Software Omniscient Code Generator (Lite mode) build 49521"
  1412                           
  1413                           opt pagewidth 120
  1414  016E  1283               	bcf	status, 5	;RP0=0, select bank0
  1415  016F  1303               	bcf	status, 6	;RP1=0, select bank0
  1416  0170  0823               	movf	(_LP_FLAG),w
  1417  0171  3A01               	xorlw	01h
  1418  0172  1D03               	skipz
  1419  0173  2975               	goto	u801
  1420  0174  2976               	goto	u800
  1421  0175                     u801:
  1422  0175  2985               	goto	l119
  1423  0176                     u800:
  1424                           opt subtitle "HI-TECH Software Omniscient Code Generator (Lite mode) build 49521"
  1425                           
  1426  0176                     l1289:	
  1427                           opt subtitle "HI-TECH Software Omniscient Code Generator (Lite mode) build 49521"
  1428                           
  1429  0176  2455               	fcall	_stop
  1430                           opt subtitle "HI-TECH Software Omniscient Code Generator (Lite mode) build 49521"
  1431                           
  1432  0177                     l1291:	
  1433                           opt subtitle "HI-TECH Software Omniscient Code Generator (Lite mode) build 49521"
  1434  0177  1283               	bcf	status, 5	;RP0=0, select bank0
  1435  0178  1303               	bcf	status, 6	;RP1=0, select bank0
  1436  0179  01A4               	clrf	(_MOTOR_FLAG)
  1437                           opt subtitle "HI-TECH Software Omniscient Code Generator (Lite mode) build 49521"
  1438                           
  1439  017A                     l1293:	
  1440                           opt subtitle "HI-TECH Software Omniscient Code Generator (Lite mode) build 49521"
  1441  017A  01A3               	clrf	(_LP_FLAG)
  1442                           opt subtitle "HI-TECH Software Omniscient Code Generator (Lite mode) build 49521"
  1443                           
  1444  017B                     l1295:	
  1445                           opt subtitle "HI-TECH Software Omniscient Code Generator (Lite mode) build 49521"
  1446  017B  0820               	movf	(_CALL_FLAG),w
  1447  017C  3A01               	xorlw	01h
  1448  017D  1D03               	skipz
  1449  017E  2980               	goto	u811
  1450  017F  2981               	goto	u810
  1451  0180                     u811:
  1452  0180  2985               	goto	l119
  1453  0181                     u810:
  1454                           opt subtitle "HI-TECH Software Omniscient Code Generator (Lite mode) build 49521"
  1455                           
  1456  0181                     l1297:	
  1457                           opt subtitle "HI-TECH Software Omniscient Code Generator (Lite mode) build 49521"
  1458                           
  1459  0181  01A0               	clrf	(_CALL_FLAG)
  1460                           opt subtitle "HI-TECH Software Omniscient Code Generator (Lite mode) build 49521"
  1461                           
  1462  0182  178B               	bsf	(95/8),(95)&7	;volatile
  1463  0183  2985               	goto	l119
  1464                           opt subtitle "HI-TECH Software Omniscient Code Generator (Lite mode) build 49521"
  1465                           
  1466  0184                     l121:	
  1467  0184  2985               	goto	l119
  1468                           opt subtitle "HI-TECH Software Omniscient Code Generator (Lite mode) build 49521"
  1469                           
  1470  0185                     l120:	
  1471                           opt subtitle "HI-TECH Software Omniscient Code Generator (Lite mode) build 49521"
  1472                           
  1473  0185                     l119:	
  1474                           opt subtitle "HI-TECH Software Omniscient Code Generator (Lite mode) build 49521"
  1475                           
  1476                           opt pagewidth 120
  1477                           
  1478                           	opt lm
  1479  0185  1283               	bcf	status, 5	;RP0=0, select bank0
  1480  0186  1303               	bcf	status, 6	;RP1=0, select bank0
  1481  0187  01C0               	clrf	(main@count)
  1482                           opt subtitle "HI-TECH Software Omniscient Code Generator (Lite mode) build 49521"
  1483                           
  1484  0188  298E               	goto	l1301
  1485                           opt subtitle "HI-TECH Software Omniscient Code Generator (Lite mode) build 49521"
  1486                           
  1487  0189                     l113:	
  1488                           opt subtitle "HI-TECH Software Omniscient Code Generator (Lite mode) build 49521"
  1489                           
  1490  0189                     l1299:	
  1491                           opt subtitle "HI-TECH Software Omniscient Code Generator (Lite mode) build 49521"
  1492                           
  1493                           opt pagewidth 120
  1494  0189  3001               	movlw	(01h)
  1495  018A  00BA               	movwf	(??_main+0)+0
  1496  018B  083A               	movf	(??_main+0)+0,w
  1497  018C  07C0               	addwf	(main@count),f
  1498  018D  298E               	goto	l1301
  1499                           opt subtitle "HI-TECH Software Omniscient Code Generator (Lite mode) build 49521"
  1500                           
  1501  018E                     l122:	
  1502                           opt subtitle "HI-TECH Software Omniscient Code Generator (Lite mode) build 49521"
  1503                           
  1504  018E                     l1301:	
  1505                           opt subtitle "HI-TECH Software Omniscient Code Generator (Lite mode) build 49521"
  1506                           
  1507  018E  01BD               	clrf	(main@seconds)
  1508                           opt subtitle "HI-TECH Software Omniscient Code Generator (Lite mode) build 49521"
  1509                           
  1510  018F  29A4               	goto	l1307
  1511                           opt subtitle "HI-TECH Software Omniscient Code Generator (Lite mode) build 49521"
  1512  0190                     l124:	
  1513                           opt subtitle "HI-TECH Software Omniscient Code Generator (Lite mode) build 49521"
  1514                           
  1515  0190                     l1303:	
  1516                           opt subtitle "HI-TECH Software Omniscient Code Generator (Lite mode) build 49521"
  1517                           
  1518                           opt pagewidth 120
  1519  0190  3006               movlw  6
  1520  0191  00BC               movwf	((??_main+0)+0+2),f
  1521  0192  3013               movlw	19
  1522  0193  00BB               movwf	((??_main+0)+0+1),f
  1523  0194  30B1               	movlw	177
  1524  0195  00BA               movwf	((??_main+0)+0),f
  1525  0196                     u1287:
  1526  0196  0BBA               	decfsz	((??_main+0)+0),f
  1527  0197  2996               	goto	u1287
  1528  0198  0BBB               	decfsz	((??_main+0)+0+1),f
  1529  0199  2996               	goto	u1287
  1530  019A  0BBC               	decfsz	((??_main+0)+0+2),f
  1531  019B  2996               	goto	u1287
  1532  019C  299D               	nop2
  1533                           opt subtitle "HI-TECH Software Omniscient Code Generator (Lite mode) build 49521"
  1534                           
  1535                           opt pagewidth 120
  1536                           
  1537  019D                     l1305:	
  1538                           opt subtitle "HI-TECH Software Omniscient Code Generator (Lite mode) build 49521"
  1539  019D  3001               	movlw	(01h)
  1540  019E  1283               	bcf	status, 5	;RP0=0, select bank0
  1541  019F  1303               	bcf	status, 6	;RP1=0, select bank0
  1542  01A0  00BA               	movwf	(??_main+0)+0
  1543  01A1  083A               	movf	(??_main+0)+0,w
  1544  01A2  07BD               	addwf	(main@seconds),f
  1545  01A3  29A4               	goto	l1307
  1546                           opt subtitle "HI-TECH Software Omniscient Code Generator (Lite mode) build 49521"
  1547                           
  1548  01A4                     l123:	
  1549                           opt subtitle "HI-TECH Software Omniscient Code Generator (Lite mode) build 49521"
  1550                           
  1551  01A4                     l1307:	
  1552  01A4  300E               	movlw	(0Eh)
  1553  01A5  023D               	subwf	(main@seconds),w
  1554  01A6  1803               	skipnc
  1555  01A7  29A9               	goto	u821
  1556  01A8  29AA               	goto	u820
  1557  01A9                     u821:
  1558  01A9  29B3               	goto	l1311
  1559  01AA                     u820:
  1560                           opt subtitle "HI-TECH Software Omniscient Code Generator (Lite mode) build 49521"
  1561  01AA                     l1309:	
  1562  01AA  0824               	movf	(_MOTOR_FLAG),w
  1563  01AB  3A01               	xorlw	01h
  1564  01AC  1903               	skipnz
  1565  01AD  29AF               	goto	u831
  1566  01AE  29B0               	goto	u830
  1567  01AF                     u831:
  1568  01AF  2990               	goto	l1303
  1569  01B0                     u830:
  1570  01B0  29B3               	goto	l1311
  1571                           opt subtitle "HI-TECH Software Omniscient Code Generator (Lite mode) build 49521"
  1572  01B1                     l126:	
  1573  01B1  29B3               	goto	l1311
  1574                           opt subtitle "HI-TECH Software Omniscient Code Generator (Lite mode) build 49521"
  1575  01B2                     l127:	
  1576  01B2  29B3               	goto	l1311
  1577                           opt subtitle "HI-TECH Software Omniscient Code Generator (Lite mode) build 49521"
  1578                           
  1579  01B3                     l102:	
  1580                           opt subtitle "HI-TECH Software Omniscient Code Generator (Lite mode) build 49521"
  1581                           
  1582  01B3                     l1311:	
  1583                           opt subtitle "HI-TECH Software Omniscient Code Generator (Lite mode) build 49521"
  1584                           
  1585                           opt pagewidth 120
  1586  01B3  08A4               	movf	(_MOTOR_FLAG),f
  1587  01B4  1D03               	skipz
  1588  01B5  29B7               	goto	u841
  1589  01B6  29B8               	goto	u840
  1590  01B7                     u841:
  1591  01B7  2A22               	goto	l1353
  1592  01B8                     u840:
  1593                           opt subtitle "HI-TECH Software Omniscient Code Generator (Lite mode) build 49521"
  1594                           
  1595  01B8                     l1313:	
  1596                           opt subtitle "HI-TECH Software Omniscient Code Generator (Lite mode) build 49521"
  1597                           
  1598  01B8  0822               	movf	(_CUT_FLAG),w
  1599  01B9  3A01               	xorlw	01h
  1600  01BA  1D03               	skipz
  1601  01BB  29BD               	goto	u851
  1602  01BC  29BE               	goto	u850
  1603  01BD                     u851:
  1604  01BD  2A22               	goto	l1353
  1605  01BE                     u850:
  1606                           opt subtitle "HI-TECH Software Omniscient Code Generator (Lite mode) build 49521"
  1607                           
  1608  01BE                     l1315:	
  1609                           opt subtitle "HI-TECH Software Omniscient Code Generator (Lite mode) build 49521"
  1610                           
  1611  01BE  138B               	bcf	(95/8),(95)&7	;volatile
  1612                           opt subtitle "HI-TECH Software Omniscient Code Generator (Lite mode) build 49521"
  1613                           
  1614  01BF                     l1317:	
  1615                           opt subtitle "HI-TECH Software Omniscient Code Generator (Lite mode) build 49521"
  1616  01BF  2455               	fcall	_stop
  1617                           opt subtitle "HI-TECH Software Omniscient Code Generator (Lite mode) build 49521"
  1618                           
  1619  01C0                     l1319:	
  1620                           opt subtitle "HI-TECH Software Omniscient Code Generator (Lite mode) build 49521"
  1621  01C0  1283               	bcf	status, 5	;RP0=0, select bank0
  1622  01C1  1303               	bcf	status, 6	;RP1=0, select bank0
  1623  01C2  01A3               	clrf	(_LP_FLAG)
  1624                           opt subtitle "HI-TECH Software Omniscient Code Generator (Lite mode) build 49521"
  1625                           
  1626  01C3                     l1321:	
  1627                           opt subtitle "HI-TECH Software Omniscient Code Generator (Lite mode) build 49521"
  1628  01C3  3015               	movlw	low((STR_5-__stringbase))
  1629  01C4  00B8               	movwf	(?_ATCommand)
  1630  01C5  3080               	movlw	80h
  1631  01C6  00B9               	movwf	(?_ATCommand+1)
  1632  01C7  2479               	fcall	_ATCommand
  1633                           opt subtitle "HI-TECH Software Omniscient Code Generator (Lite mode) build 49521"
  1634                           
  1635  01C8                     l1323:	
  1636                           opt subtitle "HI-TECH Software Omniscient Code Generator (Lite mode) build 49521"
  1637                           
  1638  01C8  3006               movlw  6
  1639  01C9  1283               	bcf	status, 5	;RP0=0, select bank0
  1640  01CA  1303               	bcf	status, 6	;RP1=0, select bank0
  1641  01CB  00BC               movwf	((??_main+0)+0+2),f
  1642  01CC  3013               movlw	19
  1643  01CD  00BB               movwf	((??_main+0)+0+1),f
  1644  01CE  30B1               	movlw	177
  1645  01CF  00BA               movwf	((??_main+0)+0),f
  1646  01D0                     u1297:
  1647  01D0  0BBA               	decfsz	((??_main+0)+0),f
  1648  01D1  29D0               	goto	u1297
  1649  01D2  0BBB               	decfsz	((??_main+0)+0+1),f
  1650  01D3  29D0               	goto	u1297
  1651  01D4  0BBC               	decfsz	((??_main+0)+0+2),f
  1652  01D5  29D0               	goto	u1297
  1653  01D6  29D7               	nop2
  1654                           opt subtitle "HI-TECH Software Omniscient Code Generator (Lite mode) build 49521"
  1655                           
  1656                           opt pagewidth 120
  1657                           
  1658  01D7                     l1325:	
  1659                           opt subtitle "HI-TECH Software Omniscient Code Generator (Lite mode) build 49521"
  1660  01D7  1283               	bcf	status, 5	;RP0=0, select bank0
  1661  01D8  1303               	bcf	status, 6	;RP1=0, select bank0
  1662  01D9  01A2               	clrf	(_CUT_FLAG)
  1663                           opt subtitle "HI-TECH Software Omniscient Code Generator (Lite mode) build 49521"
  1664                           
  1665  01DA                     l1327:	
  1666                           opt subtitle "HI-TECH Software Omniscient Code Generator (Lite mode) build 49521"
  1667  01DA  3011               	movlw	((STR_6-__stringbase))&0ffh
  1668  01DB  24B5               	fcall	_USARTWritestring
  1669                           opt subtitle "HI-TECH Software Omniscient Code Generator (Lite mode) build 49521"
  1670                           
  1671  01DC                     l1329:	
  1672                           opt subtitle "HI-TECH Software Omniscient Code Generator (Lite mode) build 49521"
  1673  01DC  3028               	movlw	(_buffer&0ffh)
  1674  01DD  1283               	bcf	status, 5	;RP0=0, select bank0
  1675  01DE  1303               	bcf	status, 6	;RP1=0, select bank0
  1676  01DF  00B8               	movwf	(?_ATCommand)
  1677  01E0  3000               	movlw	(0x0/2)
  1678  01E1  00B9               	movwf	(?_ATCommand+1)
  1679  01E2  2479               	fcall	_ATCommand
  1680                           opt subtitle "HI-TECH Software Omniscient Code Generator (Lite mode) build 49521"
  1681                           
  1682  01E3                     l1331:	
  1683                           opt subtitle "HI-TECH Software Omniscient Code Generator (Lite mode) build 49521"
  1684                           
  1685  01E3  3099               movlw  153
  1686  01E4  1283               	bcf	status, 5	;RP0=0, select bank0
  1687  01E5  1303               	bcf	status, 6	;RP1=0, select bank0
  1688  01E6  00BC               movwf	((??_main+0)+0+2),f
  1689  01E7  3032               movlw	50
  1690  01E8  00BB               movwf	((??_main+0)+0+1),f
  1691  01E9  3038               	movlw	56
  1692  01EA  00BA               movwf	((??_main+0)+0),f
  1693  01EB                     u1307:
  1694  01EB  0BBA               	decfsz	((??_main+0)+0),f
  1695  01EC  29EB               	goto	u1307
  1696  01ED  0BBB               	decfsz	((??_main+0)+0+1),f
  1697  01EE  29EB               	goto	u1307
  1698  01EF  0BBC               	decfsz	((??_main+0)+0+2),f
  1699  01F0  29EB               	goto	u1307
  1700  01F1  29F2               	nop2
  1701                           opt subtitle "HI-TECH Software Omniscient Code Generator (Lite mode) build 49521"
  1702                           
  1703                           opt pagewidth 120
  1704                           
  1705  01F2                     l1333:	
  1706                           opt subtitle "HI-TECH Software Omniscient Code Generator (Lite mode) build 49521"
  1707  01F2  3015               	movlw	low((STR_7-__stringbase))
  1708  01F3  1283               	bcf	status, 5	;RP0=0, select bank0
  1709  01F4  1303               	bcf	status, 6	;RP1=0, select bank0
  1710  01F5  00B8               	movwf	(?_ATCommand)
  1711  01F6  3080               	movlw	80h
  1712  01F7  00B9               	movwf	(?_ATCommand+1)
  1713  01F8  2479               	fcall	_ATCommand
  1714                           opt subtitle "HI-TECH Software Omniscient Code Generator (Lite mode) build 49521"
  1715                           
  1716  01F9                     l1335:	
  1717                           opt subtitle "HI-TECH Software Omniscient Code Generator (Lite mode) build 49521"
  1718                           
  1719  01F9  3006               movlw  6
  1720  01FA  1283               	bcf	status, 5	;RP0=0, select bank0
  1721  01FB  1303               	bcf	status, 6	;RP1=0, select bank0
  1722  01FC  00BC               movwf	((??_main+0)+0+2),f
  1723  01FD  3013               movlw	19
  1724  01FE  00BB               movwf	((??_main+0)+0+1),f
  1725  01FF  30B1               	movlw	177
  1726  0200  00BA               movwf	((??_main+0)+0),f
  1727  0201                     u1317:
  1728  0201  0BBA               	decfsz	((??_main+0)+0),f
  1729  0202  2A01               	goto	u1317
  1730  0203  0BBB               	decfsz	((??_main+0)+0+1),f
  1731  0204  2A01               	goto	u1317
  1732  0205  0BBC               	decfsz	((??_main+0)+0+2),f
  1733  0206  2A01               	goto	u1317
  1734  0207  2A08               	nop2
  1735                           opt subtitle "HI-TECH Software Omniscient Code Generator (Lite mode) build 49521"
  1736                           
  1737                           opt pagewidth 120
  1738                           
  1739  0208                     l1337:	
  1740                           opt subtitle "HI-TECH Software Omniscient Code Generator (Lite mode) build 49521"
  1741  0208  1283               	bcf	status, 5	;RP0=0, select bank0
  1742  0209  1303               	bcf	status, 6	;RP1=0, select bank0
  1743  020A  01A0               	clrf	(_CALL_FLAG)
  1744                           opt subtitle "HI-TECH Software Omniscient Code Generator (Lite mode) build 49521"
  1745                           
  1746  020B                     l1339:	
  1747                           opt subtitle "HI-TECH Software Omniscient Code Generator (Lite mode) build 49521"
  1748  020B  3001               	movlw	(01h)
  1749  020C  1283               	bcf	status, 5	;RP0=0, select bank2
  1750  020D  1703               	bsf	status, 6	;RP1=1, select bank2
  1751  020E  008D               	movwf	(269)^0100h	;volatile
  1752                           opt subtitle "HI-TECH Software Omniscient Code Generator (Lite mode) build 49521"
  1753                           
  1754  020F                     l1341:	
  1755                           opt subtitle "HI-TECH Software Omniscient Code Generator (Lite mode) build 49521"
  1756  020F  018C               	clrf	(268)^0100h	;volatile
  1757                           opt subtitle "HI-TECH Software Omniscient Code Generator (Lite mode) build 49521"
  1758                           
  1759  0210                     l1343:	
  1760                           opt subtitle "HI-TECH Software Omniscient Code Generator (Lite mode) build 49521"
  1761  0210  1683               	bsf	status, 5	;RP0=1, select bank3
  1762  0211  1703               	bsf	status, 6	;RP1=1, select bank3
  1763  0212  138C               	bcf	(396)^0180h,7	;volatile
  1764                           opt subtitle "HI-TECH Software Omniscient Code Generator (Lite mode) build 49521"
  1765                           
  1766  0213                     l1345:	
  1767                           opt subtitle "HI-TECH Software Omniscient Code Generator (Lite mode) build 49521"
  1768  0213  150C               	bsf	(396)^0180h,2	;volatile
  1769                           opt subtitle "HI-TECH Software Omniscient Code Generator (Lite mode) build 49521"
  1770                           
  1771  0214                     l1347:	
  1772                           opt subtitle "HI-TECH Software Omniscient Code Generator (Lite mode) build 49521"
  1773  0214  3055               	movlw	(055h)
  1774  0215  008D               	movwf	(397)^0180h	;volatile
  1775                           opt subtitle "HI-TECH Software Omniscient Code Generator (Lite mode) build 49521"
  1776                           
  1777  0216                     l1349:	
  1778                           opt subtitle "HI-TECH Software Omniscient Code Generator (Lite mode) build 49521"
  1779  0216  30AA               	movlw	(0AAh)
  1780  0217  008D               	movwf	(397)^0180h	;volatile
  1781                           opt subtitle "HI-TECH Software Omniscient Code Generator (Lite mode) build 49521"
  1782                           
  1783  0218                     l1351:	
  1784                           opt subtitle "HI-TECH Software Omniscient Code Generator (Lite mode) build 49521"
  1785  0218  148C               	bsf	(396)^0180h,1	;volatile
  1786                           opt subtitle "HI-TECH Software Omniscient Code Generator (Lite mode) build 49521"
  1787                           
  1788  0219  2A1A               	goto	l130
  1789                           opt subtitle "HI-TECH Software Omniscient Code Generator (Lite mode) build 49521"
  1790  021A                     l131:	
  1791                           opt subtitle "HI-TECH Software Omniscient Code Generator (Lite mode) build 49521"
  1792                           
  1793                           opt pagewidth 120
  1794  021A                     l130:	
  1795                           opt subtitle "HI-TECH Software Omniscient Code Generator (Lite mode) build 49521"
  1796  021A  188C               	btfsc	(396)^0180h,1	;volatile
  1797  021B  2A1D               	goto	u861
  1798  021C  2A1E               	goto	u860
  1799  021D                     u861:
  1800  021D  2A1A               	goto	l130
  1801  021E                     u860:
  1802                           opt subtitle "HI-TECH Software Omniscient Code Generator (Lite mode) build 49521"
  1803  021E                     l132:	
  1804                           opt subtitle "HI-TECH Software Omniscient Code Generator (Lite mode) build 49521"
  1805                           
  1806                           opt pagewidth 120
  1807  021E  110C               	bcf	(396)^0180h,2	;volatile
  1808                           opt subtitle "HI-TECH Software Omniscient Code Generator (Lite mode) build 49521"
  1809                           
  1810  021F  178B               	bsf	(95/8),(95)&7	;volatile
  1811  0220  2A22               	goto	l1353
  1812                           opt subtitle "HI-TECH Software Omniscient Code Generator (Lite mode) build 49521"
  1813                           
  1814  0221                     l129:	
  1815  0221  2A22               	goto	l1353
  1816                           opt subtitle "HI-TECH Software Omniscient Code Generator (Lite mode) build 49521"
  1817                           
  1818  0222                     l128:	
  1819                           opt subtitle "HI-TECH Software Omniscient Code Generator (Lite mode) build 49521"
  1820                           
  1821  0222                     l1353:	
  1822                           opt subtitle "HI-TECH Software Omniscient Code Generator (Lite mode) build 49521"
  1823                           
  1824                           opt pagewidth 120
  1825  0222  1283               	bcf	status, 5	;RP0=0, select bank0
  1826  0223  1303               	bcf	status, 6	;RP1=0, select bank0
  1827  0224  0827               	movf	(_WRONG_NUMBER),w
  1828  0225  3A01               	xorlw	01h
  1829  0226  1D03               	skipz
  1830  0227  2A29               	goto	u871
  1831  0228  2A2A               	goto	u870
  1832  0229                     u871:
  1833  0229  2A44               	goto	l1365
  1834  022A                     u870:
  1835                           opt subtitle "HI-TECH Software Omniscient Code Generator (Lite mode) build 49521"
  1836                           
  1837  022A                     l1355:	
  1838                           opt subtitle "HI-TECH Software Omniscient Code Generator (Lite mode) build 49521"
  1839                           
  1840  022A  138B               	bcf	(95/8),(95)&7	;volatile
  1841                           opt subtitle "HI-TECH Software Omniscient Code Generator (Lite mode) build 49521"
  1842                           
  1843  022B                     l1357:	
  1844                           opt subtitle "HI-TECH Software Omniscient Code Generator (Lite mode) build 49521"
  1845  022B  3015               	movlw	low((STR_8-__stringbase))
  1846  022C  00B8               	movwf	(?_ATCommand)
  1847  022D  3080               	movlw	80h
  1848  022E  00B9               	movwf	(?_ATCommand+1)
  1849  022F  2479               	fcall	_ATCommand
  1850                           opt subtitle "HI-TECH Software Omniscient Code Generator (Lite mode) build 49521"
  1851                           
  1852  0230                     l1359:	
  1853                           opt subtitle "HI-TECH Software Omniscient Code Generator (Lite mode) build 49521"
  1854                           
  1855  0230  3006               movlw  6
  1856  0231  1283               	bcf	status, 5	;RP0=0, select bank0
  1857  0232  1303               	bcf	status, 6	;RP1=0, select bank0
  1858  0233  00BC               movwf	((??_main+0)+0+2),f
  1859  0234  3013               movlw	19
  1860  0235  00BB               movwf	((??_main+0)+0+1),f
  1861  0236  30B1               	movlw	177
  1862  0237  00BA               movwf	((??_main+0)+0),f
  1863  0238                     u1327:
  1864  0238  0BBA               	decfsz	((??_main+0)+0),f
  1865  0239  2A38               	goto	u1327
  1866  023A  0BBB               	decfsz	((??_main+0)+0+1),f
  1867  023B  2A38               	goto	u1327
  1868  023C  0BBC               	decfsz	((??_main+0)+0+2),f
  1869  023D  2A38               	goto	u1327
  1870  023E  2A3F               	nop2
  1871                           opt subtitle "HI-TECH Software Omniscient Code Generator (Lite mode) build 49521"
  1872                           
  1873                           opt pagewidth 120
  1874                           
  1875  023F                     l1361:	
  1876                           opt subtitle "HI-TECH Software Omniscient Code Generator (Lite mode) build 49521"
  1877  023F  1283               	bcf	status, 5	;RP0=0, select bank0
  1878  0240  1303               	bcf	status, 6	;RP1=0, select bank0
  1879  0241  01A7               	clrf	(_WRONG_NUMBER)
  1880                           opt subtitle "HI-TECH Software Omniscient Code Generator (Lite mode) build 49521"
  1881                           
  1882  0242                     l1363:	
  1883                           opt subtitle "HI-TECH Software Omniscient Code Generator (Lite mode) build 49521"
  1884  0242  178B               	bsf	(95/8),(95)&7	;volatile
  1885  0243  2A44               	goto	l1365
  1886                           opt subtitle "HI-TECH Software Omniscient Code Generator (Lite mode) build 49521"
  1887                           
  1888  0244                     l133:	
  1889                           opt subtitle "HI-TECH Software Omniscient Code Generator (Lite mode) build 49521"
  1890                           
  1891  0244                     l1365:	
  1892                           opt subtitle "HI-TECH Software Omniscient Code Generator (Lite mode) build 49521"
  1893                           
  1894  0244  0826               	movf	(_RING_COUNT),w
  1895  0245  1D03               	skipz
  1896  0246  2A48               	goto	u880
  1897  0247  288F               	goto	l1217
  1898  0248                     u880:
  1899                           opt subtitle "HI-TECH Software Omniscient Code Generator (Lite mode) build 49521"
  1900                           
  1901  0248                     l1367:	
  1902                           opt subtitle "HI-TECH Software Omniscient Code Generator (Lite mode) build 49521"
  1903                           
  1904  0248  01BE               	clrf	(main@temp)
  1905                           opt subtitle "HI-TECH Software Omniscient Code Generator (Lite mode) build 49521"
  1906                           
  1907  0249                     l1369:	
  1908                           opt subtitle "HI-TECH Software Omniscient Code Generator (Lite mode) build 49521"
  1909  0249  0826               	movf	(_RING_COUNT),w
  1910  024A  00BA               	movwf	(??_main+0)+0
  1911  024B  083A               	movf	(??_main+0)+0,w
  1912  024C  00BE               	movwf	(main@temp)
  1913                           opt subtitle "HI-TECH Software Omniscient Code Generator (Lite mode) build 49521"
  1914                           
  1915                           opt pagewidth 120
  1916  024D  301F               movlw  31
  1917  024E  00BC               movwf	((??_main+0)+0+2),f
  1918  024F  3071               movlw	113
  1919  0250  00BB               movwf	((??_main+0)+0+1),f
  1920  0251  303B               	movlw	59
  1921  0252  00BA               movwf	((??_main+0)+0),f
  1922  0253                     u1337:
  1923  0253  0BBA               	decfsz	((??_main+0)+0),f
  1924  0254  2A53               	goto	u1337
  1925  0255  0BBB               	decfsz	((??_main+0)+0+1),f
  1926  0256  2A53               	goto	u1337
  1927  0257  0BBC               	decfsz	((??_main+0)+0+2),f
  1928  0258  2A53               	goto	u1337
  1929  0259  0000               	nop
  1930                           opt subtitle "HI-TECH Software Omniscient Code Generator (Lite mode) build 49521"
  1931                           
  1932                           opt pagewidth 120
  1933                           
  1934  025A  1283               	bcf	status, 5	;RP0=0, select bank0
  1935  025B  1303               	bcf	status, 6	;RP1=0, select bank0
  1936  025C  0826               	movf	(_RING_COUNT),w
  1937  025D  063E               	xorwf	(main@temp),w
  1938  025E  1D03               	skipz
  1939  025F  2A61               	goto	u891
  1940  0260  2A62               	goto	u890
  1941  0261                     u891:
  1942  0261  288F               	goto	l1217
  1943  0262                     u890:
  1944                           opt subtitle "HI-TECH Software Omniscient Code Generator (Lite mode) build 49521"
  1945                           
  1946  0262                     l1371:	
  1947                           opt subtitle "HI-TECH Software Omniscient Code Generator (Lite mode) build 49521"
  1948  0262  01A6               	clrf	(_RING_COUNT)
  1949  0263  288F               	goto	l1217
  1950                           opt subtitle "HI-TECH Software Omniscient Code Generator (Lite mode) build 49521"
  1951  0264                     l135:	
  1952  0264  288F               	goto	l1217
  1953                           opt subtitle "HI-TECH Software Omniscient Code Generator (Lite mode) build 49521"
  1954                           
  1955  0265                     l134:	
  1956  0265  288F               	goto	l1217
  1957                           opt subtitle "HI-TECH Software Omniscient Code Generator (Lite mode) build 49521"
  1958                           
  1959  0266                     l136:	
  1960                           opt subtitle "HI-TECH Software Omniscient Code Generator (Lite mode) build 49521"
  1961  0266  288F               	goto	l1217
  1962                           opt subtitle "HI-TECH Software Omniscient Code Generator (Lite mode) build 49521"
  1963  0267                     l137:	
  1964                           opt subtitle "HI-TECH Software Omniscient Code Generator (Lite mode) build 49521"
  1965                           
  1966  0267                     l138:	
  1967                           opt subtitle "HI-TECH Software Omniscient Code Generator (Lite mode) build 49521"
  1968  0267  2810               	ljmp	start
  1969                           opt subtitle "HI-TECH Software Omniscient Code Generator (Lite mode) build 49521"
  1970                           
  1971  0268                     	__end_of_main:
  1972                           opt subtitle "HI-TECH Software Omniscient Code Generator (Lite mode) build 49521"
  1973                           
  1974                           opt pagewidth 120
  1975                           
  1976                           	opt lm
  1977                           
  1978                           	processor	16F870
  1979                           clrc	macro
  1980                           	bcf	3,0
  1981                           	endm
  1982                           clrz	macro
  1983                           	bcf	3,2
  1984                           	endm
  1985                           setc	macro
  1986                           	bsf	3,0
  1987                           	endm
  1988                           setz	macro
  1989                           	bsf	3,2
  1990                           	endm
  1991                           skipc	macro
  1992                           	btfss	3,0
  1993                           	endm
  1994                           skipz	macro
  1995                           	btfss	3,2
  1996                           	endm
  1997                           skipnc	macro
  1998                           	btfsc	3,0
  1999                           	endm
  2000                           skipnz	macro
  2001                           	btfsc	3,2
  2002                           	endm
  2003                           indf	equ	0
  2004                           indf0	equ	0
  2005                           pc	equ	2
  2006  038F                     __ptext253:	;psect for function _USARTInit
  2007                           opt subtitle "HI-TECH Software Omniscient Code Generator (Lite mode) build 49521"
  2008                           
  2009                           opt pagewidth 120
  2010                           
  2011  004C                     	__size_of_USARTInit	equ	__end_of_USARTInit-_USARTInit
  2012                           opt subtitle "HI-TECH Software Omniscient Code Generator (Lite mode) build 49521"
  2013  038F                     _USARTInit:	
  2014                           opt subtitle "HI-TECH Software Omniscient Code Generator (Lite mode) build 49521"
  2015                           
  2016                           opt pagewidth 120
  2017                           
  2018  038F                     l1373:	
  2019                           opt subtitle "HI-TECH Software Omniscient Code Generator (Lite mode) build 49521"
  2020  038F  2BA5               	goto	l1385
  2021                           opt subtitle "HI-TECH Software Omniscient Code Generator (Lite mode) build 49521"
  2022                           
  2023                           opt pagewidth 120
  2024                           
  2025  0390                     l194:	
  2026                           opt subtitle "HI-TECH Software Omniscient Code Generator (Lite mode) build 49521"
  2027                           
  2028  0390                     l1375:	
  2029                           opt subtitle "HI-TECH Software Omniscient Code Generator (Lite mode) build 49521"
  2030  0390  3019               	movlw	(019h)
  2031  0391  1683               	bsf	status, 5	;RP0=1, select bank1
  2032  0392  1303               	bcf	status, 6	;RP1=0, select bank1
  2033  0393  0099               	movwf	(153)^080h	;volatile
  2034                           opt subtitle "HI-TECH Software Omniscient Code Generator (Lite mode) build 49521"
  2035                           
  2036  0394  2BC9               	goto	l195
  2037                           opt subtitle "HI-TECH Software Omniscient Code Generator (Lite mode) build 49521"
  2038                           
  2039                           opt pagewidth 120
  2040  0395                     l196:	
  2041                           opt subtitle "HI-TECH Software Omniscient Code Generator (Lite mode) build 49521"
  2042                           
  2043  0395                     l1377:	
  2044                           opt subtitle "HI-TECH Software Omniscient Code Generator (Lite mode) build 49521"
  2045  0395  300C               	movlw	(0Ch)
  2046  0396  1683               	bsf	status, 5	;RP0=1, select bank1
  2047  0397  1303               	bcf	status, 6	;RP1=0, select bank1
  2048  0398  0099               	movwf	(153)^080h	;volatile
  2049                           opt subtitle "HI-TECH Software Omniscient Code Generator (Lite mode) build 49521"
  2050                           
  2051  0399  2BC9               	goto	l195
  2052                           opt subtitle "HI-TECH Software Omniscient Code Generator (Lite mode) build 49521"
  2053                           
  2054                           opt pagewidth 120
  2055  039A                     l197:	
  2056                           opt subtitle "HI-TECH Software Omniscient Code Generator (Lite mode) build 49521"
  2057                           
  2058  039A                     l1379:	
  2059                           opt subtitle "HI-TECH Software Omniscient Code Generator (Lite mode) build 49521"
  2060  039A  3008               	movlw	(08h)
  2061  039B  1683               	bsf	status, 5	;RP0=1, select bank1
  2062  039C  1303               	bcf	status, 6	;RP1=0, select bank1
  2063  039D  0099               	movwf	(153)^080h	;volatile
  2064                           opt subtitle "HI-TECH Software Omniscient Code Generator (Lite mode) build 49521"
  2065                           
  2066  039E  2BC9               	goto	l195
  2067                           opt subtitle "HI-TECH Software Omniscient Code Generator (Lite mode) build 49521"
  2068                           
  2069                           opt pagewidth 120
  2070  039F                     l198:	
  2071                           opt subtitle "HI-TECH Software Omniscient Code Generator (Lite mode) build 49521"
  2072                           
  2073  039F                     l1381:	
  2074                           opt subtitle "HI-TECH Software Omniscient Code Generator (Lite mode) build 49521"
  2075  039F  3006               	movlw	(06h)
  2076  03A0  1683               	bsf	status, 5	;RP0=1, select bank1
  2077  03A1  1303               	bcf	status, 6	;RP1=0, select bank1
  2078  03A2  0099               	movwf	(153)^080h	;volatile
  2079                           opt subtitle "HI-TECH Software Omniscient Code Generator (Lite mode) build 49521"
  2080                           
  2081  03A3  2BC9               	goto	l195
  2082                           opt subtitle "HI-TECH Software Omniscient Code Generator (Lite mode) build 49521"
  2083                           
  2084  03A4                     l1383:	
  2085                           opt subtitle "HI-TECH Software Omniscient Code Generator (Lite mode) build 49521"
  2086  03A4  2BC9               	goto	l195
  2087                           opt subtitle "HI-TECH Software Omniscient Code Generator (Lite mode) build 49521"
  2088                           
  2089  03A5                     l193:	
  2090                           opt subtitle "HI-TECH Software Omniscient Code Generator (Lite mode) build 49521"
  2091  03A5                     l1385:	
  2092                           opt subtitle "HI-TECH Software Omniscient Code Generator (Lite mode) build 49521"
  2093                           
  2094                           opt pagewidth 120
  2095                           
  2096                           	opt lm
  2097                           
  2098                           	processor	16F870
  2099                           clrc	macro
  2100                           	bcf	3,0
  2101                           	endm
  2102  03A5  1283               	bcf	status, 5	;RP0=0, select bank0
  2103  03A6  1303               	bcf	status, 6	;RP1=0, select bank0
  2104  03A7  0838               	movf (USARTInit@baud_rate+1),w
  2105                           opt subtitle "HI-TECH Software Omniscient Code Generator (Lite mode) build 49521"
  2106  03A8  3A25               	xorlw	37^0	; case 37
  2107  03A9  1903               	skipnz
  2108  03AA  2BB5               	goto	l1681
  2109  03AB  3A6E               	xorlw	75^37	; case 75
  2110  03AC  1903               	skipnz
  2111  03AD  2BBA               	goto	l1683
  2112  03AE  3A3B               	xorlw	112^75	; case 112
  2113  03AF  1903               	skipnz
  2114  03B0  2BBF               	goto	l1685
  2115  03B1  3AF3               	xorlw	131^112	; case 131
  2116  03B2  1903               	skipnz
  2117  03B3  2BC4               	goto	l1687
  2118  03B4  2BC9               	goto	l195
  2119                           opt subtitle "HI-TECH Software Omniscient Code Generator (Lite mode) build 49521"
  2120                           
  2121  03B5                     l1681:	
  2122                           opt subtitle "HI-TECH Software Omniscient Code Generator (Lite mode) build 49521"
  2123                           
  2124                           opt pagewidth 120
  2125                           
  2126                           	opt lm
  2127                           
  2128                           	processor	16F870
  2129                           clrc	macro
  2130                           	bcf	3,0
  2131  03B5  0837               	movf (USARTInit@baud_rate),w
  2132                           opt subtitle "HI-TECH Software Omniscient Code Generator (Lite mode) build 49521"
  2133  03B6  3A80               	xorlw	128^0	; case 128
  2134  03B7  1903               	skipnz
  2135  03B8  2B90               	goto	l1375
  2136  03B9  2BC9               	goto	l195
  2137                           opt subtitle "HI-TECH Software Omniscient Code Generator (Lite mode) build 49521"
  2138                           
  2139  03BA                     l1683:	
  2140                           opt subtitle "HI-TECH Software Omniscient Code Generator (Lite mode) build 49521"
  2141                           
  2142                           opt pagewidth 120
  2143                           
  2144                           	opt lm
  2145                           
  2146                           	processor	16F870
  2147                           clrc	macro
  2148                           	bcf	3,0
  2149                           	endm
  2150                           clrz	macro
  2151                           	bcf	3,2
  2152  03BA  0837               	movf (USARTInit@baud_rate),w
  2153                           opt subtitle "HI-TECH Software Omniscient Code Generator (Lite mode) build 49521"
  2154  03BB  3A00               	xorlw	0^0	; case 0
  2155  03BC  1903               	skipnz
  2156  03BD  2B95               	goto	l1377
  2157  03BE  2BC9               	goto	l195
  2158                           opt subtitle "HI-TECH Software Omniscient Code Generator (Lite mode) build 49521"
  2159                           
  2160  03BF                     l1685:	
  2161                           opt subtitle "HI-TECH Software Omniscient Code Generator (Lite mode) build 49521"
  2162                           
  2163                           opt pagewidth 120
  2164                           
  2165                           	opt lm
  2166                           
  2167                           	processor	16F870
  2168                           clrc	macro
  2169                           	bcf	3,0
  2170  03BF  0837               	movf (USARTInit@baud_rate),w
  2171                           opt subtitle "HI-TECH Software Omniscient Code Generator (Lite mode) build 49521"
  2172  03C0  3A80               	xorlw	128^0	; case 128
  2173  03C1  1903               	skipnz
  2174  03C2  2B9A               	goto	l1379
  2175  03C3  2BC9               	goto	l195
  2176                           opt subtitle "HI-TECH Software Omniscient Code Generator (Lite mode) build 49521"
  2177                           
  2178  03C4                     l1687:	
  2179                           opt subtitle "HI-TECH Software Omniscient Code Generator (Lite mode) build 49521"
  2180                           
  2181                           opt pagewidth 120
  2182                           
  2183                           	opt lm
  2184                           
  2185                           	processor	16F870
  2186                           clrc	macro
  2187                           	bcf	3,0
  2188  03C4  0837               	movf (USARTInit@baud_rate),w
  2189                           opt subtitle "HI-TECH Software Omniscient Code Generator (Lite mode) build 49521"
  2190  03C5  3A40               	xorlw	64^0	; case 64
  2191  03C6  1903               	skipnz
  2192  03C7  2B9F               	goto	l1381
  2193  03C8  2BC9               	goto	l195
  2194                           opt subtitle "HI-TECH Software Omniscient Code Generator (Lite mode) build 49521"
  2195                           
  2196                           opt pagewidth 120
  2197                           
  2198  03C9                     l195:	
  2199                           opt subtitle "HI-TECH Software Omniscient Code Generator (Lite mode) build 49521"
  2200                           
  2201  03C9  1683               	bsf	status, 5	;RP0=1, select bank1
  2202  03CA  1303               	bcf	status, 6	;RP1=0, select bank1
  2203  03CB  1318               	bcf	(152)^080h,6	;volatile
  2204                           opt subtitle "HI-TECH Software Omniscient Code Generator (Lite mode) build 49521"
  2205                           
  2206  03CC  1698               	bsf	(152)^080h,5	;volatile
  2207                           opt subtitle "HI-TECH Software Omniscient Code Generator (Lite mode) build 49521"
  2208                           
  2209  03CD  1218               	bcf	(152)^080h,4	;volatile
  2210                           opt subtitle "HI-TECH Software Omniscient Code Generator (Lite mode) build 49521"
  2211                           
  2212  03CE  1518               	bsf	(152)^080h,2	;volatile
  2213                           opt subtitle "HI-TECH Software Omniscient Code Generator (Lite mode) build 49521"
  2214                           
  2215  03CF  1283               	bcf	status, 5	;RP0=0, select bank0
  2216  03D0  1303               	bcf	status, 6	;RP1=0, select bank0
  2217  03D1  1798               	bsf	(24),7	;volatile
  2218                           opt subtitle "HI-TECH Software Omniscient Code Generator (Lite mode) build 49521"
  2219                           
  2220  03D2  1318               	bcf	(24),6	;volatile
  2221                           opt subtitle "HI-TECH Software Omniscient Code Generator (Lite mode) build 49521"
  2222                           
  2223  03D3  1618               	bsf	(24),4	;volatile
  2224                           opt subtitle "HI-TECH Software Omniscient Code Generator (Lite mode) build 49521"
  2225                           
  2226  03D4  1198               	bcf	(24),3	;volatile
  2227                           opt subtitle "HI-TECH Software Omniscient Code Generator (Lite mode) build 49521"
  2228                           
  2229  03D5  1683               	bsf	status, 5	;RP0=1, select bank1
  2230  03D6  1303               	bcf	status, 6	;RP1=0, select bank1
  2231  03D7  168C               	bsf	(1125/8)^080h,(1125)&7	;volatile
  2232                           opt subtitle "HI-TECH Software Omniscient Code Generator (Lite mode) build 49521"
  2233                           
  2234  03D8  170B               	bsf	(94/8),(94)&7	;volatile
  2235                           opt subtitle "HI-TECH Software Omniscient Code Generator (Lite mode) build 49521"
  2236                           
  2237  03D9  178B               	bsf	(95/8),(95)&7	;volatile
  2238                           opt subtitle "HI-TECH Software Omniscient Code Generator (Lite mode) build 49521"
  2239                           
  2240  03DA                     l199:	
  2241  03DA  0008               	return
  2242                           opt subtitle "HI-TECH Software Omniscient Code Generator (Lite mode) build 49521"
  2243                           
  2244  03DB                     	__end_of_USARTInit:
  2245                           opt subtitle "HI-TECH Software Omniscient Code Generator (Lite mode) build 49521"
  2246                           
  2247                           opt pagewidth 120
  2248                           
  2249                           	opt lm
  2250                           
  2251                           	processor	16F870
  2252                           clrc	macro
  2253                           	bcf	3,0
  2254                           	endm
  2255                           clrz	macro
  2256                           	bcf	3,2
  2257                           	endm
  2258                           setc	macro
  2259                           	bsf	3,0
  2260                           	endm
  2261                           setz	macro
  2262                           	bsf	3,2
  2263                           	endm
  2264                           skipc	macro
  2265                           	btfss	3,0
  2266                           	endm
  2267                           skipz	macro
  2268                           	btfss	3,2
  2269                           	endm
  2270                           skipnc	macro
  2271                           	btfsc	3,0
  2272                           	endm
  2273                           skipnz	macro
  2274                           	btfsc	3,2
  2275                           	endm
  2276                           indf	equ	0
  2277                           indf0	equ	0
  2278                           pc	equ	2
  2279                           pcl	equ	2
  2280                           status	equ	3
  2281  0479                     __ptext254:	;psect for function _ATCommand
  2282                           opt subtitle "HI-TECH Software Omniscient Code Generator (Lite mode) build 49521"
  2283                           
  2284                           opt pagewidth 120
  2285                           
  2286  0020                     	__size_of_ATCommand	equ	__end_of_ATCommand-_ATCommand
  2287                           opt subtitle "HI-TECH Software Omniscient Code Generator (Lite mode) build 49521"
  2288  0479                     _ATCommand:	
  2289                           opt subtitle "HI-TECH Software Omniscient Code Generator (Lite mode) build 49521"
  2290                           
  2291                           opt pagewidth 120
  2292                           
  2293  0479                     l1403:	
  2294                           opt subtitle "HI-TECH Software Omniscient Code Generator (Lite mode) build 49521"
  2295  0479  2C89               	goto	l1409
  2296                           opt subtitle "HI-TECH Software Omniscient Code Generator (Lite mode) build 49521"
  2297  047A                     l182:	
  2298                           opt subtitle "HI-TECH Software Omniscient Code Generator (Lite mode) build 49521"
  2299                           
  2300  047A                     l1405:	
  2301                           opt subtitle "HI-TECH Software Omniscient Code Generator (Lite mode) build 49521"
  2302                           
  2303  047A  1283               	bcf	status, 5	;RP0=0, select bank0
  2304  047B  1303               	bcf	status, 6	;RP1=0, select bank0
  2305  047C  0839               	movf	(ATCommand@str+1),w
  2306  047D  00FF               	movwf	btemp+1
  2307  047E  0838               	movf	(ATCommand@str),w
  2308  047F  0084               	movwf	fsr0
  2309  0480  2409               	fcall	stringtab
  2310  0481  24E4               	fcall	_USARTWriteChar
  2311                           opt subtitle "HI-TECH Software Omniscient Code Generator (Lite mode) build 49521"
  2312                           
  2313  0482                     l1407:	
  2314                           opt subtitle "HI-TECH Software Omniscient Code Generator (Lite mode) build 49521"
  2315  0482  3001               	movlw	01h
  2316  0483  1283               	bcf	status, 5	;RP0=0, select bank0
  2317  0484  1303               	bcf	status, 6	;RP1=0, select bank0
  2318  0485  07B8               	addwf	(ATCommand@str),f
  2319  0486  1803               	skipnc
  2320  0487  0AB9               	incf	(ATCommand@str+1),f
  2321  0488  2C89               	goto	l1409
  2322                           opt subtitle "HI-TECH Software Omniscient Code Generator (Lite mode) build 49521"
  2323                           
  2324  0489                     l181:	
  2325                           opt subtitle "HI-TECH Software Omniscient Code Generator (Lite mode) build 49521"
  2326                           
  2327  0489                     l1409:	
  2328  0489  1283               	bcf	status, 5	;RP0=0, select bank0
  2329  048A  1303               	bcf	status, 6	;RP1=0, select bank0
  2330  048B  0839               	movf	(ATCommand@str+1),w
  2331  048C  00FF               	movwf	btemp+1
  2332  048D  0838               	movf	(ATCommand@str),w
  2333  048E  0084               	movwf	fsr0
  2334  048F  2409               	fcall	stringtab
  2335  0490  3800               	iorlw	0
  2336  0491  1D03               	skipz
  2337  0492  2C94               	goto	u901
  2338  0493  2C95               	goto	u900
  2339  0494                     u901:
  2340  0494  2C7A               	goto	l1405
  2341  0495                     u900:
  2342  0495  2C96               	goto	l1411
  2343                           opt subtitle "HI-TECH Software Omniscient Code Generator (Lite mode) build 49521"
  2344  0496                     l183:	
  2345                           opt subtitle "HI-TECH Software Omniscient Code Generator (Lite mode) build 49521"
  2346                           
  2347  0496                     l1411:	
  2348                           opt subtitle "HI-TECH Software Omniscient Code Generator (Lite mode) build 49521"
  2349                           
  2350  0496  300D               	movlw	(0Dh)
  2351  0497  24E4               	fcall	_USARTWriteChar
  2352                           opt subtitle "HI-TECH Software Omniscient Code Generator (Lite mode) build 49521"
  2353                           
  2354  0498                     l184:	
  2355  0498  0008               	return
  2356                           opt subtitle "HI-TECH Software Omniscient Code Generator (Lite mode) build 49521"
  2357                           
  2358  0499                     	__end_of_ATCommand:
  2359                           opt subtitle "HI-TECH Software Omniscient Code Generator (Lite mode) build 49521"
  2360                           
  2361                           opt pagewidth 120
  2362                           
  2363                           	opt lm
  2364                           
  2365                           	processor	16F870
  2366                           clrc	macro
  2367                           	bcf	3,0
  2368                           	endm
  2369                           clrz	macro
  2370                           	bcf	3,2
  2371                           	endm
  2372                           setc	macro
  2373                           	bsf	3,0
  2374                           	endm
  2375                           setz	macro
  2376                           	bsf	3,2
  2377                           	endm
  2378                           skipc	macro
  2379                           	btfss	3,0
  2380                           	endm
  2381                           skipz	macro
  2382                           	btfss	3,2
  2383                           	endm
  2384                           skipnc	macro
  2385                           	btfsc	3,0
  2386                           	endm
  2387                           skipnz	macro
  2388                           	btfsc	3,2
  2389                           	endm
  2390                           indf	equ	0
  2391                           indf0	equ	0
  2392                           pc	equ	2
  2393  04CE                     __ptext255:	;psect for function _phase_check
  2394                           opt subtitle "HI-TECH Software Omniscient Code Generator (Lite mode) build 49521"
  2395                           
  2396                           opt pagewidth 120
  2397                           
  2398  0016                     	__size_of_phase_check	equ	__end_of_phase_check-_phase_check
  2399                           opt subtitle "HI-TECH Software Omniscient Code Generator (Lite mode) build 49521"
  2400  04CE                     _phase_check:	
  2401                           opt subtitle "HI-TECH Software Omniscient Code Generator (Lite mode) build 49521"
  2402                           
  2403                           opt pagewidth 120
  2404                           
  2405  04CE                     l1413:	
  2406                           opt subtitle "HI-TECH Software Omniscient Code Generator (Lite mode) build 49521"
  2407  04CE  1283               	bcf	status, 5	;RP0=0, select bank0
  2408  04CF  1303               	bcf	status, 6	;RP1=0, select bank0
  2409  04D0  1C07               	btfss	(56/8),(56)&7	;volatile
  2410  04D1  2CD3               	goto	u911
  2411  04D2  2CD4               	goto	u910
  2412  04D3                     u911:
  2413  04D3  2CE0               	goto	l1425
  2414  04D4                     u910:
  2415                           opt subtitle "HI-TECH Software Omniscient Code Generator (Lite mode) build 49521"
  2416  04D4                     l1415:	
  2417  04D4  1C87               	btfss	(57/8),(57)&7	;volatile
  2418  04D5  2CD7               	goto	u921
  2419  04D6  2CD8               	goto	u920
  2420  04D7                     u921:
  2421  04D7  2CE0               	goto	l1425
  2422  04D8                     u920:
  2423                           opt subtitle "HI-TECH Software Omniscient Code Generator (Lite mode) build 49521"
  2424  04D8                     l1417:	
  2425  04D8  1D07               	btfss	(58/8),(58)&7	;volatile
  2426  04D9  2CDB               	goto	u931
  2427  04DA  2CDC               	goto	u930
  2428  04DB                     u931:
  2429  04DB  2CE0               	goto	l1425
  2430  04DC                     u930:
  2431                           opt subtitle "HI-TECH Software Omniscient Code Generator (Lite mode) build 49521"
  2432                           
  2433  04DC                     l1419:	
  2434                           opt subtitle "HI-TECH Software Omniscient Code Generator (Lite mode) build 49521"
  2435                           
  2436  04DC  3001               	movlw	(01h)
  2437  04DD  2CE3               	goto	l209
  2438                           opt subtitle "HI-TECH Software Omniscient Code Generator (Lite mode) build 49521"
  2439  04DE                     l1421:	
  2440  04DE  2CE3               	goto	l209
  2441                           opt subtitle "HI-TECH Software Omniscient Code Generator (Lite mode) build 49521"
  2442                           
  2443  04DF                     l1423:	
  2444                           opt subtitle "HI-TECH Software Omniscient Code Generator (Lite mode) build 49521"
  2445  04DF  2CE3               	goto	l209
  2446                           opt subtitle "HI-TECH Software Omniscient Code Generator (Lite mode) build 49521"
  2447                           
  2448  04E0                     l208:	
  2449                           opt subtitle "HI-TECH Software Omniscient Code Generator (Lite mode) build 49521"
  2450                           
  2451  04E0                     l1425:	
  2452                           opt subtitle "HI-TECH Software Omniscient Code Generator (Lite mode) build 49521"
  2453                           
  2454                           opt pagewidth 120
  2455  04E0  3000               	movlw	(0)
  2456  04E1  2CE3               	goto	l209
  2457                           opt subtitle "HI-TECH Software Omniscient Code Generator (Lite mode) build 49521"
  2458  04E2                     l1427:	
  2459  04E2  2CE3               	goto	l209
  2460                           opt subtitle "HI-TECH Software Omniscient Code Generator (Lite mode) build 49521"
  2461                           
  2462  04E3                     l210:	
  2463                           opt subtitle "HI-TECH Software Omniscient Code Generator (Lite mode) build 49521"
  2464                           
  2465  04E3                     l209:	
  2466  04E3  0008               	return
  2467                           opt subtitle "HI-TECH Software Omniscient Code Generator (Lite mode) build 49521"
  2468                           
  2469  04E4                     	__end_of_phase_check:
  2470                           opt subtitle "HI-TECH Software Omniscient Code Generator (Lite mode) build 49521"
  2471                           
  2472                           opt pagewidth 120
  2473                           
  2474                           	opt lm
  2475                           
  2476                           	processor	16F870
  2477                           clrc	macro
  2478                           	bcf	3,0
  2479                           	endm
  2480                           clrz	macro
  2481                           	bcf	3,2
  2482                           	endm
  2483                           setc	macro
  2484                           	bsf	3,0
  2485                           	endm
  2486                           setz	macro
  2487                           	bsf	3,2
  2488                           	endm
  2489                           skipc	macro
  2490                           	btfss	3,0
  2491                           	endm
  2492                           skipz	macro
  2493                           	btfss	3,2
  2494                           	endm
  2495                           skipnc	macro
  2496                           	btfsc	3,0
  2497                           	endm
  2498                           skipnz	macro
  2499                           	btfsc	3,2
  2500                           	endm
  2501                           indf	equ	0
  2502                           indf0	equ	0
  2503                           pc	equ	2
  2504  0431                     __ptext256:	;psect for function _start
  2505                           opt subtitle "HI-TECH Software Omniscient Code Generator (Lite mode) build 49521"
  2506                           
  2507                           opt pagewidth 120
  2508                           
  2509  0024                     	__size_of_start	equ	__end_of_start-_start
  2510                           opt subtitle "HI-TECH Software Omniscient Code Generator (Lite mode) build 49521"
  2511  0431                     _start:	
  2512                           opt subtitle "HI-TECH Software Omniscient Code Generator (Lite mode) build 49521"
  2513                           
  2514                           opt pagewidth 120
  2515                           
  2516  0431                     l1429:	
  2517                           opt subtitle "HI-TECH Software Omniscient Code Generator (Lite mode) build 49521"
  2518                           
  2519  0431  3006               movlw  6
  2520  0432  1283               	bcf	status, 5	;RP0=0, select bank0
  2521  0433  1303               	bcf	status, 6	;RP1=0, select bank0
  2522  0434  00B9               movwf	((??_start+0)+0+2),f
  2523  0435  3013               movlw	19
  2524  0436  00B8               movwf	((??_start+0)+0+1),f
  2525  0437  30B1               	movlw	177
  2526  0438  00B7               movwf	((??_start+0)+0),f
  2527  0439                     u1347:
  2528  0439  0BB7               	decfsz	((??_start+0)+0),f
  2529  043A  2C39               	goto	u1347
  2530  043B  0BB8               	decfsz	((??_start+0)+0+1),f
  2531  043C  2C39               	goto	u1347
  2532  043D  0BB9               	decfsz	((??_start+0)+0+2),f
  2533  043E  2C39               	goto	u1347
  2534  043F  2C40               	nop2
  2535                           opt subtitle "HI-TECH Software Omniscient Code Generator (Lite mode) build 49521"
  2536                           
  2537                           opt pagewidth 120
  2538                           
  2539  0440                     l1431:	
  2540                           opt subtitle "HI-TECH Software Omniscient Code Generator (Lite mode) build 49521"
  2541  0440  1283               	bcf	status, 5	;RP0=0, select bank0
  2542  0441  1303               	bcf	status, 6	;RP1=0, select bank0
  2543  0442  1587               	bsf	(59/8),(59)&7	;volatile
  2544                           opt subtitle "HI-TECH Software Omniscient Code Generator (Lite mode) build 49521"
  2545                           
  2546                           opt pagewidth 120
  2547  0443  3029               movlw  41
  2548  0444  00B9               movwf	((??_start+0)+0+2),f
  2549  0445  3096               movlw	150
  2550  0446  00B8               movwf	((??_start+0)+0+1),f
  2551  0447  30A6               	movlw	166
  2552  0448  00B7               movwf	((??_start+0)+0),f
  2553  0449                     u1357:
  2554  0449  0BB7               	decfsz	((??_start+0)+0),f
  2555  044A  2C49               	goto	u1357
  2556  044B  0BB8               	decfsz	((??_start+0)+0+1),f
  2557  044C  2C49               	goto	u1357
  2558  044D  0BB9               	decfsz	((??_start+0)+0+2),f
  2559  044E  2C49               	goto	u1357
  2560                           opt subtitle "HI-TECH Software Omniscient Code Generator (Lite mode) build 49521"
  2561                           
  2562                           opt pagewidth 120
  2563                           
  2564  044F                     l1433:	
  2565                           opt subtitle "HI-TECH Software Omniscient Code Generator (Lite mode) build 49521"
  2566  044F  1283               	bcf	status, 5	;RP0=0, select bank0
  2567  0450  1303               	bcf	status, 6	;RP1=0, select bank0
  2568  0451  1187               	bcf	(59/8),(59)&7	;volatile
  2569                           opt subtitle "HI-TECH Software Omniscient Code Generator (Lite mode) build 49521"
  2570                           
  2571  0452                     l1435:	
  2572                           opt subtitle "HI-TECH Software Omniscient Code Generator (Lite mode) build 49521"
  2573  0452  1786               	bsf	(55/8),(55)&7	;volatile
  2574  0453  2C54               	goto	l202
  2575                           opt subtitle "HI-TECH Software Omniscient Code Generator (Lite mode) build 49521"
  2576                           
  2577  0454                     l1437:	
  2578                           opt subtitle "HI-TECH Software Omniscient Code Generator (Lite mode) build 49521"
  2579                           
  2580                           opt pagewidth 120
  2581  0454                     l202:	
  2582  0454  0008               	return
  2583                           opt subtitle "HI-TECH Software Omniscient Code Generator (Lite mode) build 49521"
  2584                           
  2585  0455                     	__end_of_start:
  2586                           opt subtitle "HI-TECH Software Omniscient Code Generator (Lite mode) build 49521"
  2587                           
  2588                           opt pagewidth 120
  2589                           
  2590                           	opt lm
  2591                           
  2592                           	processor	16F870
  2593                           clrc	macro
  2594                           	bcf	3,0
  2595                           	endm
  2596                           clrz	macro
  2597                           	bcf	3,2
  2598                           	endm
  2599                           setc	macro
  2600                           	bsf	3,0
  2601                           	endm
  2602                           setz	macro
  2603                           	bsf	3,2
  2604                           	endm
  2605                           skipc	macro
  2606                           	btfss	3,0
  2607                           	endm
  2608                           skipz	macro
  2609                           	btfss	3,2
  2610                           	endm
  2611                           skipnc	macro
  2612                           	btfsc	3,0
  2613                           	endm
  2614                           skipnz	macro
  2615                           	btfsc	3,2
  2616                           	endm
  2617                           indf	equ	0
  2618                           indf0	equ	0
  2619                           pc	equ	2
  2620  0455                     __ptext257:	;psect for function _stop
  2621                           opt subtitle "HI-TECH Software Omniscient Code Generator (Lite mode) build 49521"
  2622                           
  2623                           opt pagewidth 120
  2624                           
  2625  0024                     	__size_of_stop	equ	__end_of_stop-_stop
  2626                           opt subtitle "HI-TECH Software Omniscient Code Generator (Lite mode) build 49521"
  2627  0455                     _stop:	
  2628                           opt subtitle "HI-TECH Software Omniscient Code Generator (Lite mode) build 49521"
  2629                           
  2630                           opt pagewidth 120
  2631                           
  2632  0455                     l1439:	
  2633                           opt subtitle "HI-TECH Software Omniscient Code Generator (Lite mode) build 49521"
  2634                           
  2635  0455  3006               movlw  6
  2636  0456  1283               	bcf	status, 5	;RP0=0, select bank0
  2637  0457  1303               	bcf	status, 6	;RP1=0, select bank0
  2638  0458  00B9               movwf	((??_stop+0)+0+2),f
  2639  0459  3013               movlw	19
  2640  045A  00B8               movwf	((??_stop+0)+0+1),f
  2641  045B  30B1               	movlw	177
  2642  045C  00B7               movwf	((??_stop+0)+0),f
  2643  045D                     u1367:
  2644  045D  0BB7               	decfsz	((??_stop+0)+0),f
  2645  045E  2C5D               	goto	u1367
  2646  045F  0BB8               	decfsz	((??_stop+0)+0+1),f
  2647  0460  2C5D               	goto	u1367
  2648  0461  0BB9               	decfsz	((??_stop+0)+0+2),f
  2649  0462  2C5D               	goto	u1367
  2650  0463  2C64               	nop2
  2651                           opt subtitle "HI-TECH Software Omniscient Code Generator (Lite mode) build 49521"
  2652                           
  2653                           opt pagewidth 120
  2654                           
  2655  0464                     l1441:	
  2656                           opt subtitle "HI-TECH Software Omniscient Code Generator (Lite mode) build 49521"
  2657  0464  1283               	bcf	status, 5	;RP0=0, select bank0
  2658  0465  1303               	bcf	status, 6	;RP1=0, select bank0
  2659  0466  1607               	bsf	(60/8),(60)&7	;volatile
  2660                           opt subtitle "HI-TECH Software Omniscient Code Generator (Lite mode) build 49521"
  2661                           
  2662                           opt pagewidth 120
  2663  0467  3029               movlw  41
  2664  0468  00B9               movwf	((??_stop+0)+0+2),f
  2665  0469  3096               movlw	150
  2666  046A  00B8               movwf	((??_stop+0)+0+1),f
  2667  046B  30A6               	movlw	166
  2668  046C  00B7               movwf	((??_stop+0)+0),f
  2669  046D                     u1377:
  2670  046D  0BB7               	decfsz	((??_stop+0)+0),f
  2671  046E  2C6D               	goto	u1377
  2672  046F  0BB8               	decfsz	((??_stop+0)+0+1),f
  2673  0470  2C6D               	goto	u1377
  2674  0471  0BB9               	decfsz	((??_stop+0)+0+2),f
  2675  0472  2C6D               	goto	u1377
  2676                           opt subtitle "HI-TECH Software Omniscient Code Generator (Lite mode) build 49521"
  2677                           
  2678                           opt pagewidth 120
  2679                           
  2680  0473                     l1443:	
  2681                           opt subtitle "HI-TECH Software Omniscient Code Generator (Lite mode) build 49521"
  2682  0473  1283               	bcf	status, 5	;RP0=0, select bank0
  2683  0474  1303               	bcf	status, 6	;RP1=0, select bank0
  2684  0475  1207               	bcf	(60/8),(60)&7	;volatile
  2685                           opt subtitle "HI-TECH Software Omniscient Code Generator (Lite mode) build 49521"
  2686                           
  2687  0476                     l1445:	
  2688                           opt subtitle "HI-TECH Software Omniscient Code Generator (Lite mode) build 49521"
  2689  0476  1386               	bcf	(55/8),(55)&7	;volatile
  2690  0477  2C78               	goto	l205
  2691                           opt subtitle "HI-TECH Software Omniscient Code Generator (Lite mode) build 49521"
  2692                           
  2693  0478                     l1447:	
  2694                           opt subtitle "HI-TECH Software Omniscient Code Generator (Lite mode) build 49521"
  2695                           
  2696                           opt pagewidth 120
  2697  0478                     l205:	
  2698  0478  0008               	return
  2699                           opt subtitle "HI-TECH Software Omniscient Code Generator (Lite mode) build 49521"
  2700                           
  2701  0479                     	__end_of_stop:
  2702                           opt subtitle "HI-TECH Software Omniscient Code Generator (Lite mode) build 49521"
  2703                           
  2704                           opt pagewidth 120
  2705                           
  2706                           	opt lm
  2707                           
  2708                           	processor	16F870
  2709                           clrc	macro
  2710                           	bcf	3,0
  2711                           	endm
  2712                           clrz	macro
  2713                           	bcf	3,2
  2714                           	endm
  2715                           setc	macro
  2716                           	bsf	3,0
  2717                           	endm
  2718                           setz	macro
  2719                           	bsf	3,2
  2720                           	endm
  2721                           skipc	macro
  2722                           	btfss	3,0
  2723                           	endm
  2724                           skipz	macro
  2725                           	btfss	3,2
  2726                           	endm
  2727                           skipnc	macro
  2728                           	btfsc	3,0
  2729                           	endm
  2730                           skipnz	macro
  2731                           	btfsc	3,2
  2732                           	endm
  2733                           indf	equ	0
  2734                           indf0	equ	0
  2735                           pc	equ	2
  2736                           pcl	equ	2
  2737                           status	equ	3
  2738  04B5                     __ptext258:	;psect for function _USARTWritestring
  2739                           opt subtitle "HI-TECH Software Omniscient Code Generator (Lite mode) build 49521"
  2740                           
  2741                           opt pagewidth 120
  2742                           
  2743  0019                     	__size_of_USARTWritestring	equ	__end_of_USARTWritestring-_USARTWritestring
  2744                           opt subtitle "HI-TECH Software Omniscient Code Generator (Lite mode) build 49521"
  2745  04B5                     _USARTWritestring:	
  2746                           opt subtitle "HI-TECH Software Omniscient Code Generator (Lite mode) build 49521"
  2747                           
  2748                           opt pagewidth 120
  2749  04B5  1283               	bcf	status, 5	;RP0=0, select bank0
  2750  04B6  1303               	bcf	status, 6	;RP1=0, select bank0
  2751  04B7  00B9               	movwf	(USARTWritestring@str)
  2752                           opt subtitle "HI-TECH Software Omniscient Code Generator (Lite mode) build 49521"
  2753                           
  2754  04B8                     l1449:	
  2755                           opt subtitle "HI-TECH Software Omniscient Code Generator (Lite mode) build 49521"
  2756  04B8  2CC4               	goto	l1455
  2757                           opt subtitle "HI-TECH Software Omniscient Code Generator (Lite mode) build 49521"
  2758  04B9                     l188:	
  2759                           opt subtitle "HI-TECH Software Omniscient Code Generator (Lite mode) build 49521"
  2760                           
  2761  04B9                     l1451:	
  2762                           opt subtitle "HI-TECH Software Omniscient Code Generator (Lite mode) build 49521"
  2763                           
  2764  04B9  0839               	movf	(USARTWritestring@str),w
  2765  04BA  0084               	movwf	fsr0
  2766  04BB  2413               	fcall	stringdir
  2767  04BC  24E4               	fcall	_USARTWriteChar
  2768                           opt subtitle "HI-TECH Software Omniscient Code Generator (Lite mode) build 49521"
  2769                           
  2770  04BD                     l1453:	
  2771                           opt subtitle "HI-TECH Software Omniscient Code Generator (Lite mode) build 49521"
  2772  04BD  3001               	movlw	(01h)
  2773  04BE  1283               	bcf	status, 5	;RP0=0, select bank0
  2774  04BF  1303               	bcf	status, 6	;RP1=0, select bank0
  2775  04C0  00B8               	movwf	(??_USARTWritestring+0)+0
  2776  04C1  0838               	movf	(??_USARTWritestring+0)+0,w
  2777  04C2  07B9               	addwf	(USARTWritestring@str),f
  2778  04C3  2CC4               	goto	l1455
  2779                           opt subtitle "HI-TECH Software Omniscient Code Generator (Lite mode) build 49521"
  2780                           
  2781  04C4                     l187:	
  2782                           opt subtitle "HI-TECH Software Omniscient Code Generator (Lite mode) build 49521"
  2783                           
  2784  04C4                     l1455:	
  2785  04C4  0839               	movf	(USARTWritestring@str),w
  2786  04C5  0084               	movwf	fsr0
  2787  04C6  2413               	fcall	stringdir
  2788  04C7  3800               	iorlw	0
  2789  04C8  1D03               	skipz
  2790  04C9  2CCB               	goto	u941
  2791  04CA  2CCC               	goto	u940
  2792  04CB                     u941:
  2793  04CB  2CB9               	goto	l1451
  2794  04CC                     u940:
  2795  04CC  2CCD               	goto	l190
  2796                           opt subtitle "HI-TECH Software Omniscient Code Generator (Lite mode) build 49521"
  2797  04CD                     l189:	
  2798                           opt subtitle "HI-TECH Software Omniscient Code Generator (Lite mode) build 49521"
  2799                           
  2800  04CD                     l190:	
  2801  04CD  0008               	return
  2802                           opt subtitle "HI-TECH Software Omniscient Code Generator (Lite mode) build 49521"
  2803                           
  2804  04CE                     	__end_of_USARTWritestring:
  2805                           opt subtitle "HI-TECH Software Omniscient Code Generator (Lite mode) build 49521"
  2806                           
  2807                           opt pagewidth 120
  2808                           
  2809                           	opt lm
  2810                           
  2811                           	processor	16F870
  2812                           clrc	macro
  2813                           	bcf	3,0
  2814                           	endm
  2815                           clrz	macro
  2816                           	bcf	3,2
  2817                           	endm
  2818                           setc	macro
  2819                           	bsf	3,0
  2820                           	endm
  2821                           setz	macro
  2822                           	bsf	3,2
  2823                           	endm
  2824                           skipc	macro
  2825                           	btfss	3,0
  2826                           	endm
  2827                           skipz	macro
  2828                           	btfss	3,2
  2829                           	endm
  2830                           skipnc	macro
  2831                           	btfsc	3,0
  2832                           	endm
  2833                           skipnz	macro
  2834                           	btfsc	3,2
  2835                           	endm
  2836                           indf	equ	0
  2837                           indf0	equ	0
  2838                           pc	equ	2
  2839                           pcl	equ	2
  2840  04E4                     __ptext259:	;psect for function _USARTWriteChar
  2841                           opt subtitle "HI-TECH Software Omniscient Code Generator (Lite mode) build 49521"
  2842                           
  2843                           opt pagewidth 120
  2844                           
  2845  000C                     	__size_of_USARTWriteChar	equ	__end_of_USARTWriteChar-_USARTWriteChar
  2846                           opt subtitle "HI-TECH Software Omniscient Code Generator (Lite mode) build 49521"
  2847  04E4                     _USARTWriteChar:	
  2848                           opt subtitle "HI-TECH Software Omniscient Code Generator (Lite mode) build 49521"
  2849                           
  2850                           opt pagewidth 120
  2851  04E4  1283               	bcf	status, 5	;RP0=0, select bank0
  2852  04E5  1303               	bcf	status, 6	;RP1=0, select bank0
  2853  04E6  00B7               	movwf	(USARTWriteChar@ch)
  2854                           opt subtitle "HI-TECH Software Omniscient Code Generator (Lite mode) build 49521"
  2855                           
  2856  04E7                     l1471:	
  2857                           opt subtitle "HI-TECH Software Omniscient Code Generator (Lite mode) build 49521"
  2858  04E7  2CE8               	goto	l175
  2859                           opt subtitle "HI-TECH Software Omniscient Code Generator (Lite mode) build 49521"
  2860  04E8                     l176:	
  2861                           opt subtitle "HI-TECH Software Omniscient Code Generator (Lite mode) build 49521"
  2862  04E8                     l175:	
  2863  04E8  1E0C               	btfss	(12),4	;volatile
  2864  04E9  2CEB               	goto	u971
  2865  04EA  2CEC               	goto	u970
  2866  04EB                     u971:
  2867  04EB  2CE8               	goto	l175
  2868  04EC                     u970:
  2869  04EC  2CED               	goto	l1473
  2870                           opt subtitle "HI-TECH Software Omniscient Code Generator (Lite mode) build 49521"
  2871  04ED                     l177:	
  2872                           opt subtitle "HI-TECH Software Omniscient Code Generator (Lite mode) build 49521"
  2873                           
  2874  04ED                     l1473:	
  2875                           opt subtitle "HI-TECH Software Omniscient Code Generator (Lite mode) build 49521"
  2876  04ED  0837               	movf	(USARTWriteChar@ch),w
  2877  04EE  0099               	movwf	(25)	;volatile
  2878                           opt subtitle "HI-TECH Software Omniscient Code Generator (Lite mode) build 49521"
  2879                           
  2880  04EF                     l178:	
  2881  04EF  0008               	return
  2882                           opt subtitle "HI-TECH Software Omniscient Code Generator (Lite mode) build 49521"
  2883                           
  2884  04F0                     	__end_of_USARTWriteChar:
  2885                           opt subtitle "HI-TECH Software Omniscient Code Generator (Lite mode) build 49521"
  2886                           
  2887                           opt pagewidth 120
  2888                           
  2889                           	opt lm
  2890                           
  2891                           	processor	16F870
  2892                           clrc	macro
  2893                           	bcf	3,0
  2894                           	endm
  2895                           clrz	macro
  2896                           	bcf	3,2
  2897                           	endm
  2898                           setc	macro
  2899                           	bsf	3,0
  2900                           	endm
  2901                           setz	macro
  2902                           	bsf	3,2
  2903                           	endm
  2904                           skipc	macro
  2905                           	btfss	3,0
  2906                           	endm
  2907                           skipz	macro
  2908                           	btfss	3,2
  2909                           	endm
  2910                           skipnc	macro
  2911                           	btfsc	3,0
  2912                           	endm
  2913                           skipnz	macro
  2914                           	btfsc	3,2
  2915                           	endm
  2916                           indf	equ	0
  2917                           indf0	equ	0
  2918                           pc	equ	2
  2919  0499                     __ptext260:	;psect for function _ISR
  2920                           opt subtitle "HI-TECH Software Omniscient Code Generator (Lite mode) build 49521"
  2921                           
  2922                           opt pagewidth 120
  2923                           
  2924  001C                     	__size_of_ISR	equ	__end_of_ISR-_ISR
  2925                           opt subtitle "HI-TECH Software Omniscient Code Generator (Lite mode) build 49521"
  2926  0499                     _ISR:	
  2927                           opt subtitle "HI-TECH Software Omniscient Code Generator (Lite mode) build 49521"
  2928                           
  2929                           opt pagewidth 120
  2930                           
  2931  0004                     __pintentry:
  2932                           opt subtitle "HI-TECH Software Omniscient Code Generator (Lite mode) build 49521"
  2933  0004                     interrupt_function:
  2934                           opt subtitle "HI-TECH Software Omniscient Code Generator (Lite mode) build 49521"
  2935  007E                     	saved_w	set	btemp+0
  2936  0004  00FE               	movwf	saved_w
  2937  0005  0E03               	swapf	status,w
  2938  0006  00F8               	movwf	(??_ISR+0)
  2939  0007  0804               	movf	fsr0,w
  2940  0008  00F9               	movwf	(??_ISR+1)
  2941  0009  080A               	movf	pclath,w
  2942  000A  00FA               	movwf	(??_ISR+2)
  2943  000B  1283               	bcf	status, 5	;RP0=0, select bank0
  2944  000C  1303               	bcf	status, 6	;RP1=0, select bank0
  2945  000D  087F               	movf	btemp+1,w
  2946  000E  00FB               	movwf	(??_ISR+3)
  2947  000F  2C99               	ljmp	_ISR
  2948                           opt subtitle "HI-TECH Software Omniscient Code Generator (Lite mode) build 49521"
  2949                           
  2950                           opt pagewidth 120
  2951  0499                     i1l1593:	
  2952                           opt subtitle "HI-TECH Software Omniscient Code Generator (Lite mode) build 49521"
  2953  0499  1683               	bsf	status, 5	;RP0=1, select bank1
  2954  049A  1303               	bcf	status, 6	;RP1=0, select bank1
  2955  049B  1E8C               	btfss	(1125/8)^080h,(1125)&7	;volatile
  2956  049C  2C9E               	goto	u119_21
  2957  049D  2C9F               	goto	u119_20
  2958  049E                     u119_21:
  2959  049E  2CA8               	goto	i1l142
  2960  049F                     u119_20:
  2961                           opt subtitle "HI-TECH Software Omniscient Code Generator (Lite mode) build 49521"
  2962  049F                     i1l1595:	
  2963  049F  1283               	bcf	status, 5	;RP0=0, select bank0
  2964  04A0  1303               	bcf	status, 6	;RP1=0, select bank0
  2965  04A1  1E8C               	btfss	(101/8),(101)&7	;volatile
  2966  04A2  2CA4               	goto	u120_21
  2967  04A3  2CA5               	goto	u120_20
  2968  04A4                     u120_21:
  2969  04A4  2CA8               	goto	i1l142
  2970  04A5                     u120_20:
  2971                           opt subtitle "HI-TECH Software Omniscient Code Generator (Lite mode) build 49521"
  2972                           
  2973  04A5                     i1l1597:	
  2974                           opt subtitle "HI-TECH Software Omniscient Code Generator (Lite mode) build 49521"
  2975  04A5  2268               	fcall	_USARTHandleRxInt
  2976  04A6  2CA8               	goto	i1l142
  2977                           opt subtitle "HI-TECH Software Omniscient Code Generator (Lite mode) build 49521"
  2978                           
  2979  04A7                     i1l1599:	
  2980                           opt subtitle "HI-TECH Software Omniscient Code Generator (Lite mode) build 49521"
  2981  04A7  2CA8               	goto	i1l142
  2982                           opt subtitle "HI-TECH Software Omniscient Code Generator (Lite mode) build 49521"
  2983                           
  2984  04A8                     i1l141:	
  2985                           opt subtitle "HI-TECH Software Omniscient Code Generator (Lite mode) build 49521"
  2986                           
  2987  04A8                     i1l142:	
  2988  04A8  087B               	movf	(??_ISR+3),w
  2989  04A9  1283               	bcf	status, 5	;RP0=0, select bank0
  2990  04AA  1303               	bcf	status, 6	;RP1=0, select bank0
  2991  04AB  00FF               	movwf	btemp+1
  2992  04AC  087A               	movf	(??_ISR+2),w
  2993  04AD  008A               	movwf	pclath
  2994  04AE  0879               	movf	(??_ISR+1),w
  2995  04AF  0084               	movwf	fsr0
  2996  04B0  0E78               	swapf	(??_ISR+0)^0FFFFFF80h,w
  2997  04B1  0083               	movwf	status
  2998  04B2  0EFE               	swapf	saved_w,f
  2999  04B3  0E7E               	swapf	saved_w,w
  3000  04B4  0009               	retfie
  3001                           opt subtitle "HI-TECH Software Omniscient Code Generator (Lite mode) build 49521"
  3002                           
  3003  04B5                     	__end_of_ISR:
  3004                           opt subtitle "HI-TECH Software Omniscient Code Generator (Lite mode) build 49521"
  3005                           
  3006                           opt pagewidth 120
  3007                           
  3008                           	opt lm
  3009                           
  3010                           	processor	16F870
  3011                           clrc	macro
  3012                           	bcf	3,0
  3013                           	endm
  3014                           clrz	macro
  3015                           	bcf	3,2
  3016                           	endm
  3017                           setc	macro
  3018                           	bsf	3,0
  3019                           	endm
  3020                           setz	macro
  3021                           	bsf	3,2
  3022                           	endm
  3023                           skipc	macro
  3024                           	btfss	3,0
  3025                           	endm
  3026                           skipz	macro
  3027                           	btfss	3,2
  3028                           	endm
  3029                           skipnc	macro
  3030                           	btfsc	3,0
  3031                           	endm
  3032                           skipnz	macro
  3033                           	btfsc	3,2
  3034                           	endm
  3035                           indf	equ	0
  3036                           indf0	equ	0
  3037                           pc	equ	2
  3038  0268                     __ptext261:	;psect for function _USARTHandleRxInt
  3039                           opt subtitle "HI-TECH Software Omniscient Code Generator (Lite mode) build 49521"
  3040                           
  3041                           opt pagewidth 120
  3042                           
  3043  0127                     	__size_of_USARTHandleRxInt	equ	__end_of_USARTHandleRxInt-_USARTHandleRxInt
  3044                           opt subtitle "HI-TECH Software Omniscient Code Generator (Lite mode) build 49521"
  3045  0268                     _USARTHandleRxInt:	
  3046                           opt subtitle "HI-TECH Software Omniscient Code Generator (Lite mode) build 49521"
  3047                           
  3048                           opt pagewidth 120
  3049                           
  3050  0268                     i1l1475:	
  3051                           opt subtitle "HI-TECH Software Omniscient Code Generator (Lite mode) build 49521"
  3052  0268  1283               	bcf	status, 5	;RP0=0, select bank0
  3053  0269  1303               	bcf	status, 6	;RP1=0, select bank0
  3054  026A  081A               	movf	(26),w	;volatile
  3055  026B  00F6               	movwf	(??_USARTHandleRxInt+0)+0
  3056  026C  0876               	movf	(??_USARTHandleRxInt+0)+0,w
  3057  026D  00F7               	movwf	(USARTHandleRxInt@data)
  3058                           opt subtitle "HI-TECH Software Omniscient Code Generator (Lite mode) build 49521"
  3059                           
  3060  026E                     i1l1477:	
  3061                           opt subtitle "HI-TECH Software Omniscient Code Generator (Lite mode) build 49521"
  3062  026E  1786               	bsf	(55/8),(55)&7	;volatile
  3063                           opt subtitle "HI-TECH Software Omniscient Code Generator (Lite mode) build 49521"
  3064                           
  3065  026F                     i1l1479:	
  3066                           opt subtitle "HI-TECH Software Omniscient Code Generator (Lite mode) build 49521"
  3067  026F  08A1               	movf	(_CLIP_FLAG),f
  3068  0270  1D03               	skipz
  3069  0271  2A73               	goto	u98_21
  3070  0272  2A74               	goto	u98_20
  3071  0273                     u98_21:
  3072  0273  2AD8               	goto	i1l1519
  3073  0274                     u98_20:
  3074                           opt subtitle "HI-TECH Software Omniscient Code Generator (Lite mode) build 49521"
  3075                           
  3076  0274                     i1l1481:	
  3077                           opt subtitle "HI-TECH Software Omniscient Code Generator (Lite mode) build 49521"
  3078                           
  3079  0274  08FC               	movf	(_PLUSE_FLAG),f
  3080  0275  1D03               	skipz
  3081  0276  2A78               	goto	u99_21
  3082  0277  2A79               	goto	u99_20
  3083  0278                     u99_21:
  3084  0278  2A93               	goto	i1l1497
  3085  0279                     u99_20:
  3086                           opt subtitle "HI-TECH Software Omniscient Code Generator (Lite mode) build 49521"
  3087                           
  3088  0279                     i1l1483:	
  3089                           opt subtitle "HI-TECH Software Omniscient Code Generator (Lite mode) build 49521"
  3090                           
  3091  0279  0877               	movf	(USARTHandleRxInt@data),w
  3092  027A  3A2B               	xorlw	02Bh
  3093  027B  1D03               	skipz
  3094  027C  2A7E               	goto	u100_21
  3095  027D  2A7F               	goto	u100_20
  3096  027E                     u100_21:
  3097  027E  2B8E               	goto	i1l148
  3098  027F                     u100_20:
  3099                           opt subtitle "HI-TECH Software Omniscient Code Generator (Lite mode) build 49521"
  3100                           
  3101  027F                     i1l1485:	
  3102                           opt subtitle "HI-TECH Software Omniscient Code Generator (Lite mode) build 49521"
  3103                           
  3104  027F  01FC               	clrf	(_PLUSE_FLAG)
  3105  0280  0AFC               	incf	(_PLUSE_FLAG),f
  3106                           opt subtitle "HI-TECH Software Omniscient Code Generator (Lite mode) build 49521"
  3107                           
  3108  0281                     i1l1487:	
  3109                           opt subtitle "HI-TECH Software Omniscient Code Generator (Lite mode) build 49521"
  3110  0281  0877               	movf	(USARTHandleRxInt@data),w
  3111  0282  00F6               	movwf	(??_USARTHandleRxInt+0)+0
  3112  0283  087D               	movf	(_index),w
  3113  0284  3E28               	addlw	_buffer&0ffh
  3114  0285  0084               	movwf	fsr0
  3115  0286  0876               	movf	(??_USARTHandleRxInt+0)+0,w
  3116  0287  1383               	bcf	status, 7	;select IRP bank0
  3117  0288  0080               	movwf	indf
  3118                           opt subtitle "HI-TECH Software Omniscient Code Generator (Lite mode) build 49521"
  3119                           
  3120  0289                     i1l1489:	
  3121                           opt subtitle "HI-TECH Software Omniscient Code Generator (Lite mode) build 49521"
  3122  0289  3001               	movlw	(01h)
  3123  028A  00F6               	movwf	(??_USARTHandleRxInt+0)+0
  3124  028B  0876               	movf	(??_USARTHandleRxInt+0)+0,w
  3125  028C  07FD               	addwf	(_index),f
  3126                           opt subtitle "HI-TECH Software Omniscient Code Generator (Lite mode) build 49521"
  3127                           
  3128  028D                     i1l1491:	
  3129                           opt subtitle "HI-TECH Software Omniscient Code Generator (Lite mode) build 49521"
  3130  028D  1587               	bsf	(59/8),(59)&7	;volatile
  3131  028E  2B8E               	goto	i1l148
  3132                           opt subtitle "HI-TECH Software Omniscient Code Generator (Lite mode) build 49521"
  3133                           
  3134  028F                     i1l1493:	
  3135                           opt subtitle "HI-TECH Software Omniscient Code Generator (Lite mode) build 49521"
  3136  028F  2B8E               	goto	i1l148
  3137                           opt subtitle "HI-TECH Software Omniscient Code Generator (Lite mode) build 49521"
  3138                           
  3139  0290                     i1l1495:	
  3140                           opt subtitle "HI-TECH Software Omniscient Code Generator (Lite mode) build 49521"
  3141  0290  2A93               	goto	i1l1497
  3142                           opt subtitle "HI-TECH Software Omniscient Code Generator (Lite mode) build 49521"
  3143                           
  3144  0291                     i1l147:	
  3145                           opt subtitle "HI-TECH Software Omniscient Code Generator (Lite mode) build 49521"
  3146                           
  3147                           opt pagewidth 120
  3148                           
  3149  0291  2B8E               	goto	i1l148
  3150                           opt subtitle "HI-TECH Software Omniscient Code Generator (Lite mode) build 49521"
  3151                           
  3152  0292                     i1l149:	
  3153  0292  2A93               	goto	i1l1497
  3154                           opt subtitle "HI-TECH Software Omniscient Code Generator (Lite mode) build 49521"
  3155                           
  3156  0293                     i1l146:	
  3157                           opt subtitle "HI-TECH Software Omniscient Code Generator (Lite mode) build 49521"
  3158                           
  3159  0293                     i1l1497:	
  3160                           opt subtitle "HI-TECH Software Omniscient Code Generator (Lite mode) build 49521"
  3161                           
  3162                           opt pagewidth 120
  3163  0293  087C               	movf	(_PLUSE_FLAG),w
  3164  0294  3A01               	xorlw	01h
  3165  0295  1D03               	skipz
  3166  0296  2A98               	goto	u101_21
  3167  0297  2A99               	goto	u101_20
  3168  0298                     u101_21:
  3169  0298  2AD8               	goto	i1l1519
  3170  0299                     u101_20:
  3171                           opt subtitle "HI-TECH Software Omniscient Code Generator (Lite mode) build 49521"
  3172                           
  3173  0299                     i1l1499:	
  3174                           opt subtitle "HI-TECH Software Omniscient Code Generator (Lite mode) build 49521"
  3175                           
  3176  0299  087D               	movf	(_index),w
  3177  029A  3A04               	xorlw	04h
  3178  029B  1D03               	skipz
  3179  029C  2A9E               	goto	u102_21
  3180  029D  2A9F               	goto	u102_20
  3181  029E                     u102_21:
  3182  029E  2AC8               	goto	i1l1513
  3183  029F                     u102_20:
  3184                           opt subtitle "HI-TECH Software Omniscient Code Generator (Lite mode) build 49521"
  3185                           
  3186  029F                     i1l1501:	
  3187                           opt subtitle "HI-TECH Software Omniscient Code Generator (Lite mode) build 49521"
  3188                           
  3189  029F  0877               	movf	(USARTHandleRxInt@data),w
  3190  02A0  00F6               	movwf	(??_USARTHandleRxInt+0)+0
  3191  02A1  087D               	movf	(_index),w
  3192  02A2  3E28               	addlw	_buffer&0ffh
  3193  02A3  0084               	movwf	fsr0
  3194  02A4  0876               	movf	(??_USARTHandleRxInt+0)+0,w
  3195  02A5  1383               	bcf	status, 7	;select IRP bank0
  3196  02A6  0080               	movwf	indf
  3197                           opt subtitle "HI-TECH Software Omniscient Code Generator (Lite mode) build 49521"
  3198                           
  3199  02A7                     i1l1503:	
  3200                           opt subtitle "HI-TECH Software Omniscient Code Generator (Lite mode) build 49521"
  3201  02A7  3001               	movlw	(01h)
  3202  02A8  00F6               	movwf	(??_USARTHandleRxInt+0)+0
  3203  02A9  0876               	movf	(??_USARTHandleRxInt+0)+0,w
  3204  02AA  07FD               	addwf	(_index),f
  3205                           opt subtitle "HI-TECH Software Omniscient Code Generator (Lite mode) build 49521"
  3206                           
  3207  02AB                     i1l1505:	
  3208                           opt subtitle "HI-TECH Software Omniscient Code Generator (Lite mode) build 49521"
  3209  02AB  087D               	movf	(_index),w
  3210  02AC  3E28               	addlw	_buffer&0ffh
  3211  02AD  0084               	movwf	fsr0
  3212  02AE  0180               	clrf	indf
  3213                           opt subtitle "HI-TECH Software Omniscient Code Generator (Lite mode) build 49521"
  3214                           
  3215  02AF                     i1l1507:	
  3216                           opt subtitle "HI-TECH Software Omniscient Code Generator (Lite mode) build 49521"
  3217  02AF  300B               	movlw	((STR_9-__stringbase))&0ffh
  3218  02B0  00F6               	movwf	(??_USARTHandleRxInt+0)+0
  3219  02B1  0876               	movf	(??_USARTHandleRxInt+0)+0,w
  3220  02B2  00F0               	movwf	(?_strcmp)
  3221  02B3  3028               	movlw	(_buffer)&0ffh
  3222  02B4  23DB               	fcall	_strcmp
  3223  02B5  0871               	movf	((1+(?_strcmp))),w
  3224  02B6  0470               	iorwf	((0+(?_strcmp))),w
  3225  02B7  1D03               	skipz
  3226  02B8  2ABA               	goto	u103_21
  3227  02B9  2ABB               	goto	u103_20
  3228  02BA                     u103_21:
  3229  02BA  2AC4               	goto	i1l152
  3230  02BB                     u103_20:
  3231                           opt subtitle "HI-TECH Software Omniscient Code Generator (Lite mode) build 49521"
  3232                           
  3233  02BB                     i1l1509:	
  3234                           opt subtitle "HI-TECH Software Omniscient Code Generator (Lite mode) build 49521"
  3235                           
  3236  02BB  1283               	bcf	status, 5	;RP0=0, select bank0
  3237  02BC  1303               	bcf	status, 6	;RP1=0, select bank0
  3238  02BD  01A1               	clrf	(_CLIP_FLAG)
  3239  02BE  0AA1               	incf	(_CLIP_FLAG),f
  3240                           opt subtitle "HI-TECH Software Omniscient Code Generator (Lite mode) build 49521"
  3241                           
  3242  02BF  1607               	bsf	(60/8),(60)&7	;volatile
  3243                           opt subtitle "HI-TECH Software Omniscient Code Generator (Lite mode) build 49521"
  3244                           
  3245  02C0  01FC               	clrf	(_PLUSE_FLAG)
  3246                           opt subtitle "HI-TECH Software Omniscient Code Generator (Lite mode) build 49521"
  3247                           
  3248  02C1  01FD               	clrf	(_index)
  3249                           opt subtitle "HI-TECH Software Omniscient Code Generator (Lite mode) build 49521"
  3250                           
  3251  02C2  2B8E               	goto	i1l148
  3252                           opt subtitle "HI-TECH Software Omniscient Code Generator (Lite mode) build 49521"
  3253                           
  3254  02C3                     i1l1511:	
  3255                           opt subtitle "HI-TECH Software Omniscient Code Generator (Lite mode) build 49521"
  3256  02C3  2AD8               	goto	i1l1519
  3257                           opt subtitle "HI-TECH Software Omniscient Code Generator (Lite mode) build 49521"
  3258                           
  3259  02C4                     i1l152:	
  3260                           opt subtitle "HI-TECH Software Omniscient Code Generator (Lite mode) build 49521"
  3261                           
  3262                           opt pagewidth 120
  3263                           
  3264  02C4  01FC               	clrf	(_PLUSE_FLAG)
  3265                           opt subtitle "HI-TECH Software Omniscient Code Generator (Lite mode) build 49521"
  3266                           
  3267  02C5  01FD               	clrf	(_index)
  3268                           opt subtitle "HI-TECH Software Omniscient Code Generator (Lite mode) build 49521"
  3269                           
  3270  02C6  2B8E               	goto	i1l148
  3271                           opt subtitle "HI-TECH Software Omniscient Code Generator (Lite mode) build 49521"
  3272                           
  3273  02C7                     i1l153:	
  3274                           opt subtitle "HI-TECH Software Omniscient Code Generator (Lite mode) build 49521"
  3275                           
  3276                           opt pagewidth 120
  3277  02C7  2AD8               	goto	i1l1519
  3278                           opt subtitle "HI-TECH Software Omniscient Code Generator (Lite mode) build 49521"
  3279                           
  3280  02C8                     i1l151:	
  3281                           opt subtitle "HI-TECH Software Omniscient Code Generator (Lite mode) build 49521"
  3282                           
  3283  02C8                     i1l1513:	
  3284                           opt subtitle "HI-TECH Software Omniscient Code Generator (Lite mode) build 49521"
  3285                           
  3286                           opt pagewidth 120
  3287  02C8  0877               	movf	(USARTHandleRxInt@data),w
  3288  02C9  00F6               	movwf	(??_USARTHandleRxInt+0)+0
  3289  02CA  087D               	movf	(_index),w
  3290  02CB  3E28               	addlw	_buffer&0ffh
  3291  02CC  0084               	movwf	fsr0
  3292  02CD  0876               	movf	(??_USARTHandleRxInt+0)+0,w
  3293  02CE  1383               	bcf	status, 7	;select IRP bank0
  3294  02CF  0080               	movwf	indf
  3295                           opt subtitle "HI-TECH Software Omniscient Code Generator (Lite mode) build 49521"
  3296                           
  3297  02D0                     i1l1515:	
  3298                           opt subtitle "HI-TECH Software Omniscient Code Generator (Lite mode) build 49521"
  3299  02D0  3001               	movlw	(01h)
  3300  02D1  00F6               	movwf	(??_USARTHandleRxInt+0)+0
  3301  02D2  0876               	movf	(??_USARTHandleRxInt+0)+0,w
  3302  02D3  07FD               	addwf	(_index),f
  3303  02D4  2B8E               	goto	i1l148
  3304                           opt subtitle "HI-TECH Software Omniscient Code Generator (Lite mode) build 49521"
  3305                           
  3306  02D5                     i1l1517:	
  3307                           opt subtitle "HI-TECH Software Omniscient Code Generator (Lite mode) build 49521"
  3308  02D5  2B8E               	goto	i1l148
  3309                           opt subtitle "HI-TECH Software Omniscient Code Generator (Lite mode) build 49521"
  3310                           
  3311  02D6                     i1l154:	
  3312  02D6  2AD8               	goto	i1l1519
  3313                           opt subtitle "HI-TECH Software Omniscient Code Generator (Lite mode) build 49521"
  3314                           
  3315  02D7                     i1l150:	
  3316  02D7  2AD8               	goto	i1l1519
  3317                           opt subtitle "HI-TECH Software Omniscient Code Generator (Lite mode) build 49521"
  3318                           
  3319  02D8                     i1l145:	
  3320                           opt subtitle "HI-TECH Software Omniscient Code Generator (Lite mode) build 49521"
  3321                           
  3322  02D8                     i1l1519:	
  3323                           opt subtitle "HI-TECH Software Omniscient Code Generator (Lite mode) build 49521"
  3324                           
  3325                           opt pagewidth 120
  3326                           
  3327  02D8  1283               	bcf	status, 5	;RP0=0, select bank0
  3328  02D9  1303               	bcf	status, 6	;RP1=0, select bank0
  3329  02DA  0821               	movf	(_CLIP_FLAG),w
  3330  02DB  3A01               	xorlw	01h
  3331  02DC  1D03               	skipz
  3332  02DD  2ADF               	goto	u104_21
  3333  02DE  2AE0               	goto	u104_20
  3334  02DF                     u104_21:
  3335  02DF  2B31               	goto	i1l1559
  3336  02E0                     u104_20:
  3337                           opt subtitle "HI-TECH Software Omniscient Code Generator (Lite mode) build 49521"
  3338  02E0                     i1l1521:	
  3339  02E0  08A5               	movf	(_NUMBER_FLAG),f
  3340  02E1  1D03               	skipz
  3341  02E2  2AE4               	goto	u105_21
  3342  02E3  2AE5               	goto	u105_20
  3343  02E4                     u105_21:
  3344  02E4  2B31               	goto	i1l1559
  3345  02E5                     u105_20:
  3346                           opt subtitle "HI-TECH Software Omniscient Code Generator (Lite mode) build 49521"
  3347                           
  3348  02E5                     i1l1523:	
  3349                           opt subtitle "HI-TECH Software Omniscient Code Generator (Lite mode) build 49521"
  3350                           
  3351  02E5  08FC               	movf	(_PLUSE_FLAG),f
  3352  02E6  1D03               	skipz
  3353  02E7  2AE9               	goto	u106_21
  3354  02E8  2AEA               	goto	u106_20
  3355  02E9                     u106_21:
  3356  02E9  2B09               	goto	i1l1537
  3357  02EA                     u106_20:
  3358                           opt subtitle "HI-TECH Software Omniscient Code Generator (Lite mode) build 49521"
  3359                           
  3360  02EA                     i1l1525:	
  3361                           opt subtitle "HI-TECH Software Omniscient Code Generator (Lite mode) build 49521"
  3362                           
  3363  02EA  0877               	movf	(USARTHandleRxInt@data),w
  3364  02EB  3A2B               	xorlw	02Bh
  3365  02EC  1903               	skipnz
  3366  02ED  2AEF               	goto	u107_21
  3367  02EE  2AF0               	goto	u107_20
  3368  02EF                     u107_21:
  3369  02EF  2AF6               	goto	i1l159
  3370  02F0                     u107_20:
  3371                           opt subtitle "HI-TECH Software Omniscient Code Generator (Lite mode) build 49521"
  3372  02F0                     i1l1527:	
  3373  02F0  0877               	movf	(USARTHandleRxInt@data),w
  3374  02F1  3A30               	xorlw	030h
  3375  02F2  1D03               	skipz
  3376  02F3  2AF5               	goto	u108_21
  3377  02F4  2AF6               	goto	u108_20
  3378  02F5                     u108_21:
  3379  02F5  2B8E               	goto	i1l148
  3380  02F6                     u108_20:
  3381                           opt subtitle "HI-TECH Software Omniscient Code Generator (Lite mode) build 49521"
  3382  02F6                     i1l159:	
  3383                           opt subtitle "HI-TECH Software Omniscient Code Generator (Lite mode) build 49521"
  3384                           
  3385                           opt pagewidth 120
  3386  02F6  01FC               	clrf	(_PLUSE_FLAG)
  3387  02F7  0AFC               	incf	(_PLUSE_FLAG),f
  3388                           opt subtitle "HI-TECH Software Omniscient Code Generator (Lite mode) build 49521"
  3389                           
  3390  02F8                     i1l1529:	
  3391                           opt subtitle "HI-TECH Software Omniscient Code Generator (Lite mode) build 49521"
  3392  02F8  0877               	movf	(USARTHandleRxInt@data),w
  3393  02F9  00F6               	movwf	(??_USARTHandleRxInt+0)+0
  3394  02FA  087D               	movf	(_index),w
  3395  02FB  3E28               	addlw	_buffer&0ffh
  3396  02FC  0084               	movwf	fsr0
  3397  02FD  0876               	movf	(??_USARTHandleRxInt+0)+0,w
  3398  02FE  1383               	bcf	status, 7	;select IRP bank0
  3399  02FF  0080               	movwf	indf
  3400                           opt subtitle "HI-TECH Software Omniscient Code Generator (Lite mode) build 49521"
  3401                           
  3402  0300                     i1l1531:	
  3403                           opt subtitle "HI-TECH Software Omniscient Code Generator (Lite mode) build 49521"
  3404  0300  3001               	movlw	(01h)
  3405  0301  00F6               	movwf	(??_USARTHandleRxInt+0)+0
  3406  0302  0876               	movf	(??_USARTHandleRxInt+0)+0,w
  3407  0303  07FD               	addwf	(_index),f
  3408  0304  2B8E               	goto	i1l148
  3409                           opt subtitle "HI-TECH Software Omniscient Code Generator (Lite mode) build 49521"
  3410                           
  3411  0305                     i1l1533:	
  3412                           opt subtitle "HI-TECH Software Omniscient Code Generator (Lite mode) build 49521"
  3413  0305  2B8E               	goto	i1l148
  3414                           opt subtitle "HI-TECH Software Omniscient Code Generator (Lite mode) build 49521"
  3415                           
  3416  0306                     i1l1535:	
  3417                           opt subtitle "HI-TECH Software Omniscient Code Generator (Lite mode) build 49521"
  3418  0306  2B09               	goto	i1l1537
  3419                           opt subtitle "HI-TECH Software Omniscient Code Generator (Lite mode) build 49521"
  3420                           
  3421  0307                     i1l157:	
  3422                           opt subtitle "HI-TECH Software Omniscient Code Generator (Lite mode) build 49521"
  3423                           
  3424                           opt pagewidth 120
  3425                           
  3426  0307  2B8E               	goto	i1l148
  3427                           opt subtitle "HI-TECH Software Omniscient Code Generator (Lite mode) build 49521"
  3428                           
  3429  0308                     i1l160:	
  3430  0308  2B09               	goto	i1l1537
  3431                           opt subtitle "HI-TECH Software Omniscient Code Generator (Lite mode) build 49521"
  3432                           
  3433  0309                     i1l156:	
  3434                           opt subtitle "HI-TECH Software Omniscient Code Generator (Lite mode) build 49521"
  3435                           
  3436  0309                     i1l1537:	
  3437                           opt subtitle "HI-TECH Software Omniscient Code Generator (Lite mode) build 49521"
  3438                           
  3439                           opt pagewidth 120
  3440  0309  087C               	movf	(_PLUSE_FLAG),w
  3441  030A  3A01               	xorlw	01h
  3442  030B  1D03               	skipz
  3443  030C  2B0E               	goto	u109_21
  3444  030D  2B0F               	goto	u109_20
  3445  030E                     u109_21:
  3446  030E  2B31               	goto	i1l1559
  3447  030F                     u109_20:
  3448                           opt subtitle "HI-TECH Software Omniscient Code Generator (Lite mode) build 49521"
  3449                           
  3450  030F                     i1l1539:	
  3451                           opt subtitle "HI-TECH Software Omniscient Code Generator (Lite mode) build 49521"
  3452                           
  3453  030F  0877               	movf	(USARTHandleRxInt@data),w
  3454  0310  3A22               	xorlw	022h
  3455  0311  1D03               	skipz
  3456  0312  2B14               	goto	u110_21
  3457  0313  2B15               	goto	u110_20
  3458  0314                     u110_21:
  3459  0314  2B21               	goto	i1l1553
  3460  0315                     u110_20:
  3461                           opt subtitle "HI-TECH Software Omniscient Code Generator (Lite mode) build 49521"
  3462                           
  3463  0315                     i1l1541:	
  3464                           opt subtitle "HI-TECH Software Omniscient Code Generator (Lite mode) build 49521"
  3465                           
  3466  0315  087D               	movf	(_index),w
  3467  0316  3E28               	addlw	_buffer&0ffh
  3468  0317  0084               	movwf	fsr0
  3469  0318  1383               	bcf	status, 7	;select IRP bank0
  3470  0319  0180               	clrf	indf
  3471                           opt subtitle "HI-TECH Software Omniscient Code Generator (Lite mode) build 49521"
  3472                           
  3473  031A                     i1l1543:	
  3474                           opt subtitle "HI-TECH Software Omniscient Code Generator (Lite mode) build 49521"
  3475  031A  01FC               	clrf	(_PLUSE_FLAG)
  3476                           opt subtitle "HI-TECH Software Omniscient Code Generator (Lite mode) build 49521"
  3477                           
  3478  031B                     i1l1545:	
  3479                           opt subtitle "HI-TECH Software Omniscient Code Generator (Lite mode) build 49521"
  3480  031B  01FD               	clrf	(_index)
  3481                           opt subtitle "HI-TECH Software Omniscient Code Generator (Lite mode) build 49521"
  3482                           
  3483  031C                     i1l1547:	
  3484                           opt subtitle "HI-TECH Software Omniscient Code Generator (Lite mode) build 49521"
  3485  031C  01A5               	clrf	(_NUMBER_FLAG)
  3486  031D  0AA5               	incf	(_NUMBER_FLAG),f
  3487  031E  2B8E               	goto	i1l148
  3488                           opt subtitle "HI-TECH Software Omniscient Code Generator (Lite mode) build 49521"
  3489                           
  3490  031F                     i1l1549:	
  3491                           opt subtitle "HI-TECH Software Omniscient Code Generator (Lite mode) build 49521"
  3492  031F  2B8E               	goto	i1l148
  3493                           opt subtitle "HI-TECH Software Omniscient Code Generator (Lite mode) build 49521"
  3494                           
  3495  0320                     i1l1551:	
  3496                           opt subtitle "HI-TECH Software Omniscient Code Generator (Lite mode) build 49521"
  3497  0320  2B31               	goto	i1l1559
  3498                           opt subtitle "HI-TECH Software Omniscient Code Generator (Lite mode) build 49521"
  3499                           
  3500  0321                     i1l162:	
  3501                           opt subtitle "HI-TECH Software Omniscient Code Generator (Lite mode) build 49521"
  3502                           
  3503  0321                     i1l1553:	
  3504                           opt subtitle "HI-TECH Software Omniscient Code Generator (Lite mode) build 49521"
  3505                           
  3506                           opt pagewidth 120
  3507  0321  0877               	movf	(USARTHandleRxInt@data),w
  3508  0322  00F6               	movwf	(??_USARTHandleRxInt+0)+0
  3509  0323  087D               	movf	(_index),w
  3510  0324  3E28               	addlw	_buffer&0ffh
  3511  0325  0084               	movwf	fsr0
  3512  0326  0876               	movf	(??_USARTHandleRxInt+0)+0,w
  3513  0327  1383               	bcf	status, 7	;select IRP bank0
  3514  0328  0080               	movwf	indf
  3515                           opt subtitle "HI-TECH Software Omniscient Code Generator (Lite mode) build 49521"
  3516                           
  3517  0329                     i1l1555:	
  3518                           opt subtitle "HI-TECH Software Omniscient Code Generator (Lite mode) build 49521"
  3519  0329  3001               	movlw	(01h)
  3520  032A  00F6               	movwf	(??_USARTHandleRxInt+0)+0
  3521  032B  0876               	movf	(??_USARTHandleRxInt+0)+0,w
  3522  032C  07FD               	addwf	(_index),f
  3523  032D  2B8E               	goto	i1l148
  3524                           opt subtitle "HI-TECH Software Omniscient Code Generator (Lite mode) build 49521"
  3525                           
  3526  032E                     i1l1557:	
  3527                           opt subtitle "HI-TECH Software Omniscient Code Generator (Lite mode) build 49521"
  3528  032E  2B8E               	goto	i1l148
  3529                           opt subtitle "HI-TECH Software Omniscient Code Generator (Lite mode) build 49521"
  3530                           
  3531  032F                     i1l163:	
  3532  032F  2B31               	goto	i1l1559
  3533                           opt subtitle "HI-TECH Software Omniscient Code Generator (Lite mode) build 49521"
  3534                           
  3535  0330                     i1l161:	
  3536  0330  2B31               	goto	i1l1559
  3537                           opt subtitle "HI-TECH Software Omniscient Code Generator (Lite mode) build 49521"
  3538                           
  3539  0331                     i1l155:	
  3540                           opt subtitle "HI-TECH Software Omniscient Code Generator (Lite mode) build 49521"
  3541                           
  3542  0331                     i1l1559:	
  3543                           opt subtitle "HI-TECH Software Omniscient Code Generator (Lite mode) build 49521"
  3544                           
  3545                           opt pagewidth 120
  3546                           
  3547  0331  0821               	movf	(_CLIP_FLAG),w
  3548  0332  3A01               	xorlw	01h
  3549  0333  1D03               	skipz
  3550  0334  2B36               	goto	u111_21
  3551  0335  2B37               	goto	u111_20
  3552  0336                     u111_21:
  3553  0336  2B8E               	goto	i1l148
  3554  0337                     u111_20:
  3555                           opt subtitle "HI-TECH Software Omniscient Code Generator (Lite mode) build 49521"
  3556  0337                     i1l1561:	
  3557  0337  0825               	movf	(_NUMBER_FLAG),w
  3558  0338  3A01               	xorlw	01h
  3559  0339  1D03               	skipz
  3560  033A  2B3C               	goto	u112_21
  3561  033B  2B3D               	goto	u112_20
  3562  033C                     u112_21:
  3563  033C  2B8E               	goto	i1l148
  3564  033D                     u112_20:
  3565                           opt subtitle "HI-TECH Software Omniscient Code Generator (Lite mode) build 49521"
  3566                           
  3567  033D                     i1l1563:	
  3568                           opt subtitle "HI-TECH Software Omniscient Code Generator (Lite mode) build 49521"
  3569                           
  3570  033D  0877               	movf	(USARTHandleRxInt@data),w
  3571  033E  3A41               	xorlw	041h
  3572  033F  1D03               	skipz
  3573  0340  2B42               	goto	u113_21
  3574  0341  2B43               	goto	u113_20
  3575  0342                     u113_21:
  3576  0342  2B82               	goto	i1l1589
  3577  0343                     u113_20:
  3578                           opt subtitle "HI-TECH Software Omniscient Code Generator (Lite mode) build 49521"
  3579                           
  3580  0343                     i1l1565:	
  3581                           opt subtitle "HI-TECH Software Omniscient Code Generator (Lite mode) build 49521"
  3582                           
  3583  0343  08A4               	movf	(_MOTOR_FLAG),f
  3584  0344  1D03               	skipz
  3585  0345  2B47               	goto	u114_21
  3586  0346  2B48               	goto	u114_20
  3587  0347                     u114_21:
  3588  0347  2B62               	goto	i1l1577
  3589  0348                     u114_20:
  3590                           opt subtitle "HI-TECH Software Omniscient Code Generator (Lite mode) build 49521"
  3591                           
  3592  0348                     i1l1567:	
  3593                           opt subtitle "HI-TECH Software Omniscient Code Generator (Lite mode) build 49521"
  3594                           
  3595  0348  3003               	movlw	(03h)
  3596  0349  0226               	subwf	(_RING_COUNT),w
  3597  034A  1803               	skipnc
  3598  034B  2B4D               	goto	u115_21
  3599  034C  2B4E               	goto	u115_20
  3600  034D                     u115_21:
  3601  034D  2B59               	goto	i1l167
  3602  034E                     u115_20:
  3603                           opt subtitle "HI-TECH Software Omniscient Code Generator (Lite mode) build 49521"
  3604                           
  3605  034E                     i1l1569:	
  3606                           opt subtitle "HI-TECH Software Omniscient Code Generator (Lite mode) build 49521"
  3607                           
  3608  034E  01A2               	clrf	(_CUT_FLAG)
  3609  034F  0AA2               	incf	(_CUT_FLAG),f
  3610                           opt subtitle "HI-TECH Software Omniscient Code Generator (Lite mode) build 49521"
  3611                           
  3612  0350  01A0               	clrf	(_CALL_FLAG)
  3613  0351  0AA0               	incf	(_CALL_FLAG),f
  3614                           opt subtitle "HI-TECH Software Omniscient Code Generator (Lite mode) build 49521"
  3615                           
  3616  0352  01A4               	clrf	(_MOTOR_FLAG)
  3617  0353  0AA4               	incf	(_MOTOR_FLAG),f
  3618                           opt subtitle "HI-TECH Software Omniscient Code Generator (Lite mode) build 49521"
  3619                           
  3620  0354  01A1               	clrf	(_CLIP_FLAG)
  3621                           opt subtitle "HI-TECH Software Omniscient Code Generator (Lite mode) build 49521"
  3622                           
  3623  0355  01A5               	clrf	(_NUMBER_FLAG)
  3624                           opt subtitle "HI-TECH Software Omniscient Code Generator (Lite mode) build 49521"
  3625                           
  3626  0356  01A6               	clrf	(_RING_COUNT)
  3627                           opt subtitle "HI-TECH Software Omniscient Code Generator (Lite mode) build 49521"
  3628                           
  3629  0357  2B8E               	goto	i1l148
  3630                           opt subtitle "HI-TECH Software Omniscient Code Generator (Lite mode) build 49521"
  3631                           
  3632  0358                     i1l1571:	
  3633                           opt subtitle "HI-TECH Software Omniscient Code Generator (Lite mode) build 49521"
  3634  0358  2B62               	goto	i1l1577
  3635                           opt subtitle "HI-TECH Software Omniscient Code Generator (Lite mode) build 49521"
  3636                           
  3637  0359                     i1l167:	
  3638                           opt subtitle "HI-TECH Software Omniscient Code Generator (Lite mode) build 49521"
  3639                           
  3640                           opt pagewidth 120
  3641                           
  3642  0359  01A1               	clrf	(_CLIP_FLAG)
  3643                           opt subtitle "HI-TECH Software Omniscient Code Generator (Lite mode) build 49521"
  3644                           
  3645  035A  01A5               	clrf	(_NUMBER_FLAG)
  3646                           opt subtitle "HI-TECH Software Omniscient Code Generator (Lite mode) build 49521"
  3647                           
  3648  035B                     i1l1573:	
  3649                           opt subtitle "HI-TECH Software Omniscient Code Generator (Lite mode) build 49521"
  3650  035B  3001               	movlw	(01h)
  3651  035C  00F6               	movwf	(??_USARTHandleRxInt+0)+0
  3652  035D  0876               	movf	(??_USARTHandleRxInt+0)+0,w
  3653  035E  07A6               	addwf	(_RING_COUNT),f
  3654  035F  2B8E               	goto	i1l148
  3655                           opt subtitle "HI-TECH Software Omniscient Code Generator (Lite mode) build 49521"
  3656                           
  3657  0360                     i1l1575:	
  3658                           opt subtitle "HI-TECH Software Omniscient Code Generator (Lite mode) build 49521"
  3659  0360  2B8E               	goto	i1l148
  3660                           opt subtitle "HI-TECH Software Omniscient Code Generator (Lite mode) build 49521"
  3661                           
  3662  0361                     i1l168:	
  3663  0361  2B62               	goto	i1l1577
  3664                           opt subtitle "HI-TECH Software Omniscient Code Generator (Lite mode) build 49521"
  3665                           
  3666  0362                     i1l166:	
  3667                           opt subtitle "HI-TECH Software Omniscient Code Generator (Lite mode) build 49521"
  3668                           
  3669  0362                     i1l1577:	
  3670                           opt subtitle "HI-TECH Software Omniscient Code Generator (Lite mode) build 49521"
  3671                           
  3672                           opt pagewidth 120
  3673  0362  0824               	movf	(_MOTOR_FLAG),w
  3674  0363  3A01               	xorlw	01h
  3675  0364  1D03               	skipz
  3676  0365  2B67               	goto	u116_21
  3677  0366  2B68               	goto	u116_20
  3678  0367                     u116_21:
  3679  0367  2B82               	goto	i1l1589
  3680  0368                     u116_20:
  3681                           opt subtitle "HI-TECH Software Omniscient Code Generator (Lite mode) build 49521"
  3682                           
  3683  0368                     i1l1579:	
  3684                           opt subtitle "HI-TECH Software Omniscient Code Generator (Lite mode) build 49521"
  3685                           
  3686  0368  3006               	movlw	(06h)
  3687  0369  0226               	subwf	(_RING_COUNT),w
  3688  036A  1803               	skipnc
  3689  036B  2B6D               	goto	u117_21
  3690  036C  2B6E               	goto	u117_20
  3691  036D                     u117_21:
  3692  036D  2B78               	goto	i1l170
  3693  036E                     u117_20:
  3694                           opt subtitle "HI-TECH Software Omniscient Code Generator (Lite mode) build 49521"
  3695                           
  3696  036E                     i1l1581:	
  3697                           opt subtitle "HI-TECH Software Omniscient Code Generator (Lite mode) build 49521"
  3698                           
  3699  036E  01A2               	clrf	(_CUT_FLAG)
  3700  036F  0AA2               	incf	(_CUT_FLAG),f
  3701                           opt subtitle "HI-TECH Software Omniscient Code Generator (Lite mode) build 49521"
  3702                           
  3703  0370  01A0               	clrf	(_CALL_FLAG)
  3704  0371  0AA0               	incf	(_CALL_FLAG),f
  3705                           opt subtitle "HI-TECH Software Omniscient Code Generator (Lite mode) build 49521"
  3706                           
  3707  0372  01A4               	clrf	(_MOTOR_FLAG)
  3708                           opt subtitle "HI-TECH Software Omniscient Code Generator (Lite mode) build 49521"
  3709                           
  3710  0373  01A1               	clrf	(_CLIP_FLAG)
  3711                           opt subtitle "HI-TECH Software Omniscient Code Generator (Lite mode) build 49521"
  3712                           
  3713  0374  01A5               	clrf	(_NUMBER_FLAG)
  3714                           opt subtitle "HI-TECH Software Omniscient Code Generator (Lite mode) build 49521"
  3715                           
  3716  0375  01A6               	clrf	(_RING_COUNT)
  3717                           opt subtitle "HI-TECH Software Omniscient Code Generator (Lite mode) build 49521"
  3718                           
  3719  0376  2B8E               	goto	i1l148
  3720                           opt subtitle "HI-TECH Software Omniscient Code Generator (Lite mode) build 49521"
  3721                           
  3722  0377                     i1l1583:	
  3723                           opt subtitle "HI-TECH Software Omniscient Code Generator (Lite mode) build 49521"
  3724  0377  2B82               	goto	i1l1589
  3725                           opt subtitle "HI-TECH Software Omniscient Code Generator (Lite mode) build 49521"
  3726                           
  3727  0378                     i1l170:	
  3728                           opt subtitle "HI-TECH Software Omniscient Code Generator (Lite mode) build 49521"
  3729                           
  3730                           opt pagewidth 120
  3731                           
  3732  0378  01A1               	clrf	(_CLIP_FLAG)
  3733                           opt subtitle "HI-TECH Software Omniscient Code Generator (Lite mode) build 49521"
  3734                           
  3735  0379  01A5               	clrf	(_NUMBER_FLAG)
  3736                           opt subtitle "HI-TECH Software Omniscient Code Generator (Lite mode) build 49521"
  3737                           
  3738  037A                     i1l1585:	
  3739                           opt subtitle "HI-TECH Software Omniscient Code Generator (Lite mode) build 49521"
  3740  037A  3001               	movlw	(01h)
  3741  037B  00F6               	movwf	(??_USARTHandleRxInt+0)+0
  3742  037C  0876               	movf	(??_USARTHandleRxInt+0)+0,w
  3743  037D  07A6               	addwf	(_RING_COUNT),f
  3744  037E  2B8E               	goto	i1l148
  3745                           opt subtitle "HI-TECH Software Omniscient Code Generator (Lite mode) build 49521"
  3746                           
  3747  037F                     i1l1587:	
  3748                           opt subtitle "HI-TECH Software Omniscient Code Generator (Lite mode) build 49521"
  3749  037F  2B8E               	goto	i1l148
  3750                           opt subtitle "HI-TECH Software Omniscient Code Generator (Lite mode) build 49521"
  3751                           
  3752  0380                     i1l171:	
  3753  0380  2B82               	goto	i1l1589
  3754                           opt subtitle "HI-TECH Software Omniscient Code Generator (Lite mode) build 49521"
  3755                           
  3756  0381                     i1l169:	
  3757  0381  2B82               	goto	i1l1589
  3758                           opt subtitle "HI-TECH Software Omniscient Code Generator (Lite mode) build 49521"
  3759                           
  3760  0382                     i1l165:	
  3761                           opt subtitle "HI-TECH Software Omniscient Code Generator (Lite mode) build 49521"
  3762                           
  3763  0382                     i1l1589:	
  3764                           opt subtitle "HI-TECH Software Omniscient Code Generator (Lite mode) build 49521"
  3765                           
  3766                           opt pagewidth 120
  3767                           
  3768  0382  0877               	movf	(USARTHandleRxInt@data),w
  3769  0383  3A0A               	xorlw	0Ah
  3770  0384  1D03               	skipz
  3771  0385  2B87               	goto	u118_21
  3772  0386  2B88               	goto	u118_20
  3773  0387                     u118_21:
  3774  0387  2B8E               	goto	i1l148
  3775  0388                     u118_20:
  3776                           opt subtitle "HI-TECH Software Omniscient Code Generator (Lite mode) build 49521"
  3777                           
  3778  0388                     i1l1591:	
  3779                           opt subtitle "HI-TECH Software Omniscient Code Generator (Lite mode) build 49521"
  3780                           
  3781  0388  01A7               	clrf	(_WRONG_NUMBER)
  3782  0389  0AA7               	incf	(_WRONG_NUMBER),f
  3783                           opt subtitle "HI-TECH Software Omniscient Code Generator (Lite mode) build 49521"
  3784                           
  3785  038A  01A1               	clrf	(_CLIP_FLAG)
  3786                           opt subtitle "HI-TECH Software Omniscient Code Generator (Lite mode) build 49521"
  3787                           
  3788  038B  01A5               	clrf	(_NUMBER_FLAG)
  3789                           opt subtitle "HI-TECH Software Omniscient Code Generator (Lite mode) build 49521"
  3790                           
  3791  038C  2B8E               	goto	i1l148
  3792                           opt subtitle "HI-TECH Software Omniscient Code Generator (Lite mode) build 49521"
  3793                           
  3794  038D                     i1l172:	
  3795                           opt subtitle "HI-TECH Software Omniscient Code Generator (Lite mode) build 49521"
  3796                           
  3797                           opt pagewidth 120
  3798  038D  2B8E               	goto	i1l148
  3799                           opt subtitle "HI-TECH Software Omniscient Code Generator (Lite mode) build 49521"
  3800                           
  3801  038E                     i1l164:	
  3802                           opt subtitle "HI-TECH Software Omniscient Code Generator (Lite mode) build 49521"
  3803                           
  3804  038E                     i1l148:	
  3805  038E  0008               	return
  3806                           opt subtitle "HI-TECH Software Omniscient Code Generator (Lite mode) build 49521"
  3807                           
  3808  038F                     	__end_of_USARTHandleRxInt:
  3809                           opt subtitle "HI-TECH Software Omniscient Code Generator (Lite mode) build 49521"
  3810                           
  3811                           opt pagewidth 120
  3812                           
  3813                           	opt lm
  3814                           
  3815                           	processor	16F870
  3816                           clrc	macro
  3817                           	bcf	3,0
  3818                           	endm
  3819                           clrz	macro
  3820                           	bcf	3,2
  3821                           	endm
  3822                           setc	macro
  3823                           	bsf	3,0
  3824                           	endm
  3825                           setz	macro
  3826                           	bsf	3,2
  3827                           	endm
  3828                           skipc	macro
  3829                           	btfss	3,0
  3830                           	endm
  3831                           skipz	macro
  3832                           	btfss	3,2
  3833                           	endm
  3834                           skipnc	macro
  3835                           	btfsc	3,0
  3836                           	endm
  3837                           skipnz	macro
  3838                           	btfsc	3,2
  3839                           	endm
  3840                           indf	equ	0
  3841                           indf0	equ	0
  3842                           pc	equ	2
  3843                           pcl	equ	2
  3844                           status	equ	3
  3845                           fsr	equ	4
  3846                           fsr0	equ	4
  3847  03DB                     __ptext262:	;psect for function _strcmp
  3848                           opt subtitle "HI-TECH Software Omniscient Code Generator (Lite mode) build 49521"
  3849                           
  3850                           opt pagewidth 120
  3851                           
  3852  002E                     	__size_of_strcmp	equ	__end_of_strcmp-_strcmp
  3853                           opt subtitle "HI-TECH Software Omniscient Code Generator (Lite mode) build 49521"
  3854  03DB                     _strcmp:	
  3855                           opt subtitle "HI-TECH Software Omniscient Code Generator (Lite mode) build 49521"
  3856                           
  3857                           opt pagewidth 120
  3858  03DB  00F5               	movwf	(strcmp@s1)
  3859                           opt subtitle "HI-TECH Software Omniscient Code Generator (Lite mode) build 49521"
  3860                           
  3861  03DC                     i1l1457:	
  3862  03DC  2BE6               	goto	i1l1463
  3863                           opt subtitle "HI-TECH Software Omniscient Code Generator (Lite mode) build 49521"
  3864  03DD                     i1l294:	
  3865                           opt subtitle "HI-TECH Software Omniscient Code Generator (Lite mode) build 49521"
  3866                           
  3867  03DD                     i1l1459:	
  3868  03DD  3001               	movlw	(01h)
  3869  03DE  00F2               	movwf	(??_strcmp+0)+0
  3870  03DF  0872               	movf	(??_strcmp+0)+0,w
  3871  03E0  07F5               	addwf	(strcmp@s1),f
  3872                           opt subtitle "HI-TECH Software Omniscient Code Generator (Lite mode) build 49521"
  3873                           
  3874  03E1                     i1l1461:	
  3875  03E1  3001               	movlw	(01h)
  3876  03E2  00F2               	movwf	(??_strcmp+0)+0
  3877  03E3  0872               	movf	(??_strcmp+0)+0,w
  3878  03E4  07F0               	addwf	(strcmp@s2),f
  3879  03E5  2BE6               	goto	i1l1463
  3880                           opt subtitle "HI-TECH Software Omniscient Code Generator (Lite mode) build 49521"
  3881                           
  3882  03E6                     i1l293:	
  3883                           opt subtitle "HI-TECH Software Omniscient Code Generator (Lite mode) build 49521"
  3884                           
  3885  03E6                     i1l1463:	
  3886  03E6  0875               	movf	(strcmp@s1),w
  3887  03E7  0084               	movwf	fsr
  3888  03E8  1383               	bcf	status, 7	;select IRP bank0
  3889  03E9  0800               	movf	indf,w
  3890  03EA  00F2               	movwf	(??_strcmp+0)+0
  3891  03EB  0870               	movf	(strcmp@s2),w
  3892  03EC  0084               	movwf	fsr0
  3893  03ED  2413               	fcall	stringdir
  3894  03EE  3AFF               	xorlw	0ffh
  3895  03EF  3E01               	addlw	1
  3896  03F0  0772               	addwf	(??_strcmp+0)+0,w
  3897  03F1  00F3               	movwf	(??_strcmp+1)+0
  3898  03F2  0873               	movf	(??_strcmp+1)+0,w
  3899  03F3  00F4               	movwf	(strcmp@r)
  3900  03F4  08F4               	movf	((strcmp@r)),f
  3901  03F5  1D03               	skipz
  3902  03F6  2BF8               	goto	u95_21
  3903  03F7  2BF9               	goto	u95_20
  3904  03F8                     u95_21:
  3905  03F8  2C02               	goto	i1l1467
  3906  03F9                     u95_20:
  3907                           opt subtitle "HI-TECH Software Omniscient Code Generator (Lite mode) build 49521"
  3908  03F9                     i1l1465:	
  3909  03F9  0875               	movf	(strcmp@s1),w
  3910  03FA  0084               	movwf	fsr0
  3911  03FB  0880               	movf	indf,f
  3912  03FC  1D03               	skipz
  3913  03FD  2BFF               	goto	u96_21
  3914  03FE  2C00               	goto	u96_20
  3915  03FF                     u96_21:
  3916  03FF  2BDD               	goto	i1l1459
  3917  0400                     u96_20:
  3918  0400  2C02               	goto	i1l1467
  3919                           opt subtitle "HI-TECH Software Omniscient Code Generator (Lite mode) build 49521"
  3920  0401                     i1l296:	
  3921  0401  2C02               	goto	i1l1467
  3922                           opt subtitle "HI-TECH Software Omniscient Code Generator (Lite mode) build 49521"
  3923  0402                     i1l297:	
  3924                           opt subtitle "HI-TECH Software Omniscient Code Generator (Lite mode) build 49521"
  3925                           
  3926  0402                     i1l1467:	
  3927  0402  0874               	movf	(strcmp@r),w
  3928  0403  00F0               	movwf	(?_strcmp)
  3929  0404  01F1               	clrf	(?_strcmp+1)
  3930  0405  1BF0               	btfsc	(?_strcmp),7
  3931  0406  03F1               	decf	(?_strcmp+1),f
  3932  0407  2C08               	goto	i1l298
  3933                           opt subtitle "HI-TECH Software Omniscient Code Generator (Lite mode) build 49521"
  3934  0408                     i1l1469:	
  3935                           opt subtitle "HI-TECH Software Omniscient Code Generator (Lite mode) build 49521"
  3936                           
  3937  0408                     i1l298:	
  3938  0408  0008               	return
  3939                           opt subtitle "HI-TECH Software Omniscient Code Generator (Lite mode) build 49521"
  3940                           
  3941  0409                     	__end_of_strcmp:
  3942                           opt subtitle "HI-TECH Software Omniscient Code Generator (Lite mode) build 49521"
  3943                           
  3944                           opt pagewidth 120
  3945  0000                     __ptext263:	;psect for function _strcmp
  3946                           opt subtitle "HI-TECH Software Omniscient Code Generator (Lite mode) build 49521"
  3947  007E                     	btemp set 07Eh
  3948                           opt subtitle "HI-TECH Software Omniscient Code Generator (Lite mode) build 49521"
  3949                           
  3950                           opt pagewidth 120
  3951  007E                     	wtemp0 set btemp


Data Sizes:
    Strings     24
    Constant    0
    Data        0
    BSS         25
    Persistent  0
    Stack       0

Auto Spaces:
    Space          Size  Autos    Used
    COMMON           14     12      14
    BANK0            80     10      33
    BANK1            32      0       0

Pointer List with Targets:

    ?_strcmp	int  size(1) Largest target is 0

    strcmp@s2	PTR const unsigned char  size(1) Largest target is 6
		 -> STR_9(CODE[6]), 

    strcmp@s1	PTR const unsigned char  size(1) Largest target is 15
		 -> buffer(BANK0[15]), 

    USARTWritestring@str	PTR const unsigned char  size(1) Largest target is 4
		 -> STR_6(CODE[4]), STR_3(CODE[4]), 

    ATCommand@str	PTR const unsigned char  size(2) Largest target is 15
		 -> STR_8(CODE[4]), STR_7(CODE[4]), STR_5(CODE[4]), STR_4(CODE[4]), 
		 -> buffer(BANK0[15]), STR_2(CODE[4]), STR_1(CODE[10]), 


Critical Paths under _main in COMMON

    None.

Critical Paths under _ISR in COMMON

    _ISR->_USARTHandleRxInt
    _USARTHandleRxInt->_strcmp

Critical Paths under _main in BANK0

    _main->_ATCommand
    _main->_start
    _main->_stop
    _main->_USARTWritestring
    _ATCommand->_USARTWriteChar
    _USARTWritestring->_USARTWriteChar

Critical Paths under _ISR in BANK0

    None.

Critical Paths under _main in BANK1

    None.

Critical Paths under _ISR in BANK1

    None.

Call Graph Tables:

 ---------------------------------------------------------------------------------
 (Depth) Function   	        Calls       Base Space   Used Autos Params    Refs
 ---------------------------------------------------------------------------------
 (0) _main                                                 7     7      0     322
                                              3 BANK0      7     7      0
                          _USARTInit
                          _ATCommand
                        _phase_check
                              _start
                               _stop
                   _USARTWritestring
 ---------------------------------------------------------------------------------
 (1) _USARTInit                                            2     0      2      22
                                              0 BANK0      2     0      2
 ---------------------------------------------------------------------------------
 (1) _ATCommand                                            2     0      2      67
                                              1 BANK0      2     0      2
                     _USARTWriteChar
 ---------------------------------------------------------------------------------
 (1) _phase_check                                          0     0      0       0
 ---------------------------------------------------------------------------------
 (1) _start                                                3     3      0       0
                                              0 BANK0      3     3      0
 ---------------------------------------------------------------------------------
 (1) _stop                                                 3     3      0       0
                                              0 BANK0      3     3      0
 ---------------------------------------------------------------------------------
 (1) _USARTWritestring                                     2     2      0      67
                                              1 BANK0      2     2      0
                     _USARTWriteChar
 ---------------------------------------------------------------------------------
 (2) _USARTWriteChar                                       1     1      0      22
                                              0 BANK0      1     1      0
 ---------------------------------------------------------------------------------
 Estimated maximum stack depth 2
 ---------------------------------------------------------------------------------
 (Depth) Function   	        Calls       Base Space   Used Autos Params    Refs
 ---------------------------------------------------------------------------------
 (3) _ISR                                                  4     4      0     334
                                              8 COMMON     4     4      0
                   _USARTHandleRxInt
 ---------------------------------------------------------------------------------
 (4) _USARTHandleRxInt                                     2     2      0     334
                                              6 COMMON     2     2      0
                             _strcmp
 ---------------------------------------------------------------------------------
 (6) _strcmp                                               6     4      2      91
                                              0 COMMON     6     4      2
 ---------------------------------------------------------------------------------
 Estimated maximum stack depth 6
 ---------------------------------------------------------------------------------

 Call Graph Graphs:

 _main (ROOT)
   _USARTInit
   _ATCommand
     _USARTWriteChar
   _phase_check
   _start
   _stop
   _USARTWritestring
     _USARTWriteChar

 _ISR (ROOT)
   _USARTHandleRxInt
     _strcmp

 Address spaces:
Name               Size   Autos  Total    Cost      Usage
BITCOMMON            E      0       0       0        0.0%
EEDATA              40      0       0       0        0.0%
NULL                 0      0       0       0        0.0%
CODE                 0      0       0       0        0.0%
COMMON               E      C       E       1      100.0%
BITSFR0              0      0       0       1        0.0%
SFR0                 0      0       0       1        0.0%
BITSFR1              0      0       0       2        0.0%
SFR1                 0      0       0       2        0.0%
STACK                0      0       A       2        0.0%
ABS                  0      0      2F       3        0.0%
BITBANK0            50      0       0       4        0.0%
BITSFR3              0      0       0       4        0.0%
SFR3                 0      0       0       4        0.0%
BANK0               50      A      21       5       41.3%
BITSFR2              0      0       0       5        0.0%
SFR2                 0      0       0       5        0.0%
BITBANK1            20      0       0       6        0.0%
BANK1               20      0       0       7        0.0%
DATA                 0      0      39       8        0.0%


Microchip Technology PIC Macro Assembler V1.12 build 49521 
Symbol Table                                                                                   Thu Sep 04 16:17:26 2014

                        pc 0002                         l93 0026                         l94 0026  
                       l95 002B                         l96 003E                         l98 003D  
                       l99 0047                         fsr 0004         USARTInit@baud_rate 0037  
                      l100 0072                        l101 008F                        l102 01B3  
                      l110 00FF                        l111 010C                        l103 00CB  
                      l120 0185                        l112 0115                        l104 00CA  
                      l113 0189                        l121 0184                        l105 00C9  
                      l202 0454                        l210 04E3                        l130 021A  
                      l122 018E                        l114 016E                        l106 010E  
                      l131 021A                        l123 01A4                        l115 016D  
                      l107 010D                        l132 021E                        l124 0190  
                      l116 0166                        l108 0103                        l205 0478  
                      l133 0244                        l117 0166                        l109 00E6  
                      l134 0265                        l126 01B1                        l118 016A  
                      l135 0264                        l127 01B2                        l119 0185  
                      l208 04E0                        l136 0266                        l128 0222  
                      l209 04E3                        l137 0267                        l129 0221  
                      l138 0267                        l181 0489                        l190 04CD  
                      l182 047A                        l175 04E8                        l183 0496  
                      l176 04E8                        l184 0498                        l177 04ED  
                      l193 03A5                        l178 04EF                        l194 0390  
                      l187 04C4                        l195 03C9                        l188 04B9  
                      l196 0395                        l189 04CD                        l197 039A  
                      l198 039F                        l199 03DA                        _GIE 005F  
                      _RC0 0038                        _RC1 0039                        _RA5 002D  
                      _RC2 003A                        _RC3 003B                        _RC4 003C  
                      _RB7 0037                        u610 002A                        u611 0029  
                      u700 00D3                        u620 0039                        _ISR 0499  
                      u701 00D2                        u621 0038                        u710 00DD  
                      u630 003D                        u711 00DC                        u800 0176  
                      u720 00E4                        u640 0045                        u801 0175  
                      u721 00E3                        u641 0044                        u810 0181  
                      u730 00FF                        u650 0071                        u811 0180  
                      u731 00FE                        u651 0070                        u900 0495  
                      u820 01AA                        u740 0109                        u660 0097  
                      u901 0494                        u821 01A9                        u741 0108  
                      u661 0096                        u910 04D4                        u830 01B0  
                      u750 0113                        u670 009E                        u911 04D3  
                      u831 01AF                        u751 0112                        u671 009D  
                      u920 04D8                        u840 01B8                        u760 011B  
                      u680 00A5                        u921 04D7                        u841 01B7  
                      u761 011A                        u681 00A4                        u930 04DC  
                      u850 01BE                        u770 011F                        u690 00B0  
                      u931 04DB                        u851 01BD                        u771 011E  
                      u691 00AF                        u940 04CC                        u860 021E  
                      u780 0125                        u941 04CB                        u861 021D  
                      u781 0124                        u870 022A                        u790 016A  
                      u871 0229                        u791 0169                        u880 0248  
                      u970 04EC                        u890 0262                        u971 04EB  
                      u891 0261                        fsr0 0004                        indf 0000  
                     ?_ISR 0070                       l1201 0055                       l1211 0078  
                     l1203 0065                       l1301 018E                       l1221 0098  
                     l1213 007F                       l1205 006B                       l1303 0190  
                     l1231 00B0                       l1223 009E                       l1311 01B3  
                     l1215 008D                       l1207 0072                       l1321 01C3  
                     l1313 01B8                       l1305 019D                       l1241 00D3  
                     l1233 00B5                       l1225 00A5                       l1217 008F  
                     l1209 0077                       l1411 0496                       l1403 0479  
                     l1331 01E3                       l1323 01C8                       l1315 01BE  
                     l1307 01A4                       l1251 00E5                       l1243 00D4  
                     l1235 00C4                       l1227 00A6                       l1219 0097  
                     l1421 04DE                       l1413 04CE                       l1405 047A  
                     l1341 020F                       l1333 01F2                       l1325 01D7  
                     l1317 01BF                       l1309 01AA                       l1261 0109  
                     l1253 00E6                       l1245 00D7                       l1237 00C7  
                     l1229 00AA                       l1181 0018                       l1431 0440  
                     l1423 04DF                       l1415 04D4                       l1407 0482  
                     l1351 0218                       l1343 0210                       l1335 01F9  
                     l1327 01DA                       l1319 01C0                       l1271 011F  
                     l1255 00F3                       l1247 00DD                       l1263 010E  
                     l1239 00CB                       l1191 002B                       l1183 001A  
                     l1175 0011                       l1441 0464                       l1433 044F  
                     l1417 04D8                       l1425 04E0                       l1409 0489  
                     l1361 023F                       l1345 0213                       l1337 0208  
                     l1329 01DC                       l1353 0222                       l1281 015C  
                     l1273 0125                       l1265 0113                       l1257 00F9  
                     l1249 00DE                       l1193 0039                       l1185 001D  
                     l1177 0015                       l1451 04B9                       l1443 0473  
                     l1435 0452                       l1427 04E2                       l1419 04DC  
                     l1371 0262                       l1363 0242                       l1355 022A  
                     l1347 0214                       l1339 020B                       l1291 0177  
                     l1283 015F                       l1275 012E                       l1267 0115  
                     l1259 0103                       l1195 003F                       l1187 0021  
                     l1179 0016                       l1453 04BD                       l1445 0476  
                     l1437 0454                       l1429 0431                       l1381 039F  
                     l1373 038F                       l1357 022B                       l1365 0244  
                     l1349 0216                       l1293 017A                       l1285 0164  
                     l1277 013D                       l1269 011B                       l1197 0046  
                     l1189 0024                       l1471 04E7                       l1455 04C4  
                     l1447 0478                       l1439 0455                       l1383 03A4  
                     l1375 0390                       l1367 0248                       l1359 0230  
                     l1295 017B                       l1279 0153                       l1287 016E  
                     l1199 0048                       l1473 04ED                       l1449 04B8  
                     l1377 0395                       l1385 03A5                       l1369 0249  
                     l1297 0181                       l1289 0176                       l1379 039A  
                     l1299 0189                       l1681 03B5                       l1683 03BA  
                     l1685 03BF                       l1687 03C4                       STR_1 0419  
                     STR_2 042D                       STR_3 0429                       STR_4 042D  
                     STR_5 042D                       STR_6 0429                       STR_7 042D  
                     STR_8 042D                       STR_9 0423                       u1217 004E  
                     u1307 01EB                       u1227 005E                       u1317 0201  
                     u1237 0087                       u1327 0238                       u1247 00BD  
                     u1337 0253                       u1257 00EC                       u1347 0439  
                     u1267 0136                       u1357 0449                       u1277 014C  
                     u1367 045D                       u1287 0196                       u1377 046D  
                     u1297 01D0                       _PEIE 005E                       _RCIE 0465  
                     _RCIF 0065     __end_of_USARTWriteChar 04F0                main@seconds 003D  
                     _main 0011                       btemp 007E                       _stop 0455  
                     start 0010         __size_of_ATCommand 0020                      ??_ISR 0078  
        ?_USARTHandleRxInt 0070                      ?_main 0070         ??_USARTHandleRxInt 0076  
                    _EEADR 010D           USARTWriteChar@ch 0037                      ?_stop 0070  
                    i1l141 04A8                      i1l150 02D7                      i1l142 04A8  
                    i1l151 02C8                      i1l160 0308                      i1l152 02C4  
                    i1l161 0330                      i1l145 02D8                      i1l153 02C7  
                    i1l170 0378                      i1l162 0321                      i1l154 02D6  
                    i1l146 0293                      i1l171 0380                      i1l155 0331  
                    i1l163 032F                      i1l147 0291                      i1l164 038E  
                    i1l172 038D                      i1l156 0309                      i1l148 038E  
                    i1l165 0382                      i1l157 0307                      i1l149 0292  
                    i1l166 0362                      i1l167 0359                      i1l159 02F6  
                    i1l168 0361                      i1l169 0381                      i1l293 03E6  
                    i1l294 03DD                      i1l296 0401                      i1l297 0402  
                    i1l298 0408                      _RCREG 001A                      _SPBRG 0099  
                    _TRISA 0085                      _TRISB 0086                      _TRISC 0087  
                    u95_20 03F9                      u95_21 03F8                      u96_20 0400  
                    u96_21 03FF                      _TXREG 0019                      u98_20 0274  
                    u98_21 0273                      u99_20 0279                      u99_21 0278  
             _WRONG_NUMBER 0027                      _index 007D                      _start 0431  
                    main@i 003F                      pclath 000A         __size_of_USARTInit 004C  
          ?_USARTWriteChar 0070                      status 0003                      wtemp0 007E  
             ?_phase_check 0070            __initialization 04F0               __end_of_main 0268  
             __end_of_stop 0479                     ??_main 003A                     ??_stop 0037  
        __end_of_ATCommand 0499                     _ADCON1 009F                     _EEDATA 010C  
                   _EECON2 018D                     ?_start 0070                     u100_20 027F  
                   u100_21 027E                     u101_20 0299                     u101_21 0298  
                   u110_20 0315                     u102_20 029F                     u110_21 0314  
                   u102_21 029E                     u111_20 0337                     u103_20 02BB  
                   u111_21 0336                     u103_21 02BA                     i1l1501 029F  
                   i1l1511 02C3                     i1l1503 02A7                     u112_20 033D  
                   u104_20 02E0                     u120_20 04A5                     u112_21 033C  
                   i1l1521 02E0                     u104_21 02DF                     i1l1505 02AB  
                   i1l1513 02C8                     u120_21 04A4                     i1l1531 0300  
                   i1l1523 02E5                     i1l1515 02D0                     i1l1507 02AF  
                   i1l1461 03E1                     i1l1541 0315                     i1l1533 0305  
                   i1l1525 02EA                     i1l1517 02D5                     i1l1509 02BB  
                   i1l1463 03E6                     i1l1551 0320                     i1l1543 031A  
                   i1l1535 0306                     i1l1527 02F0                     i1l1519 02D8  
                   u113_20 0343                     u105_20 02E5                     i1l1465 03F9  
                   i1l1457 03DC                     u113_21 0342                     i1l1561 0337  
                   i1l1545 031B                     i1l1553 0321                     i1l1529 02F8  
                   i1l1537 0309                     u105_21 02E4                     i1l1481 0274  
                   i1l1467 0402                     i1l1459 03DD                     i1l1571 0358  
                   i1l1563 033D                     i1l1555 0329                     i1l1547 031C  
                   i1l1539 030F                     i1l1491 028D                     i1l1483 0279  
                   i1l1475 0268                     i1l1469 0408                     i1l1581 036E  
                   i1l1573 035B                     i1l1565 0343                     i1l1557 032E  
                   i1l1549 031F                     i1l1493 028F                     i1l1485 027F  
                   i1l1477 026E                     i1l1591 0388                     i1l1583 0377  
                   i1l1575 0360                     i1l1567 0348                     i1l1559 0331  
                   i1l1495 0290                     i1l1487 0281                     i1l1479 026F  
                   u114_20 0348                     u106_20 02EA                     i1l1585 037A  
                   i1l1569 034E                     i1l1577 0362                     u114_21 0347  
                   u106_21 02E9                     i1l1489 0289                     i1l1497 0293  
                   i1l1593 0499                     i1l1587 037F                     i1l1579 0368  
                   i1l1499 0299                     i1l1595 049F                     i1l1589 0382  
                   i1l1597 04A5                     i1l1599 04A7                     u115_20 034E  
                   u107_20 02F0                     u115_21 034D                     u107_21 02EF  
                   u116_20 0368                     u108_20 02F6                     u116_21 0367  
                   u108_21 02F5                     u117_20 036E                     u109_20 030F  
                   u117_21 036D                     u109_21 030E                     u118_20 0388  
                   u118_21 0387                     u119_20 049F                     u119_21 049E  
                   _buffer 0028        USARTWritestring@str 0039          __end_of_USARTInit 03DB  
                   _strcmp 03DB                     clrloop 04FA               ATCommand@str 0038  
 __end_of_USARTWritestring 04CE                     saved_w 007E    __end_of__initialization 04F7  
           __pcstackCOMMON 0070              __end_of_start 0455                    ??_start 0037  
               __pbssBANK0 0020       __size_of_phase_check 0016                 __pmaintext 0011  
               __pintentry 0004                    ?_strcmp 0070                    _LP_FLAG 0023  
         ??_USARTWriteChar 0037  __size_of_USARTHandleRxInt 0127                 __stringtab 0409  
                _CALL_FLAG 0020                  _CLIP_FLAG 0021            __size_of_strcmp 002E  
             __size_of_ISR 001C                  _ATCommand 0479       end_of_initialization 04F7  
                _RCSTAbits 0018                    strcmp@r 0074                  _USARTInit 038F  
        ?_USARTWritestring 0070         ??_USARTWritestring 0038                 ?_ATCommand 0038  
                _TXSTAbits 0098             __end_of_strcmp 0409        start_initialization 04F0  
               ?_USARTInit 0037                __end_of_ISR 04B5           _USARTHandleRxInt 0268  
                 ??_strcmp 0072                __pbssCOMMON 007C              __pcstackBANK0 0037  
      __end_of__stringdata 0431                ??_ATCommand 003A              ??_phase_check 0037  
                __ptext260 0499                  __ptext261 0268                  __ptext253 038F  
                __ptext262 03DB                  __ptext254 0479                  __ptext263 0000  
                __ptext255 04CE                  __ptext256 0431                  __ptext257 0455  
                __ptext258 04B5                  __ptext259 04E4                  __pstrings 0409  
              ??_USARTInit 0039             __size_of_start 0024          interrupt_function 0004  
                 _CUT_FLAG 0022                   _PIR1bits 000C        __end_of_phase_check 04E4  
              __stringbase 0418                __stringdata 0419                  main@count 0040  
               _EECON1bits 018C    __size_of_USARTWriteChar 000C  __size_of_USARTWritestring 0019  
 __end_of_USARTHandleRxInt 038F         __end_of__stringtab 0419              __size_of_main 0257  
            __size_of_stop 0024                _phase_check 04CE                   clear_ram 04F9  
                 main@temp 003E                _NUMBER_FLAG 0025                   intlevel1 0000  
                stringcode 0413                 _RING_COUNT 0026                 _MOTOR_FLAG 0024  
               _PLUSE_FLAG 007C                   strcmp@s1 0075                   strcmp@s2 0070  
     USARTHandleRxInt@data 0077                   stringdir 0413                   stringtab 0409  
           _USARTWriteChar 04E4           _USARTWritestring 04B5  
