opt subtitle "Microchip Technology Omniscient Code Generator (Lite mode) build 58300"

opt pagewidth 120

	opt lm

	processor	16F876A
clrc	macro
	bcf	3,0
	endm
clrz	macro
	bcf	3,2
	endm
setc	macro
	bsf	3,0
	endm
setz	macro
	bsf	3,2
	endm
skipc	macro
	btfss	3,0
	endm
skipz	macro
	btfss	3,2
	endm
skipnc	macro
	btfsc	3,0
	endm
skipnz	macro
	btfsc	3,2
	endm
indf	equ	0
indf0	equ	0
pc	equ	2
pcl	equ	2
status	equ	3
fsr	equ	4
fsr0	equ	4
c	equ	1
z	equ	0
pclath	equ	10
# 49 "C:\Program Files (x86)\Microchip\xc8\v1.32\include\pic16f876a.h"
INDF equ 00h ;# 
# 55 "C:\Program Files (x86)\Microchip\xc8\v1.32\include\pic16f876a.h"
TMR0 equ 01h ;# 
# 61 "C:\Program Files (x86)\Microchip\xc8\v1.32\include\pic16f876a.h"
PCL equ 02h ;# 
# 67 "C:\Program Files (x86)\Microchip\xc8\v1.32\include\pic16f876a.h"
STATUS equ 03h ;# 
# 154 "C:\Program Files (x86)\Microchip\xc8\v1.32\include\pic16f876a.h"
FSR equ 04h ;# 
# 160 "C:\Program Files (x86)\Microchip\xc8\v1.32\include\pic16f876a.h"
PORTA equ 05h ;# 
# 209 "C:\Program Files (x86)\Microchip\xc8\v1.32\include\pic16f876a.h"
PORTB equ 06h ;# 
# 270 "C:\Program Files (x86)\Microchip\xc8\v1.32\include\pic16f876a.h"
PORTC equ 07h ;# 
# 331 "C:\Program Files (x86)\Microchip\xc8\v1.32\include\pic16f876a.h"
PCLATH equ 0Ah ;# 
# 350 "C:\Program Files (x86)\Microchip\xc8\v1.32\include\pic16f876a.h"
INTCON equ 0Bh ;# 
# 427 "C:\Program Files (x86)\Microchip\xc8\v1.32\include\pic16f876a.h"
PIR1 equ 0Ch ;# 
# 482 "C:\Program Files (x86)\Microchip\xc8\v1.32\include\pic16f876a.h"
PIR2 equ 0Dh ;# 
# 521 "C:\Program Files (x86)\Microchip\xc8\v1.32\include\pic16f876a.h"
TMR1 equ 0Eh ;# 
# 527 "C:\Program Files (x86)\Microchip\xc8\v1.32\include\pic16f876a.h"
TMR1L equ 0Eh ;# 
# 533 "C:\Program Files (x86)\Microchip\xc8\v1.32\include\pic16f876a.h"
TMR1H equ 0Fh ;# 
# 539 "C:\Program Files (x86)\Microchip\xc8\v1.32\include\pic16f876a.h"
T1CON equ 010h ;# 
# 613 "C:\Program Files (x86)\Microchip\xc8\v1.32\include\pic16f876a.h"
TMR2 equ 011h ;# 
# 619 "C:\Program Files (x86)\Microchip\xc8\v1.32\include\pic16f876a.h"
T2CON equ 012h ;# 
# 689 "C:\Program Files (x86)\Microchip\xc8\v1.32\include\pic16f876a.h"
SSPBUF equ 013h ;# 
# 695 "C:\Program Files (x86)\Microchip\xc8\v1.32\include\pic16f876a.h"
SSPCON equ 014h ;# 
# 764 "C:\Program Files (x86)\Microchip\xc8\v1.32\include\pic16f876a.h"
CCPR1 equ 015h ;# 
# 770 "C:\Program Files (x86)\Microchip\xc8\v1.32\include\pic16f876a.h"
CCPR1L equ 015h ;# 
# 776 "C:\Program Files (x86)\Microchip\xc8\v1.32\include\pic16f876a.h"
CCPR1H equ 016h ;# 
# 782 "C:\Program Files (x86)\Microchip\xc8\v1.32\include\pic16f876a.h"
CCP1CON equ 017h ;# 
# 839 "C:\Program Files (x86)\Microchip\xc8\v1.32\include\pic16f876a.h"
RCSTA equ 018h ;# 
# 933 "C:\Program Files (x86)\Microchip\xc8\v1.32\include\pic16f876a.h"
TXREG equ 019h ;# 
# 939 "C:\Program Files (x86)\Microchip\xc8\v1.32\include\pic16f876a.h"
RCREG equ 01Ah ;# 
# 945 "C:\Program Files (x86)\Microchip\xc8\v1.32\include\pic16f876a.h"
CCPR2 equ 01Bh ;# 
# 951 "C:\Program Files (x86)\Microchip\xc8\v1.32\include\pic16f876a.h"
CCPR2L equ 01Bh ;# 
# 957 "C:\Program Files (x86)\Microchip\xc8\v1.32\include\pic16f876a.h"
CCPR2H equ 01Ch ;# 
# 963 "C:\Program Files (x86)\Microchip\xc8\v1.32\include\pic16f876a.h"
CCP2CON equ 01Dh ;# 
# 1020 "C:\Program Files (x86)\Microchip\xc8\v1.32\include\pic16f876a.h"
ADRESH equ 01Eh ;# 
# 1026 "C:\Program Files (x86)\Microchip\xc8\v1.32\include\pic16f876a.h"
ADCON0 equ 01Fh ;# 
# 1121 "C:\Program Files (x86)\Microchip\xc8\v1.32\include\pic16f876a.h"
OPTION_REG equ 081h ;# 
# 1190 "C:\Program Files (x86)\Microchip\xc8\v1.32\include\pic16f876a.h"
TRISA equ 085h ;# 
# 1239 "C:\Program Files (x86)\Microchip\xc8\v1.32\include\pic16f876a.h"
TRISB equ 086h ;# 
# 1300 "C:\Program Files (x86)\Microchip\xc8\v1.32\include\pic16f876a.h"
TRISC equ 087h ;# 
# 1361 "C:\Program Files (x86)\Microchip\xc8\v1.32\include\pic16f876a.h"
PIE1 equ 08Ch ;# 
# 1416 "C:\Program Files (x86)\Microchip\xc8\v1.32\include\pic16f876a.h"
PIE2 equ 08Dh ;# 
# 1455 "C:\Program Files (x86)\Microchip\xc8\v1.32\include\pic16f876a.h"
PCON equ 08Eh ;# 
# 1488 "C:\Program Files (x86)\Microchip\xc8\v1.32\include\pic16f876a.h"
SSPCON2 equ 091h ;# 
# 1549 "C:\Program Files (x86)\Microchip\xc8\v1.32\include\pic16f876a.h"
PR2 equ 092h ;# 
# 1555 "C:\Program Files (x86)\Microchip\xc8\v1.32\include\pic16f876a.h"
SSPADD equ 093h ;# 
# 1561 "C:\Program Files (x86)\Microchip\xc8\v1.32\include\pic16f876a.h"
SSPSTAT equ 094h ;# 
# 1729 "C:\Program Files (x86)\Microchip\xc8\v1.32\include\pic16f876a.h"
TXSTA equ 098h ;# 
# 1809 "C:\Program Files (x86)\Microchip\xc8\v1.32\include\pic16f876a.h"
SPBRG equ 099h ;# 
# 1815 "C:\Program Files (x86)\Microchip\xc8\v1.32\include\pic16f876a.h"
CMCON equ 09Ch ;# 
# 1884 "C:\Program Files (x86)\Microchip\xc8\v1.32\include\pic16f876a.h"
CVRCON equ 09Dh ;# 
# 1948 "C:\Program Files (x86)\Microchip\xc8\v1.32\include\pic16f876a.h"
ADRESL equ 09Eh ;# 
# 1954 "C:\Program Files (x86)\Microchip\xc8\v1.32\include\pic16f876a.h"
ADCON1 equ 09Fh ;# 
# 2012 "C:\Program Files (x86)\Microchip\xc8\v1.32\include\pic16f876a.h"
EEDATA equ 010Ch ;# 
# 2018 "C:\Program Files (x86)\Microchip\xc8\v1.32\include\pic16f876a.h"
EEADR equ 010Dh ;# 
# 2024 "C:\Program Files (x86)\Microchip\xc8\v1.32\include\pic16f876a.h"
EEDATH equ 010Eh ;# 
# 2030 "C:\Program Files (x86)\Microchip\xc8\v1.32\include\pic16f876a.h"
EEADRH equ 010Fh ;# 
# 2036 "C:\Program Files (x86)\Microchip\xc8\v1.32\include\pic16f876a.h"
EECON1 equ 018Ch ;# 
# 2080 "C:\Program Files (x86)\Microchip\xc8\v1.32\include\pic16f876a.h"
EECON2 equ 018Dh ;# 
# 49 "C:\Program Files (x86)\Microchip\xc8\v1.32\include\pic16f876a.h"
INDF equ 00h ;# 
# 55 "C:\Program Files (x86)\Microchip\xc8\v1.32\include\pic16f876a.h"
TMR0 equ 01h ;# 
# 61 "C:\Program Files (x86)\Microchip\xc8\v1.32\include\pic16f876a.h"
PCL equ 02h ;# 
# 67 "C:\Program Files (x86)\Microchip\xc8\v1.32\include\pic16f876a.h"
STATUS equ 03h ;# 
# 154 "C:\Program Files (x86)\Microchip\xc8\v1.32\include\pic16f876a.h"
FSR equ 04h ;# 
# 160 "C:\Program Files (x86)\Microchip\xc8\v1.32\include\pic16f876a.h"
PORTA equ 05h ;# 
# 209 "C:\Program Files (x86)\Microchip\xc8\v1.32\include\pic16f876a.h"
PORTB equ 06h ;# 
# 270 "C:\Program Files (x86)\Microchip\xc8\v1.32\include\pic16f876a.h"
PORTC equ 07h ;# 
# 331 "C:\Program Files (x86)\Microchip\xc8\v1.32\include\pic16f876a.h"
PCLATH equ 0Ah ;# 
# 350 "C:\Program Files (x86)\Microchip\xc8\v1.32\include\pic16f876a.h"
INTCON equ 0Bh ;# 
# 427 "C:\Program Files (x86)\Microchip\xc8\v1.32\include\pic16f876a.h"
PIR1 equ 0Ch ;# 
# 482 "C:\Program Files (x86)\Microchip\xc8\v1.32\include\pic16f876a.h"
PIR2 equ 0Dh ;# 
# 521 "C:\Program Files (x86)\Microchip\xc8\v1.32\include\pic16f876a.h"
TMR1 equ 0Eh ;# 
# 527 "C:\Program Files (x86)\Microchip\xc8\v1.32\include\pic16f876a.h"
TMR1L equ 0Eh ;# 
# 533 "C:\Program Files (x86)\Microchip\xc8\v1.32\include\pic16f876a.h"
TMR1H equ 0Fh ;# 
# 539 "C:\Program Files (x86)\Microchip\xc8\v1.32\include\pic16f876a.h"
T1CON equ 010h ;# 
# 613 "C:\Program Files (x86)\Microchip\xc8\v1.32\include\pic16f876a.h"
TMR2 equ 011h ;# 
# 619 "C:\Program Files (x86)\Microchip\xc8\v1.32\include\pic16f876a.h"
T2CON equ 012h ;# 
# 689 "C:\Program Files (x86)\Microchip\xc8\v1.32\include\pic16f876a.h"
SSPBUF equ 013h ;# 
# 695 "C:\Program Files (x86)\Microchip\xc8\v1.32\include\pic16f876a.h"
SSPCON equ 014h ;# 
# 764 "C:\Program Files (x86)\Microchip\xc8\v1.32\include\pic16f876a.h"
CCPR1 equ 015h ;# 
# 770 "C:\Program Files (x86)\Microchip\xc8\v1.32\include\pic16f876a.h"
CCPR1L equ 015h ;# 
# 776 "C:\Program Files (x86)\Microchip\xc8\v1.32\include\pic16f876a.h"
CCPR1H equ 016h ;# 
# 782 "C:\Program Files (x86)\Microchip\xc8\v1.32\include\pic16f876a.h"
CCP1CON equ 017h ;# 
# 839 "C:\Program Files (x86)\Microchip\xc8\v1.32\include\pic16f876a.h"
RCSTA equ 018h ;# 
# 933 "C:\Program Files (x86)\Microchip\xc8\v1.32\include\pic16f876a.h"
TXREG equ 019h ;# 
# 939 "C:\Program Files (x86)\Microchip\xc8\v1.32\include\pic16f876a.h"
RCREG equ 01Ah ;# 
# 945 "C:\Program Files (x86)\Microchip\xc8\v1.32\include\pic16f876a.h"
CCPR2 equ 01Bh ;# 
# 951 "C:\Program Files (x86)\Microchip\xc8\v1.32\include\pic16f876a.h"
CCPR2L equ 01Bh ;# 
# 957 "C:\Program Files (x86)\Microchip\xc8\v1.32\include\pic16f876a.h"
CCPR2H equ 01Ch ;# 
# 963 "C:\Program Files (x86)\Microchip\xc8\v1.32\include\pic16f876a.h"
CCP2CON equ 01Dh ;# 
# 1020 "C:\Program Files (x86)\Microchip\xc8\v1.32\include\pic16f876a.h"
ADRESH equ 01Eh ;# 
# 1026 "C:\Program Files (x86)\Microchip\xc8\v1.32\include\pic16f876a.h"
ADCON0 equ 01Fh ;# 
# 1121 "C:\Program Files (x86)\Microchip\xc8\v1.32\include\pic16f876a.h"
OPTION_REG equ 081h ;# 
# 1190 "C:\Program Files (x86)\Microchip\xc8\v1.32\include\pic16f876a.h"
TRISA equ 085h ;# 
# 1239 "C:\Program Files (x86)\Microchip\xc8\v1.32\include\pic16f876a.h"
TRISB equ 086h ;# 
# 1300 "C:\Program Files (x86)\Microchip\xc8\v1.32\include\pic16f876a.h"
TRISC equ 087h ;# 
# 1361 "C:\Program Files (x86)\Microchip\xc8\v1.32\include\pic16f876a.h"
PIE1 equ 08Ch ;# 
# 1416 "C:\Program Files (x86)\Microchip\xc8\v1.32\include\pic16f876a.h"
PIE2 equ 08Dh ;# 
# 1455 "C:\Program Files (x86)\Microchip\xc8\v1.32\include\pic16f876a.h"
PCON equ 08Eh ;# 
# 1488 "C:\Program Files (x86)\Microchip\xc8\v1.32\include\pic16f876a.h"
SSPCON2 equ 091h ;# 
# 1549 "C:\Program Files (x86)\Microchip\xc8\v1.32\include\pic16f876a.h"
PR2 equ 092h ;# 
# 1555 "C:\Program Files (x86)\Microchip\xc8\v1.32\include\pic16f876a.h"
SSPADD equ 093h ;# 
# 1561 "C:\Program Files (x86)\Microchip\xc8\v1.32\include\pic16f876a.h"
SSPSTAT equ 094h ;# 
# 1729 "C:\Program Files (x86)\Microchip\xc8\v1.32\include\pic16f876a.h"
TXSTA equ 098h ;# 
# 1809 "C:\Program Files (x86)\Microchip\xc8\v1.32\include\pic16f876a.h"
SPBRG equ 099h ;# 
# 1815 "C:\Program Files (x86)\Microchip\xc8\v1.32\include\pic16f876a.h"
CMCON equ 09Ch ;# 
# 1884 "C:\Program Files (x86)\Microchip\xc8\v1.32\include\pic16f876a.h"
CVRCON equ 09Dh ;# 
# 1948 "C:\Program Files (x86)\Microchip\xc8\v1.32\include\pic16f876a.h"
ADRESL equ 09Eh ;# 
# 1954 "C:\Program Files (x86)\Microchip\xc8\v1.32\include\pic16f876a.h"
ADCON1 equ 09Fh ;# 
# 2012 "C:\Program Files (x86)\Microchip\xc8\v1.32\include\pic16f876a.h"
EEDATA equ 010Ch ;# 
# 2018 "C:\Program Files (x86)\Microchip\xc8\v1.32\include\pic16f876a.h"
EEADR equ 010Dh ;# 
# 2024 "C:\Program Files (x86)\Microchip\xc8\v1.32\include\pic16f876a.h"
EEDATH equ 010Eh ;# 
# 2030 "C:\Program Files (x86)\Microchip\xc8\v1.32\include\pic16f876a.h"
EEADRH equ 010Fh ;# 
# 2036 "C:\Program Files (x86)\Microchip\xc8\v1.32\include\pic16f876a.h"
EECON1 equ 018Ch ;# 
# 2080 "C:\Program Files (x86)\Microchip\xc8\v1.32\include\pic16f876a.h"
EECON2 equ 018Dh ;# 
# 49 "C:\Program Files (x86)\Microchip\xc8\v1.32\include\pic16f876a.h"
INDF equ 00h ;# 
# 55 "C:\Program Files (x86)\Microchip\xc8\v1.32\include\pic16f876a.h"
TMR0 equ 01h ;# 
# 61 "C:\Program Files (x86)\Microchip\xc8\v1.32\include\pic16f876a.h"
PCL equ 02h ;# 
# 67 "C:\Program Files (x86)\Microchip\xc8\v1.32\include\pic16f876a.h"
STATUS equ 03h ;# 
# 154 "C:\Program Files (x86)\Microchip\xc8\v1.32\include\pic16f876a.h"
FSR equ 04h ;# 
# 160 "C:\Program Files (x86)\Microchip\xc8\v1.32\include\pic16f876a.h"
PORTA equ 05h ;# 
# 209 "C:\Program Files (x86)\Microchip\xc8\v1.32\include\pic16f876a.h"
PORTB equ 06h ;# 
# 270 "C:\Program Files (x86)\Microchip\xc8\v1.32\include\pic16f876a.h"
PORTC equ 07h ;# 
# 331 "C:\Program Files (x86)\Microchip\xc8\v1.32\include\pic16f876a.h"
PCLATH equ 0Ah ;# 
# 350 "C:\Program Files (x86)\Microchip\xc8\v1.32\include\pic16f876a.h"
INTCON equ 0Bh ;# 
# 427 "C:\Program Files (x86)\Microchip\xc8\v1.32\include\pic16f876a.h"
PIR1 equ 0Ch ;# 
# 482 "C:\Program Files (x86)\Microchip\xc8\v1.32\include\pic16f876a.h"
PIR2 equ 0Dh ;# 
# 521 "C:\Program Files (x86)\Microchip\xc8\v1.32\include\pic16f876a.h"
TMR1 equ 0Eh ;# 
# 527 "C:\Program Files (x86)\Microchip\xc8\v1.32\include\pic16f876a.h"
TMR1L equ 0Eh ;# 
# 533 "C:\Program Files (x86)\Microchip\xc8\v1.32\include\pic16f876a.h"
TMR1H equ 0Fh ;# 
# 539 "C:\Program Files (x86)\Microchip\xc8\v1.32\include\pic16f876a.h"
T1CON equ 010h ;# 
# 613 "C:\Program Files (x86)\Microchip\xc8\v1.32\include\pic16f876a.h"
TMR2 equ 011h ;# 
# 619 "C:\Program Files (x86)\Microchip\xc8\v1.32\include\pic16f876a.h"
T2CON equ 012h ;# 
# 689 "C:\Program Files (x86)\Microchip\xc8\v1.32\include\pic16f876a.h"
SSPBUF equ 013h ;# 
# 695 "C:\Program Files (x86)\Microchip\xc8\v1.32\include\pic16f876a.h"
SSPCON equ 014h ;# 
# 764 "C:\Program Files (x86)\Microchip\xc8\v1.32\include\pic16f876a.h"
CCPR1 equ 015h ;# 
# 770 "C:\Program Files (x86)\Microchip\xc8\v1.32\include\pic16f876a.h"
CCPR1L equ 015h ;# 
# 776 "C:\Program Files (x86)\Microchip\xc8\v1.32\include\pic16f876a.h"
CCPR1H equ 016h ;# 
# 782 "C:\Program Files (x86)\Microchip\xc8\v1.32\include\pic16f876a.h"
CCP1CON equ 017h ;# 
# 839 "C:\Program Files (x86)\Microchip\xc8\v1.32\include\pic16f876a.h"
RCSTA equ 018h ;# 
# 933 "C:\Program Files (x86)\Microchip\xc8\v1.32\include\pic16f876a.h"
TXREG equ 019h ;# 
# 939 "C:\Program Files (x86)\Microchip\xc8\v1.32\include\pic16f876a.h"
RCREG equ 01Ah ;# 
# 945 "C:\Program Files (x86)\Microchip\xc8\v1.32\include\pic16f876a.h"
CCPR2 equ 01Bh ;# 
# 951 "C:\Program Files (x86)\Microchip\xc8\v1.32\include\pic16f876a.h"
CCPR2L equ 01Bh ;# 
# 957 "C:\Program Files (x86)\Microchip\xc8\v1.32\include\pic16f876a.h"
CCPR2H equ 01Ch ;# 
# 963 "C:\Program Files (x86)\Microchip\xc8\v1.32\include\pic16f876a.h"
CCP2CON equ 01Dh ;# 
# 1020 "C:\Program Files (x86)\Microchip\xc8\v1.32\include\pic16f876a.h"
ADRESH equ 01Eh ;# 
# 1026 "C:\Program Files (x86)\Microchip\xc8\v1.32\include\pic16f876a.h"
ADCON0 equ 01Fh ;# 
# 1121 "C:\Program Files (x86)\Microchip\xc8\v1.32\include\pic16f876a.h"
OPTION_REG equ 081h ;# 
# 1190 "C:\Program Files (x86)\Microchip\xc8\v1.32\include\pic16f876a.h"
TRISA equ 085h ;# 
# 1239 "C:\Program Files (x86)\Microchip\xc8\v1.32\include\pic16f876a.h"
TRISB equ 086h ;# 
# 1300 "C:\Program Files (x86)\Microchip\xc8\v1.32\include\pic16f876a.h"
TRISC equ 087h ;# 
# 1361 "C:\Program Files (x86)\Microchip\xc8\v1.32\include\pic16f876a.h"
PIE1 equ 08Ch ;# 
# 1416 "C:\Program Files (x86)\Microchip\xc8\v1.32\include\pic16f876a.h"
PIE2 equ 08Dh ;# 
# 1455 "C:\Program Files (x86)\Microchip\xc8\v1.32\include\pic16f876a.h"
PCON equ 08Eh ;# 
# 1488 "C:\Program Files (x86)\Microchip\xc8\v1.32\include\pic16f876a.h"
SSPCON2 equ 091h ;# 
# 1549 "C:\Program Files (x86)\Microchip\xc8\v1.32\include\pic16f876a.h"
PR2 equ 092h ;# 
# 1555 "C:\Program Files (x86)\Microchip\xc8\v1.32\include\pic16f876a.h"
SSPADD equ 093h ;# 
# 1561 "C:\Program Files (x86)\Microchip\xc8\v1.32\include\pic16f876a.h"
SSPSTAT equ 094h ;# 
# 1729 "C:\Program Files (x86)\Microchip\xc8\v1.32\include\pic16f876a.h"
TXSTA equ 098h ;# 
# 1809 "C:\Program Files (x86)\Microchip\xc8\v1.32\include\pic16f876a.h"
SPBRG equ 099h ;# 
# 1815 "C:\Program Files (x86)\Microchip\xc8\v1.32\include\pic16f876a.h"
CMCON equ 09Ch ;# 
# 1884 "C:\Program Files (x86)\Microchip\xc8\v1.32\include\pic16f876a.h"
CVRCON equ 09Dh ;# 
# 1948 "C:\Program Files (x86)\Microchip\xc8\v1.32\include\pic16f876a.h"
ADRESL equ 09Eh ;# 
# 1954 "C:\Program Files (x86)\Microchip\xc8\v1.32\include\pic16f876a.h"
ADCON1 equ 09Fh ;# 
# 2012 "C:\Program Files (x86)\Microchip\xc8\v1.32\include\pic16f876a.h"
EEDATA equ 010Ch ;# 
# 2018 "C:\Program Files (x86)\Microchip\xc8\v1.32\include\pic16f876a.h"
EEADR equ 010Dh ;# 
# 2024 "C:\Program Files (x86)\Microchip\xc8\v1.32\include\pic16f876a.h"
EEDATH equ 010Eh ;# 
# 2030 "C:\Program Files (x86)\Microchip\xc8\v1.32\include\pic16f876a.h"
EEADRH equ 010Fh ;# 
# 2036 "C:\Program Files (x86)\Microchip\xc8\v1.32\include\pic16f876a.h"
EECON1 equ 018Ch ;# 
# 2080 "C:\Program Files (x86)\Microchip\xc8\v1.32\include\pic16f876a.h"
EECON2 equ 018Dh ;# 
# 49 "C:\Program Files (x86)\Microchip\xc8\v1.32\include\pic16f876a.h"
INDF equ 00h ;# 
# 55 "C:\Program Files (x86)\Microchip\xc8\v1.32\include\pic16f876a.h"
TMR0 equ 01h ;# 
# 61 "C:\Program Files (x86)\Microchip\xc8\v1.32\include\pic16f876a.h"
PCL equ 02h ;# 
# 67 "C:\Program Files (x86)\Microchip\xc8\v1.32\include\pic16f876a.h"
STATUS equ 03h ;# 
# 154 "C:\Program Files (x86)\Microchip\xc8\v1.32\include\pic16f876a.h"
FSR equ 04h ;# 
# 160 "C:\Program Files (x86)\Microchip\xc8\v1.32\include\pic16f876a.h"
PORTA equ 05h ;# 
# 209 "C:\Program Files (x86)\Microchip\xc8\v1.32\include\pic16f876a.h"
PORTB equ 06h ;# 
# 270 "C:\Program Files (x86)\Microchip\xc8\v1.32\include\pic16f876a.h"
PORTC equ 07h ;# 
# 331 "C:\Program Files (x86)\Microchip\xc8\v1.32\include\pic16f876a.h"
PCLATH equ 0Ah ;# 
# 350 "C:\Program Files (x86)\Microchip\xc8\v1.32\include\pic16f876a.h"
INTCON equ 0Bh ;# 
# 427 "C:\Program Files (x86)\Microchip\xc8\v1.32\include\pic16f876a.h"
PIR1 equ 0Ch ;# 
# 482 "C:\Program Files (x86)\Microchip\xc8\v1.32\include\pic16f876a.h"
PIR2 equ 0Dh ;# 
# 521 "C:\Program Files (x86)\Microchip\xc8\v1.32\include\pic16f876a.h"
TMR1 equ 0Eh ;# 
# 527 "C:\Program Files (x86)\Microchip\xc8\v1.32\include\pic16f876a.h"
TMR1L equ 0Eh ;# 
# 533 "C:\Program Files (x86)\Microchip\xc8\v1.32\include\pic16f876a.h"
TMR1H equ 0Fh ;# 
# 539 "C:\Program Files (x86)\Microchip\xc8\v1.32\include\pic16f876a.h"
T1CON equ 010h ;# 
# 613 "C:\Program Files (x86)\Microchip\xc8\v1.32\include\pic16f876a.h"
TMR2 equ 011h ;# 
# 619 "C:\Program Files (x86)\Microchip\xc8\v1.32\include\pic16f876a.h"
T2CON equ 012h ;# 
# 689 "C:\Program Files (x86)\Microchip\xc8\v1.32\include\pic16f876a.h"
SSPBUF equ 013h ;# 
# 695 "C:\Program Files (x86)\Microchip\xc8\v1.32\include\pic16f876a.h"
SSPCON equ 014h ;# 
# 764 "C:\Program Files (x86)\Microchip\xc8\v1.32\include\pic16f876a.h"
CCPR1 equ 015h ;# 
# 770 "C:\Program Files (x86)\Microchip\xc8\v1.32\include\pic16f876a.h"
CCPR1L equ 015h ;# 
# 776 "C:\Program Files (x86)\Microchip\xc8\v1.32\include\pic16f876a.h"
CCPR1H equ 016h ;# 
# 782 "C:\Program Files (x86)\Microchip\xc8\v1.32\include\pic16f876a.h"
CCP1CON equ 017h ;# 
# 839 "C:\Program Files (x86)\Microchip\xc8\v1.32\include\pic16f876a.h"
RCSTA equ 018h ;# 
# 933 "C:\Program Files (x86)\Microchip\xc8\v1.32\include\pic16f876a.h"
TXREG equ 019h ;# 
# 939 "C:\Program Files (x86)\Microchip\xc8\v1.32\include\pic16f876a.h"
RCREG equ 01Ah ;# 
# 945 "C:\Program Files (x86)\Microchip\xc8\v1.32\include\pic16f876a.h"
CCPR2 equ 01Bh ;# 
# 951 "C:\Program Files (x86)\Microchip\xc8\v1.32\include\pic16f876a.h"
CCPR2L equ 01Bh ;# 
# 957 "C:\Program Files (x86)\Microchip\xc8\v1.32\include\pic16f876a.h"
CCPR2H equ 01Ch ;# 
# 963 "C:\Program Files (x86)\Microchip\xc8\v1.32\include\pic16f876a.h"
CCP2CON equ 01Dh ;# 
# 1020 "C:\Program Files (x86)\Microchip\xc8\v1.32\include\pic16f876a.h"
ADRESH equ 01Eh ;# 
# 1026 "C:\Program Files (x86)\Microchip\xc8\v1.32\include\pic16f876a.h"
ADCON0 equ 01Fh ;# 
# 1121 "C:\Program Files (x86)\Microchip\xc8\v1.32\include\pic16f876a.h"
OPTION_REG equ 081h ;# 
# 1190 "C:\Program Files (x86)\Microchip\xc8\v1.32\include\pic16f876a.h"
TRISA equ 085h ;# 
# 1239 "C:\Program Files (x86)\Microchip\xc8\v1.32\include\pic16f876a.h"
TRISB equ 086h ;# 
# 1300 "C:\Program Files (x86)\Microchip\xc8\v1.32\include\pic16f876a.h"
TRISC equ 087h ;# 
# 1361 "C:\Program Files (x86)\Microchip\xc8\v1.32\include\pic16f876a.h"
PIE1 equ 08Ch ;# 
# 1416 "C:\Program Files (x86)\Microchip\xc8\v1.32\include\pic16f876a.h"
PIE2 equ 08Dh ;# 
# 1455 "C:\Program Files (x86)\Microchip\xc8\v1.32\include\pic16f876a.h"
PCON equ 08Eh ;# 
# 1488 "C:\Program Files (x86)\Microchip\xc8\v1.32\include\pic16f876a.h"
SSPCON2 equ 091h ;# 
# 1549 "C:\Program Files (x86)\Microchip\xc8\v1.32\include\pic16f876a.h"
PR2 equ 092h ;# 
# 1555 "C:\Program Files (x86)\Microchip\xc8\v1.32\include\pic16f876a.h"
SSPADD equ 093h ;# 
# 1561 "C:\Program Files (x86)\Microchip\xc8\v1.32\include\pic16f876a.h"
SSPSTAT equ 094h ;# 
# 1729 "C:\Program Files (x86)\Microchip\xc8\v1.32\include\pic16f876a.h"
TXSTA equ 098h ;# 
# 1809 "C:\Program Files (x86)\Microchip\xc8\v1.32\include\pic16f876a.h"
SPBRG equ 099h ;# 
# 1815 "C:\Program Files (x86)\Microchip\xc8\v1.32\include\pic16f876a.h"
CMCON equ 09Ch ;# 
# 1884 "C:\Program Files (x86)\Microchip\xc8\v1.32\include\pic16f876a.h"
CVRCON equ 09Dh ;# 
# 1948 "C:\Program Files (x86)\Microchip\xc8\v1.32\include\pic16f876a.h"
ADRESL equ 09Eh ;# 
# 1954 "C:\Program Files (x86)\Microchip\xc8\v1.32\include\pic16f876a.h"
ADCON1 equ 09Fh ;# 
# 2012 "C:\Program Files (x86)\Microchip\xc8\v1.32\include\pic16f876a.h"
EEDATA equ 010Ch ;# 
# 2018 "C:\Program Files (x86)\Microchip\xc8\v1.32\include\pic16f876a.h"
EEADR equ 010Dh ;# 
# 2024 "C:\Program Files (x86)\Microchip\xc8\v1.32\include\pic16f876a.h"
EEDATH equ 010Eh ;# 
# 2030 "C:\Program Files (x86)\Microchip\xc8\v1.32\include\pic16f876a.h"
EEADRH equ 010Fh ;# 
# 2036 "C:\Program Files (x86)\Microchip\xc8\v1.32\include\pic16f876a.h"
EECON1 equ 018Ch ;# 
# 2080 "C:\Program Files (x86)\Microchip\xc8\v1.32\include\pic16f876a.h"
EECON2 equ 018Dh ;# 
	FNCALL	_main,_SIM300Cmd
	FNCALL	_main,_SIM300Init
	FNCALL	_main,_SIM300SendMsg
	FNCALL	_main,_SIM300WaitForValidCall
	FNCALL	_main,_SMSCommunication
	FNCALL	_main,_USARTFlushBuffer
	FNCALL	_main,_eeprom_read
	FNCALL	_main,_eeprom_write
	FNCALL	_main,_phase_check
	FNCALL	_main,_start
	FNCALL	_main,_stop
	FNCALL	_SMSCommunication,_SIM300SendMsg
	FNCALL	_SMSCommunication,_SIM300WaitForValidMsg
	FNCALL	_SMSCommunication,_USARTFlushBuffer
	FNCALL	_SMSCommunication,_eeprom_read
	FNCALL	_SMSCommunication,_phase_check
	FNCALL	_SMSCommunication,_strcat
	FNCALL	_SMSCommunication,_strcpy
	FNCALL	_SMSCommunication,_strlen
	FNCALL	_SIM300WaitForValidMsg,_SIM300DeleteMsg
	FNCALL	_SIM300WaitForValidMsg,_SIM300ReadValidMsg
	FNCALL	_SIM300WaitForValidMsg,_USARTFlushBuffer
	FNCALL	_SIM300WaitForValidMsg,_strnicmp
	FNCALL	_SIM300ReadValidMsg,_SIM300Cmd
	FNCALL	_SIM300ReadValidMsg,_SIM300WaitForResponse
	FNCALL	_SIM300ReadValidMsg,_USARTFlushBuffer
	FNCALL	_SIM300ReadValidMsg,_sprintf
	FNCALL	_SIM300ReadValidMsg,_strichr
	FNCALL	_SIM300ReadValidMsg,_strrichr
	FNCALL	_SIM300ReadValidMsg,_strstr
	FNCALL	_strstr,_strchr
	FNCALL	_strstr,_strlen
	FNCALL	_strstr,_strncmp
	FNCALL	_SIM300SendMsg,_SIM300Cmd
	FNCALL	_SIM300SendMsg,_SIM300DeleteMsg
	FNCALL	_SIM300SendMsg,_SIM300WaitForResponse
	FNCALL	_SIM300SendMsg,_USARTDataAvailable
	FNCALL	_SIM300SendMsg,_USARTFlushBuffer
	FNCALL	_SIM300SendMsg,_USARTReadBuffer
	FNCALL	_SIM300SendMsg,_USARTWriteChar
	FNCALL	_SIM300SendMsg,_USARTWriteString
	FNCALL	_SIM300SendMsg,_atoi
	FNCALL	_SIM300SendMsg,_sprintf
	FNCALL	_SIM300SendMsg,_strlen
	FNCALL	_SIM300SendMsg,_strnicmp
	FNCALL	_atoi,___wmul
	FNCALL	_atoi,_isdigit
	FNCALL	_SIM300DeleteMsg,_SIM300Cmd
	FNCALL	_SIM300DeleteMsg,_SIM300WaitForResponse
	FNCALL	_SIM300DeleteMsg,_USARTFlushBuffer
	FNCALL	_SIM300DeleteMsg,_sprintf
	FNCALL	_SIM300DeleteMsg,_strnicmp
	FNCALL	_sprintf,___lwdiv
	FNCALL	_sprintf,___lwmod
	FNCALL	_SIM300WaitForResponse,_USARTDataAvailable
	FNCALL	_SIM300WaitForResponse,_USARTFlushBuffer
	FNCALL	_SIM300WaitForResponse,_USARTReadData
	FNCALL	_SIM300WaitForValidCall,_SIM300RingResponse
	FNCALL	_SIM300WaitForValidCall,_USARTFlushBuffer
	FNCALL	_SIM300WaitForValidCall,_strichr
	FNCALL	_SIM300WaitForValidCall,_strnicmp
	FNCALL	_SIM300WaitForValidCall,_strrichr
	FNCALL	_strrichr,_toupper
	FNCALL	_strnicmp,_toupper
	FNCALL	_strichr,_toupper
	FNCALL	_SIM300RingResponse,_USARTDataAvailable
	FNCALL	_SIM300RingResponse,_USARTFlushBuffer
	FNCALL	_SIM300RingResponse,_USARTReadData
	FNCALL	_USARTFlushBuffer,_USARTDataAvailable
	FNCALL	_USARTFlushBuffer,_USARTReadData
	FNCALL	_SIM300Init,_SIM300CheckResponse
	FNCALL	_SIM300Init,_SIM300Cmd
	FNCALL	_SIM300Init,_USARTDataAvailable
	FNCALL	_SIM300Init,_USARTInit
	FNCALL	_SIM300Init,_USARTReadBuffer
	FNCALL	_SIM300Cmd,_USARTDataAvailable
	FNCALL	_SIM300Cmd,_USARTReadBuffer
	FNCALL	_SIM300Cmd,_USARTWriteChar
	FNCALL	_SIM300Cmd,_USARTWriteString
	FNCALL	_SIM300Cmd,___wmul
	FNCALL	_SIM300Cmd,_strlen
	FNCALL	_USARTWriteString,_USARTWriteChar
	FNCALL	_USARTReadBuffer,_USARTReadData
	FNROOT	_main
	FNCALL	_ISR,_USARTHandleRxInt
	FNCALL	intlevel1,_ISR
	global	intlevel1
	FNROOT	intlevel1
	global	_REQUIRED_RING_COUNT
	global	_phone_number
psect	idataBANK1,class=CODE,space=0,delta=2,noexec
global __pidataBANK1
__pidataBANK1:
	file	"E:\Study Material\XC8 PROJECTS\Aurangabad\MobileAdv.c"
	line	27

;initializer for _REQUIRED_RING_COUNT
	retlw	03h
	line	29

;initializer for _phone_number
	retlw	041h
	retlw	054h
	retlw	044h
	retlw	0
	retlw	0
	retlw	0
	retlw	0
	retlw	0
	retlw	0
	retlw	0
	retlw	0
	retlw	0
	retlw	0
	retlw	0
	retlw	0
	retlw	0
	retlw	0
	retlw	0
	retlw	0
	retlw	0
	retlw	0
	retlw	0
	retlw	0
	retlw	0
	retlw	0
	retlw	0
	retlw	0
	retlw	0
	retlw	0
	retlw	0
	retlw	0
	retlw	0
	retlw	0
	retlw	0
	retlw	0
	retlw	0
	retlw	0
	retlw	0
	retlw	0
	retlw	0
	global	_dpowers
psect	stringtext,class=STRCODE,delta=2,reloc=256,noexec
global __pstringtext
__pstringtext:
stringtab:
	global    __stringtab
__stringtab:
;	String table - string pointers are 2 bytes each
	btfsc	(btemp+1),7
	ljmp	stringcode
	bcf	status,7
	btfsc	(btemp+1),0
	bsf	status,7
	movf	indf,w
	incf fsr
skipnz
incf btemp+1
	return
stringcode:
	movf btemp+1,w
andlw 7Fh
movwf	pclath
	movf	fsr,w
incf fsr
skipnz
incf btemp+1
	movwf pc
	global __stringbase
__stringbase:
	global    __end_of__stringtab
__end_of__stringtab:
	file	"C:\Program Files (x86)\Microchip\xc8\v1.32\sources\common\doprnt.c"
	line	354
_dpowers:
	retlw	01h
	retlw	0

	retlw	0Ah
	retlw	0

	retlw	064h
	retlw	0

	retlw	0E8h
	retlw	03h

	retlw	010h
	retlw	027h

	global __end_of_dpowers
__end_of_dpowers:
	global	_dpowers
	global	_UQEnd
	global	_UQFront
	global	USARTWriteInt@F1040
	global	_Dry_Run_Timer
	global	_LP_FLAG
	global	_MOTOR_FLAG
	global	_RING_COUNT
	global	_Timer
	global	_WRONG_NUMBER
	global	_count
	global	_URBuff
	global	_sim300_buffer
	global	_MSG_number
	global	_PIR1bits
_PIR1bits	set	0xC
	global	_RCREG
_RCREG	set	0x1A
	global	_RCSTAbits
_RCSTAbits	set	0x18
	global	_TXREG
_TXREG	set	0x19
	global	_CARRY
_CARRY	set	0x18
	global	_GIE
_GIE	set	0x5F
	global	_PEIE
_PEIE	set	0x5E
	global	_RA5
_RA5	set	0x2D
	global	_RB0
_RB0	set	0x30
	global	_RB1
_RB1	set	0x31
	global	_RB7
_RB7	set	0x37
	global	_RC0
_RC0	set	0x38
	global	_RC1
_RC1	set	0x39
	global	_RC2
_RC2	set	0x3A
	global	_RC3
_RC3	set	0x3B
	global	_RC4
_RC4	set	0x3C
	global	_RC5
_RC5	set	0x3D
	global	_RCIF
_RCIF	set	0x65
	global	_ADCON1
_ADCON1	set	0x9F
	global	_SPBRG
_SPBRG	set	0x99
	global	_TRISA
_TRISA	set	0x85
	global	_TRISB
_TRISB	set	0x86
	global	_TRISC
_TRISC	set	0x87
	global	_TXSTAbits
_TXSTAbits	set	0x98
	global	_RCIE
_RCIE	set	0x465
	global	_EEADR
_EEADR	set	0x10D
	global	_EEDATA
_EEDATA	set	0x10C
	global	_EECON1
_EECON1	set	0x18C
	global	_EECON2
_EECON2	set	0x18D
	global	_RD
_RD	set	0xC60
	global	_WR
_WR	set	0xC61
	global	_WREN
_WREN	set	0xC62
	global __stringdata
__stringdata:
	
STR_16:	
	retlw	77	;'M'
	retlw	79	;'O'
	retlw	84	;'T'
	retlw	79	;'O'
	retlw	82	;'R'
	retlw	32	;' '
	retlw	73	;'I'
	retlw	83	;'S'
	retlw	32	;' '
	retlw	83	;'S'
	retlw	84	;'T'
	retlw	79	;'O'
	retlw	80	;'P'
	retlw	80	;'P'
	retlw	69	;'E'
	retlw	68	;'D'
	retlw	32	;' '
	retlw	46	;'.'
	retlw	46	;'.'
	retlw	46	;'.'
	retlw	33	;'!'
	retlw	0
psect	stringtext
	
STR_8:	
	retlw	77	;'M'
	retlw	79	;'O'
	retlw	84	;'T'
	retlw	79	;'O'
	retlw	82	;'R'
	retlw	32	;' '
	retlw	73	;'I'
	retlw	83	;'S'
	retlw	32	;' '
	retlw	83	;'S'
	retlw	84	;'T'
	retlw	65	;'A'
	retlw	82	;'R'
	retlw	84	;'T'
	retlw	69	;'E'
	retlw	68	;'D'
	retlw	32	;' '
	retlw	46	;'.'
	retlw	46	;'.'
	retlw	46	;'.'
	retlw	33	;'!'
	retlw	0
psect	stringtext
	
STR_26:	
	retlw	80	;'P'
	retlw	79	;'O'
	retlw	87	;'W'
	retlw	69	;'E'
	retlw	82	;'R'
	retlw	32	;' '
	retlw	70	;'F'
	retlw	65	;'A'
	retlw	73	;'I'
	retlw	76	;'L'
	retlw	32	;' '
	retlw	79	;'O'
	retlw	78	;'N'
	retlw	32	;' '
	retlw	80	;'P'
	retlw	72	;'H'
	retlw	65	;'A'
	retlw	83	;'S'
	retlw	69	;'E'
	retlw	32	;' '
	retlw	0
psect	stringtext
	
STR_11:	
	retlw	83	;'S'
	retlw	84	;'T'
	retlw	65	;'A'
	retlw	82	;'R'
	retlw	84	;'T'
	retlw	69	;'E'
	retlw	82	;'R'
	retlw	32	;' '
	retlw	80	;'P'
	retlw	82	;'R'
	retlw	79	;'O'
	retlw	66	;'B'
	retlw	76	;'L'
	retlw	69	;'E'
	retlw	77	;'M'
	retlw	46	;'.'
	retlw	46	;'.'
	retlw	46	;'.'
	retlw	33	;'!'
	retlw	0
psect	stringtext
	
STR_37:	
	retlw	73	;'I'
	retlw	110	;'n'
	retlw	118	;'v'
	retlw	97	;'a'
	retlw	108	;'l'
	retlw	105	;'i'
	retlw	100	;'d'
	retlw	32	;' '
	retlw	75	;'K'
	retlw	101	;'e'
	retlw	121	;'y'
	retlw	119	;'w'
	retlw	111	;'o'
	retlw	114	;'r'
	retlw	100	;'d'
	retlw	0
psect	stringtext
	
STR_32:	
	retlw	77	;'M'
	retlw	79	;'O'
	retlw	84	;'T'
	retlw	79	;'O'
	retlw	82	;'R'
	retlw	32	;' '
	retlw	79	;'O'
	retlw	70	;'F'
	retlw	70	;'F'
	retlw	32	;' '
	retlw	66	;'B'
	retlw	89	;'Y'
	retlw	58	;':'
	retlw	32	;' '
	retlw	0
psect	stringtext
	
STR_21:	
	retlw	77	;'M'
	retlw	79	;'O'
	retlw	84	;'T'
	retlw	79	;'O'
	retlw	82	;'R'
	retlw	32	;' '
	retlw	79	;'O'
	retlw	78	;'N'
	retlw	32	;' '
	retlw	66	;'B'
	retlw	89	;'Y'
	retlw	58	;':'
	retlw	32	;' '
	retlw	0
psect	stringtext
	
STR_34:	
	retlw	10
	retlw	80	;'P'
	retlw	79	;'O'
	retlw	87	;'W'
	retlw	69	;'E'
	retlw	82	;'R'
	retlw	32	;' '
	retlw	70	;'F'
	retlw	65	;'A'
	retlw	73	;'I'
	retlw	76	;'L'
	retlw	33	;'!'
	retlw	0
psect	stringtext
	
STR_45:	
	retlw	65	;'A'
	retlw	84	;'T'
	retlw	43	;'+'
	retlw	67	;'C'
	retlw	77	;'M'
	retlw	71	;'G'
	retlw	83	;'S'
	retlw	61	;'='
	retlw	32	;' '
	retlw	37	;'%'
	retlw	115	;'s'
	retlw	0
psect	stringtext
	
STR_40:	
	retlw	65	;'A'
	retlw	84	;'T'
	retlw	43	;'+'
	retlw	67	;'C'
	retlw	77	;'M'
	retlw	71	;'G'
	retlw	68	;'D'
	retlw	61	;'='
	retlw	37	;'%'
	retlw	100	;'d'
	retlw	0
psect	stringtext
	
STR_43:	
	retlw	65	;'A'
	retlw	84	;'T'
	retlw	43	;'+'
	retlw	67	;'C'
	retlw	77	;'M'
	retlw	71	;'G'
	retlw	82	;'R'
	retlw	61	;'='
	retlw	37	;'%'
	retlw	100	;'d'
	retlw	0
psect	stringtext
	
STR_22:	
	retlw	10
	retlw	80	;'P'
	retlw	79	;'O'
	retlw	87	;'W'
	retlw	69	;'E'
	retlw	82	;'R'
	retlw	32	;' '
	retlw	79	;'O'
	retlw	75	;'K'
	retlw	33	;'!'
	retlw	0
psect	stringtext
	
STR_9:	
	retlw	57	;'9'
	retlw	56	;'8'
	retlw	49	;'1'
	retlw	57	;'9'
	retlw	56	;'8'
	retlw	57	;'9'
	retlw	53	;'5'
	retlw	57	;'9'
	retlw	49	;'1'
	retlw	51	;'3'
	retlw	0
psect	stringtext
	
STR_7:	
	retlw	57	;'9'
	retlw	52	;'4'
	retlw	48	;'0'
	retlw	51	;'3'
	retlw	53	;'5'
	retlw	56	;'8'
	retlw	53	;'5'
	retlw	52	;'4'
	retlw	51	;'3'
	retlw	54	;'6'
	retlw	0
psect	stringtext
	
STR_3:	
	retlw	65	;'A'
	retlw	84	;'T'
	retlw	43	;'+'
	retlw	67	;'C'
	retlw	77	;'M'
	retlw	71	;'G'
	retlw	68	;'D'
	retlw	61	;'='
	retlw	49	;'1'
	retlw	0
psect	stringtext
	
STR_2:	
	retlw	65	;'A'
	retlw	84	;'T'
	retlw	43	;'+'
	retlw	67	;'C'
	retlw	77	;'M'
	retlw	71	;'G'
	retlw	70	;'F'
	retlw	61	;'='
	retlw	49	;'1'
	retlw	0
psect	stringtext
	
STR_1:	
	retlw	65	;'A'
	retlw	84	;'T'
	retlw	43	;'+'
	retlw	67	;'C'
	retlw	76	;'L'
	retlw	73	;'I'
	retlw	80	;'P'
	retlw	61	;'='
	retlw	49	;'1'
	retlw	0
psect	stringtext
	
STR_30:	
	retlw	68	;'D'
	retlw	82	;'R'
	retlw	89	;'Y'
	retlw	32	;' '
	retlw	82	;'R'
	retlw	85	;'U'
	retlw	78	;'N'
	retlw	46	;'.'
	retlw	0
psect	stringtext
	
STR_47:	
	retlw	40	;'('
	retlw	110	;'n'
	retlw	117	;'u'
	retlw	108	;'l'
	retlw	108	;'l'
	retlw	41	;')'
	retlw	0
psect	stringtext
	
STR_42:	
	retlw	43	;'+'
	retlw	67	;'C'
	retlw	77	;'M'
	retlw	84	;'T'
	retlw	73	;'I'
	retlw	58	;':'
	retlw	0
psect	stringtext
	
STR_19:	
	retlw	43	;'+'
	retlw	67	;'C'
	retlw	76	;'L'
	retlw	73	;'I'
	retlw	80	;'P'
	retlw	58	;':'
	retlw	0
psect	stringtext
	
STR_46:	
	retlw	67	;'C'
	retlw	77	;'M'
	retlw	71	;'G'
	retlw	83	;'S'
	retlw	58	;':'
	retlw	0
psect	stringtext
	
STR_44:	
	retlw	69	;'E'
	retlw	71	;'G'
	retlw	76	;'L'
	retlw	0
psect	stringtext
	
STR_24:	
	retlw	65	;'A'
	retlw	84	;'T'
	retlw	68	;'D'
	retlw	0
psect	stringtext
	
STR_4:	
	retlw	65	;'A'
	retlw	84	;'T'
	retlw	72	;'H'
	retlw	0
psect	stringtext
	
STR_39:	
	retlw	79	;'O'
	retlw	75	;'K'
	retlw	0
psect	stringtext
	
STR_38:	
	retlw	65	;'A'
	retlw	84	;'T'
	retlw	0
psect	stringtext
STR_41	equ	STR_39+0
STR_5	equ	STR_4+0
STR_6	equ	STR_4+0
STR_12	equ	STR_4+0
STR_13	equ	STR_4+0
STR_14	equ	STR_4+0
STR_28	equ	STR_24+0
STR_36	equ	STR_24+0
STR_15	equ	STR_7+0
STR_17	equ	STR_9+0
STR_33	equ	STR_22+0
STR_10	equ	STR_8+0
STR_18	equ	STR_16+0
STR_20	equ	STR_32+14
STR_23	equ	STR_32+14
STR_25	equ	STR_32+14
STR_27	equ	STR_32+14
STR_29	equ	STR_32+14
STR_31	equ	STR_32+14
STR_35	equ	STR_32+14
	global __end_of__stringdata
__end_of__stringdata:
; #config settings
	file	"ModemAdv.as"
	line	#
psect cinit,class=CODE,delta=2
global start_initialization
start_initialization:

global __initialization
__initialization:
psect	bssCOMMON,class=COMMON,space=1,noexec
global __pbssCOMMON
__pbssCOMMON:
_UQEnd:
       ds      1

_UQFront:
       ds      1

psect	bssBANK1,class=BANK1,space=1,noexec
global __pbssBANK1
__pbssBANK1:
USARTWriteInt@F1040:
       ds      5

_Dry_Run_Timer:
       ds      1

_LP_FLAG:
       ds      1

_MOTOR_FLAG:
       ds      1

_RING_COUNT:
       ds      1

_Timer:
       ds      1

_WRONG_NUMBER:
       ds      1

_count:
       ds      1

psect	dataBANK1,class=BANK1,space=1,noexec
global __pdataBANK1
__pdataBANK1:
	file	"E:\Study Material\XC8 PROJECTS\Aurangabad\MobileAdv.c"
	line	27
_REQUIRED_RING_COUNT:
       ds      1

psect	dataBANK1
	file	"E:\Study Material\XC8 PROJECTS\Aurangabad\MobileAdv.c"
	line	29
_phone_number:
       ds      40

psect	bssBANK3,class=BANK3,space=1,noexec
global __pbssBANK3
__pbssBANK3:
_sim300_buffer:
       ds      70

_MSG_number:
       ds      15

psect	bssBANK2,class=BANK2,space=1,noexec
global __pbssBANK2
__pbssBANK2:
_URBuff:
       ds      64

	file	"ModemAdv.as"
	line	#
psect clrtext,class=CODE,delta=2
global clear_ram0
;	Called with FSR containing the base address, and
;	W with the last address+1
clear_ram0:
	clrwdt			;clear the watchdog before getting into this loop
clrloop0:
	clrf	indf		;clear RAM location pointed to by FSR
	incf	fsr,f		;increment pointer
	xorwf	fsr,w		;XOR with final address
	btfsc	status,2	;have we reached the end yet?
	retlw	0		;all done for this memory range, return
	xorwf	fsr,w		;XOR again to restore value
	goto	clrloop0		;do the next byte

; Clear objects allocated to COMMON
psect cinit,class=CODE,delta=2,merge=1
	clrf	((__pbssCOMMON)+0)&07Fh
	clrf	((__pbssCOMMON)+1)&07Fh
; Clear objects allocated to BANK1
psect cinit,class=CODE,delta=2,merge=1
	bcf	status, 7	;select IRP bank0
	movlw	low(__pbssBANK1)
	movwf	fsr
	movlw	low((__pbssBANK1)+0Ch)
	fcall	clear_ram0
; Clear objects allocated to BANK3
psect cinit,class=CODE,delta=2,merge=1
	bsf	status, 7	;select IRP bank2
	movlw	low(__pbssBANK3)
	movwf	fsr
	movlw	low((__pbssBANK3)+055h)
	fcall	clear_ram0
; Clear objects allocated to BANK2
psect cinit,class=CODE,delta=2,merge=1
	movlw	low(__pbssBANK2)
	movwf	fsr
	movlw	low((__pbssBANK2)+040h)
	fcall	clear_ram0
	line	#
global btemp
psect inittext,class=CODE,delta=2
global init_fetch0,btemp
;	Called with low address in FSR and high address in W
init_fetch0:
	movf btemp,w
	movwf pclath
	movf btemp+1,w
	movwf pc
global init_ram0
;Called with:
;	high address of idata address in btemp 
;	low address of idata address in btemp+1 
;	low address of data in FSR
;	high address + 1 of data in btemp-1
init_ram0:
	fcall init_fetch0
	movwf indf,f
	incf fsr,f
	movf fsr,w
	xorwf btemp-1,w
	btfsc status,2
	retlw 0
	incf btemp+1,f
	btfsc status,2
	incf btemp,f
	goto init_ram0
; Initialize objects allocated to BANK1
psect cinit,class=CODE,delta=2,merge=1
global init_ram0, __pidataBANK1
	bcf	status, 7	;select IRP bank0
	movlw low(__pdataBANK1+41)
	movwf btemp-1,f
	movlw high(__pidataBANK1)
	movwf btemp,f
	movlw low(__pidataBANK1)
	movwf btemp+1,f
	movlw low(__pdataBANK1)
	movwf fsr,f
	fcall init_ram0
psect cinit,class=CODE,delta=2,merge=1
global end_of_initialization,__end_of__initialization

;End of C runtime variable initialization code

end_of_initialization:
__end_of__initialization:clrf status
ljmp _main	;jump to C main() function
psect	cstackBANK1,class=BANK1,space=1,noexec
global __pcstackBANK1
__pcstackBANK1:
	global	SIM300SendMsg@cmd
SIM300SendMsg@cmd:	; 25 bytes @ 0x0
	ds	25
	global	SIM300SendMsg@len
SIM300SendMsg@len:	; 1 bytes @ 0x19
	ds	1
	global	SIM300SendMsg@n
SIM300SendMsg@n:	; 1 bytes @ 0x1A
	ds	1
psect	cstackCOMMON,class=COMMON,space=1,noexec
global __pcstackCOMMON
__pcstackCOMMON:
?_USARTHandleRxInt:	; 0 bytes @ 0x0
??_USARTHandleRxInt:	; 0 bytes @ 0x0
?_start:	; 0 bytes @ 0x0
?_stop:	; 0 bytes @ 0x0
?_SMSCommunication:	; 0 bytes @ 0x0
?_USARTWriteChar:	; 0 bytes @ 0x0
?_isdigit:	; 1 bit 
?_ISR:	; 0 bytes @ 0x0
?_main:	; 0 bytes @ 0x0
?_eeprom_read:	; 1 bytes @ 0x0
?_SIM300Init:	; 1 bytes @ 0x0
?_phase_check:	; 1 bytes @ 0x0
?_SIM300WaitForValidCall:	; 1 bytes @ 0x0
?_SIM300WaitForValidMsg:	; 1 bytes @ 0x0
?_USARTDataAvailable:	; 1 bytes @ 0x0
?_USARTReadData:	; 1 bytes @ 0x0
?_SIM300ReadValidMsg:	; 1 bytes @ 0x0
?_toupper:	; 1 bytes @ 0x0
?_SIM300DeleteMsg:	; 1 bytes @ 0x0
?_USARTFlushBuffer:	; 2 bytes @ 0x0
	ds	4
	global	USARTHandleRxInt@data
USARTHandleRxInt@data:	; 1 bytes @ 0x4
	ds	1
??_ISR:	; 0 bytes @ 0x5
	ds	4
psect	cstackBANK0,class=BANK0,space=1,noexec
global __pcstackBANK0
__pcstackBANK0:
??_eeprom_read:	; 0 bytes @ 0x0
??_phase_check:	; 0 bytes @ 0x0
??_start:	; 0 bytes @ 0x0
??_stop:	; 0 bytes @ 0x0
?_eeprom_write:	; 0 bytes @ 0x0
?_USARTInit:	; 0 bytes @ 0x0
??_USARTDataAvailable:	; 0 bytes @ 0x0
??_USARTWriteChar:	; 0 bytes @ 0x0
??_USARTReadData:	; 0 bytes @ 0x0
??_isdigit:	; 0 bytes @ 0x0
??_toupper:	; 0 bytes @ 0x0
?_strcpy:	; 1 bytes @ 0x0
?_strcat:	; 1 bytes @ 0x0
?_SIM300CheckResponse:	; 1 bytes @ 0x0
?_strchr:	; 1 bytes @ 0x0
	global	?_strlen
?_strlen:	; 2 bytes @ 0x0
	global	?___wmul
?___wmul:	; 2 bytes @ 0x0
	global	?___lwdiv
?___lwdiv:	; 2 bytes @ 0x0
	global	USARTWriteChar@ch
USARTWriteChar@ch:	; 1 bytes @ 0x0
	global	eeprom_write@value
eeprom_write@value:	; 1 bytes @ 0x0
	global	_isdigit$742
_isdigit$742:	; 1 bytes @ 0x0
	global	SIM300CheckResponse@check
SIM300CheckResponse@check:	; 2 bytes @ 0x0
	global	USARTInit@baud_rate
USARTInit@baud_rate:	; 2 bytes @ 0x0
	global	___wmul@multiplier
___wmul@multiplier:	; 2 bytes @ 0x0
	global	___lwdiv@divisor
___lwdiv@divisor:	; 2 bytes @ 0x0
	global	strcat@from
strcat@from:	; 2 bytes @ 0x0
	global	strcpy@from
strcpy@from:	; 2 bytes @ 0x0
	global	strlen@s
strlen@s:	; 2 bytes @ 0x0
	global	strchr@chr
strchr@chr:	; 2 bytes @ 0x0
	ds	1
??_eeprom_write:	; 0 bytes @ 0x1
?_USARTWriteString:	; 0 bytes @ 0x1
	global	USARTReadData@data
USARTReadData@data:	; 1 bytes @ 0x1
	global	eeprom_read@addr
eeprom_read@addr:	; 1 bytes @ 0x1
	global	isdigit@c
isdigit@c:	; 1 bytes @ 0x1
	global	toupper@c
toupper@c:	; 1 bytes @ 0x1
	global	USARTWriteString@str
USARTWriteString@str:	; 2 bytes @ 0x1
	ds	1
??_USARTFlushBuffer:	; 0 bytes @ 0x2
??_strcpy:	; 0 bytes @ 0x2
??_strlen:	; 0 bytes @ 0x2
??_strcat:	; 0 bytes @ 0x2
??_USARTInit:	; 0 bytes @ 0x2
??_strchr:	; 0 bytes @ 0x2
?_SIM300RingResponse:	; 1 bytes @ 0x2
?_strrichr:	; 1 bytes @ 0x2
?_strichr:	; 1 bytes @ 0x2
?_SIM300WaitForResponse:	; 1 bytes @ 0x2
	global	?_strnicmp
?_strnicmp:	; 2 bytes @ 0x2
	global	SIM300CheckResponse@len
SIM300CheckResponse@len:	; 1 bytes @ 0x2
	global	eeprom_write@addr
eeprom_write@addr:	; 1 bytes @ 0x2
	global	strchr@ptr
strchr@ptr:	; 1 bytes @ 0x2
	global	SIM300WaitForResponse@timeout
SIM300WaitForResponse@timeout:	; 2 bytes @ 0x2
	global	SIM300RingResponse@timeout
SIM300RingResponse@timeout:	; 2 bytes @ 0x2
	global	___wmul@multiplicand
___wmul@multiplicand:	; 2 bytes @ 0x2
	global	___lwdiv@dividend
___lwdiv@dividend:	; 2 bytes @ 0x2
	global	strichr@chr
strichr@chr:	; 2 bytes @ 0x2
	global	strnicmp@s2
strnicmp@s2:	; 2 bytes @ 0x2
	global	strrichr@chr
strrichr@chr:	; 2 bytes @ 0x2
	ds	1
??_SIM300CheckResponse:	; 0 bytes @ 0x3
??_USARTWriteString:	; 0 bytes @ 0x3
	global	strcat@to
strcat@to:	; 1 bytes @ 0x3
	global	strcpy@cp
strcpy@cp:	; 1 bytes @ 0x3
	ds	1
??_SIM300RingResponse:	; 0 bytes @ 0x4
??_strrichr:	; 0 bytes @ 0x4
??_strichr:	; 0 bytes @ 0x4
??_SIM300WaitForResponse:	; 0 bytes @ 0x4
??___wmul:	; 0 bytes @ 0x4
??___lwdiv:	; 0 bytes @ 0x4
	global	strcat@cp
strcat@cp:	; 1 bytes @ 0x4
	global	strcpy@to
strcpy@to:	; 1 bytes @ 0x4
	global	___wmul@product
___wmul@product:	; 2 bytes @ 0x4
	global	strlen@cp
strlen@cp:	; 2 bytes @ 0x4
	global	strnicmp@len
strnicmp@len:	; 2 bytes @ 0x4
	ds	1
	global	SIM300WaitForResponse@n
SIM300WaitForResponse@n:	; 2 bytes @ 0x5
	global	SIM300RingResponse@n
SIM300RingResponse@n:	; 2 bytes @ 0x5
	global	___lwdiv@quotient
___lwdiv@quotient:	; 2 bytes @ 0x5
	ds	1
??_strnicmp:	; 0 bytes @ 0x6
?_USARTReadBuffer:	; 0 bytes @ 0x6
	global	?_atoi
?_atoi:	; 2 bytes @ 0x6
	global	?_strncmp
?_strncmp:	; 2 bytes @ 0x6
	global	strichr@ptr
strichr@ptr:	; 1 bytes @ 0x6
	global	strrichr@cp
strrichr@cp:	; 1 bytes @ 0x6
	global	USARTReadBuffer@len
USARTReadBuffer@len:	; 2 bytes @ 0x6
	global	strncmp@s2
strncmp@s2:	; 2 bytes @ 0x6
	ds	1
	global	SIM300WaitForResponse@i
SIM300WaitForResponse@i:	; 1 bytes @ 0x7
	global	SIM300RingResponse@i
SIM300RingResponse@i:	; 1 bytes @ 0x7
	global	___lwdiv@counter
___lwdiv@counter:	; 1 bytes @ 0x7
	global	strrichr@ptr
strrichr@ptr:	; 1 bytes @ 0x7
	ds	1
??_USARTReadBuffer:	; 0 bytes @ 0x8
??_atoi:	; 0 bytes @ 0x8
	global	?___lwmod
?___lwmod:	; 2 bytes @ 0x8
	global	strnicmp@r
strnicmp@r:	; 1 bytes @ 0x8
	global	___lwmod@divisor
___lwmod@divisor:	; 2 bytes @ 0x8
	global	strncmp@len
strncmp@len:	; 2 bytes @ 0x8
	ds	1
	global	SIM300CheckResponse@i
SIM300CheckResponse@i:	; 1 bytes @ 0x9
	global	strnicmp@s1
strnicmp@s1:	; 1 bytes @ 0x9
	ds	1
??_SIM300WaitForValidCall:	; 0 bytes @ 0xA
??_strncmp:	; 0 bytes @ 0xA
	global	SIM300CheckResponse@response
SIM300CheckResponse@response:	; 1 bytes @ 0xA
	global	USARTReadBuffer@buff
USARTReadBuffer@buff:	; 1 bytes @ 0xA
	global	atoi@sign
atoi@sign:	; 1 bytes @ 0xA
	global	___lwmod@dividend
___lwmod@dividend:	; 2 bytes @ 0xA
	ds	1
	global	SIM300WaitForValidCall@len
SIM300WaitForValidCall@len:	; 1 bytes @ 0xB
	global	USARTReadBuffer@i
USARTReadBuffer@i:	; 2 bytes @ 0xB
	global	atoi@a
atoi@a:	; 2 bytes @ 0xB
	ds	1
??___lwmod:	; 0 bytes @ 0xC
	global	SIM300WaitForValidCall@start
SIM300WaitForValidCall@start:	; 1 bytes @ 0xC
	global	strncmp@s1
strncmp@s1:	; 1 bytes @ 0xC
	ds	1
?_SIM300Cmd:	; 1 bytes @ 0xD
?_strstr:	; 1 bytes @ 0xD
	global	SIM300WaitForValidCall@i
SIM300WaitForValidCall@i:	; 1 bytes @ 0xD
	global	atoi@s
atoi@s:	; 1 bytes @ 0xD
	global	___lwmod@counter
___lwmod@counter:	; 1 bytes @ 0xD
	global	SIM300Cmd@cmd
SIM300Cmd@cmd:	; 2 bytes @ 0xD
	global	strstr@s2
strstr@s2:	; 2 bytes @ 0xD
	ds	1
	global	?_sprintf
?_sprintf:	; 2 bytes @ 0xE
	global	sprintf@f
sprintf@f:	; 2 bytes @ 0xE
	ds	1
??_SIM300Cmd:	; 0 bytes @ 0xF
??_strstr:	; 0 bytes @ 0xF
	ds	2
	global	SIM300Cmd@i
SIM300Cmd@i:	; 2 bytes @ 0x11
	ds	1
??_sprintf:	; 0 bytes @ 0x12
	global	strstr@s1
strstr@s1:	; 1 bytes @ 0x12
	ds	1
	global	SIM300Cmd@len
SIM300Cmd@len:	; 1 bytes @ 0x13
	ds	1
??_SIM300Init:	; 0 bytes @ 0x14
	ds	1
	global	sprintf@flag
sprintf@flag:	; 1 bytes @ 0x15
	ds	1
	global	sprintf@prec
sprintf@prec:	; 1 bytes @ 0x16
	global	SIM300Init@i
SIM300Init@i:	; 2 bytes @ 0x16
	ds	1
	global	sprintf@ap
sprintf@ap:	; 1 bytes @ 0x17
	ds	1
	global	sprintf@sp
sprintf@sp:	; 1 bytes @ 0x18
	ds	1
	global	sprintf@_val
sprintf@_val:	; 4 bytes @ 0x19
	ds	4
	global	sprintf@c
sprintf@c:	; 1 bytes @ 0x1D
	ds	1
??_SIM300ReadValidMsg:	; 0 bytes @ 0x1E
??_SIM300DeleteMsg:	; 0 bytes @ 0x1E
	ds	2
	global	SIM300DeleteMsg@cmd
SIM300DeleteMsg@cmd:	; 16 bytes @ 0x20
	global	SIM300ReadValidMsg@cmd
SIM300ReadValidMsg@cmd:	; 16 bytes @ 0x20
	ds	16
	global	SIM300DeleteMsg@i
SIM300DeleteMsg@i:	; 1 bytes @ 0x30
	global	SIM300ReadValidMsg@i
SIM300ReadValidMsg@i:	; 1 bytes @ 0x30
	ds	1
	global	SIM300DeleteMsg@len
SIM300DeleteMsg@len:	; 1 bytes @ 0x31
	global	SIM300ReadValidMsg@start
SIM300ReadValidMsg@start:	; 1 bytes @ 0x31
	ds	1
?_SIM300SendMsg:	; 1 bytes @ 0x32
	global	SIM300ReadValidMsg@i_328
SIM300ReadValidMsg@i_328:	; 1 bytes @ 0x32
	global	SIM300SendMsg@num
SIM300SendMsg@num:	; 2 bytes @ 0x32
	ds	1
	global	SIM300ReadValidMsg@len
SIM300ReadValidMsg@len:	; 1 bytes @ 0x33
	ds	1
??_SIM300WaitForValidMsg:	; 0 bytes @ 0x34
	global	SIM300SendMsg@msg
SIM300SendMsg@msg:	; 2 bytes @ 0x34
	ds	2
	global	SIM300SendMsg@msg_ref
SIM300SendMsg@msg_ref:	; 1 bytes @ 0x36
	ds	1
??_SIM300SendMsg:	; 0 bytes @ 0x37
	global	SIM300WaitForValidMsg@response
SIM300WaitForValidMsg@response:	; 1 bytes @ 0x37
	ds	1
	global	SIM300WaitForValidMsg@id
SIM300WaitForValidMsg@id:	; 1 bytes @ 0x38
	ds	3
??_SMSCommunication:	; 0 bytes @ 0x3B
	ds	3
	global	SMSCommunication@ref
SMSCommunication@ref:	; 1 bytes @ 0x3E
	ds	1
	global	SMSCommunication@ref_201
SMSCommunication@ref_201:	; 1 bytes @ 0x3F
	ds	1
	global	SMSCommunication@ref_210
SMSCommunication@ref_210:	; 1 bytes @ 0x40
	ds	1
	global	SMSCommunication@ref_213
SMSCommunication@ref_213:	; 1 bytes @ 0x41
	ds	1
	global	SMSCommunication@i
SMSCommunication@i:	; 1 bytes @ 0x42
	ds	1
	global	SMSCommunication@result
SMSCommunication@result:	; 1 bytes @ 0x43
	ds	1
	global	SMSCommunication@c
SMSCommunication@c:	; 1 bytes @ 0x44
	ds	1
	global	SMSCommunication@len
SMSCommunication@len:	; 1 bytes @ 0x45
	ds	1
??_main:	; 0 bytes @ 0x46
	ds	3
	global	main@result
main@result:	; 1 bytes @ 0x49
	ds	1
	global	main@ten_seconds
main@ten_seconds:	; 1 bytes @ 0x4A
	ds	1
	global	main@r
main@r:	; 1 bytes @ 0x4B
	ds	1
	global	main@i
main@i:	; 1 bytes @ 0x4C
	ds	1
	global	main@i_172
main@i_172:	; 1 bytes @ 0x4D
	ds	1
	global	main@i_177
main@i_177:	; 1 bytes @ 0x4E
	ds	1
	global	main@ref
main@ref:	; 1 bytes @ 0x4F
	ds	1
;!
;!Data Sizes:
;!    Strings     294
;!    Constant    10
;!    Data        41
;!    BSS         163
;!    Persistent  0
;!    Stack       0
;!
;!Auto Spaces:
;!    Space          Size  Autos    Used
;!    COMMON           14      9      11
;!    BANK0            80     80      80
;!    BANK1            80     27      80
;!    BANK3            96      0      85
;!    BANK2            96      0      64

;!
;!Pointer List with Targets:
;!
;!    strncmp@s2	PTR const unsigned char  size(2) Largest target is 4
;!		 -> STR_44(CODE[4]), 
;!
;!    strncmp@s1	PTR const unsigned char  size(1) Largest target is 70
;!		 -> NULL(NULL[0]), sim300_buffer(BANK3[70]), 
;!
;!    strchr@ptr	PTR const unsigned char  size(1) Largest target is 70
;!		 -> NULL(NULL[0]), sim300_buffer(BANK3[70]), 
;!
;!    sp__strchr	PTR unsigned char  size(1) Largest target is 70
;!		 -> NULL(NULL[0]), sim300_buffer(BANK3[70]), 
;!
;!    strstr@s2	PTR const unsigned char  size(2) Largest target is 4
;!		 -> STR_44(CODE[4]), 
;!
;!    strstr@s1	PTR const unsigned char  size(1) Largest target is 70
;!		 -> NULL(NULL[0]), sim300_buffer(BANK3[70]), 
;!
;!    strrichr@ptr	PTR const unsigned char  size(1) Largest target is 70
;!		 -> sim300_buffer(BANK3[70]), 
;!
;!    strrichr@cp	PTR const unsigned char  size(1) Largest target is 70
;!		 -> sim300_buffer(BANK3[70]), 
;!
;!    strnicmp@s2	PTR const unsigned char  size(2) Largest target is 7
;!		 -> STR_46(CODE[6]), STR_42(CODE[7]), STR_41(CODE[3]), STR_19(CODE[7]), 
;!
;!    strnicmp@s1	PTR const unsigned char  size(1) Largest target is 70
;!		 -> sim300_buffer(BANK3[70]), 
;!
;!    strlen@s	PTR const unsigned char  size(2) Largest target is 40
;!		 -> SIM300SendMsg@cmd(BANK1[25]), STR_44(CODE[4]), SIM300ReadValidMsg@cmd(BANK0[16]), SIM300DeleteMsg@cmd(BANK0[16]), 
;!		 -> STR_38(CODE[3]), STR_37(CODE[16]), STR_18(CODE[22]), STR_16(CODE[22]), 
;!		 -> STR_14(CODE[4]), STR_13(CODE[4]), STR_12(CODE[4]), STR_11(CODE[20]), 
;!		 -> STR_10(CODE[22]), STR_8(CODE[22]), STR_6(CODE[4]), phone_number(BANK1[40]), 
;!		 -> STR_5(CODE[4]), STR_4(CODE[4]), STR_3(CODE[10]), STR_2(CODE[10]), 
;!		 -> STR_1(CODE[10]), 
;!
;!    strlen@cp	PTR const unsigned char  size(2) Largest target is 40
;!		 -> SIM300SendMsg@cmd(BANK1[25]), STR_44(CODE[4]), SIM300ReadValidMsg@cmd(BANK0[16]), SIM300DeleteMsg@cmd(BANK0[16]), 
;!		 -> STR_38(CODE[3]), STR_37(CODE[16]), STR_18(CODE[22]), STR_16(CODE[22]), 
;!		 -> STR_14(CODE[4]), STR_13(CODE[4]), STR_12(CODE[4]), STR_11(CODE[20]), 
;!		 -> STR_10(CODE[22]), STR_8(CODE[22]), STR_6(CODE[4]), phone_number(BANK1[40]), 
;!		 -> STR_5(CODE[4]), STR_4(CODE[4]), STR_3(CODE[10]), STR_2(CODE[10]), 
;!		 -> STR_1(CODE[10]), 
;!
;!    strichr@ptr	PTR const unsigned char  size(1) Largest target is 70
;!		 -> sim300_buffer(BANK3[70]), 
;!
;!    strcpy@from	PTR const unsigned char  size(2) Largest target is 21
;!		 -> STR_36(CODE[4]), STR_35(CODE[1]), STR_32(CODE[15]), STR_31(CODE[1]), 
;!		 -> STR_30(CODE[9]), STR_29(CODE[1]), STR_28(CODE[4]), STR_27(CODE[1]), 
;!		 -> STR_26(CODE[21]), STR_25(CODE[1]), STR_24(CODE[4]), STR_23(CODE[1]), 
;!		 -> STR_21(CODE[14]), STR_20(CODE[1]), 
;!
;!    strcpy@to	PTR unsigned char  size(1) Largest target is 40
;!		 -> phone_number(BANK1[40]), 
;!
;!    strcpy@cp	PTR unsigned char  size(1) Largest target is 40
;!		 -> phone_number(BANK1[40]), 
;!
;!    strcat@from	PTR const unsigned char  size(2) Largest target is 13
;!		 -> STR_34(CODE[13]), STR_33(CODE[11]), STR_22(CODE[11]), 
;!
;!    strcat@to	PTR unsigned char  size(1) Largest target is 40
;!		 -> phone_number(BANK1[40]), 
;!
;!    strcat@cp	PTR unsigned char  size(1) Largest target is 40
;!		 -> phone_number(BANK1[40]), 
;!
;!    atoi@s	PTR const unsigned char  size(1) Largest target is 70
;!		 -> sim300_buffer(BANK3[70]), 
;!
;!    sprintf@f	PTR const unsigned char  size(2) Largest target is 12
;!		 -> STR_45(CODE[12]), STR_43(CODE[11]), STR_40(CODE[11]), 
;!
;!    sprintf@_val._cp	PTR const unsigned char  size(2) Largest target is 15
;!		 -> STR_47(CODE[7]), STR_17(CODE[11]), STR_15(CODE[11]), MSG_number(BANK3[15]), 
;!		 -> STR_9(CODE[11]), STR_7(CODE[11]), 
;!
;!    sprintf@sp	PTR unsigned char  size(1) Largest target is 25
;!		 -> SIM300SendMsg@cmd(BANK1[25]), SIM300ReadValidMsg@cmd(BANK0[16]), SIM300DeleteMsg@cmd(BANK0[16]), 
;!
;!    sprintf@ap	PTR void [1] size(1) Largest target is 2
;!		 -> ?_sprintf(BANK0[2]), 
;!
;!    S515$_cp	PTR const unsigned char  size(2) Largest target is 15
;!		 -> STR_47(CODE[7]), STR_17(CODE[11]), STR_15(CODE[11]), MSG_number(BANK3[15]), 
;!		 -> STR_9(CODE[11]), STR_7(CODE[11]), 
;!
;!    _val._str._cp	PTR const unsigned char  size(2) Largest target is 15
;!		 -> STR_47(CODE[7]), STR_17(CODE[11]), STR_15(CODE[11]), MSG_number(BANK3[15]), 
;!		 -> STR_9(CODE[11]), STR_7(CODE[11]), 
;!
;!    USARTReadBuffer@buff	PTR unsigned char  size(1) Largest target is 70
;!		 -> sim300_buffer(BANK3[70]), 
;!
;!    USARTWriteString@str	PTR const unsigned char  size(2) Largest target is 40
;!		 -> SIM300SendMsg@cmd(BANK1[25]), SIM300ReadValidMsg@cmd(BANK0[16]), SIM300DeleteMsg@cmd(BANK0[16]), STR_38(CODE[3]), 
;!		 -> STR_37(CODE[16]), STR_18(CODE[22]), STR_16(CODE[22]), STR_14(CODE[4]), 
;!		 -> STR_13(CODE[4]), STR_12(CODE[4]), STR_11(CODE[20]), STR_10(CODE[22]), 
;!		 -> STR_8(CODE[22]), STR_6(CODE[4]), phone_number(BANK1[40]), STR_5(CODE[4]), 
;!		 -> STR_4(CODE[4]), STR_3(CODE[10]), STR_2(CODE[10]), STR_1(CODE[10]), 
;!
;!    SIM300SendMsg@msg_ref	PTR unsigned char  size(1) Largest target is 1
;!		 -> SMSCommunication@ref_213(BANK0[1]), SMSCommunication@ref_210(BANK0[1]), SMSCommunication@ref_201(BANK0[1]), SMSCommunication@ref(BANK0[1]), 
;!		 -> main@ref(BANK0[1]), 
;!
;!    SIM300SendMsg@msg	PTR const unsigned char  size(2) Largest target is 40
;!		 -> STR_37(CODE[16]), STR_18(CODE[22]), STR_16(CODE[22]), STR_11(CODE[20]), 
;!		 -> STR_10(CODE[22]), STR_8(CODE[22]), phone_number(BANK1[40]), 
;!
;!    SIM300SendMsg@num	PTR const unsigned char  size(2) Largest target is 15
;!		 -> STR_17(CODE[11]), STR_15(CODE[11]), MSG_number(BANK3[15]), STR_9(CODE[11]), 
;!		 -> STR_7(CODE[11]), 
;!
;!    sp__strstr	PTR unsigned char  size(1) Largest target is 70
;!		 -> NULL(NULL[0]), sim300_buffer(BANK3[70]), 
;!
;!    SIM300ReadValidMsg@start	PTR unsigned char  size(1) Largest target is 70
;!		 -> NULL(NULL[0]), sim300_buffer(BANK3[70]), 
;!
;!    SIM300CheckResponse@check	PTR const unsigned char  size(2) Largest target is 3
;!		 -> STR_39(CODE[3]), 
;!
;!    SIM300CheckResponse@response	PTR const unsigned char  size(1) Largest target is 70
;!		 -> sim300_buffer(BANK3[70]), 
;!
;!    SIM300Cmd@cmd	PTR const unsigned char  size(2) Largest target is 40
;!		 -> SIM300SendMsg@cmd(BANK1[25]), SIM300ReadValidMsg@cmd(BANK0[16]), SIM300DeleteMsg@cmd(BANK0[16]), STR_38(CODE[3]), 
;!		 -> STR_14(CODE[4]), STR_13(CODE[4]), STR_12(CODE[4]), STR_6(CODE[4]), 
;!		 -> phone_number(BANK1[40]), STR_5(CODE[4]), STR_4(CODE[4]), STR_3(CODE[10]), 
;!		 -> STR_2(CODE[10]), STR_1(CODE[10]), 
;!
;!    sp__strcat	PTR unsigned char  size(1) Largest target is 40
;!		 -> phone_number(BANK1[40]), 
;!
;!    sp__strcpy	PTR unsigned char  size(1) Largest target is 40
;!		 -> phone_number(BANK1[40]), 
;!
;!    sp__strichr	PTR unsigned char  size(1) Largest target is 70
;!		 -> NULL(NULL[0]), sim300_buffer(BANK3[70]), 
;!
;!    SIM300WaitForValidCall@start	PTR unsigned char  size(1) Largest target is 70
;!		 -> NULL(NULL[0]), sim300_buffer(BANK3[70]), 
;!
;!    sp__strrichr	PTR unsigned char  size(1) Largest target is 70
;!		 -> NULL(NULL[0]), sim300_buffer(BANK3[70]), 
;!


;!
;!Critical Paths under _main in COMMON
;!
;!    None.
;!
;!Critical Paths under _ISR in COMMON
;!
;!    _ISR->_USARTHandleRxInt
;!
;!Critical Paths under _main in BANK0
;!
;!    _main->_SMSCommunication
;!    _SMSCommunication->_SIM300SendMsg
;!    _SIM300WaitForValidMsg->_SIM300ReadValidMsg
;!    _SIM300ReadValidMsg->_sprintf
;!    _strstr->_strncmp
;!    _strncmp->_strlen
;!    _SIM300SendMsg->_SIM300DeleteMsg
;!    _atoi->___wmul
;!    _SIM300DeleteMsg->_sprintf
;!    _sprintf->___lwmod
;!    ___lwmod->___lwdiv
;!    _SIM300WaitForResponse->_USARTReadData
;!    _SIM300WaitForValidCall->_strnicmp
;!    _strrichr->_toupper
;!    _strnicmp->_toupper
;!    _strichr->_toupper
;!    _SIM300RingResponse->_USARTReadData
;!    _USARTFlushBuffer->_USARTReadData
;!    _SIM300Init->_SIM300Cmd
;!    _SIM300Cmd->_USARTReadBuffer
;!    _USARTWriteString->_USARTWriteChar
;!    _USARTReadBuffer->_strlen
;!
;!Critical Paths under _ISR in BANK0
;!
;!    None.
;!
;!Critical Paths under _main in BANK1
;!
;!    _main->_SIM300SendMsg
;!    _SMSCommunication->_SIM300SendMsg
;!
;!Critical Paths under _ISR in BANK1
;!
;!    None.
;!
;!Critical Paths under _main in BANK3
;!
;!    None.
;!
;!Critical Paths under _ISR in BANK3
;!
;!    None.
;!
;!Critical Paths under _main in BANK2
;!
;!    None.
;!
;!Critical Paths under _ISR in BANK2
;!
;!    None.

;;
;;Main: autosize = 0, tempsize = 3, incstack = 0, save=0
;;

;!
;!Call Graph Tables:
;!
;! ---------------------------------------------------------------------------------
;! (Depth) Function   	        Calls       Base Space   Used Autos Params    Refs
;! ---------------------------------------------------------------------------------
;! (0) _main                                                10    10      0   51598
;!                                             70 BANK0     10    10      0
;!                          _SIM300Cmd
;!                         _SIM300Init
;!                      _SIM300SendMsg
;!             _SIM300WaitForValidCall
;!                   _SMSCommunication
;!                   _USARTFlushBuffer
;!                        _eeprom_read
;!                       _eeprom_write
;!                        _phase_check
;!                              _start
;!                               _stop
;! ---------------------------------------------------------------------------------
;! (1) _stop                                                 3     3      0       0
;!                                              0 BANK0      3     3      0
;! ---------------------------------------------------------------------------------
;! (1) _start                                                3     3      0       0
;!                                              0 BANK0      3     3      0
;! ---------------------------------------------------------------------------------
;! (1) _eeprom_write                                         3     2      1     415
;!                                              0 BANK0      3     2      1
;! ---------------------------------------------------------------------------------
;! (1) _SMSCommunication                                    11    11      0   29162
;!                                             59 BANK0     11    11      0
;!                      _SIM300SendMsg
;!              _SIM300WaitForValidMsg
;!                   _USARTFlushBuffer
;!                        _eeprom_read
;!                        _phase_check
;!                             _strcat
;!                             _strcpy
;!                             _strlen
;! ---------------------------------------------------------------------------------
;! (2) _strcpy                                               5     3      2    1195
;!                                              0 BANK0      5     3      2
;! ---------------------------------------------------------------------------------
;! (2) _strcat                                               5     3      2     338
;!                                              0 BANK0      5     3      2
;! ---------------------------------------------------------------------------------
;! (1) _phase_check                                          0     0      0       0
;! ---------------------------------------------------------------------------------
;! (1) _eeprom_read                                          2     2      0      22
;!                                              0 BANK0      2     2      0
;! ---------------------------------------------------------------------------------
;! (2) _SIM300WaitForValidMsg                                5     5      0   12591
;!                                             52 BANK0      5     5      0
;!                    _SIM300DeleteMsg
;!                 _SIM300ReadValidMsg
;!                   _USARTFlushBuffer
;!                           _strnicmp
;! ---------------------------------------------------------------------------------
;! (3) _SIM300ReadValidMsg                                  22    22      0    6601
;!                                             30 BANK0     22    22      0
;!                          _SIM300Cmd
;!              _SIM300WaitForResponse
;!                   _USARTFlushBuffer
;!                            _sprintf
;!                            _strichr
;!                           _strrichr
;!                             _strstr
;! ---------------------------------------------------------------------------------
;! (4) _strstr                                               6     4      2    1312
;!                                             13 BANK0      6     4      2
;!                             _strchr
;!                             _strlen
;!                            _strncmp
;! ---------------------------------------------------------------------------------
;! (5) _strncmp                                              7     3      4     267
;!                                              6 BANK0      7     3      4
;!                             _strlen (ARG)
;! ---------------------------------------------------------------------------------
;! (5) _strchr                                               3     1      2     168
;!                                              0 BANK0      3     1      2
;! ---------------------------------------------------------------------------------
;! (2) _SIM300SendMsg                                       36    31      5   13789
;!                                             50 BANK0      9     4      5
;!                                              0 BANK1     27    27      0
;!                          _SIM300Cmd
;!                    _SIM300DeleteMsg
;!              _SIM300WaitForResponse
;!                 _USARTDataAvailable
;!                   _USARTFlushBuffer
;!                    _USARTReadBuffer
;!                     _USARTWriteChar
;!                   _USARTWriteString
;!                               _atoi
;!                            _sprintf
;!                             _strlen
;!                           _strnicmp
;! ---------------------------------------------------------------------------------
;! (3) _atoi                                                 8     6      2     627
;!                                              6 BANK0      8     6      2
;!                             ___wmul
;!                            _isdigit
;! ---------------------------------------------------------------------------------
;! (4) _isdigit                                              2     2      0      68
;!                                              0 BANK0      2     2      0
;! ---------------------------------------------------------------------------------
;! (3) _SIM300DeleteMsg                                     20    20      0    5118
;!                                             30 BANK0     20    20      0
;!                          _SIM300Cmd
;!              _SIM300WaitForResponse
;!                   _USARTFlushBuffer
;!                            _sprintf
;!                           _strnicmp
;! ---------------------------------------------------------------------------------
;! (4) _sprintf                                             16    12      4    1365
;!                                             14 BANK0     16    12      4
;!                            ___lwdiv
;!                            ___lwmod
;! ---------------------------------------------------------------------------------
;! (5) ___lwmod                                              6     2      4     265
;!                                              8 BANK0      6     2      4
;!                            ___lwdiv (ARG)
;! ---------------------------------------------------------------------------------
;! (5) ___lwdiv                                              8     4      4     268
;!                                              0 BANK0      8     4      4
;! ---------------------------------------------------------------------------------
;! (4) _SIM300WaitForResponse                                6     4      2     438
;!                                              2 BANK0      6     4      2
;!                 _USARTDataAvailable
;!                   _USARTFlushBuffer
;!                      _USARTReadData
;! ---------------------------------------------------------------------------------
;! (1) _SIM300WaitForValidCall                               4     4      0    1921
;!                                             10 BANK0      4     4      0
;!                 _SIM300RingResponse
;!                   _USARTFlushBuffer
;!                            _strichr
;!                           _strnicmp
;!                           _strrichr
;! ---------------------------------------------------------------------------------
;! (4) _strrichr                                             6     4      2     407
;!                                              2 BANK0      6     4      2
;!                            _toupper
;! ---------------------------------------------------------------------------------
;! (3) _strnicmp                                             8     4      4     712
;!                                              2 BANK0      8     4      4
;!                            _toupper
;! ---------------------------------------------------------------------------------
;! (4) _strichr                                              5     3      2     339
;!                                              2 BANK0      5     3      2
;!                            _toupper
;! ---------------------------------------------------------------------------------
;! (4) _toupper                                              2     2      0      67
;!                                              0 BANK0      2     2      0
;! ---------------------------------------------------------------------------------
;! (2) _SIM300RingResponse                                   6     4      2     279
;!                                              2 BANK0      6     4      2
;!                 _USARTDataAvailable
;!                   _USARTFlushBuffer
;!                      _USARTReadData
;! ---------------------------------------------------------------------------------
;! (1) _USARTFlushBuffer                                     0     0      0      23
;!                 _USARTDataAvailable
;!                      _USARTReadData
;! ---------------------------------------------------------------------------------
;! (1) _SIM300Init                                           4     4      0    3308
;!                                             20 BANK0      4     4      0
;!                _SIM300CheckResponse
;!                          _SIM300Cmd
;!                 _USARTDataAvailable
;!                          _USARTInit
;!                    _USARTReadBuffer
;! ---------------------------------------------------------------------------------
;! (2) _USARTInit                                            3     1      2      75
;!                                              0 BANK0      3     1      2
;! ---------------------------------------------------------------------------------
;! (4) _SIM300Cmd                                            7     5      2    2456
;!                                             13 BANK0      7     5      2
;!                 _USARTDataAvailable
;!                    _USARTReadBuffer
;!                     _USARTWriteChar
;!                   _USARTWriteString
;!                             ___wmul
;!                             _strlen
;! ---------------------------------------------------------------------------------
;! (2) _strlen                                               6     4      2     620
;!                                              0 BANK0      6     4      2
;! ---------------------------------------------------------------------------------
;! (5) ___wmul                                               6     2      4     304
;!                                              0 BANK0      6     2      4
;! ---------------------------------------------------------------------------------
;! (5) _USARTWriteString                                     2     0      2     226
;!                                              1 BANK0      2     0      2
;!                     _USARTWriteChar
;! ---------------------------------------------------------------------------------
;! (6) _USARTWriteChar                                       1     1      0      22
;!                                              0 BANK0      1     1      0
;! ---------------------------------------------------------------------------------
;! (5) _USARTReadBuffer                                      7     5      2     353
;!                                              6 BANK0      7     5      2
;!                      _USARTReadData
;!                             _strlen (ARG)
;! ---------------------------------------------------------------------------------
;! (2) _USARTReadData                                        2     2      0      23
;!                                              0 BANK0      2     2      0
;! ---------------------------------------------------------------------------------
;! (2) _USARTDataAvailable                                   1     1      0       0
;!                                              0 BANK0      1     1      0
;! ---------------------------------------------------------------------------------
;! (2) _SIM300CheckResponse                                 11     8      3     400
;!                                              0 BANK0     11     8      3
;! ---------------------------------------------------------------------------------
;! Estimated maximum stack depth 6
;! ---------------------------------------------------------------------------------
;! (Depth) Function   	        Calls       Base Space   Used Autos Params    Refs
;! ---------------------------------------------------------------------------------
;! (7) _ISR                                                  4     4      0      23
;!                                              5 COMMON     4     4      0
;!                   _USARTHandleRxInt
;! ---------------------------------------------------------------------------------
;! (8) _USARTHandleRxInt                                     5     5      0      23
;!                                              0 COMMON     5     5      0
;! ---------------------------------------------------------------------------------
;! Estimated maximum stack depth 8
;! ---------------------------------------------------------------------------------
;!
;! Call Graph Graphs:
;!
;! _main (ROOT)
;!   _SIM300Cmd
;!     _USARTDataAvailable
;!     _USARTReadBuffer
;!       _USARTReadData
;!       _strlen (ARG)
;!     _USARTWriteChar
;!     _USARTWriteString
;!       _USARTWriteChar
;!     ___wmul
;!     _strlen
;!   _SIM300Init
;!     _SIM300CheckResponse
;!     _SIM300Cmd
;!       _USARTDataAvailable
;!       _USARTReadBuffer
;!         _USARTReadData
;!         _strlen (ARG)
;!       _USARTWriteChar
;!       _USARTWriteString
;!         _USARTWriteChar
;!       ___wmul
;!       _strlen
;!     _USARTDataAvailable
;!     _USARTInit
;!     _USARTReadBuffer
;!       _USARTReadData
;!       _strlen (ARG)
;!   _SIM300SendMsg
;!     _SIM300Cmd
;!       _USARTDataAvailable
;!       _USARTReadBuffer
;!         _USARTReadData
;!         _strlen (ARG)
;!       _USARTWriteChar
;!       _USARTWriteString
;!         _USARTWriteChar
;!       ___wmul
;!       _strlen
;!     _SIM300DeleteMsg
;!       _SIM300Cmd
;!         _USARTDataAvailable
;!         _USARTReadBuffer
;!           _USARTReadData
;!           _strlen (ARG)
;!         _USARTWriteChar
;!         _USARTWriteString
;!           _USARTWriteChar
;!         ___wmul
;!         _strlen
;!       _SIM300WaitForResponse
;!         _USARTDataAvailable
;!         _USARTFlushBuffer
;!           _USARTDataAvailable
;!           _USARTReadData
;!         _USARTReadData
;!       _USARTFlushBuffer
;!         _USARTDataAvailable
;!         _USARTReadData
;!       _sprintf
;!         ___lwdiv
;!         ___lwmod
;!           ___lwdiv (ARG)
;!       _strnicmp
;!         _toupper
;!     _SIM300WaitForResponse
;!       _USARTDataAvailable
;!       _USARTFlushBuffer
;!         _USARTDataAvailable
;!         _USARTReadData
;!       _USARTReadData
;!     _USARTDataAvailable
;!     _USARTFlushBuffer
;!       _USARTDataAvailable
;!       _USARTReadData
;!     _USARTReadBuffer
;!       _USARTReadData
;!       _strlen (ARG)
;!     _USARTWriteChar
;!     _USARTWriteString
;!       _USARTWriteChar
;!     _atoi
;!       ___wmul
;!       _isdigit
;!     _sprintf
;!       ___lwdiv
;!       ___lwmod
;!         ___lwdiv (ARG)
;!     _strlen
;!     _strnicmp
;!       _toupper
;!   _SIM300WaitForValidCall
;!     _SIM300RingResponse
;!       _USARTDataAvailable
;!       _USARTFlushBuffer
;!         _USARTDataAvailable
;!         _USARTReadData
;!       _USARTReadData
;!     _USARTFlushBuffer
;!       _USARTDataAvailable
;!       _USARTReadData
;!     _strichr
;!       _toupper
;!     _strnicmp
;!       _toupper
;!     _strrichr
;!       _toupper
;!   _SMSCommunication
;!     _SIM300SendMsg
;!       _SIM300Cmd
;!         _USARTDataAvailable
;!         _USARTReadBuffer
;!           _USARTReadData
;!           _strlen (ARG)
;!         _USARTWriteChar
;!         _USARTWriteString
;!           _USARTWriteChar
;!         ___wmul
;!         _strlen
;!       _SIM300DeleteMsg
;!         _SIM300Cmd
;!           _USARTDataAvailable
;!           _USARTReadBuffer
;!             _USARTReadData
;!             _strlen (ARG)
;!           _USARTWriteChar
;!           _USARTWriteString
;!             _USARTWriteChar
;!           ___wmul
;!           _strlen
;!         _SIM300WaitForResponse
;!           _USARTDataAvailable
;!           _USARTFlushBuffer
;!             _USARTDataAvailable
;!             _USARTReadData
;!           _USARTReadData
;!         _USARTFlushBuffer
;!           _USARTDataAvailable
;!           _USARTReadData
;!         _sprintf
;!           ___lwdiv
;!           ___lwmod
;!             ___lwdiv (ARG)
;!         _strnicmp
;!           _toupper
;!       _SIM300WaitForResponse
;!         _USARTDataAvailable
;!         _USARTFlushBuffer
;!           _USARTDataAvailable
;!           _USARTReadData
;!         _USARTReadData
;!       _USARTDataAvailable
;!       _USARTFlushBuffer
;!         _USARTDataAvailable
;!         _USARTReadData
;!       _USARTReadBuffer
;!         _USARTReadData
;!         _strlen (ARG)
;!       _USARTWriteChar
;!       _USARTWriteString
;!         _USARTWriteChar
;!       _atoi
;!         ___wmul
;!         _isdigit
;!       _sprintf
;!         ___lwdiv
;!         ___lwmod
;!           ___lwdiv (ARG)
;!       _strlen
;!       _strnicmp
;!         _toupper
;!     _SIM300WaitForValidMsg
;!       _SIM300DeleteMsg
;!         _SIM300Cmd
;!           _USARTDataAvailable
;!           _USARTReadBuffer
;!             _USARTReadData
;!             _strlen (ARG)
;!           _USARTWriteChar
;!           _USARTWriteString
;!             _USARTWriteChar
;!           ___wmul
;!           _strlen
;!         _SIM300WaitForResponse
;!           _USARTDataAvailable
;!           _USARTFlushBuffer
;!             _USARTDataAvailable
;!             _USARTReadData
;!           _USARTReadData
;!         _USARTFlushBuffer
;!           _USARTDataAvailable
;!           _USARTReadData
;!         _sprintf
;!           ___lwdiv
;!           ___lwmod
;!             ___lwdiv (ARG)
;!         _strnicmp
;!           _toupper
;!       _SIM300ReadValidMsg
;!         _SIM300Cmd
;!           _USARTDataAvailable
;!           _USARTReadBuffer
;!             _USARTReadData
;!             _strlen (ARG)
;!           _USARTWriteChar
;!           _USARTWriteString
;!             _USARTWriteChar
;!           ___wmul
;!           _strlen
;!         _SIM300WaitForResponse
;!           _USARTDataAvailable
;!           _USARTFlushBuffer
;!             _USARTDataAvailable
;!             _USARTReadData
;!           _USARTReadData
;!         _USARTFlushBuffer
;!           _USARTDataAvailable
;!           _USARTReadData
;!         _sprintf
;!           ___lwdiv
;!           ___lwmod
;!             ___lwdiv (ARG)
;!         _strichr
;!           _toupper
;!         _strrichr
;!           _toupper
;!         _strstr
;!           _strchr
;!           _strlen
;!           _strncmp
;!             _strlen (ARG)
;!       _USARTFlushBuffer
;!         _USARTDataAvailable
;!         _USARTReadData
;!       _strnicmp
;!         _toupper
;!     _USARTFlushBuffer
;!       _USARTDataAvailable
;!       _USARTReadData
;!     _eeprom_read
;!     _phase_check
;!     _strcat
;!     _strcpy
;!     _strlen
;!   _USARTFlushBuffer
;!     _USARTDataAvailable
;!     _USARTReadData
;!   _eeprom_read
;!   _eeprom_write
;!   _phase_check
;!   _start
;!   _stop
;!
;! _ISR (ROOT)
;!   _USARTHandleRxInt
;!

;! Address spaces:

;!Name               Size   Autos  Total    Cost      Usage
;!BANK3               60      0      55       9       88.5%
;!BITBANK3            60      0       0       8        0.0%
;!SFR3                 0      0       0       4        0.0%
;!BITSFR3              0      0       0       4        0.0%
;!BANK2               60      0      40      11       66.7%
;!BITBANK2            60      0       0      10        0.0%
;!SFR2                 0      0       0       5        0.0%
;!BITSFR2              0      0       0       5        0.0%
;!BANK1               50     1B      50       7      100.0%
;!BITBANK1            50      0       0       6        0.0%
;!SFR1                 0      0       0       2        0.0%
;!BITSFR1              0      0       0       2        0.0%
;!BANK0               50     50      50       5      100.0%
;!BITBANK0            50      0       0       4        0.0%
;!SFR0                 0      0       0       1        0.0%
;!BITSFR0              0      0       0       1        0.0%
;!COMMON               E      9       B       1       78.6%
;!BITCOMMON            E      0       0       0        0.0%
;!CODE                 0      0       0       0        0.0%
;!DATA                 0      0     140      12        0.0%
;!ABS                  0      0     140       3        0.0%
;!NULL                 0      0       0       0        0.0%
;!STACK                0      0       0       2        0.0%
;!EEDATA             100      0       0       0        0.0%

	global	_main

;; *************** function _main *****************
;; Defined at:
;;		line 31 in file "E:\Study Material\XC8 PROJECTS\Aurangabad\MobileAdv.c"
;; Parameters:    Size  Location     Type
;;		None
;; Auto vars:     Size  Location     Type
;;  i               1   77[BANK0 ] unsigned char 
;;  i               1   76[BANK0 ] unsigned char 
;;  ten_seconds     1   74[BANK0 ] unsigned char 
;;  i               1   78[BANK0 ] unsigned char 
;;  ref             1   79[BANK0 ] unsigned char 
;;  r               1   75[BANK0 ] char 
;;  result          1   73[BANK0 ] unsigned char 
;; Return value:  Size  Location     Type
;;		None               void
;; Registers used:
;;		wreg, fsr0l, fsr0h, status,2, status,0, btemp+1, pclath, cstack
;; Tracked objects:
;;		On entry : 17F/0
;;		On exit  : 0/0
;;		Unchanged: 0/0
;; Data sizes:     COMMON   BANK0   BANK1   BANK3   BANK2
;;      Params:         0       0       0       0       0
;;      Locals:         0       7       0       0       0
;;      Temps:          0       3       0       0       0
;;      Totals:         0      10       0       0       0
;;Total ram usage:       10 bytes
;; Hardware stack levels required when called:    8
;; This function calls:
;;		_SIM300Cmd
;;		_SIM300Init
;;		_SIM300SendMsg
;;		_SIM300WaitForValidCall
;;		_SMSCommunication
;;		_USARTFlushBuffer
;;		_eeprom_read
;;		_eeprom_write
;;		_phase_check
;;		_start
;;		_stop
;; This function is called by:
;;		Startup code after reset
;; This function uses a non-reentrant model
;;
psect	maintext,global,class=CODE,delta=2,split=1
	file	"E:\Study Material\XC8 PROJECTS\Aurangabad\MobileAdv.c"
	line	31
global __pmaintext
__pmaintext:	;psect for function _main
psect	maintext
	file	"E:\Study Material\XC8 PROJECTS\Aurangabad\MobileAdv.c"
	line	31
	global	__size_of_main
	__size_of_main	equ	__end_of_main-_main
	
_main:	
;incstack = 0
	opt	stack 0
; Regs used in _main: [wreg-fsr0h+status,2+status,0+btemp+1+pclath+cstack]
	line	33
	
l3637:	
;MobileAdv.c: 33: TRISA = 0xFE;
	movlw	(0FEh)
	bsf	status, 5	;RP0=1, select bank1
	bcf	status, 6	;RP1=0, select bank1
	movwf	(133)^080h	;volatile
	line	34
;MobileAdv.c: 34: TRISB = 0x01;
	movlw	(01h)
	movwf	(134)^080h	;volatile
	line	35
;MobileAdv.c: 35: TRISC = 0xC7;
	movlw	(0C7h)
	movwf	(135)^080h	;volatile
	line	36
;MobileAdv.c: 36: ADCON1 = 0x06;
	movlw	(06h)
	movwf	(159)^080h	;volatile
	line	38
	
l3639:	
;MobileAdv.c: 38: RC3 = 0;
	bcf	status, 5	;RP0=0, select bank0
	bcf	status, 6	;RP1=0, select bank0
	bcf	(59/8),(59)&7	;volatile
	line	39
	
l3641:	
;MobileAdv.c: 39: RC4 = 0;
	bcf	(60/8),(60)&7	;volatile
	line	40
	
l3643:	
;MobileAdv.c: 40: RC5 = 0;
	bcf	(61/8),(61)&7	;volatile
	line	45
	
l3645:	
;MobileAdv.c: 42: uint8_t ref,result;
;MobileAdv.c: 45: for(count = 0; count <= 10; count++)
	bsf	status, 5	;RP0=1, select bank1
	bcf	status, 6	;RP1=0, select bank1
	clrf	(_count)^080h
	
l3647:	
	movlw	(0Bh)
	subwf	(_count)^080h,w
	skipc
	goto	u3101
	goto	u3100
u3101:
	goto	l107
u3100:
	goto	l3659
	
l3649:	
	goto	l3659
	line	46
	
l107:	
	line	47
;MobileAdv.c: 46: {
;MobileAdv.c: 47: RB7 = 1;
	bcf	status, 5	;RP0=0, select bank0
	bcf	status, 6	;RP1=0, select bank0
	bsf	(55/8),(55)&7	;volatile
	line	48
	
l3651:	
;MobileAdv.c: 48: _delay(1000000);
	opt asmopt_off
movlw  6
movwf	((??_main+0)+0+2),f
movlw	19
movwf	((??_main+0)+0+1),f
	movlw	177
movwf	((??_main+0)+0),f
u3667:
	decfsz	((??_main+0)+0),f
	goto	u3667
	decfsz	((??_main+0)+0+1),f
	goto	u3667
	decfsz	((??_main+0)+0+2),f
	goto	u3667
	nop2
opt asmopt_on

	line	49
	
l3653:	
;MobileAdv.c: 49: RB7 = 0;
	bcf	status, 5	;RP0=0, select bank0
	bcf	status, 6	;RP1=0, select bank0
	bcf	(55/8),(55)&7	;volatile
	line	50
;MobileAdv.c: 50: _delay(1000000);
	opt asmopt_off
movlw  6
movwf	((??_main+0)+0+2),f
movlw	19
movwf	((??_main+0)+0+1),f
	movlw	177
movwf	((??_main+0)+0),f
u3677:
	decfsz	((??_main+0)+0),f
	goto	u3677
	decfsz	((??_main+0)+0+1),f
	goto	u3677
	decfsz	((??_main+0)+0+2),f
	goto	u3677
	nop2
opt asmopt_on

	line	45
	
l3655:	
	movlw	(01h)
	bcf	status, 5	;RP0=0, select bank0
	bcf	status, 6	;RP1=0, select bank0
	movwf	(??_main+0)+0
	movf	(??_main+0)+0,w
	bsf	status, 5	;RP0=1, select bank1
	bcf	status, 6	;RP1=0, select bank1
	addwf	(_count)^080h,f
	
l3657:	
	movlw	(0Bh)
	subwf	(_count)^080h,w
	skipc
	goto	u3111
	goto	u3110
u3111:
	goto	l107
u3110:
	goto	l3659
	
l108:	
	line	54
	
l3659:	
;MobileAdv.c: 51: }
;MobileAdv.c: 54: MOTOR_FLAG = (char)eeprom_read(0x01);
	movlw	(01h)
	fcall	_eeprom_read
	bcf	status, 5	;RP0=0, select bank0
	bcf	status, 6	;RP1=0, select bank0
	movwf	(??_main+0)+0
	movf	(??_main+0)+0,w
	bsf	status, 5	;RP0=1, select bank1
	bcf	status, 6	;RP1=0, select bank1
	movwf	(_MOTOR_FLAG)^080h
	line	55
	
l3661:	
;MobileAdv.c: 55: if(MOTOR_FLAG != 0 && MOTOR_FLAG != 1)
	movf	(_MOTOR_FLAG)^080h,w
	skipz
	goto	u3120
	goto	l3667
u3120:
	
l3663:	
	movf	(_MOTOR_FLAG)^080h,w
	xorlw	01h
	skipnz
	goto	u3131
	goto	u3130
u3131:
	goto	l3667
u3130:
	line	56
	
l3665:	
;MobileAdv.c: 56: MOTOR_FLAG = 0;
	clrf	(_MOTOR_FLAG)^080h
	goto	l3667
	
l109:	
	line	58
	
l3667:	
;MobileAdv.c: 58: if(MOTOR_FLAG == 1)
	movf	(_MOTOR_FLAG)^080h,w
	xorlw	01h
	skipz
	goto	u3141
	goto	u3140
u3141:
	goto	l3671
u3140:
	line	59
	
l3669:	
;MobileAdv.c: 59: REQUIRED_RING_COUNT = 1;
	clrf	(_REQUIRED_RING_COUNT)^080h
	incf	(_REQUIRED_RING_COUNT)^080h,f
	goto	l3673
	line	60
	
l110:	
	line	61
	
l3671:	
;MobileAdv.c: 60: else
;MobileAdv.c: 61: REQUIRED_RING_COUNT = 3;
	movlw	(03h)
	bcf	status, 5	;RP0=0, select bank0
	bcf	status, 6	;RP1=0, select bank0
	movwf	(??_main+0)+0
	movf	(??_main+0)+0,w
	bsf	status, 5	;RP0=1, select bank1
	bcf	status, 6	;RP1=0, select bank1
	movwf	(_REQUIRED_RING_COUNT)^080h
	goto	l3673
	
l111:	
	line	63
	
l3673:	
;MobileAdv.c: 63: int8_t r= SIM300Init();
	fcall	_SIM300Init
	bcf	status, 5	;RP0=0, select bank0
	bcf	status, 6	;RP1=0, select bank0
	movwf	(??_main+0)+0
	movf	(??_main+0)+0,w
	movwf	(main@r)
	line	64
	
l3675:	
;MobileAdv.c: 64: _delay(1000000);
	opt asmopt_off
movlw  6
movwf	((??_main+0)+0+2),f
movlw	19
movwf	((??_main+0)+0+1),f
	movlw	177
movwf	((??_main+0)+0),f
u3687:
	decfsz	((??_main+0)+0),f
	goto	u3687
	decfsz	((??_main+0)+0+1),f
	goto	u3687
	decfsz	((??_main+0)+0+2),f
	goto	u3687
	nop2
opt asmopt_on

	line	66
	
l3677:	
;MobileAdv.c: 66: if(r == 1)
	bcf	status, 5	;RP0=0, select bank0
	bcf	status, 6	;RP1=0, select bank0
	movf	(main@r),w
	xorlw	01h
	skipz
	goto	u3151
	goto	u3150
u3151:
	goto	l114
u3150:
	line	69
	
l3679:	
;MobileAdv.c: 67: {
;MobileAdv.c: 69: SIM300Cmd("AT+CLIP=1");
	movlw	low((STR_1)|8000h)
	movwf	(SIM300Cmd@cmd)
	movlw	high((STR_1)|8000h)
	movwf	((SIM300Cmd@cmd))+1
	fcall	_SIM300Cmd
	line	70
	
l3681:	
;MobileAdv.c: 70: _delay(1000000);
	opt asmopt_off
movlw  6
	bcf	status, 5	;RP0=0, select bank0
	bcf	status, 6	;RP1=0, select bank0
movwf	((??_main+0)+0+2),f
movlw	19
movwf	((??_main+0)+0+1),f
	movlw	177
movwf	((??_main+0)+0),f
u3697:
	decfsz	((??_main+0)+0),f
	goto	u3697
	decfsz	((??_main+0)+0+1),f
	goto	u3697
	decfsz	((??_main+0)+0+2),f
	goto	u3697
	nop2
opt asmopt_on

	line	72
	
l3683:	
;MobileAdv.c: 72: SIM300Cmd("AT+CMGF=1");
	movlw	low((STR_2)|8000h)
	bcf	status, 5	;RP0=0, select bank0
	bcf	status, 6	;RP1=0, select bank0
	movwf	(SIM300Cmd@cmd)
	movlw	high((STR_2)|8000h)
	movwf	((SIM300Cmd@cmd))+1
	fcall	_SIM300Cmd
	line	73
;MobileAdv.c: 73: _delay(1000000);
	opt asmopt_off
movlw  6
	bcf	status, 5	;RP0=0, select bank0
	bcf	status, 6	;RP1=0, select bank0
movwf	((??_main+0)+0+2),f
movlw	19
movwf	((??_main+0)+0+1),f
	movlw	177
movwf	((??_main+0)+0),f
u3707:
	decfsz	((??_main+0)+0),f
	goto	u3707
	decfsz	((??_main+0)+0+1),f
	goto	u3707
	decfsz	((??_main+0)+0+2),f
	goto	u3707
	nop2
opt asmopt_on

	line	75
	
l3685:	
;MobileAdv.c: 75: SIM300Cmd("AT+CMGD=1");
	movlw	low((STR_3)|8000h)
	bcf	status, 5	;RP0=0, select bank0
	bcf	status, 6	;RP1=0, select bank0
	movwf	(SIM300Cmd@cmd)
	movlw	high((STR_3)|8000h)
	movwf	((SIM300Cmd@cmd))+1
	fcall	_SIM300Cmd
	line	76
	
l3687:	
;MobileAdv.c: 76: _delay(1000000);
	opt asmopt_off
movlw  6
	bcf	status, 5	;RP0=0, select bank0
	bcf	status, 6	;RP1=0, select bank0
movwf	((??_main+0)+0+2),f
movlw	19
movwf	((??_main+0)+0+1),f
	movlw	177
movwf	((??_main+0)+0),f
u3717:
	decfsz	((??_main+0)+0),f
	goto	u3717
	decfsz	((??_main+0)+0+1),f
	goto	u3717
	decfsz	((??_main+0)+0+2),f
	goto	u3717
	nop2
opt asmopt_on

	line	78
	
l3689:	
;MobileAdv.c: 78: USARTFlushBuffer();
	fcall	_USARTFlushBuffer
	line	80
	
l3691:	
;MobileAdv.c: 80: RB7 = 1;
	bcf	status, 5	;RP0=0, select bank0
	bcf	status, 6	;RP1=0, select bank0
	bsf	(55/8),(55)&7	;volatile
	line	81
	
l3693:	
;MobileAdv.c: 81: _delay(1000000);
	opt asmopt_off
movlw  6
movwf	((??_main+0)+0+2),f
movlw	19
movwf	((??_main+0)+0+1),f
	movlw	177
movwf	((??_main+0)+0),f
u3727:
	decfsz	((??_main+0)+0),f
	goto	u3727
	decfsz	((??_main+0)+0+1),f
	goto	u3727
	decfsz	((??_main+0)+0+2),f
	goto	u3727
	nop2
opt asmopt_on

	line	84
;MobileAdv.c: 84: }
	goto	l3777
	line	85
	
l112:	
	line	88
;MobileAdv.c: 85: else
;MobileAdv.c: 86: {
;MobileAdv.c: 88: while(1)
	
l114:	
	line	90
;MobileAdv.c: 89: {
;MobileAdv.c: 90: RB7 = 1;
	bcf	status, 5	;RP0=0, select bank0
	bcf	status, 6	;RP1=0, select bank0
	bsf	(55/8),(55)&7	;volatile
	line	91
	
l3695:	
;MobileAdv.c: 91: _delay(100000);
	opt asmopt_off
movlw	130
movwf	((??_main+0)+0+1),f
	movlw	221
movwf	((??_main+0)+0),f
u3737:
	decfsz	((??_main+0)+0),f
	goto	u3737
	decfsz	((??_main+0)+0+1),f
	goto	u3737
	nop2
opt asmopt_on

	line	92
	
l3697:	
;MobileAdv.c: 92: RB7 = 0;
	bcf	status, 5	;RP0=0, select bank0
	bcf	status, 6	;RP1=0, select bank0
	bcf	(55/8),(55)&7	;volatile
	line	93
;MobileAdv.c: 93: _delay(100000);
	opt asmopt_off
movlw	130
movwf	((??_main+0)+0+1),f
	movlw	221
movwf	((??_main+0)+0),f
u3747:
	decfsz	((??_main+0)+0),f
	goto	u3747
	decfsz	((??_main+0)+0+1),f
	goto	u3747
	nop2
opt asmopt_on

	goto	l114
	line	94
	
l115:	
	line	88
	goto	l114
	
l116:	
	goto	l3777
	line	95
	
l113:	
	goto	l3777
	line	99
;MobileAdv.c: 94: }
;MobileAdv.c: 95: }
;MobileAdv.c: 99: while(1)
	
l117:	
	line	102
;MobileAdv.c: 100: {
;MobileAdv.c: 102: while(SIM300WaitForValidCall() != 1)
	goto	l3777
	
l119:	
	line	105
	
l3699:	
;MobileAdv.c: 103: {
;MobileAdv.c: 105: if(MOTOR_FLAG == 1)
	bsf	status, 5	;RP0=1, select bank1
	bcf	status, 6	;RP1=0, select bank1
	movf	(_MOTOR_FLAG)^080h,w
	xorlw	01h
	skipz
	goto	u3161
	goto	u3160
u3161:
	goto	l3733
u3160:
	line	107
	
l3701:	
;MobileAdv.c: 106: {
;MobileAdv.c: 107: if(phase_check() == 1)
	fcall	_phase_check
	xorlw	01h
	skipz
	goto	u3171
	goto	u3170
u3171:
	goto	l3709
u3170:
	line	109
	
l3703:	
;MobileAdv.c: 108: {
;MobileAdv.c: 109: if(LP_FLAG == 0)
	bsf	status, 5	;RP0=1, select bank1
	bcf	status, 6	;RP1=0, select bank1
	movf	(_LP_FLAG)^080h,f
	skipz
	goto	u3181
	goto	u3180
u3181:
	goto	l3715
u3180:
	line	111
	
l3705:	
;MobileAdv.c: 110: {
;MobileAdv.c: 111: start();
	fcall	_start
	line	112
	
l3707:	
;MobileAdv.c: 112: LP_FLAG = 1;
	bsf	status, 5	;RP0=1, select bank1
	bcf	status, 6	;RP1=0, select bank1
	clrf	(_LP_FLAG)^080h
	incf	(_LP_FLAG)^080h,f
	goto	l3715
	line	113
	
l122:	
	line	114
;MobileAdv.c: 113: }
;MobileAdv.c: 114: }
	goto	l3715
	line	115
	
l121:	
	line	117
	
l3709:	
;MobileAdv.c: 115: else
;MobileAdv.c: 116: {
;MobileAdv.c: 117: if(LP_FLAG == 1)
	bsf	status, 5	;RP0=1, select bank1
	bcf	status, 6	;RP1=0, select bank1
	movf	(_LP_FLAG)^080h,w
	xorlw	01h
	skipz
	goto	u3191
	goto	u3190
u3191:
	goto	l3715
u3190:
	line	119
	
l3711:	
;MobileAdv.c: 118: {
;MobileAdv.c: 119: stop();
	fcall	_stop
	line	120
	
l3713:	
;MobileAdv.c: 120: LP_FLAG = 0;
	bsf	status, 5	;RP0=1, select bank1
	bcf	status, 6	;RP1=0, select bank1
	clrf	(_LP_FLAG)^080h
	goto	l3715
	line	121
	
l124:	
	goto	l3715
	line	122
	
l123:	
	line	125
	
l3715:	
;MobileAdv.c: 121: }
;MobileAdv.c: 122: }
;MobileAdv.c: 125: if(RB0 == 0)
	bcf	status, 5	;RP0=0, select bank0
	bcf	status, 6	;RP1=0, select bank0
	btfsc	(48/8),(48)&7	;volatile
	goto	u3201
	goto	u3200
u3201:
	goto	l3731
u3200:
	line	127
	
l3717:	
;MobileAdv.c: 126: {
;MobileAdv.c: 127: Dry_Run_Timer++;
	movlw	(01h)
	movwf	(??_main+0)+0
	movf	(??_main+0)+0,w
	bsf	status, 5	;RP0=1, select bank1
	bcf	status, 6	;RP1=0, select bank1
	addwf	(_Dry_Run_Timer)^080h,f
	line	128
	
l3719:	
;MobileAdv.c: 128: if(Dry_Run_Timer > 6)
	movlw	(07h)
	subwf	(_Dry_Run_Timer)^080h,w
	skipc
	goto	u3211
	goto	u3210
u3211:
	goto	l3733
u3210:
	line	131
	
l3721:	
;MobileAdv.c: 129: {
;MobileAdv.c: 131: stop();
	fcall	_stop
	line	132
	
l3723:	
;MobileAdv.c: 132: LP_FLAG = 0;
	bsf	status, 5	;RP0=1, select bank1
	bcf	status, 6	;RP1=0, select bank1
	clrf	(_LP_FLAG)^080h
	line	133
	
l3725:	
;MobileAdv.c: 133: MOTOR_FLAG = 0;
	clrf	(_MOTOR_FLAG)^080h
	line	134
	
l3727:	
;MobileAdv.c: 134: REQUIRED_RING_COUNT = 3;
	movlw	(03h)
	bcf	status, 5	;RP0=0, select bank0
	bcf	status, 6	;RP1=0, select bank0
	movwf	(??_main+0)+0
	movf	(??_main+0)+0,w
	bsf	status, 5	;RP0=1, select bank1
	bcf	status, 6	;RP1=0, select bank1
	movwf	(_REQUIRED_RING_COUNT)^080h
	line	135
	
l3729:	
;MobileAdv.c: 135: eeprom_write(0x01,0);
	bcf	status, 5	;RP0=0, select bank0
	bcf	status, 6	;RP1=0, select bank0
	clrf	(eeprom_write@value)
	movlw	(01h)
	fcall	_eeprom_write
	goto	l3733
	line	136
	
l126:	
	line	137
;MobileAdv.c: 136: }
;MobileAdv.c: 137: }
	goto	l3733
	line	138
	
l125:	
	line	140
	
l3731:	
;MobileAdv.c: 138: else
;MobileAdv.c: 139: {
;MobileAdv.c: 140: Dry_Run_Timer = 0;
	bsf	status, 5	;RP0=1, select bank1
	bcf	status, 6	;RP1=0, select bank1
	clrf	(_Dry_Run_Timer)^080h
	goto	l3733
	line	141
	
l127:	
	goto	l3733
	line	143
	
l120:	
	line	145
	
l3733:	
;MobileAdv.c: 141: }
;MobileAdv.c: 143: }
;MobileAdv.c: 145: if(WRONG_NUMBER == 1)
	bsf	status, 5	;RP0=1, select bank1
	bcf	status, 6	;RP1=0, select bank1
	movf	(_WRONG_NUMBER)^080h,w
	xorlw	01h
	skipz
	goto	u3221
	goto	u3220
u3221:
	goto	l3743
u3220:
	line	148
	
l3735:	
;MobileAdv.c: 146: {
;MobileAdv.c: 148: _delay(1000000);
	opt asmopt_off
movlw  6
	bcf	status, 5	;RP0=0, select bank0
	bcf	status, 6	;RP1=0, select bank0
movwf	((??_main+0)+0+2),f
movlw	19
movwf	((??_main+0)+0+1),f
	movlw	177
movwf	((??_main+0)+0),f
u3757:
	decfsz	((??_main+0)+0),f
	goto	u3757
	decfsz	((??_main+0)+0+1),f
	goto	u3757
	decfsz	((??_main+0)+0+2),f
	goto	u3757
	nop2
opt asmopt_on

	line	149
	
l3737:	
;MobileAdv.c: 149: SIM300Cmd("ATH");
	movlw	low((STR_4)|8000h)
	bcf	status, 5	;RP0=0, select bank0
	bcf	status, 6	;RP1=0, select bank0
	movwf	(SIM300Cmd@cmd)
	movlw	high((STR_4)|8000h)
	movwf	((SIM300Cmd@cmd))+1
	fcall	_SIM300Cmd
	line	150
	
l3739:	
;MobileAdv.c: 150: _delay(1000000);
	opt asmopt_off
movlw  6
	bcf	status, 5	;RP0=0, select bank0
	bcf	status, 6	;RP1=0, select bank0
movwf	((??_main+0)+0+2),f
movlw	19
movwf	((??_main+0)+0+1),f
	movlw	177
movwf	((??_main+0)+0),f
u3767:
	decfsz	((??_main+0)+0),f
	goto	u3767
	decfsz	((??_main+0)+0+1),f
	goto	u3767
	decfsz	((??_main+0)+0+2),f
	goto	u3767
	nop2
opt asmopt_on

	line	151
	
l3741:	
;MobileAdv.c: 151: WRONG_NUMBER = 0;
	bsf	status, 5	;RP0=1, select bank1
	bcf	status, 6	;RP1=0, select bank1
	clrf	(_WRONG_NUMBER)^080h
	goto	l3743
	line	152
	
l128:	
	line	155
	
l3743:	
;MobileAdv.c: 152: }
;MobileAdv.c: 155: SMSCommunication();
	fcall	_SMSCommunication
	line	157
	
l3745:	
;MobileAdv.c: 157: if(RING_COUNT != 0)
	bsf	status, 5	;RP0=1, select bank1
	bcf	status, 6	;RP1=0, select bank1
	movf	(_RING_COUNT)^080h,w
	skipz
	goto	u3230
	goto	l3753
u3230:
	line	159
	
l3747:	
;MobileAdv.c: 158: {
;MobileAdv.c: 159: if(Timer > 2)
	movlw	(03h)
	subwf	(_Timer)^080h,w
	skipc
	goto	u3241
	goto	u3240
u3241:
	goto	l3751
u3240:
	line	161
	
l3749:	
;MobileAdv.c: 160: {
;MobileAdv.c: 161: RING_COUNT = 0;
	clrf	(_RING_COUNT)^080h
	line	162
;MobileAdv.c: 162: Timer = 0;
	clrf	(_Timer)^080h
	line	163
;MobileAdv.c: 163: }
	goto	l3753
	line	164
	
l130:	
	line	166
	
l3751:	
;MobileAdv.c: 164: else
;MobileAdv.c: 165: {
;MobileAdv.c: 166: Timer++;
	movlw	(01h)
	bcf	status, 5	;RP0=0, select bank0
	bcf	status, 6	;RP1=0, select bank0
	movwf	(??_main+0)+0
	movf	(??_main+0)+0,w
	bsf	status, 5	;RP0=1, select bank1
	bcf	status, 6	;RP1=0, select bank1
	addwf	(_Timer)^080h,f
	goto	l3753
	line	167
	
l131:	
	goto	l3753
	line	168
	
l129:	
	line	170
	
l3753:	
;MobileAdv.c: 167: }
;MobileAdv.c: 168: }
;MobileAdv.c: 170: if(RING_COUNT == 0)
	movf	(_RING_COUNT)^080h,f
	skipz
	goto	u3251
	goto	u3250
u3251:
	goto	l3777
u3250:
	line	173
	
l3755:	
;MobileAdv.c: 171: {
;MobileAdv.c: 173: r= SIM300Init();
	fcall	_SIM300Init
	bcf	status, 5	;RP0=0, select bank0
	bcf	status, 6	;RP1=0, select bank0
	movwf	(??_main+0)+0
	movf	(??_main+0)+0,w
	movwf	(main@r)
	line	174
	
l3757:	
;MobileAdv.c: 174: _delay(250000);
	opt asmopt_off
movlw  2
movwf	((??_main+0)+0+2),f
movlw	69
movwf	((??_main+0)+0+1),f
	movlw	169
movwf	((??_main+0)+0),f
u3777:
	decfsz	((??_main+0)+0),f
	goto	u3777
	decfsz	((??_main+0)+0+1),f
	goto	u3777
	decfsz	((??_main+0)+0+2),f
	goto	u3777
	nop2
opt asmopt_on

	line	176
	
l3759:	
;MobileAdv.c: 176: if(r != 1)
	bcf	status, 5	;RP0=0, select bank0
	bcf	status, 6	;RP1=0, select bank0
	movf	(main@r),w
	xorlw	01h
	skipnz
	goto	u3261
	goto	u3260
u3261:
	goto	l3775
u3260:
	goto	l3773
	line	179
	
l3761:	
;MobileAdv.c: 177: {
;MobileAdv.c: 179: while(r != 1)
	goto	l3773
	
l135:	
	line	181
;MobileAdv.c: 180: {
;MobileAdv.c: 181: RB7 = 1;
	bsf	(55/8),(55)&7	;volatile
	line	182
	
l3763:	
;MobileAdv.c: 182: _delay(100000);
	opt asmopt_off
movlw	130
movwf	((??_main+0)+0+1),f
	movlw	221
movwf	((??_main+0)+0),f
u3787:
	decfsz	((??_main+0)+0),f
	goto	u3787
	decfsz	((??_main+0)+0+1),f
	goto	u3787
	nop2
opt asmopt_on

	line	183
	
l3765:	
;MobileAdv.c: 183: RB7 = 0;
	bcf	status, 5	;RP0=0, select bank0
	bcf	status, 6	;RP1=0, select bank0
	bcf	(55/8),(55)&7	;volatile
	line	185
	
l3767:	
;MobileAdv.c: 185: r= SIM300Init();
	fcall	_SIM300Init
	bcf	status, 5	;RP0=0, select bank0
	bcf	status, 6	;RP1=0, select bank0
	movwf	(??_main+0)+0
	movf	(??_main+0)+0,w
	movwf	(main@r)
	line	186
	
l3769:	
;MobileAdv.c: 186: _delay(250000);
	opt asmopt_off
movlw  2
movwf	((??_main+0)+0+2),f
movlw	69
movwf	((??_main+0)+0+1),f
	movlw	169
movwf	((??_main+0)+0),f
u3797:
	decfsz	((??_main+0)+0),f
	goto	u3797
	decfsz	((??_main+0)+0+1),f
	goto	u3797
	decfsz	((??_main+0)+0+2),f
	goto	u3797
	nop2
opt asmopt_on

	line	187
	
l3771:	
;MobileAdv.c: 187: USARTFlushBuffer();
	fcall	_USARTFlushBuffer
	goto	l3773
	line	188
	
l134:	
	line	179
	
l3773:	
	bcf	status, 5	;RP0=0, select bank0
	bcf	status, 6	;RP1=0, select bank0
	movf	(main@r),w
	xorlw	01h
	skipz
	goto	u3271
	goto	u3270
u3271:
	goto	l135
u3270:
	
l136:	
	line	189
;MobileAdv.c: 188: }
;MobileAdv.c: 189: RB7 = 1;
	bsf	(55/8),(55)&7	;volatile
	goto	l3775
	line	190
	
l133:	
	line	191
	
l3775:	
;MobileAdv.c: 190: }
;MobileAdv.c: 191: USARTFlushBuffer();
	fcall	_USARTFlushBuffer
	goto	l3777
	line	192
	
l132:	
	goto	l3777
	line	193
	
l118:	
	line	102
	
l3777:	
	fcall	_SIM300WaitForValidCall
	xorlw	01h
	skipz
	goto	u3281
	goto	u3280
u3281:
	goto	l3699
u3280:
	goto	l3779
	
l137:	
	line	196
	
l3779:	
;MobileAdv.c: 192: }
;MobileAdv.c: 193: }
;MobileAdv.c: 196: if ( MOTOR_FLAG == 0 )
	bsf	status, 5	;RP0=1, select bank1
	bcf	status, 6	;RP1=0, select bank1
	movf	(_MOTOR_FLAG)^080h,f
	skipz
	goto	u3291
	goto	u3290
u3291:
	goto	l3865
u3290:
	line	199
	
l3781:	
;MobileAdv.c: 197: {
;MobileAdv.c: 199: if ( phase_check() == 1 )
	fcall	_phase_check
	xorlw	01h
	skipz
	goto	u3301
	goto	u3300
u3301:
	goto	l3859
u3300:
	line	201
	
l3783:	
;MobileAdv.c: 200: {
;MobileAdv.c: 201: _delay(5000000);
	opt asmopt_off
movlw  26
	bcf	status, 5	;RP0=0, select bank0
	bcf	status, 6	;RP1=0, select bank0
movwf	((??_main+0)+0+2),f
movlw	94
movwf	((??_main+0)+0+1),f
	movlw	134
movwf	((??_main+0)+0),f
u3807:
	decfsz	((??_main+0)+0),f
	goto	u3807
	decfsz	((??_main+0)+0+1),f
	goto	u3807
	decfsz	((??_main+0)+0+2),f
	goto	u3807
	nop
opt asmopt_on

	line	204
	
l3785:	
;MobileAdv.c: 204: SIM300Cmd("ATH");
	movlw	low((STR_5)|8000h)
	bcf	status, 5	;RP0=0, select bank0
	bcf	status, 6	;RP1=0, select bank0
	movwf	(SIM300Cmd@cmd)
	movlw	high((STR_5)|8000h)
	movwf	((SIM300Cmd@cmd))+1
	fcall	_SIM300Cmd
	line	205
	
l3787:	
;MobileAdv.c: 205: _delay(1000000);
	opt asmopt_off
movlw  6
	bcf	status, 5	;RP0=0, select bank0
	bcf	status, 6	;RP1=0, select bank0
movwf	((??_main+0)+0+2),f
movlw	19
movwf	((??_main+0)+0+1),f
	movlw	177
movwf	((??_main+0)+0),f
u3817:
	decfsz	((??_main+0)+0),f
	goto	u3817
	decfsz	((??_main+0)+0+1),f
	goto	u3817
	decfsz	((??_main+0)+0+2),f
	goto	u3817
	nop2
opt asmopt_on

	line	208
	
l3789:	
;MobileAdv.c: 208: LP_FLAG = 1;
	bsf	status, 5	;RP0=1, select bank1
	bcf	status, 6	;RP1=0, select bank1
	clrf	(_LP_FLAG)^080h
	incf	(_LP_FLAG)^080h,f
	line	209
	
l3791:	
;MobileAdv.c: 209: start();
	fcall	_start
	line	210
	
l3793:	
;MobileAdv.c: 210: MOTOR_FLAG = 1;
	bsf	status, 5	;RP0=1, select bank1
	bcf	status, 6	;RP1=0, select bank1
	clrf	(_MOTOR_FLAG)^080h
	incf	(_MOTOR_FLAG)^080h,f
	line	211
	
l3795:	
;MobileAdv.c: 211: REQUIRED_RING_COUNT = 1;
	clrf	(_REQUIRED_RING_COUNT)^080h
	incf	(_REQUIRED_RING_COUNT)^080h,f
	line	212
	
l3797:	
;MobileAdv.c: 212: Dry_Run_Timer = 0;
	clrf	(_Dry_Run_Timer)^080h
	line	214
	
l3799:	
;MobileAdv.c: 214: unsigned char ten_seconds = 0;
	bcf	status, 5	;RP0=0, select bank0
	bcf	status, 6	;RP1=0, select bank0
	clrf	(main@ten_seconds)
	line	215
;MobileAdv.c: 215: while(phase_check() == 1 && ten_seconds < 5)
	goto	l3805
	
l141:	
	line	217
	
l3801:	
;MobileAdv.c: 216: {
;MobileAdv.c: 217: _delay(10000000);
	opt asmopt_off
movlw  51
movwf	((??_main+0)+0+2),f
movlw	188
movwf	((??_main+0)+0+1),f
	movlw	16
movwf	((??_main+0)+0),f
u3827:
	decfsz	((??_main+0)+0),f
	goto	u3827
	decfsz	((??_main+0)+0+1),f
	goto	u3827
	decfsz	((??_main+0)+0+2),f
	goto	u3827
opt asmopt_on

	line	218
	
l3803:	
;MobileAdv.c: 218: ten_seconds++;
	movlw	(01h)
	bcf	status, 5	;RP0=0, select bank0
	bcf	status, 6	;RP1=0, select bank0
	movwf	(??_main+0)+0
	movf	(??_main+0)+0,w
	addwf	(main@ten_seconds),f
	goto	l3805
	line	219
	
l140:	
	line	215
	
l3805:	
	fcall	_phase_check
	xorlw	01h
	skipz
	goto	u3311
	goto	u3310
u3311:
	goto	l3809
u3310:
	
l3807:	
	movlw	(05h)
	bcf	status, 5	;RP0=0, select bank0
	bcf	status, 6	;RP1=0, select bank0
	subwf	(main@ten_seconds),w
	skipc
	goto	u3321
	goto	u3320
u3321:
	goto	l3801
u3320:
	goto	l3809
	
l143:	
	goto	l3809
	
l144:	
	line	220
	
l3809:	
;MobileAdv.c: 219: }
;MobileAdv.c: 220: if(ten_seconds >= 5 && RA5 == 1)
	movlw	(05h)
	bcf	status, 5	;RP0=0, select bank0
	bcf	status, 6	;RP1=0, select bank0
	subwf	(main@ten_seconds),w
	skipc
	goto	u3331
	goto	u3330
u3331:
	goto	l3839
u3330:
	
l3811:	
	btfss	(45/8),(45)&7	;volatile
	goto	u3341
	goto	u3340
u3341:
	goto	l3839
u3340:
	line	223
	
l3813:	
;MobileAdv.c: 221: {
;MobileAdv.c: 223: SIM300Cmd(phone_number);
	movlw	(_phone_number&0ffh)
	movwf	(SIM300Cmd@cmd)
	movlw	(0x0)
	movwf	(SIM300Cmd@cmd+1)
	fcall	_SIM300Cmd
	line	224
	
l3815:	
;MobileAdv.c: 224: _delay(30000000);
	opt asmopt_off
movlw  153
	bcf	status, 5	;RP0=0, select bank0
	bcf	status, 6	;RP1=0, select bank0
movwf	((??_main+0)+0+2),f
movlw	50
movwf	((??_main+0)+0+1),f
	movlw	56
movwf	((??_main+0)+0),f
u3837:
	decfsz	((??_main+0)+0),f
	goto	u3837
	decfsz	((??_main+0)+0+1),f
	goto	u3837
	decfsz	((??_main+0)+0+2),f
	goto	u3837
	nop2
opt asmopt_on

	line	225
	
l3817:	
;MobileAdv.c: 225: SIM300Cmd("ATH");
	movlw	low((STR_6)|8000h)
	bcf	status, 5	;RP0=0, select bank0
	bcf	status, 6	;RP1=0, select bank0
	movwf	(SIM300Cmd@cmd)
	movlw	high((STR_6)|8000h)
	movwf	((SIM300Cmd@cmd))+1
	fcall	_SIM300Cmd
	line	226
;MobileAdv.c: 226: _delay(1000000);
	opt asmopt_off
movlw  6
	bcf	status, 5	;RP0=0, select bank0
	bcf	status, 6	;RP1=0, select bank0
movwf	((??_main+0)+0+2),f
movlw	19
movwf	((??_main+0)+0+1),f
	movlw	177
movwf	((??_main+0)+0),f
u3847:
	decfsz	((??_main+0)+0),f
	goto	u3847
	decfsz	((??_main+0)+0+1),f
	goto	u3847
	decfsz	((??_main+0)+0+2),f
	goto	u3847
	nop2
opt asmopt_on

	line	228
	
l3819:	
;MobileAdv.c: 228: eeprom_write(0x01,1);
	bcf	status, 5	;RP0=0, select bank0
	bcf	status, 6	;RP1=0, select bank0
	clrf	(eeprom_write@value)
	incf	(eeprom_write@value),f
	movlw	(01h)
	fcall	_eeprom_write
	line	231
	
l3821:	
;MobileAdv.c: 231: char i = 3;
	movlw	(03h)
	bcf	status, 5	;RP0=0, select bank0
	bcf	status, 6	;RP1=0, select bank0
	movwf	(??_main+0)+0
	movf	(??_main+0)+0,w
	movwf	(main@i)
	line	232
;MobileAdv.c: 232: while(phone_number[i] != ';')
	goto	l3827
	
l147:	
	line	234
	
l3823:	
;MobileAdv.c: 233: {
;MobileAdv.c: 234: eeprom_write(i,phone_number[i]);
	movf	(main@i),w
	addlw	_phone_number&0ffh
	movwf	fsr0
	bcf	status, 7	;select IRP bank1
	movf	indf,w
	movwf	(??_main+0)+0
	movf	(??_main+0)+0,w
	movwf	(eeprom_write@value)
	movf	(main@i),w
	fcall	_eeprom_write
	line	235
	
l3825:	
;MobileAdv.c: 235: i++;
	movlw	(01h)
	bcf	status, 5	;RP0=0, select bank0
	bcf	status, 6	;RP1=0, select bank0
	movwf	(??_main+0)+0
	movf	(??_main+0)+0,w
	addwf	(main@i),f
	goto	l3827
	line	236
	
l146:	
	line	232
	
l3827:	
	movf	(main@i),w
	addlw	_phone_number&0ffh
	movwf	fsr0
	bcf	status, 7	;select IRP bank1
	movf	indf,w
	xorlw	03Bh
	skipz
	goto	u3351
	goto	u3350
u3351:
	goto	l3823
u3350:
	goto	l3829
	
l148:	
	line	237
	
l3829:	
;MobileAdv.c: 236: }
;MobileAdv.c: 237: eeprom_write(i,';');
	movlw	(03Bh)
	movwf	(??_main+0)+0
	movf	(??_main+0)+0,w
	movwf	(eeprom_write@value)
	movf	(main@i),w
	fcall	_eeprom_write
	line	241
	
l3831:	
;MobileAdv.c: 241: result=SIM300SendMsg("9403585436","MOTOR IS STARTED ...!",&ref);
	movlw	low((STR_7)|8000h)
	bcf	status, 5	;RP0=0, select bank0
	bcf	status, 6	;RP1=0, select bank0
	movwf	(SIM300SendMsg@num)
	movlw	high((STR_7)|8000h)
	movwf	((SIM300SendMsg@num))+1
	movlw	low((STR_8)|8000h)
	movwf	(SIM300SendMsg@msg)
	movlw	high((STR_8)|8000h)
	movwf	((SIM300SendMsg@msg))+1
	movlw	(main@ref)&0ffh
	movwf	(??_main+0)+0
	movf	(??_main+0)+0,w
	movwf	(SIM300SendMsg@msg_ref)
	fcall	_SIM300SendMsg
	bcf	status, 5	;RP0=0, select bank0
	bcf	status, 6	;RP1=0, select bank0
	movwf	(??_main+1)+0
	movf	(??_main+1)+0,w
	movwf	(main@result)
	line	242
	
l3833:	
;MobileAdv.c: 242: _delay(5000000);
	opt asmopt_off
movlw  26
movwf	((??_main+0)+0+2),f
movlw	94
movwf	((??_main+0)+0+1),f
	movlw	134
movwf	((??_main+0)+0),f
u3857:
	decfsz	((??_main+0)+0),f
	goto	u3857
	decfsz	((??_main+0)+0+1),f
	goto	u3857
	decfsz	((??_main+0)+0+2),f
	goto	u3857
	nop
opt asmopt_on

	line	243
	
l3835:	
;MobileAdv.c: 243: result=SIM300SendMsg("9819895913","MOTOR IS STARTED ...!",&ref);
	movlw	low((STR_9)|8000h)
	bcf	status, 5	;RP0=0, select bank0
	bcf	status, 6	;RP1=0, select bank0
	movwf	(SIM300SendMsg@num)
	movlw	high((STR_9)|8000h)
	movwf	((SIM300SendMsg@num))+1
	movlw	low((STR_10)|8000h)
	movwf	(SIM300SendMsg@msg)
	movlw	high((STR_10)|8000h)
	movwf	((SIM300SendMsg@msg))+1
	movlw	(main@ref)&0ffh
	movwf	(??_main+0)+0
	movf	(??_main+0)+0,w
	movwf	(SIM300SendMsg@msg_ref)
	fcall	_SIM300SendMsg
	bcf	status, 5	;RP0=0, select bank0
	bcf	status, 6	;RP1=0, select bank0
	movwf	(??_main+1)+0
	movf	(??_main+1)+0,w
	movwf	(main@result)
	line	244
	
l3837:	
;MobileAdv.c: 244: _delay(5000000);
	opt asmopt_off
movlw  26
movwf	((??_main+0)+0+2),f
movlw	94
movwf	((??_main+0)+0+1),f
	movlw	134
movwf	((??_main+0)+0),f
u3867:
	decfsz	((??_main+0)+0),f
	goto	u3867
	decfsz	((??_main+0)+0+1),f
	goto	u3867
	decfsz	((??_main+0)+0+2),f
	goto	u3867
	nop
opt asmopt_on

	line	247
;MobileAdv.c: 247: }
	goto	l3777
	line	248
	
l145:	
	line	250
	
l3839:	
;MobileAdv.c: 248: else
;MobileAdv.c: 249: {
;MobileAdv.c: 250: stop();
	fcall	_stop
	line	251
	
l3841:	
;MobileAdv.c: 251: uint8_t i = 3;
	movlw	(03h)
	bcf	status, 5	;RP0=0, select bank0
	bcf	status, 6	;RP1=0, select bank0
	movwf	(??_main+0)+0
	movf	(??_main+0)+0,w
	movwf	(main@i_172)
	line	252
;MobileAdv.c: 252: while(phone_number[i] != ';')
	goto	l3847
	
l151:	
	line	254
	
l3843:	
;MobileAdv.c: 253: {
;MobileAdv.c: 254: MSG_number[i-3] = phone_number[i];
	movf	(main@i_172),w
	addlw	_phone_number&0ffh
	movwf	fsr0
	bcf	status, 7	;select IRP bank1
	movf	indf,w
	movwf	(??_main+0)+0
	movf	(main@i_172),w
	addlw	0FDh
	addlw	_MSG_number&0ffh
	movwf	fsr0
	movf	(??_main+0)+0,w
	bsf	status, 7	;select IRP bank3
	movwf	indf
	line	255
	
l3845:	
;MobileAdv.c: 255: i++;
	movlw	(01h)
	movwf	(??_main+0)+0
	movf	(??_main+0)+0,w
	addwf	(main@i_172),f
	goto	l3847
	line	256
	
l150:	
	line	252
	
l3847:	
	movf	(main@i_172),w
	addlw	_phone_number&0ffh
	movwf	fsr0
	bcf	status, 7	;select IRP bank1
	movf	indf,w
	xorlw	03Bh
	skipz
	goto	u3361
	goto	u3360
u3361:
	goto	l3843
u3360:
	goto	l3849
	
l152:	
	line	257
	
l3849:	
;MobileAdv.c: 256: }
;MobileAdv.c: 257: MSG_number[i-3] = '\0';
	movf	(main@i_172),w
	addlw	0FDh
	addlw	_MSG_number&0ffh
	movwf	fsr0
	bsf	status, 7	;select IRP bank3
	clrf	indf
	line	259
	
l3851:	
;MobileAdv.c: 259: result=SIM300SendMsg(MSG_number,"STARTER PROBLEM...!",&ref);
	movlw	(_MSG_number&0ffh)
	movwf	(SIM300SendMsg@num)
	movlw	(0x1)
	movwf	(SIM300SendMsg@num+1)
	movlw	low((STR_11)|8000h)
	movwf	(SIM300SendMsg@msg)
	movlw	high((STR_11)|8000h)
	movwf	((SIM300SendMsg@msg))+1
	movlw	(main@ref)&0ffh
	movwf	(??_main+0)+0
	movf	(??_main+0)+0,w
	movwf	(SIM300SendMsg@msg_ref)
	fcall	_SIM300SendMsg
	bcf	status, 5	;RP0=0, select bank0
	bcf	status, 6	;RP1=0, select bank0
	movwf	(??_main+1)+0
	movf	(??_main+1)+0,w
	movwf	(main@result)
	line	260
	
l3853:	
;MobileAdv.c: 260: _delay(1000000);
	opt asmopt_off
movlw  6
movwf	((??_main+0)+0+2),f
movlw	19
movwf	((??_main+0)+0+1),f
	movlw	177
movwf	((??_main+0)+0),f
u3877:
	decfsz	((??_main+0)+0),f
	goto	u3877
	decfsz	((??_main+0)+0+1),f
	goto	u3877
	decfsz	((??_main+0)+0+2),f
	goto	u3877
	nop2
opt asmopt_on

	line	261
	
l3855:	
;MobileAdv.c: 261: MOTOR_FLAG = 0;
	bsf	status, 5	;RP0=1, select bank1
	bcf	status, 6	;RP1=0, select bank1
	clrf	(_MOTOR_FLAG)^080h
	line	262
	
l3857:	
;MobileAdv.c: 262: LP_FLAG = 0;
	clrf	(_LP_FLAG)^080h
	goto	l3777
	line	263
	
l149:	
	line	264
;MobileAdv.c: 263: }
;MobileAdv.c: 264: }
	goto	l3777
	line	266
	
l139:	
	line	269
	
l3859:	
;MobileAdv.c: 266: else
;MobileAdv.c: 267: {
;MobileAdv.c: 269: _delay(35000000);
	opt asmopt_off
movlw  178
	bcf	status, 5	;RP0=0, select bank0
	bcf	status, 6	;RP1=0, select bank0
movwf	((??_main+0)+0+2),f
movlw	143
movwf	((??_main+0)+0+1),f
	movlw	195
movwf	((??_main+0)+0),f
u3887:
	decfsz	((??_main+0)+0),f
	goto	u3887
	decfsz	((??_main+0)+0+1),f
	goto	u3887
	decfsz	((??_main+0)+0+2),f
	goto	u3887
opt asmopt_on

	line	271
	
l3861:	
;MobileAdv.c: 271: SIM300Cmd("ATH");
	movlw	low((STR_12)|8000h)
	bcf	status, 5	;RP0=0, select bank0
	bcf	status, 6	;RP1=0, select bank0
	movwf	(SIM300Cmd@cmd)
	movlw	high((STR_12)|8000h)
	movwf	((SIM300Cmd@cmd))+1
	fcall	_SIM300Cmd
	line	272
	
l3863:	
;MobileAdv.c: 272: _delay(1000000);
	opt asmopt_off
movlw  6
	bcf	status, 5	;RP0=0, select bank0
	bcf	status, 6	;RP1=0, select bank0
movwf	((??_main+0)+0+2),f
movlw	19
movwf	((??_main+0)+0+1),f
	movlw	177
movwf	((??_main+0)+0),f
u3897:
	decfsz	((??_main+0)+0),f
	goto	u3897
	decfsz	((??_main+0)+0+1),f
	goto	u3897
	decfsz	((??_main+0)+0+2),f
	goto	u3897
	nop2
opt asmopt_on

	goto	l3777
	line	273
	
l153:	
	line	274
;MobileAdv.c: 273: }
;MobileAdv.c: 274: continue;
	goto	l3777
	line	275
	
l138:	
	line	278
	
l3865:	
;MobileAdv.c: 275: }
;MobileAdv.c: 278: if( MOTOR_FLAG == 1 )
	bsf	status, 5	;RP0=1, select bank1
	bcf	status, 6	;RP1=0, select bank1
	movf	(_MOTOR_FLAG)^080h,w
	xorlw	01h
	skipz
	goto	u3371
	goto	u3370
u3371:
	goto	l3777
u3370:
	line	280
	
l3867:	
;MobileAdv.c: 279: {
;MobileAdv.c: 280: _delay(6000000);
	opt asmopt_off
movlw  31
	bcf	status, 5	;RP0=0, select bank0
	bcf	status, 6	;RP1=0, select bank0
movwf	((??_main+0)+0+2),f
movlw	113
movwf	((??_main+0)+0+1),f
	movlw	59
movwf	((??_main+0)+0),f
u3907:
	decfsz	((??_main+0)+0),f
	goto	u3907
	decfsz	((??_main+0)+0+1),f
	goto	u3907
	decfsz	((??_main+0)+0+2),f
	goto	u3907
	nop
opt asmopt_on

	line	283
	
l3869:	
;MobileAdv.c: 283: SIM300Cmd("ATH");
	movlw	low((STR_13)|8000h)
	bcf	status, 5	;RP0=0, select bank0
	bcf	status, 6	;RP1=0, select bank0
	movwf	(SIM300Cmd@cmd)
	movlw	high((STR_13)|8000h)
	movwf	((SIM300Cmd@cmd))+1
	fcall	_SIM300Cmd
	line	284
	
l3871:	
;MobileAdv.c: 284: _delay(1000000);
	opt asmopt_off
movlw  6
	bcf	status, 5	;RP0=0, select bank0
	bcf	status, 6	;RP1=0, select bank0
movwf	((??_main+0)+0+2),f
movlw	19
movwf	((??_main+0)+0+1),f
	movlw	177
movwf	((??_main+0)+0),f
u3917:
	decfsz	((??_main+0)+0),f
	goto	u3917
	decfsz	((??_main+0)+0+1),f
	goto	u3917
	decfsz	((??_main+0)+0+2),f
	goto	u3917
	nop2
opt asmopt_on

	line	286
	
l3873:	
;MobileAdv.c: 286: stop();
	fcall	_stop
	line	287
	
l3875:	
;MobileAdv.c: 287: MOTOR_FLAG = 0;
	bsf	status, 5	;RP0=1, select bank1
	bcf	status, 6	;RP1=0, select bank1
	clrf	(_MOTOR_FLAG)^080h
	line	288
	
l3877:	
;MobileAdv.c: 288: LP_FLAG = 0;
	clrf	(_LP_FLAG)^080h
	line	289
	
l3879:	
;MobileAdv.c: 289: REQUIRED_RING_COUNT = 3;
	movlw	(03h)
	bcf	status, 5	;RP0=0, select bank0
	bcf	status, 6	;RP1=0, select bank0
	movwf	(??_main+0)+0
	movf	(??_main+0)+0,w
	bsf	status, 5	;RP0=1, select bank1
	bcf	status, 6	;RP1=0, select bank1
	movwf	(_REQUIRED_RING_COUNT)^080h
	line	292
	
l3881:	
;MobileAdv.c: 292: _delay(10000000);
	opt asmopt_off
movlw  51
	bcf	status, 5	;RP0=0, select bank0
	bcf	status, 6	;RP1=0, select bank0
movwf	((??_main+0)+0+2),f
movlw	188
movwf	((??_main+0)+0+1),f
	movlw	16
movwf	((??_main+0)+0),f
u3927:
	decfsz	((??_main+0)+0),f
	goto	u3927
	decfsz	((??_main+0)+0+1),f
	goto	u3927
	decfsz	((??_main+0)+0+2),f
	goto	u3927
opt asmopt_on

	line	295
	
l3883:	
;MobileAdv.c: 295: SIM300Cmd(phone_number);
	movlw	(_phone_number&0ffh)
	bcf	status, 5	;RP0=0, select bank0
	bcf	status, 6	;RP1=0, select bank0
	movwf	(SIM300Cmd@cmd)
	movlw	(0x0)
	movwf	(SIM300Cmd@cmd+1)
	fcall	_SIM300Cmd
	line	296
	
l3885:	
;MobileAdv.c: 296: _delay(30000000);
	opt asmopt_off
movlw  153
	bcf	status, 5	;RP0=0, select bank0
	bcf	status, 6	;RP1=0, select bank0
movwf	((??_main+0)+0+2),f
movlw	50
movwf	((??_main+0)+0+1),f
	movlw	56
movwf	((??_main+0)+0),f
u3937:
	decfsz	((??_main+0)+0),f
	goto	u3937
	decfsz	((??_main+0)+0+1),f
	goto	u3937
	decfsz	((??_main+0)+0+2),f
	goto	u3937
	nop2
opt asmopt_on

	line	297
	
l3887:	
;MobileAdv.c: 297: SIM300Cmd("ATH");
	movlw	low((STR_14)|8000h)
	bcf	status, 5	;RP0=0, select bank0
	bcf	status, 6	;RP1=0, select bank0
	movwf	(SIM300Cmd@cmd)
	movlw	high((STR_14)|8000h)
	movwf	((SIM300Cmd@cmd))+1
	fcall	_SIM300Cmd
	line	298
	
l3889:	
;MobileAdv.c: 298: _delay(1000000);
	opt asmopt_off
movlw  6
	bcf	status, 5	;RP0=0, select bank0
	bcf	status, 6	;RP1=0, select bank0
movwf	((??_main+0)+0+2),f
movlw	19
movwf	((??_main+0)+0+1),f
	movlw	177
movwf	((??_main+0)+0),f
u3947:
	decfsz	((??_main+0)+0),f
	goto	u3947
	decfsz	((??_main+0)+0+1),f
	goto	u3947
	decfsz	((??_main+0)+0+2),f
	goto	u3947
	nop2
opt asmopt_on

	line	300
	
l3891:	
;MobileAdv.c: 300: eeprom_write(0x01,0);
	bcf	status, 5	;RP0=0, select bank0
	bcf	status, 6	;RP1=0, select bank0
	clrf	(eeprom_write@value)
	movlw	(01h)
	fcall	_eeprom_write
	line	303
	
l3893:	
;MobileAdv.c: 303: char i = 3;
	movlw	(03h)
	bcf	status, 5	;RP0=0, select bank0
	bcf	status, 6	;RP1=0, select bank0
	movwf	(??_main+0)+0
	movf	(??_main+0)+0,w
	movwf	(main@i_177)
	line	304
;MobileAdv.c: 304: while(phone_number[i] != ';')
	goto	l3899
	
l157:	
	line	306
	
l3895:	
;MobileAdv.c: 305: {
;MobileAdv.c: 306: eeprom_write(i,phone_number[i]);
	movf	(main@i_177),w
	addlw	_phone_number&0ffh
	movwf	fsr0
	bcf	status, 7	;select IRP bank1
	movf	indf,w
	movwf	(??_main+0)+0
	movf	(??_main+0)+0,w
	movwf	(eeprom_write@value)
	movf	(main@i_177),w
	fcall	_eeprom_write
	line	307
	
l3897:	
;MobileAdv.c: 307: i++;
	movlw	(01h)
	bcf	status, 5	;RP0=0, select bank0
	bcf	status, 6	;RP1=0, select bank0
	movwf	(??_main+0)+0
	movf	(??_main+0)+0,w
	addwf	(main@i_177),f
	goto	l3899
	line	308
	
l156:	
	line	304
	
l3899:	
	movf	(main@i_177),w
	addlw	_phone_number&0ffh
	movwf	fsr0
	bcf	status, 7	;select IRP bank1
	movf	indf,w
	xorlw	03Bh
	skipz
	goto	u3381
	goto	u3380
u3381:
	goto	l3895
u3380:
	goto	l3901
	
l158:	
	line	309
	
l3901:	
;MobileAdv.c: 308: }
;MobileAdv.c: 309: eeprom_write(i,';');
	movlw	(03Bh)
	movwf	(??_main+0)+0
	movf	(??_main+0)+0,w
	movwf	(eeprom_write@value)
	movf	(main@i_177),w
	fcall	_eeprom_write
	line	313
	
l3903:	
;MobileAdv.c: 313: result=SIM300SendMsg("9403585436","MOTOR IS STOPPED ...!",&ref);
	movlw	low((STR_15)|8000h)
	bcf	status, 5	;RP0=0, select bank0
	bcf	status, 6	;RP1=0, select bank0
	movwf	(SIM300SendMsg@num)
	movlw	high((STR_15)|8000h)
	movwf	((SIM300SendMsg@num))+1
	movlw	low((STR_16)|8000h)
	movwf	(SIM300SendMsg@msg)
	movlw	high((STR_16)|8000h)
	movwf	((SIM300SendMsg@msg))+1
	movlw	(main@ref)&0ffh
	movwf	(??_main+0)+0
	movf	(??_main+0)+0,w
	movwf	(SIM300SendMsg@msg_ref)
	fcall	_SIM300SendMsg
	bcf	status, 5	;RP0=0, select bank0
	bcf	status, 6	;RP1=0, select bank0
	movwf	(??_main+1)+0
	movf	(??_main+1)+0,w
	movwf	(main@result)
	line	314
	
l3905:	
;MobileAdv.c: 314: _delay(5000000);
	opt asmopt_off
movlw  26
movwf	((??_main+0)+0+2),f
movlw	94
movwf	((??_main+0)+0+1),f
	movlw	134
movwf	((??_main+0)+0),f
u3957:
	decfsz	((??_main+0)+0),f
	goto	u3957
	decfsz	((??_main+0)+0+1),f
	goto	u3957
	decfsz	((??_main+0)+0+2),f
	goto	u3957
	nop
opt asmopt_on

	line	315
	
l3907:	
;MobileAdv.c: 315: result=SIM300SendMsg("9819895913","MOTOR IS STOPPED ...!",&ref);
	movlw	low((STR_17)|8000h)
	bcf	status, 5	;RP0=0, select bank0
	bcf	status, 6	;RP1=0, select bank0
	movwf	(SIM300SendMsg@num)
	movlw	high((STR_17)|8000h)
	movwf	((SIM300SendMsg@num))+1
	movlw	low((STR_18)|8000h)
	movwf	(SIM300SendMsg@msg)
	movlw	high((STR_18)|8000h)
	movwf	((SIM300SendMsg@msg))+1
	movlw	(main@ref)&0ffh
	movwf	(??_main+0)+0
	movf	(??_main+0)+0,w
	movwf	(SIM300SendMsg@msg_ref)
	fcall	_SIM300SendMsg
	bcf	status, 5	;RP0=0, select bank0
	bcf	status, 6	;RP1=0, select bank0
	movwf	(??_main+1)+0
	movf	(??_main+1)+0,w
	movwf	(main@result)
	line	316
	
l3909:	
;MobileAdv.c: 316: _delay(5000000);
	opt asmopt_off
movlw  26
movwf	((??_main+0)+0+2),f
movlw	94
movwf	((??_main+0)+0+1),f
	movlw	134
movwf	((??_main+0)+0),f
u3967:
	decfsz	((??_main+0)+0),f
	goto	u3967
	decfsz	((??_main+0)+0+1),f
	goto	u3967
	decfsz	((??_main+0)+0+2),f
	goto	u3967
	nop
opt asmopt_on

	line	319
;MobileAdv.c: 319: continue;
	goto	l3777
	line	320
	
l155:	
	goto	l3777
	line	321
	
l154:	
	line	99
	goto	l3777
	
l159:	
	line	322
	
l160:	
	global	start
	ljmp	start
	opt stack 0
GLOBAL	__end_of_main
	__end_of_main:
	signat	_main,88
	global	_stop

;; *************** function _stop *****************
;; Defined at:
;;		line 527 in file "E:\Study Material\XC8 PROJECTS\Aurangabad\MobileAdv.c"
;; Parameters:    Size  Location     Type
;;		None
;; Auto vars:     Size  Location     Type
;;		None
;; Return value:  Size  Location     Type
;;		None               void
;; Registers used:
;;		wreg
;; Tracked objects:
;;		On entry : 0/0
;;		On exit  : 0/0
;;		Unchanged: 0/0
;; Data sizes:     COMMON   BANK0   BANK1   BANK3   BANK2
;;      Params:         0       0       0       0       0
;;      Locals:         0       0       0       0       0
;;      Temps:          0       3       0       0       0
;;      Totals:         0       3       0       0       0
;;Total ram usage:        3 bytes
;; Hardware stack levels used:    1
;; Hardware stack levels required when called:    2
;; This function calls:
;;		Nothing
;; This function is called by:
;;		_main
;; This function uses a non-reentrant model
;;
psect	text1,local,class=CODE,delta=2,merge=1
	line	527
global __ptext1
__ptext1:	;psect for function _stop
psect	text1
	file	"E:\Study Material\XC8 PROJECTS\Aurangabad\MobileAdv.c"
	line	527
	global	__size_of_stop
	__size_of_stop	equ	__end_of_stop-_stop
	
_stop:	
;incstack = 0
	opt	stack 5
; Regs used in _stop: [wreg]
	line	530
	
l3387:	
;MobileAdv.c: 530: RC4 = 1;
	bcf	status, 5	;RP0=0, select bank0
	bcf	status, 6	;RP1=0, select bank0
	bsf	(60/8),(60)&7	;volatile
	line	531
	
l3389:	
;MobileAdv.c: 531: _delay(6000000);
	opt asmopt_off
movlw  31
movwf	((??_stop+0)+0+2),f
movlw	113
movwf	((??_stop+0)+0+1),f
	movlw	59
movwf	((??_stop+0)+0),f
u3977:
	decfsz	((??_stop+0)+0),f
	goto	u3977
	decfsz	((??_stop+0)+0+1),f
	goto	u3977
	decfsz	((??_stop+0)+0+2),f
	goto	u3977
	nop
opt asmopt_on

	line	532
	
l3391:	
;MobileAdv.c: 532: RC4 = 0;
	bcf	status, 5	;RP0=0, select bank0
	bcf	status, 6	;RP1=0, select bank0
	bcf	(60/8),(60)&7	;volatile
	line	533
	
l3393:	
;MobileAdv.c: 533: RC5 = 0;
	bcf	(61/8),(61)&7	;volatile
	line	534
;MobileAdv.c: 534: _delay(1000000);
	opt asmopt_off
movlw  6
movwf	((??_stop+0)+0+2),f
movlw	19
movwf	((??_stop+0)+0+1),f
	movlw	177
movwf	((??_stop+0)+0),f
u3987:
	decfsz	((??_stop+0)+0),f
	goto	u3987
	decfsz	((??_stop+0)+0+1),f
	goto	u3987
	decfsz	((??_stop+0)+0+2),f
	goto	u3987
	nop2
opt asmopt_on

	goto	l201
	line	535
	
l3395:	
	line	536
;MobileAdv.c: 535: return;
	
l201:	
	return
	opt stack 0
GLOBAL	__end_of_stop
	__end_of_stop:
	signat	_stop,88
	global	_start

;; *************** function _start *****************
;; Defined at:
;;		line 515 in file "E:\Study Material\XC8 PROJECTS\Aurangabad\MobileAdv.c"
;; Parameters:    Size  Location     Type
;;		None
;; Auto vars:     Size  Location     Type
;;		None
;; Return value:  Size  Location     Type
;;		None               void
;; Registers used:
;;		wreg
;; Tracked objects:
;;		On entry : 0/0
;;		On exit  : 0/0
;;		Unchanged: 0/0
;; Data sizes:     COMMON   BANK0   BANK1   BANK3   BANK2
;;      Params:         0       0       0       0       0
;;      Locals:         0       0       0       0       0
;;      Temps:          0       3       0       0       0
;;      Totals:         0       3       0       0       0
;;Total ram usage:        3 bytes
;; Hardware stack levels used:    1
;; Hardware stack levels required when called:    2
;; This function calls:
;;		Nothing
;; This function is called by:
;;		_main
;; This function uses a non-reentrant model
;;
psect	text2,local,class=CODE,delta=2,merge=1
	line	515
global __ptext2
__ptext2:	;psect for function _start
psect	text2
	file	"E:\Study Material\XC8 PROJECTS\Aurangabad\MobileAdv.c"
	line	515
	global	__size_of_start
	__size_of_start	equ	__end_of_start-_start
	
_start:	
;incstack = 0
	opt	stack 5
; Regs used in _start: [wreg]
	line	518
	
l3377:	
;MobileAdv.c: 518: RC3 = 1;
	bcf	status, 5	;RP0=0, select bank0
	bcf	status, 6	;RP1=0, select bank0
	bsf	(59/8),(59)&7	;volatile
	line	519
	
l3379:	
;MobileAdv.c: 519: _delay(5000000);
	opt asmopt_off
movlw  26
movwf	((??_start+0)+0+2),f
movlw	94
movwf	((??_start+0)+0+1),f
	movlw	134
movwf	((??_start+0)+0),f
u3997:
	decfsz	((??_start+0)+0),f
	goto	u3997
	decfsz	((??_start+0)+0+1),f
	goto	u3997
	decfsz	((??_start+0)+0+2),f
	goto	u3997
	nop
opt asmopt_on

	line	520
	
l3381:	
;MobileAdv.c: 520: RC3 = 0;
	bcf	status, 5	;RP0=0, select bank0
	bcf	status, 6	;RP1=0, select bank0
	bcf	(59/8),(59)&7	;volatile
	line	521
	
l3383:	
;MobileAdv.c: 521: RC5 = 1;
	bsf	(61/8),(61)&7	;volatile
	line	522
;MobileAdv.c: 522: _delay(1000000);
	opt asmopt_off
movlw  6
movwf	((??_start+0)+0+2),f
movlw	19
movwf	((??_start+0)+0+1),f
	movlw	177
movwf	((??_start+0)+0),f
u4007:
	decfsz	((??_start+0)+0),f
	goto	u4007
	decfsz	((??_start+0)+0+1),f
	goto	u4007
	decfsz	((??_start+0)+0+2),f
	goto	u4007
	nop2
opt asmopt_on

	goto	l198
	line	523
	
l3385:	
	line	524
;MobileAdv.c: 523: return;
	
l198:	
	return
	opt stack 0
GLOBAL	__end_of_start
	__end_of_start:
	signat	_start,88
	global	_eeprom_write

;; *************** function _eeprom_write *****************
;; Defined at:
;;		line 6 in file "C:\Program Files (x86)\Microchip\xc8\v1.32\sources\pic\eewrite.c"
;; Parameters:    Size  Location     Type
;;  addr            1    wreg     unsigned char 
;;  value           1    0[BANK0 ] unsigned char 
;; Auto vars:     Size  Location     Type
;;  addr            1    2[BANK0 ] unsigned char 
;; Return value:  Size  Location     Type
;;		None               void
;; Registers used:
;;		wreg, status,2, status,0
;; Tracked objects:
;;		On entry : 0/0
;;		On exit  : 0/0
;;		Unchanged: 0/0
;; Data sizes:     COMMON   BANK0   BANK1   BANK3   BANK2
;;      Params:         0       1       0       0       0
;;      Locals:         0       1       0       0       0
;;      Temps:          0       1       0       0       0
;;      Totals:         0       3       0       0       0
;;Total ram usage:        3 bytes
;; Hardware stack levels used:    1
;; Hardware stack levels required when called:    2
;; This function calls:
;;		Nothing
;; This function is called by:
;;		_main
;; This function uses a non-reentrant model
;;
psect	text3,local,class=CODE,delta=2,merge=1
	file	"C:\Program Files (x86)\Microchip\xc8\v1.32\sources\pic\eewrite.c"
	line	6
global __ptext3
__ptext3:	;psect for function _eeprom_write
psect	text3
	file	"C:\Program Files (x86)\Microchip\xc8\v1.32\sources\pic\eewrite.c"
	line	6
	global	__size_of_eeprom_write
	__size_of_eeprom_write	equ	__end_of_eeprom_write-_eeprom_write
	
_eeprom_write:	
;incstack = 0
	opt	stack 5
; Regs used in _eeprom_write: [wreg+status,2+status,0]
;eeprom_write@addr stored from wreg
	bcf	status, 5	;RP0=0, select bank0
	bcf	status, 6	;RP1=0, select bank0
	movwf	(eeprom_write@addr)
	line	8
	
l524:	
	goto	l525
	
l526:	
	
l525:	
	bsf	status, 5	;RP0=1, select bank3
	bsf	status, 6	;RP1=1, select bank3
	btfsc	(3169/8)^0180h,(3169)&7	;volsfr
	goto	u2871
	goto	u2870
u2871:
	goto	l525
u2870:
	goto	l3397
	
l527:	
	
l3397:	
	bcf	status, 5	;RP0=0, select bank0
	bcf	status, 6	;RP1=0, select bank0
	movf	(eeprom_write@addr),w
	bcf	status, 5	;RP0=0, select bank2
	bsf	status, 6	;RP1=1, select bank2
	movwf	(269)^0100h	;volatile
	bcf	status, 5	;RP0=0, select bank0
	bcf	status, 6	;RP1=0, select bank0
	movf	(eeprom_write@value),w
	bcf	status, 5	;RP0=0, select bank2
	bsf	status, 6	;RP1=1, select bank2
	movwf	(268)^0100h	;volatile
	
l3399:	
	movlw	(03Fh)
	bcf	status, 5	;RP0=0, select bank0
	bcf	status, 6	;RP1=0, select bank0
	movwf	(??_eeprom_write+0)+0
	movf	(??_eeprom_write+0)+0,w
	bsf	status, 5	;RP0=1, select bank3
	bsf	status, 6	;RP1=1, select bank3
	andwf	(396)^0180h,f	;volsfr
	
l3401:	
	bcf	status, 5	;RP0=0, select bank0
	bcf	status, 6	;RP1=0, select bank0
	bcf	(24/8),(24)&7	;volatile
	
l3403:	
	btfss	(95/8),(95)&7	;volatile
	goto	u2881
	goto	u2880
u2881:
	goto	l528
u2880:
	
l3405:	
	bsf	(24/8),(24)&7	;volatile
	
l528:	
	bcf	(95/8),(95)&7	;volatile
	bsf	status, 5	;RP0=1, select bank3
	bsf	status, 6	;RP1=1, select bank3
	bsf	(3170/8)^0180h,(3170)&7	;volsfr
	
l3407:	
	movlw	(055h)
	movwf	(397)^0180h	;volsfr
	movlw	(0AAh)
	movwf	(397)^0180h	;volsfr
	
l3409:	
	bsf	(3169/8)^0180h,(3169)&7	;volsfr
	
l3411:	
	bcf	(3170/8)^0180h,(3170)&7	;volsfr
	
l3413:	
	bcf	status, 5	;RP0=0, select bank0
	bcf	status, 6	;RP1=0, select bank0
	btfss	(24/8),(24)&7	;volatile
	goto	u2891
	goto	u2890
u2891:
	goto	l531
u2890:
	
l3415:	
	bsf	(95/8),(95)&7	;volatile
	goto	l531
	
l529:	
	goto	l531
	
l530:	
	line	9
	
l531:	
	return
	opt stack 0
GLOBAL	__end_of_eeprom_write
	__end_of_eeprom_write:
	signat	_eeprom_write,8312
	global	_SMSCommunication

;; *************** function _SMSCommunication *****************
;; Defined at:
;;		line 390 in file "E:\Study Material\XC8 PROJECTS\Aurangabad\MobileAdv.c"
;; Parameters:    Size  Location     Type
;;		None
;; Auto vars:     Size  Location     Type
;;  ref             1   63[BANK0 ] unsigned char 
;;  ref             1   62[BANK0 ] unsigned char 
;;  ref             1   64[BANK0 ] unsigned char 
;;  ref             1   65[BANK0 ] unsigned char 
;;  len             1   69[BANK0 ] unsigned char 
;;  c               1   68[BANK0 ] unsigned char 
;;  result          1   67[BANK0 ] unsigned char 
;;  i               1   66[BANK0 ] unsigned char 
;; Return value:  Size  Location     Type
;;		None               void
;; Registers used:
;;		wreg, fsr0l, fsr0h, status,2, status,0, btemp+1, pclath, cstack
;; Tracked objects:
;;		On entry : 0/0
;;		On exit  : 0/0
;;		Unchanged: 0/0
;; Data sizes:     COMMON   BANK0   BANK1   BANK3   BANK2
;;      Params:         0       0       0       0       0
;;      Locals:         0       8       0       0       0
;;      Temps:          0       3       0       0       0
;;      Totals:         0      11       0       0       0
;;Total ram usage:       11 bytes
;; Hardware stack levels used:    1
;; Hardware stack levels required when called:    7
;; This function calls:
;;		_SIM300SendMsg
;;		_SIM300WaitForValidMsg
;;		_USARTFlushBuffer
;;		_eeprom_read
;;		_phase_check
;;		_strcat
;;		_strcpy
;;		_strlen
;; This function is called by:
;;		_main
;; This function uses a non-reentrant model
;;
psect	text4,local,class=CODE,delta=2,merge=1
	file	"E:\Study Material\XC8 PROJECTS\Aurangabad\MobileAdv.c"
	line	390
global __ptext4
__ptext4:	;psect for function _SMSCommunication
psect	text4
	file	"E:\Study Material\XC8 PROJECTS\Aurangabad\MobileAdv.c"
	line	390
	global	__size_of_SMSCommunication
	__size_of_SMSCommunication	equ	__end_of_SMSCommunication-_SMSCommunication
	
_SMSCommunication:	
;incstack = 0
	opt	stack 0
; Regs used in _SMSCommunication: [wreg-fsr0h+status,2+status,0+btemp+1+pclath+cstack]
	line	394
	
l3417:	
;MobileAdv.c: 392: uint8_t result;
;MobileAdv.c: 393: char len, i, c;
;MobileAdv.c: 394: result = SIM300WaitForValidMsg();
	fcall	_SIM300WaitForValidMsg
	bcf	status, 5	;RP0=0, select bank0
	bcf	status, 6	;RP1=0, select bank0
	movwf	(??_SMSCommunication+0)+0
	movf	(??_SMSCommunication+0)+0,w
	movwf	(SMSCommunication@result)
	line	395
	
l3419:	
;MobileAdv.c: 395: if(result == 1)
	movf	(SMSCommunication@result),w
	xorlw	01h
	skipz
	goto	u2901
	goto	u2900
u2901:
	goto	l3549
u2900:
	line	397
	
l3421:	
;MobileAdv.c: 396: {
;MobileAdv.c: 397: if(MOTOR_FLAG == 1)
	bsf	status, 5	;RP0=1, select bank1
	bcf	status, 6	;RP1=0, select bank1
	movf	(_MOTOR_FLAG)^080h,w
	xorlw	01h
	skipz
	goto	u2911
	goto	u2910
u2911:
	goto	l3511
u2910:
	line	399
	
l3423:	
;MobileAdv.c: 398: {
;MobileAdv.c: 399: if(LP_FLAG == 1)
	movf	(_LP_FLAG)^080h,w
	xorlw	01h
	skipz
	goto	u2921
	goto	u2920
u2921:
	goto	l3455
u2920:
	line	401
	
l3425:	
;MobileAdv.c: 400: {
;MobileAdv.c: 401: strcpy(phone_number,"");
	movlw	low((STR_20)|8000h)
	bcf	status, 5	;RP0=0, select bank0
	bcf	status, 6	;RP1=0, select bank0
	movwf	(strcpy@from)
	movlw	high((STR_20)|8000h)
	movwf	((strcpy@from))+1
	movlw	(_phone_number)&0ffh
	fcall	_strcpy
	line	402
;MobileAdv.c: 402: strcpy(phone_number,"MOTOR ON BY: ");
	movlw	low((STR_21)|8000h)
	bcf	status, 5	;RP0=0, select bank0
	bcf	status, 6	;RP1=0, select bank0
	movwf	(strcpy@from)
	movlw	high((STR_21)|8000h)
	movwf	((strcpy@from))+1
	movlw	(_phone_number)&0ffh
	fcall	_strcpy
	line	403
;MobileAdv.c: 403: len = strlen(phone_number);
	movlw	(_phone_number&0ffh)
	bcf	status, 5	;RP0=0, select bank0
	bcf	status, 6	;RP1=0, select bank0
	movwf	(strlen@s)
	movlw	(0x0)
	movwf	(strlen@s+1)
	fcall	_strlen
	bcf	status, 5	;RP0=0, select bank0
	bcf	status, 6	;RP1=0, select bank0
	movf	(0+(?_strlen)),w
	movwf	(??_SMSCommunication+0)+0
	movf	(??_SMSCommunication+0)+0,w
	movwf	(SMSCommunication@len)
	line	404
	
l3427:	
;MobileAdv.c: 404: i = 3;
	movlw	(03h)
	movwf	(??_SMSCommunication+0)+0
	movf	(??_SMSCommunication+0)+0,w
	movwf	(SMSCommunication@i)
	line	405
	
l3429:	
;MobileAdv.c: 405: c = '+';
	movlw	(02Bh)
	movwf	(??_SMSCommunication+0)+0
	movf	(??_SMSCommunication+0)+0,w
	movwf	(SMSCommunication@c)
	line	406
;MobileAdv.c: 406: while(c != ';')
	goto	l3439
	
l180:	
	line	408
	
l3431:	
;MobileAdv.c: 407: {
;MobileAdv.c: 408: c = (char)eeprom_read(i);
	movf	(SMSCommunication@i),w
	fcall	_eeprom_read
	bcf	status, 5	;RP0=0, select bank0
	bcf	status, 6	;RP1=0, select bank0
	movwf	(??_SMSCommunication+0)+0
	movf	(??_SMSCommunication+0)+0,w
	movwf	(SMSCommunication@c)
	line	409
	
l3433:	
;MobileAdv.c: 409: phone_number[len] = c;
	movf	(SMSCommunication@c),w
	movwf	(??_SMSCommunication+0)+0
	movf	(SMSCommunication@len),w
	addlw	_phone_number&0ffh
	movwf	fsr0
	movf	(??_SMSCommunication+0)+0,w
	bcf	status, 7	;select IRP bank1
	movwf	indf
	line	410
	
l3435:	
;MobileAdv.c: 410: i++;
	movlw	(01h)
	movwf	(??_SMSCommunication+0)+0
	movf	(??_SMSCommunication+0)+0,w
	addwf	(SMSCommunication@i),f
	line	411
	
l3437:	
;MobileAdv.c: 411: len++;
	movlw	(01h)
	movwf	(??_SMSCommunication+0)+0
	movf	(??_SMSCommunication+0)+0,w
	addwf	(SMSCommunication@len),f
	goto	l3439
	line	412
	
l179:	
	line	406
	
l3439:	
	movf	(SMSCommunication@c),w
	xorlw	03Bh
	skipz
	goto	u2931
	goto	u2930
u2931:
	goto	l3431
u2930:
	goto	l3441
	
l181:	
	line	413
	
l3441:	
;MobileAdv.c: 412: }
;MobileAdv.c: 413: phone_number[len-1] = '\0';
	movf	(SMSCommunication@len),w
	addlw	0FFh
	addlw	_phone_number&0ffh
	movwf	fsr0
	bcf	status, 7	;select IRP bank1
	clrf	indf
	line	414
	
l3443:	
;MobileAdv.c: 414: strcat(phone_number,"\nPOWER OK!");
	movlw	low((STR_22)|8000h)
	movwf	(strcat@from)
	movlw	high((STR_22)|8000h)
	movwf	((strcat@from))+1
	movlw	(_phone_number)&0ffh
	fcall	_strcat
	line	416
	
l3445:	
;MobileAdv.c: 415: uint8_t ref;
;MobileAdv.c: 416: result=SIM300SendMsg(MSG_number,phone_number,&ref);
	movlw	(_MSG_number&0ffh)
	bcf	status, 5	;RP0=0, select bank0
	bcf	status, 6	;RP1=0, select bank0
	movwf	(SIM300SendMsg@num)
	movlw	(0x1)
	movwf	(SIM300SendMsg@num+1)
	movlw	(_phone_number&0ffh)
	movwf	(SIM300SendMsg@msg)
	movlw	(0x0)
	movwf	(SIM300SendMsg@msg+1)
	movlw	(SMSCommunication@ref)&0ffh
	movwf	(??_SMSCommunication+0)+0
	movf	(??_SMSCommunication+0)+0,w
	movwf	(SIM300SendMsg@msg_ref)
	fcall	_SIM300SendMsg
	bcf	status, 5	;RP0=0, select bank0
	bcf	status, 6	;RP1=0, select bank0
	movwf	(??_SMSCommunication+1)+0
	movf	(??_SMSCommunication+1)+0,w
	movwf	(SMSCommunication@result)
	line	417
	
l3447:	
;MobileAdv.c: 417: _delay(1000000);
	opt asmopt_off
movlw  6
movwf	((??_SMSCommunication+0)+0+2),f
movlw	19
movwf	((??_SMSCommunication+0)+0+1),f
	movlw	177
movwf	((??_SMSCommunication+0)+0),f
u4017:
	decfsz	((??_SMSCommunication+0)+0),f
	goto	u4017
	decfsz	((??_SMSCommunication+0)+0+1),f
	goto	u4017
	decfsz	((??_SMSCommunication+0)+0+2),f
	goto	u4017
	nop2
opt asmopt_on

	line	418
	
l3449:	
;MobileAdv.c: 418: strcpy(phone_number,"");
	movlw	low((STR_23)|8000h)
	bcf	status, 5	;RP0=0, select bank0
	bcf	status, 6	;RP1=0, select bank0
	movwf	(strcpy@from)
	movlw	high((STR_23)|8000h)
	movwf	((strcpy@from))+1
	movlw	(_phone_number)&0ffh
	fcall	_strcpy
	line	419
	
l3451:	
;MobileAdv.c: 419: strcpy(phone_number,"ATD");
	movlw	low((STR_24)|8000h)
	bcf	status, 5	;RP0=0, select bank0
	bcf	status, 6	;RP1=0, select bank0
	movwf	(strcpy@from)
	movlw	high((STR_24)|8000h)
	movwf	((strcpy@from))+1
	movlw	(_phone_number)&0ffh
	fcall	_strcpy
	goto	l182
	line	420
	
l3453:	
;MobileAdv.c: 420: return;
	goto	l182
	line	421
	
l178:	
	line	422
	
l3455:	
;MobileAdv.c: 421: }
;MobileAdv.c: 422: if(LP_FLAG == 0)
	bsf	status, 5	;RP0=1, select bank1
	bcf	status, 6	;RP1=0, select bank1
	movf	(_LP_FLAG)^080h,f
	skipz
	goto	u2941
	goto	u2940
u2941:
	goto	l3511
u2940:
	line	424
	
l3457:	
;MobileAdv.c: 423: {
;MobileAdv.c: 424: strcpy(phone_number,"");
	movlw	low((STR_25)|8000h)
	bcf	status, 5	;RP0=0, select bank0
	bcf	status, 6	;RP1=0, select bank0
	movwf	(strcpy@from)
	movlw	high((STR_25)|8000h)
	movwf	((strcpy@from))+1
	movlw	(_phone_number)&0ffh
	fcall	_strcpy
	line	425
;MobileAdv.c: 425: strcpy(phone_number,"POWER FAIL ON PHASE ");
	movlw	low((STR_26)|8000h)
	bcf	status, 5	;RP0=0, select bank0
	bcf	status, 6	;RP1=0, select bank0
	movwf	(strcpy@from)
	movlw	high((STR_26)|8000h)
	movwf	((strcpy@from))+1
	movlw	(_phone_number)&0ffh
	fcall	_strcpy
	line	426
	
l3459:	
;MobileAdv.c: 426: if(RC0 == 0)
	bcf	status, 5	;RP0=0, select bank0
	bcf	status, 6	;RP1=0, select bank0
	btfsc	(56/8),(56)&7	;volatile
	goto	u2951
	goto	u2950
u2951:
	goto	l3473
u2950:
	line	428
	
l3461:	
;MobileAdv.c: 427: {
;MobileAdv.c: 428: len = strlen(phone_number);
	movlw	(_phone_number&0ffh)
	movwf	(strlen@s)
	movlw	(0x0)
	movwf	(strlen@s+1)
	fcall	_strlen
	bcf	status, 5	;RP0=0, select bank0
	bcf	status, 6	;RP1=0, select bank0
	movf	(0+(?_strlen)),w
	movwf	(??_SMSCommunication+0)+0
	movf	(??_SMSCommunication+0)+0,w
	movwf	(SMSCommunication@len)
	line	429
	
l3463:	
;MobileAdv.c: 429: phone_number[len] = '-';
	movlw	(02Dh)
	movwf	(??_SMSCommunication+0)+0
	movf	(SMSCommunication@len),w
	addlw	_phone_number&0ffh
	movwf	fsr0
	movf	(??_SMSCommunication+0)+0,w
	bcf	status, 7	;select IRP bank1
	movwf	indf
	line	430
	
l3465:	
;MobileAdv.c: 430: len++;
	movlw	(01h)
	movwf	(??_SMSCommunication+0)+0
	movf	(??_SMSCommunication+0)+0,w
	addwf	(SMSCommunication@len),f
	line	431
	
l3467:	
;MobileAdv.c: 431: phone_number[len] = '1';
	movlw	(031h)
	movwf	(??_SMSCommunication+0)+0
	movf	(SMSCommunication@len),w
	addlw	_phone_number&0ffh
	movwf	fsr0
	movf	(??_SMSCommunication+0)+0,w
	movwf	indf
	line	432
	
l3469:	
;MobileAdv.c: 432: len++;
	movlw	(01h)
	movwf	(??_SMSCommunication+0)+0
	movf	(??_SMSCommunication+0)+0,w
	addwf	(SMSCommunication@len),f
	line	433
	
l3471:	
;MobileAdv.c: 433: phone_number[len] = '\0';
	movf	(SMSCommunication@len),w
	addlw	_phone_number&0ffh
	movwf	fsr0
	clrf	indf
	goto	l3473
	line	434
	
l184:	
	line	435
	
l3473:	
;MobileAdv.c: 434: }
;MobileAdv.c: 435: if(RC1 == 0)
	btfsc	(57/8),(57)&7	;volatile
	goto	u2961
	goto	u2960
u2961:
	goto	l3487
u2960:
	line	437
	
l3475:	
;MobileAdv.c: 436: {
;MobileAdv.c: 437: len = strlen(phone_number);
	movlw	(_phone_number&0ffh)
	movwf	(strlen@s)
	movlw	(0x0)
	movwf	(strlen@s+1)
	fcall	_strlen
	bcf	status, 5	;RP0=0, select bank0
	bcf	status, 6	;RP1=0, select bank0
	movf	(0+(?_strlen)),w
	movwf	(??_SMSCommunication+0)+0
	movf	(??_SMSCommunication+0)+0,w
	movwf	(SMSCommunication@len)
	line	438
	
l3477:	
;MobileAdv.c: 438: phone_number[len] = '-';
	movlw	(02Dh)
	movwf	(??_SMSCommunication+0)+0
	movf	(SMSCommunication@len),w
	addlw	_phone_number&0ffh
	movwf	fsr0
	movf	(??_SMSCommunication+0)+0,w
	bcf	status, 7	;select IRP bank1
	movwf	indf
	line	439
	
l3479:	
;MobileAdv.c: 439: len++;
	movlw	(01h)
	movwf	(??_SMSCommunication+0)+0
	movf	(??_SMSCommunication+0)+0,w
	addwf	(SMSCommunication@len),f
	line	440
	
l3481:	
;MobileAdv.c: 440: phone_number[len] = '2';
	movlw	(032h)
	movwf	(??_SMSCommunication+0)+0
	movf	(SMSCommunication@len),w
	addlw	_phone_number&0ffh
	movwf	fsr0
	movf	(??_SMSCommunication+0)+0,w
	movwf	indf
	line	441
	
l3483:	
;MobileAdv.c: 441: len++;
	movlw	(01h)
	movwf	(??_SMSCommunication+0)+0
	movf	(??_SMSCommunication+0)+0,w
	addwf	(SMSCommunication@len),f
	line	442
	
l3485:	
;MobileAdv.c: 442: phone_number[len] = '\0';
	movf	(SMSCommunication@len),w
	addlw	_phone_number&0ffh
	movwf	fsr0
	clrf	indf
	goto	l3487
	line	443
	
l185:	
	line	444
	
l3487:	
;MobileAdv.c: 443: }
;MobileAdv.c: 444: if(RC2 == 0)
	btfsc	(58/8),(58)&7	;volatile
	goto	u2971
	goto	u2970
u2971:
	goto	l3501
u2970:
	line	446
	
l3489:	
;MobileAdv.c: 445: {
;MobileAdv.c: 446: len = strlen(phone_number);
	movlw	(_phone_number&0ffh)
	movwf	(strlen@s)
	movlw	(0x0)
	movwf	(strlen@s+1)
	fcall	_strlen
	bcf	status, 5	;RP0=0, select bank0
	bcf	status, 6	;RP1=0, select bank0
	movf	(0+(?_strlen)),w
	movwf	(??_SMSCommunication+0)+0
	movf	(??_SMSCommunication+0)+0,w
	movwf	(SMSCommunication@len)
	line	447
	
l3491:	
;MobileAdv.c: 447: phone_number[len] = '-';
	movlw	(02Dh)
	movwf	(??_SMSCommunication+0)+0
	movf	(SMSCommunication@len),w
	addlw	_phone_number&0ffh
	movwf	fsr0
	movf	(??_SMSCommunication+0)+0,w
	bcf	status, 7	;select IRP bank1
	movwf	indf
	line	448
	
l3493:	
;MobileAdv.c: 448: len++;
	movlw	(01h)
	movwf	(??_SMSCommunication+0)+0
	movf	(??_SMSCommunication+0)+0,w
	addwf	(SMSCommunication@len),f
	line	449
	
l3495:	
;MobileAdv.c: 449: phone_number[len] = '3';
	movlw	(033h)
	movwf	(??_SMSCommunication+0)+0
	movf	(SMSCommunication@len),w
	addlw	_phone_number&0ffh
	movwf	fsr0
	movf	(??_SMSCommunication+0)+0,w
	movwf	indf
	line	450
	
l3497:	
;MobileAdv.c: 450: len++;
	movlw	(01h)
	movwf	(??_SMSCommunication+0)+0
	movf	(??_SMSCommunication+0)+0,w
	addwf	(SMSCommunication@len),f
	line	451
	
l3499:	
;MobileAdv.c: 451: phone_number[len] = '\0';
	movf	(SMSCommunication@len),w
	addlw	_phone_number&0ffh
	movwf	fsr0
	clrf	indf
	goto	l3501
	line	452
	
l186:	
	line	454
	
l3501:	
;MobileAdv.c: 452: }
;MobileAdv.c: 453: uint8_t ref;
;MobileAdv.c: 454: result=SIM300SendMsg(MSG_number,phone_number,&ref);
	movlw	(_MSG_number&0ffh)
	movwf	(SIM300SendMsg@num)
	movlw	(0x1)
	movwf	(SIM300SendMsg@num+1)
	movlw	(_phone_number&0ffh)
	movwf	(SIM300SendMsg@msg)
	movlw	(0x0)
	movwf	(SIM300SendMsg@msg+1)
	movlw	(SMSCommunication@ref_201)&0ffh
	movwf	(??_SMSCommunication+0)+0
	movf	(??_SMSCommunication+0)+0,w
	movwf	(SIM300SendMsg@msg_ref)
	fcall	_SIM300SendMsg
	bcf	status, 5	;RP0=0, select bank0
	bcf	status, 6	;RP1=0, select bank0
	movwf	(??_SMSCommunication+1)+0
	movf	(??_SMSCommunication+1)+0,w
	movwf	(SMSCommunication@result)
	line	455
	
l3503:	
;MobileAdv.c: 455: _delay(1000000);
	opt asmopt_off
movlw  6
movwf	((??_SMSCommunication+0)+0+2),f
movlw	19
movwf	((??_SMSCommunication+0)+0+1),f
	movlw	177
movwf	((??_SMSCommunication+0)+0),f
u4027:
	decfsz	((??_SMSCommunication+0)+0),f
	goto	u4027
	decfsz	((??_SMSCommunication+0)+0+1),f
	goto	u4027
	decfsz	((??_SMSCommunication+0)+0+2),f
	goto	u4027
	nop2
opt asmopt_on

	line	456
	
l3505:	
;MobileAdv.c: 456: strcpy(phone_number,"");
	movlw	low((STR_27)|8000h)
	bcf	status, 5	;RP0=0, select bank0
	bcf	status, 6	;RP1=0, select bank0
	movwf	(strcpy@from)
	movlw	high((STR_27)|8000h)
	movwf	((strcpy@from))+1
	movlw	(_phone_number)&0ffh
	fcall	_strcpy
	line	457
	
l3507:	
;MobileAdv.c: 457: strcpy(phone_number,"ATD");
	movlw	low((STR_28)|8000h)
	bcf	status, 5	;RP0=0, select bank0
	bcf	status, 6	;RP1=0, select bank0
	movwf	(strcpy@from)
	movlw	high((STR_28)|8000h)
	movwf	((strcpy@from))+1
	movlw	(_phone_number)&0ffh
	fcall	_strcpy
	goto	l182
	line	458
	
l3509:	
;MobileAdv.c: 458: return;
	goto	l182
	line	459
	
l183:	
	goto	l3511
	line	460
	
l177:	
	line	461
	
l3511:	
;MobileAdv.c: 459: }
;MobileAdv.c: 460: }
;MobileAdv.c: 461: if(MOTOR_FLAG == 0)
	bsf	status, 5	;RP0=1, select bank1
	bcf	status, 6	;RP1=0, select bank1
	movf	(_MOTOR_FLAG)^080h,f
	skipz
	goto	u2981
	goto	u2980
u2981:
	goto	l3549
u2980:
	line	463
	
l3513:	
;MobileAdv.c: 462: {
;MobileAdv.c: 463: if(Dry_Run_Timer > 6)
	movlw	(07h)
	subwf	(_Dry_Run_Timer)^080h,w
	skipc
	goto	u2991
	goto	u2990
u2991:
	goto	l3517
u2990:
	line	466
	
l3515:	
;MobileAdv.c: 464: {
;MobileAdv.c: 466: strcpy(phone_number,"");
	movlw	low((STR_29)|8000h)
	bcf	status, 5	;RP0=0, select bank0
	bcf	status, 6	;RP1=0, select bank0
	movwf	(strcpy@from)
	movlw	high((STR_29)|8000h)
	movwf	((strcpy@from))+1
	movlw	(_phone_number)&0ffh
	fcall	_strcpy
	line	467
;MobileAdv.c: 467: strcpy(phone_number,"DRY RUN.");
	movlw	low((STR_30)|8000h)
	bcf	status, 5	;RP0=0, select bank0
	bcf	status, 6	;RP1=0, select bank0
	movwf	(strcpy@from)
	movlw	high((STR_30)|8000h)
	movwf	((strcpy@from))+1
	movlw	(_phone_number)&0ffh
	fcall	_strcpy
	line	468
;MobileAdv.c: 468: }
	goto	l3535
	line	469
	
l188:	
	line	471
	
l3517:	
;MobileAdv.c: 469: else
;MobileAdv.c: 470: {
;MobileAdv.c: 471: strcpy(phone_number,"");
	movlw	low((STR_31)|8000h)
	bcf	status, 5	;RP0=0, select bank0
	bcf	status, 6	;RP1=0, select bank0
	movwf	(strcpy@from)
	movlw	high((STR_31)|8000h)
	movwf	((strcpy@from))+1
	movlw	(_phone_number)&0ffh
	fcall	_strcpy
	line	472
;MobileAdv.c: 472: strcpy(phone_number,"MOTOR OFF BY: ");
	movlw	low((STR_32)|8000h)
	bcf	status, 5	;RP0=0, select bank0
	bcf	status, 6	;RP1=0, select bank0
	movwf	(strcpy@from)
	movlw	high((STR_32)|8000h)
	movwf	((strcpy@from))+1
	movlw	(_phone_number)&0ffh
	fcall	_strcpy
	line	473
;MobileAdv.c: 473: len = strlen(phone_number);
	movlw	(_phone_number&0ffh)
	bcf	status, 5	;RP0=0, select bank0
	bcf	status, 6	;RP1=0, select bank0
	movwf	(strlen@s)
	movlw	(0x0)
	movwf	(strlen@s+1)
	fcall	_strlen
	bcf	status, 5	;RP0=0, select bank0
	bcf	status, 6	;RP1=0, select bank0
	movf	(0+(?_strlen)),w
	movwf	(??_SMSCommunication+0)+0
	movf	(??_SMSCommunication+0)+0,w
	movwf	(SMSCommunication@len)
	line	474
	
l3519:	
;MobileAdv.c: 474: i = 3;
	movlw	(03h)
	movwf	(??_SMSCommunication+0)+0
	movf	(??_SMSCommunication+0)+0,w
	movwf	(SMSCommunication@i)
	line	475
	
l3521:	
;MobileAdv.c: 475: c = '+';
	movlw	(02Bh)
	movwf	(??_SMSCommunication+0)+0
	movf	(??_SMSCommunication+0)+0,w
	movwf	(SMSCommunication@c)
	line	476
;MobileAdv.c: 476: while(c != ';')
	goto	l3531
	
l191:	
	line	478
	
l3523:	
;MobileAdv.c: 477: {
;MobileAdv.c: 478: c = (char)eeprom_read(i);
	movf	(SMSCommunication@i),w
	fcall	_eeprom_read
	bcf	status, 5	;RP0=0, select bank0
	bcf	status, 6	;RP1=0, select bank0
	movwf	(??_SMSCommunication+0)+0
	movf	(??_SMSCommunication+0)+0,w
	movwf	(SMSCommunication@c)
	line	479
	
l3525:	
;MobileAdv.c: 479: phone_number[len] = c;
	movf	(SMSCommunication@c),w
	movwf	(??_SMSCommunication+0)+0
	movf	(SMSCommunication@len),w
	addlw	_phone_number&0ffh
	movwf	fsr0
	movf	(??_SMSCommunication+0)+0,w
	bcf	status, 7	;select IRP bank1
	movwf	indf
	line	480
	
l3527:	
;MobileAdv.c: 480: i++;
	movlw	(01h)
	movwf	(??_SMSCommunication+0)+0
	movf	(??_SMSCommunication+0)+0,w
	addwf	(SMSCommunication@i),f
	line	481
	
l3529:	
;MobileAdv.c: 481: len++;
	movlw	(01h)
	movwf	(??_SMSCommunication+0)+0
	movf	(??_SMSCommunication+0)+0,w
	addwf	(SMSCommunication@len),f
	goto	l3531
	line	482
	
l190:	
	line	476
	
l3531:	
	movf	(SMSCommunication@c),w
	xorlw	03Bh
	skipz
	goto	u3001
	goto	u3000
u3001:
	goto	l3523
u3000:
	goto	l3533
	
l192:	
	line	483
	
l3533:	
;MobileAdv.c: 482: }
;MobileAdv.c: 483: phone_number[len-1] = '\0';
	movf	(SMSCommunication@len),w
	addlw	0FFh
	addlw	_phone_number&0ffh
	movwf	fsr0
	bcf	status, 7	;select IRP bank1
	clrf	indf
	goto	l3535
	line	484
	
l189:	
	line	486
	
l3535:	
;MobileAdv.c: 484: }
;MobileAdv.c: 486: if(phase_check() == 1)
	fcall	_phase_check
	xorlw	01h
	skipz
	goto	u3011
	goto	u3010
u3011:
	goto	l3539
u3010:
	line	488
	
l3537:	
;MobileAdv.c: 487: {
;MobileAdv.c: 488: strcat(phone_number,"\nPOWER OK!");
	movlw	low((STR_33)|8000h)
	bcf	status, 5	;RP0=0, select bank0
	bcf	status, 6	;RP1=0, select bank0
	movwf	(strcat@from)
	movlw	high((STR_33)|8000h)
	movwf	((strcat@from))+1
	movlw	(_phone_number)&0ffh
	fcall	_strcat
	line	489
;MobileAdv.c: 489: }
	goto	l194
	line	490
	
l193:	
	line	492
	
l3539:	
;MobileAdv.c: 490: else
;MobileAdv.c: 491: {
;MobileAdv.c: 492: strcat(phone_number,"\nPOWER FAIL!");
	movlw	low((STR_34)|8000h)
	bcf	status, 5	;RP0=0, select bank0
	bcf	status, 6	;RP1=0, select bank0
	movwf	(strcat@from)
	movlw	high((STR_34)|8000h)
	movwf	((strcat@from))+1
	movlw	(_phone_number)&0ffh
	fcall	_strcat
	line	493
	
l194:	
	line	496
;MobileAdv.c: 493: }
;MobileAdv.c: 495: uint8_t ref;
;MobileAdv.c: 496: result=SIM300SendMsg(MSG_number,phone_number,&ref);
	movlw	(_MSG_number&0ffh)
	bcf	status, 5	;RP0=0, select bank0
	bcf	status, 6	;RP1=0, select bank0
	movwf	(SIM300SendMsg@num)
	movlw	(0x1)
	movwf	(SIM300SendMsg@num+1)
	movlw	(_phone_number&0ffh)
	movwf	(SIM300SendMsg@msg)
	movlw	(0x0)
	movwf	(SIM300SendMsg@msg+1)
	movlw	(SMSCommunication@ref_210)&0ffh
	movwf	(??_SMSCommunication+0)+0
	movf	(??_SMSCommunication+0)+0,w
	movwf	(SIM300SendMsg@msg_ref)
	fcall	_SIM300SendMsg
	bcf	status, 5	;RP0=0, select bank0
	bcf	status, 6	;RP1=0, select bank0
	movwf	(??_SMSCommunication+1)+0
	movf	(??_SMSCommunication+1)+0,w
	movwf	(SMSCommunication@result)
	line	497
	
l3541:	
;MobileAdv.c: 497: _delay(1000000);
	opt asmopt_off
movlw  6
movwf	((??_SMSCommunication+0)+0+2),f
movlw	19
movwf	((??_SMSCommunication+0)+0+1),f
	movlw	177
movwf	((??_SMSCommunication+0)+0),f
u4037:
	decfsz	((??_SMSCommunication+0)+0),f
	goto	u4037
	decfsz	((??_SMSCommunication+0)+0+1),f
	goto	u4037
	decfsz	((??_SMSCommunication+0)+0+2),f
	goto	u4037
	nop2
opt asmopt_on

	line	498
	
l3543:	
;MobileAdv.c: 498: strcpy(phone_number,"");
	movlw	low((STR_35)|8000h)
	bcf	status, 5	;RP0=0, select bank0
	bcf	status, 6	;RP1=0, select bank0
	movwf	(strcpy@from)
	movlw	high((STR_35)|8000h)
	movwf	((strcpy@from))+1
	movlw	(_phone_number)&0ffh
	fcall	_strcpy
	line	499
	
l3545:	
;MobileAdv.c: 499: strcpy(phone_number,"ATD");
	movlw	low((STR_36)|8000h)
	bcf	status, 5	;RP0=0, select bank0
	bcf	status, 6	;RP1=0, select bank0
	movwf	(strcpy@from)
	movlw	high((STR_36)|8000h)
	movwf	((strcpy@from))+1
	movlw	(_phone_number)&0ffh
	fcall	_strcpy
	goto	l182
	line	500
	
l3547:	
;MobileAdv.c: 500: return;
	goto	l182
	line	501
	
l187:	
	goto	l3549
	line	502
	
l176:	
	line	503
	
l3549:	
;MobileAdv.c: 501: }
;MobileAdv.c: 502: }
;MobileAdv.c: 503: if(result == 201)
	bcf	status, 5	;RP0=0, select bank0
	bcf	status, 6	;RP1=0, select bank0
	movf	(SMSCommunication@result),w
	xorlw	0C9h
	skipz
	goto	u3021
	goto	u3020
u3021:
	goto	l3557
u3020:
	line	506
	
l3551:	
;MobileAdv.c: 504: {
;MobileAdv.c: 505: uint8_t ref;
;MobileAdv.c: 506: result=SIM300SendMsg(MSG_number,"Invalid Keyword",&ref);
	movlw	(_MSG_number&0ffh)
	movwf	(SIM300SendMsg@num)
	movlw	(0x1)
	movwf	(SIM300SendMsg@num+1)
	movlw	low((STR_37)|8000h)
	movwf	(SIM300SendMsg@msg)
	movlw	high((STR_37)|8000h)
	movwf	((SIM300SendMsg@msg))+1
	movlw	(SMSCommunication@ref_213)&0ffh
	movwf	(??_SMSCommunication+0)+0
	movf	(??_SMSCommunication+0)+0,w
	movwf	(SIM300SendMsg@msg_ref)
	fcall	_SIM300SendMsg
	bcf	status, 5	;RP0=0, select bank0
	bcf	status, 6	;RP1=0, select bank0
	movwf	(??_SMSCommunication+1)+0
	movf	(??_SMSCommunication+1)+0,w
	movwf	(SMSCommunication@result)
	line	507
	
l3553:	
;MobileAdv.c: 507: _delay(1000000);
	opt asmopt_off
movlw  6
movwf	((??_SMSCommunication+0)+0+2),f
movlw	19
movwf	((??_SMSCommunication+0)+0+1),f
	movlw	177
movwf	((??_SMSCommunication+0)+0),f
u4047:
	decfsz	((??_SMSCommunication+0)+0),f
	goto	u4047
	decfsz	((??_SMSCommunication+0)+0+1),f
	goto	u4047
	decfsz	((??_SMSCommunication+0)+0+2),f
	goto	u4047
	nop2
opt asmopt_on

	goto	l182
	line	508
	
l3555:	
;MobileAdv.c: 508: return;
	goto	l182
	line	509
	
l195:	
	line	511
	
l3557:	
;MobileAdv.c: 509: }
;MobileAdv.c: 511: USARTFlushBuffer();
	fcall	_USARTFlushBuffer
	goto	l182
	line	512
	
l3559:	
	line	513
;MobileAdv.c: 512: return;
	
l182:	
	return
	opt stack 0
GLOBAL	__end_of_SMSCommunication
	__end_of_SMSCommunication:
	signat	_SMSCommunication,88
	global	_strcpy

;; *************** function _strcpy *****************
;; Defined at:
;;		line 8 in file "C:\Program Files (x86)\Microchip\xc8\v1.32\sources\common\strcpy.c"
;; Parameters:    Size  Location     Type
;;  to              1    wreg     PTR unsigned char 
;;		 -> phone_number(40), 
;;  from            2    0[BANK0 ] PTR const unsigned char 
;;		 -> STR_36(4), STR_35(1), STR_32(15), STR_31(1), 
;;		 -> STR_30(9), STR_29(1), STR_28(4), STR_27(1), 
;;		 -> STR_26(21), STR_25(1), STR_24(4), STR_23(1), 
;;		 -> STR_21(14), STR_20(1), 
;; Auto vars:     Size  Location     Type
;;  to              1    4[BANK0 ] PTR unsigned char 
;;		 -> phone_number(40), 
;;  cp              1    3[BANK0 ] PTR unsigned char 
;;		 -> phone_number(40), 
;; Return value:  Size  Location     Type
;;                  1    wreg      PTR unsigned char 
;; Registers used:
;;		wreg, fsr0l, fsr0h, status,2, status,0, btemp+1, pclath
;; Tracked objects:
;;		On entry : 0/0
;;		On exit  : 0/0
;;		Unchanged: 0/0
;; Data sizes:     COMMON   BANK0   BANK1   BANK3   BANK2
;;      Params:         0       2       0       0       0
;;      Locals:         0       2       0       0       0
;;      Temps:          0       1       0       0       0
;;      Totals:         0       5       0       0       0
;;Total ram usage:        5 bytes
;; Hardware stack levels used:    1
;; Hardware stack levels required when called:    2
;; This function calls:
;;		Nothing
;; This function is called by:
;;		_SMSCommunication
;; This function uses a non-reentrant model
;;
psect	text5,local,class=CODE,delta=2,merge=1
	file	"C:\Program Files (x86)\Microchip\xc8\v1.32\sources\common\strcpy.c"
	line	8
global __ptext5
__ptext5:	;psect for function _strcpy
psect	text5
	file	"C:\Program Files (x86)\Microchip\xc8\v1.32\sources\common\strcpy.c"
	line	8
	global	__size_of_strcpy
	__size_of_strcpy	equ	__end_of_strcpy-_strcpy
	
_strcpy:	
;incstack = 0
	opt	stack 4
; Regs used in _strcpy: [wreg-fsr0h+status,2+status,0+btemp+1+pclath]
;strcpy@to stored from wreg
	bcf	status, 5	;RP0=0, select bank0
	bcf	status, 6	;RP1=0, select bank0
	movwf	(strcpy@to)
	line	18
	
l3241:	
	movf	(strcpy@to),w
	movwf	(??_strcpy+0)+0
	movf	(??_strcpy+0)+0,w
	movwf	(strcpy@cp)
	line	19
	goto	l3247
	
l999:	
	line	20
	
l3243:	
	movlw	(01h)
	movwf	(??_strcpy+0)+0
	movf	(??_strcpy+0)+0,w
	addwf	(strcpy@cp),f
	line	21
	
l3245:	
	movlw	01h
	addwf	(strcpy@from),f
	skipnc
	incf	(strcpy@from+1),f
	goto	l3247
	line	22
	
l998:	
	line	19
	
l3247:	
	movf	(strcpy@from+1),w
	movwf	btemp+1
	movf	(strcpy@from),w
	movwf	fsr0
	fcall	stringtab
	movwf	(??_strcpy+0)+0
	movf	(strcpy@cp),w
	movwf	fsr0
	movf	(??_strcpy+0)+0,w
	bcf	status, 7	;select IRP bank0
	movwf	indf
	movf	(indf),f
	skipz
	goto	u2671
	goto	u2670
u2671:
	goto	l3243
u2670:
	goto	l1001
	
l1000:	
	line	24
;	Return value of _strcpy is never used
	
l1001:	
	return
	opt stack 0
GLOBAL	__end_of_strcpy
	__end_of_strcpy:
	signat	_strcpy,8313
	global	_strcat

;; *************** function _strcat *****************
;; Defined at:
;;		line 8 in file "C:\Program Files (x86)\Microchip\xc8\v1.32\sources\common\strcat.c"
;; Parameters:    Size  Location     Type
;;  to              1    wreg     PTR unsigned char 
;;		 -> phone_number(40), 
;;  from            2    0[BANK0 ] PTR const unsigned char 
;;		 -> STR_34(13), STR_33(11), STR_22(11), 
;; Auto vars:     Size  Location     Type
;;  to              1    3[BANK0 ] PTR unsigned char 
;;		 -> phone_number(40), 
;;  cp              1    4[BANK0 ] PTR unsigned char 
;;		 -> phone_number(40), 
;; Return value:  Size  Location     Type
;;                  1    wreg      PTR unsigned char 
;; Registers used:
;;		wreg, fsr0l, fsr0h, status,2, status,0, btemp+1, pclath
;; Tracked objects:
;;		On entry : 0/0
;;		On exit  : 0/0
;;		Unchanged: 0/0
;; Data sizes:     COMMON   BANK0   BANK1   BANK3   BANK2
;;      Params:         0       2       0       0       0
;;      Locals:         0       2       0       0       0
;;      Temps:          0       1       0       0       0
;;      Totals:         0       5       0       0       0
;;Total ram usage:        5 bytes
;; Hardware stack levels used:    1
;; Hardware stack levels required when called:    2
;; This function calls:
;;		Nothing
;; This function is called by:
;;		_SMSCommunication
;; This function uses a non-reentrant model
;;
psect	text6,local,class=CODE,delta=2,merge=1
	file	"C:\Program Files (x86)\Microchip\xc8\v1.32\sources\common\strcat.c"
	line	8
global __ptext6
__ptext6:	;psect for function _strcat
psect	text6
	file	"C:\Program Files (x86)\Microchip\xc8\v1.32\sources\common\strcat.c"
	line	8
	global	__size_of_strcat
	__size_of_strcat	equ	__end_of_strcat-_strcat
	
_strcat:	
;incstack = 0
	opt	stack 4
; Regs used in _strcat: [wreg-fsr0h+status,2+status,0+btemp+1+pclath]
;strcat@to stored from wreg
	bcf	status, 5	;RP0=0, select bank0
	bcf	status, 6	;RP1=0, select bank0
	movwf	(strcat@to)
	line	18
	
l3249:	
	movf	(strcat@to),w
	movwf	(??_strcat+0)+0
	movf	(??_strcat+0)+0,w
	movwf	(strcat@cp)
	line	19
	goto	l3253
	
l990:	
	line	20
	
l3251:	
	movlw	(01h)
	movwf	(??_strcat+0)+0
	movf	(??_strcat+0)+0,w
	addwf	(strcat@cp),f
	goto	l3253
	
l989:	
	line	19
	
l3253:	
	movf	(strcat@cp),w
	movwf	fsr0
	bcf	status, 7	;select IRP bank0
	movf	indf,f
	skipz
	goto	u2681
	goto	u2680
u2681:
	goto	l3251
u2680:
	goto	l3259
	
l991:	
	line	21
	goto	l3259
	
l993:	
	line	22
	
l3255:	
	movlw	(01h)
	movwf	(??_strcat+0)+0
	movf	(??_strcat+0)+0,w
	addwf	(strcat@cp),f
	line	23
	
l3257:	
	movlw	01h
	addwf	(strcat@from),f
	skipnc
	incf	(strcat@from+1),f
	goto	l3259
	line	24
	
l992:	
	line	21
	
l3259:	
	movf	(strcat@from+1),w
	movwf	btemp+1
	movf	(strcat@from),w
	movwf	fsr0
	fcall	stringtab
	movwf	(??_strcat+0)+0
	movf	(strcat@cp),w
	movwf	fsr0
	movf	(??_strcat+0)+0,w
	bcf	status, 7	;select IRP bank0
	movwf	indf
	movf	(indf),f
	skipz
	goto	u2691
	goto	u2690
u2691:
	goto	l3255
u2690:
	goto	l995
	
l994:	
	line	26
;	Return value of _strcat is never used
	
l995:	
	return
	opt stack 0
GLOBAL	__end_of_strcat
	__end_of_strcat:
	signat	_strcat,8313
	global	_phase_check

;; *************** function _phase_check *****************
;; Defined at:
;;		line 539 in file "E:\Study Material\XC8 PROJECTS\Aurangabad\MobileAdv.c"
;; Parameters:    Size  Location     Type
;;		None
;; Auto vars:     Size  Location     Type
;;		None
;; Return value:  Size  Location     Type
;;                  1    wreg      unsigned char 
;; Registers used:
;;		wreg
;; Tracked objects:
;;		On entry : 0/0
;;		On exit  : 0/0
;;		Unchanged: 0/0
;; Data sizes:     COMMON   BANK0   BANK1   BANK3   BANK2
;;      Params:         0       0       0       0       0
;;      Locals:         0       0       0       0       0
;;      Temps:          0       0       0       0       0
;;      Totals:         0       0       0       0       0
;;Total ram usage:        0 bytes
;; Hardware stack levels used:    1
;; Hardware stack levels required when called:    2
;; This function calls:
;;		Nothing
;; This function is called by:
;;		_main
;;		_SMSCommunication
;; This function uses a non-reentrant model
;;
psect	text7,local,class=CODE,delta=2,merge=1
	file	"E:\Study Material\XC8 PROJECTS\Aurangabad\MobileAdv.c"
	line	539
global __ptext7
__ptext7:	;psect for function _phase_check
psect	text7
	file	"E:\Study Material\XC8 PROJECTS\Aurangabad\MobileAdv.c"
	line	539
	global	__size_of_phase_check
	__size_of_phase_check	equ	__end_of_phase_check-_phase_check
	
_phase_check:	
;incstack = 0
	opt	stack 5
; Regs used in _phase_check: [wreg]
	line	542
	
l3095:	
;MobileAdv.c: 542: if( RC0 == 1 && RC1 == 1 && RC2 == 1 )
	bcf	status, 5	;RP0=0, select bank0
	bcf	status, 6	;RP1=0, select bank0
	btfss	(56/8),(56)&7	;volatile
	goto	u2531
	goto	u2530
u2531:
	goto	l3107
u2530:
	
l3097:	
	btfss	(57/8),(57)&7	;volatile
	goto	u2541
	goto	u2540
u2541:
	goto	l3107
u2540:
	
l3099:	
	btfss	(58/8),(58)&7	;volatile
	goto	u2551
	goto	u2550
u2551:
	goto	l3107
u2550:
	line	545
	
l3101:	
;MobileAdv.c: 543: {
;MobileAdv.c: 545: return 1;
	movlw	(01h)
	goto	l205
	
l3103:	
	goto	l205
	line	546
	
l3105:	
;MobileAdv.c: 546: }
	goto	l205
	line	547
	
l204:	
	line	550
	
l3107:	
;MobileAdv.c: 547: else
;MobileAdv.c: 548: {
;MobileAdv.c: 550: return 0;
	movlw	(0)
	goto	l205
	
l3109:	
	goto	l205
	line	551
	
l206:	
	line	552
	
l205:	
	return
	opt stack 0
GLOBAL	__end_of_phase_check
	__end_of_phase_check:
	signat	_phase_check,89
	global	_eeprom_read

;; *************** function _eeprom_read *****************
;; Defined at:
;;		line 6 in file "C:\Program Files (x86)\Microchip\xc8\v1.32\sources\pic\eeread.c"
;; Parameters:    Size  Location     Type
;;  addr            1    wreg     unsigned char 
;; Auto vars:     Size  Location     Type
;;  addr            1    1[BANK0 ] unsigned char 
;; Return value:  Size  Location     Type
;;                  1    wreg      unsigned char 
;; Registers used:
;;		wreg, status,2, status,0
;; Tracked objects:
;;		On entry : 0/0
;;		On exit  : 0/0
;;		Unchanged: 0/0
;; Data sizes:     COMMON   BANK0   BANK1   BANK3   BANK2
;;      Params:         0       0       0       0       0
;;      Locals:         0       1       0       0       0
;;      Temps:          0       1       0       0       0
;;      Totals:         0       2       0       0       0
;;Total ram usage:        2 bytes
;; Hardware stack levels used:    1
;; Hardware stack levels required when called:    2
;; This function calls:
;;		Nothing
;; This function is called by:
;;		_main
;;		_SMSCommunication
;; This function uses a non-reentrant model
;;
psect	text8,local,class=CODE,delta=2,merge=1
	file	"C:\Program Files (x86)\Microchip\xc8\v1.32\sources\pic\eeread.c"
	line	6
global __ptext8
__ptext8:	;psect for function _eeprom_read
psect	text8
	file	"C:\Program Files (x86)\Microchip\xc8\v1.32\sources\pic\eeread.c"
	line	6
	global	__size_of_eeprom_read
	__size_of_eeprom_read	equ	__end_of_eeprom_read-_eeprom_read
	
_eeprom_read:	
;incstack = 0
	opt	stack 5
; Regs used in _eeprom_read: [wreg+status,2+status,0]
;eeprom_read@addr stored from wreg
	bcf	status, 5	;RP0=0, select bank0
	bcf	status, 6	;RP1=0, select bank0
	movwf	(eeprom_read@addr)
	line	8
	
l503:	
	line	9
# 9 "C:\Program Files (x86)\Microchip\xc8\v1.32\sources\pic\eeread.c"
clrwdt ;# 
psect	text8
	line	10
	bsf	status, 5	;RP0=1, select bank3
	bsf	status, 6	;RP1=1, select bank3
	btfsc	(3169/8)^0180h,(3169)&7	;volsfr
	goto	u2521
	goto	u2520
u2521:
	bcf	status, 5	;RP0=0, select bank0
	bcf	status, 6	;RP1=0, select bank0
	goto	l503
u2520:
	goto	l3091
	
l504:	
	line	11
	
l3091:	
	bcf	status, 5	;RP0=0, select bank0
	bcf	status, 6	;RP1=0, select bank0
	movf	(eeprom_read@addr),w
	bcf	status, 5	;RP0=0, select bank2
	bsf	status, 6	;RP1=1, select bank2
	movwf	(269)^0100h	;volatile
	movlw	(03Fh)
	bcf	status, 5	;RP0=0, select bank0
	bcf	status, 6	;RP1=0, select bank0
	movwf	(??_eeprom_read+0)+0
	movf	(??_eeprom_read+0)+0,w
	bsf	status, 5	;RP0=1, select bank3
	bsf	status, 6	;RP1=1, select bank3
	andwf	(396)^0180h,f	;volsfr
	bsf	(3168/8)^0180h,(3168)&7	;volsfr
	clrc
	btfsc	(3168/8)^0180h,(3168)&7	;volsfr
	setc
	movlw	0
	skipnc
	movlw	1

	bcf	status, 5	;RP0=0, select bank2
	bsf	status, 6	;RP1=1, select bank2
	movf	(268)^0100h,w	;volatile
	goto	l505
	
l3093:	
	line	12
	
l505:	
	return
	opt stack 0
GLOBAL	__end_of_eeprom_read
	__end_of_eeprom_read:
	signat	_eeprom_read,4217
	global	_SIM300WaitForValidMsg

;; *************** function _SIM300WaitForValidMsg *****************
;; Defined at:
;;		line 261 in file "E:\Study Material\XC8 PROJECTS\Aurangabad\sim300.c"
;; Parameters:    Size  Location     Type
;;		None
;; Auto vars:     Size  Location     Type
;;  id              1   56[BANK0 ] unsigned char 
;;  response        1   55[BANK0 ] unsigned char 
;; Return value:  Size  Location     Type
;;                  1    wreg      char 
;; Registers used:
;;		wreg, fsr0l, fsr0h, status,2, status,0, btemp+1, pclath, cstack
;; Tracked objects:
;;		On entry : 0/0
;;		On exit  : 0/0
;;		Unchanged: 0/0
;; Data sizes:     COMMON   BANK0   BANK1   BANK3   BANK2
;;      Params:         0       0       0       0       0
;;      Locals:         0       2       0       0       0
;;      Temps:          0       3       0       0       0
;;      Totals:         0       5       0       0       0
;;Total ram usage:        5 bytes
;; Hardware stack levels used:    1
;; Hardware stack levels required when called:    6
;; This function calls:
;;		_SIM300DeleteMsg
;;		_SIM300ReadValidMsg
;;		_USARTFlushBuffer
;;		_strnicmp
;; This function is called by:
;;		_SMSCommunication
;; This function uses a non-reentrant model
;;
psect	text9,local,class=CODE,delta=2,merge=1
	file	"E:\Study Material\XC8 PROJECTS\Aurangabad\sim300.c"
	line	261
global __ptext9
__ptext9:	;psect for function _SIM300WaitForValidMsg
psect	text9
	file	"E:\Study Material\XC8 PROJECTS\Aurangabad\sim300.c"
	line	261
	global	__size_of_SIM300WaitForValidMsg
	__size_of_SIM300WaitForValidMsg	equ	__end_of_SIM300WaitForValidMsg-_SIM300WaitForValidMsg
	
_SIM300WaitForValidMsg:	
;incstack = 0
	opt	stack 0
; Regs used in _SIM300WaitForValidMsg: [wreg-fsr0h+status,2+status,0+btemp+1+pclath+cstack]
	line	264
	
l3201:	
;sim300.c: 264: uint8_t id = 1;
	bcf	status, 5	;RP0=0, select bank0
	bcf	status, 6	;RP1=0, select bank0
	clrf	(SIM300WaitForValidMsg@id)
	incf	(SIM300WaitForValidMsg@id),f
	line	268
	
l3203:	
;sim300.c: 265: uint8_t response;
;sim300.c: 268: if(strnicmp(sim300_buffer+2,"+CMTI:",6)==0)
	movlw	low((STR_42)|8000h)
	movwf	(strnicmp@s2)
	movlw	high((STR_42)|8000h)
	movwf	((strnicmp@s2))+1
	movlw	low(06h)
	movwf	(strnicmp@len)
	movlw	high(06h)
	movwf	((strnicmp@len))+1
	movlw	(_sim300_buffer+02h)&0ffh
	fcall	_strnicmp
	bcf	status, 5	;RP0=0, select bank0
	bcf	status, 6	;RP1=0, select bank0
	movf	((1+(?_strnicmp))),w
	iorwf	((0+(?_strnicmp))),w
	skipz
	goto	u2641
	goto	u2640
u2641:
	goto	l3237
u2640:
	line	271
	
l3205:	
;sim300.c: 269: {
;sim300.c: 271: _delay((unsigned long)((1000)*(4000000/4000.0)));
	opt asmopt_off
movlw  6
movwf	((??_SIM300WaitForValidMsg+0)+0+2),f
movlw	19
movwf	((??_SIM300WaitForValidMsg+0)+0+1),f
	movlw	177
movwf	((??_SIM300WaitForValidMsg+0)+0),f
u4057:
	decfsz	((??_SIM300WaitForValidMsg+0)+0),f
	goto	u4057
	decfsz	((??_SIM300WaitForValidMsg+0)+0+1),f
	goto	u4057
	decfsz	((??_SIM300WaitForValidMsg+0)+0+2),f
	goto	u4057
	nop2
opt asmopt_on

	line	272
	
l3207:	
;sim300.c: 272: response = SIM300ReadValidMsg(id);
	bcf	status, 5	;RP0=0, select bank0
	bcf	status, 6	;RP1=0, select bank0
	movf	(SIM300WaitForValidMsg@id),w
	fcall	_SIM300ReadValidMsg
	bcf	status, 5	;RP0=0, select bank0
	bcf	status, 6	;RP1=0, select bank0
	movwf	(??_SIM300WaitForValidMsg+0)+0
	movf	(??_SIM300WaitForValidMsg+0)+0,w
	movwf	(SIM300WaitForValidMsg@response)
	line	273
	
l3209:	
;sim300.c: 273: if(response == 1)
	movf	(SIM300WaitForValidMsg@response),w
	xorlw	01h
	skipz
	goto	u2651
	goto	u2650
u2651:
	goto	l3219
u2650:
	line	276
	
l3211:	
;sim300.c: 274: {
;sim300.c: 276: response = SIM300DeleteMsg(id);
	movf	(SIM300WaitForValidMsg@id),w
	fcall	_SIM300DeleteMsg
	bcf	status, 5	;RP0=0, select bank0
	bcf	status, 6	;RP1=0, select bank0
	movwf	(??_SIM300WaitForValidMsg+0)+0
	movf	(??_SIM300WaitForValidMsg+0)+0,w
	movwf	(SIM300WaitForValidMsg@response)
	line	278
	
l3213:	
;sim300.c: 278: USARTFlushBuffer();
	fcall	_USARTFlushBuffer
	line	279
	
l3215:	
;sim300.c: 279: return 1;
	movlw	(01h)
	goto	l322
	
l3217:	
	goto	l322
	line	280
	
l321:	
	line	281
	
l3219:	
;sim300.c: 280: }
;sim300.c: 281: if(response == 201)
	bcf	status, 5	;RP0=0, select bank0
	bcf	status, 6	;RP1=0, select bank0
	movf	(SIM300WaitForValidMsg@response),w
	xorlw	0C9h
	skipz
	goto	u2661
	goto	u2660
u2661:
	goto	l3237
u2660:
	line	284
	
l3221:	
;sim300.c: 282: {
;sim300.c: 284: response = SIM300DeleteMsg(id);
	movf	(SIM300WaitForValidMsg@id),w
	fcall	_SIM300DeleteMsg
	bcf	status, 5	;RP0=0, select bank0
	bcf	status, 6	;RP1=0, select bank0
	movwf	(??_SIM300WaitForValidMsg+0)+0
	movf	(??_SIM300WaitForValidMsg+0)+0,w
	movwf	(SIM300WaitForValidMsg@response)
	line	286
	
l3223:	
;sim300.c: 286: USARTFlushBuffer();
	fcall	_USARTFlushBuffer
	line	287
	
l3225:	
;sim300.c: 287: return 201;
	movlw	(-55)
	goto	l322
	
l3227:	
	goto	l322
	line	288
	
l323:	
	line	289
;sim300.c: 288: }
;sim300.c: 289: if(response == -2)
	goto	l3237
	line	292
	
l3229:	
;sim300.c: 290: {
;sim300.c: 292: response = SIM300DeleteMsg(id);
	bcf	status, 5	;RP0=0, select bank0
	bcf	status, 6	;RP1=0, select bank0
	movf	(SIM300WaitForValidMsg@id),w
	fcall	_SIM300DeleteMsg
	bcf	status, 5	;RP0=0, select bank0
	bcf	status, 6	;RP1=0, select bank0
	movwf	(??_SIM300WaitForValidMsg+0)+0
	movf	(??_SIM300WaitForValidMsg+0)+0,w
	movwf	(SIM300WaitForValidMsg@response)
	line	294
	
l3231:	
;sim300.c: 294: USARTFlushBuffer();
	fcall	_USARTFlushBuffer
	line	295
	
l3233:	
;sim300.c: 295: return -2;
	movlw	(-2)
	goto	l322
	
l3235:	
	goto	l322
	line	296
	
l324:	
	goto	l3237
	line	297
	
l320:	
	line	299
	
l3237:	
;sim300.c: 296: }
;sim300.c: 297: }
;sim300.c: 299: return -2;
	movlw	(-2)
	goto	l322
	
l3239:	
	line	300
	
l322:	
	return
	opt stack 0
GLOBAL	__end_of_SIM300WaitForValidMsg
	__end_of_SIM300WaitForValidMsg:
	signat	_SIM300WaitForValidMsg,89
	global	_SIM300ReadValidMsg

;; *************** function _SIM300ReadValidMsg *****************
;; Defined at:
;;		line 304 in file "E:\Study Material\XC8 PROJECTS\Aurangabad\sim300.c"
;; Parameters:    Size  Location     Type
;;  i               1    wreg     unsigned char 
;; Auto vars:     Size  Location     Type
;;  i               1   48[BANK0 ] unsigned char 
;;  i               1   50[BANK0 ] unsigned char 
;;  start           1   49[BANK0 ] PTR unsigned char 
;;		 -> NULL(0), sim300_buffer(70), 
;;  cmd            16   32[BANK0 ] unsigned char [16]
;;  len             1   51[BANK0 ] unsigned char 
;; Return value:  Size  Location     Type
;;                  1    wreg      char 
;; Registers used:
;;		wreg, fsr0l, fsr0h, status,2, status,0, btemp+1, pclath, cstack
;; Tracked objects:
;;		On entry : 0/0
;;		On exit  : 0/0
;;		Unchanged: 0/0
;; Data sizes:     COMMON   BANK0   BANK1   BANK3   BANK2
;;      Params:         0       0       0       0       0
;;      Locals:         0      20       0       0       0
;;      Temps:          0       2       0       0       0
;;      Totals:         0      22       0       0       0
;;Total ram usage:       22 bytes
;; Hardware stack levels used:    1
;; Hardware stack levels required when called:    5
;; This function calls:
;;		_SIM300Cmd
;;		_SIM300WaitForResponse
;;		_USARTFlushBuffer
;;		_sprintf
;;		_strichr
;;		_strrichr
;;		_strstr
;; This function is called by:
;;		_SIM300WaitForValidMsg
;; This function uses a non-reentrant model
;;
psect	text10,local,class=CODE,delta=2,merge=1
	line	304
global __ptext10
__ptext10:	;psect for function _SIM300ReadValidMsg
psect	text10
	file	"E:\Study Material\XC8 PROJECTS\Aurangabad\sim300.c"
	line	304
	global	__size_of_SIM300ReadValidMsg
	__size_of_SIM300ReadValidMsg	equ	__end_of_SIM300ReadValidMsg-_SIM300ReadValidMsg
	
_SIM300ReadValidMsg:	
;incstack = 0
	opt	stack 0
; Regs used in _SIM300ReadValidMsg: [wreg-fsr0h+status,2+status,0+btemp+1+pclath+cstack]
;SIM300ReadValidMsg@i stored from wreg
	bcf	status, 5	;RP0=0, select bank0
	bcf	status, 6	;RP1=0, select bank0
	movwf	(SIM300ReadValidMsg@i)
	line	307
	
l3001:	
;sim300.c: 307: USARTFlushBuffer();
	fcall	_USARTFlushBuffer
	line	313
	
l3003:	
;sim300.c: 310: char cmd[16];
;sim300.c: 313: sprintf(cmd,"AT+CMGR=%d",i);
	movlw	low((STR_43)|8000h)
	bcf	status, 5	;RP0=0, select bank0
	bcf	status, 6	;RP1=0, select bank0
	movwf	(sprintf@f)
	movlw	high((STR_43)|8000h)
	movwf	((sprintf@f))+1
	movf	(SIM300ReadValidMsg@i),w
	movwf	(??_SIM300ReadValidMsg+0)+0
	clrf	(??_SIM300ReadValidMsg+0)+0+1
	movf	0+(??_SIM300ReadValidMsg+0)+0,w
	movwf	0+(?_sprintf)+02h
	movf	1+(??_SIM300ReadValidMsg+0)+0,w
	movwf	1+(?_sprintf)+02h
	movlw	(SIM300ReadValidMsg@cmd)&0ffh
	fcall	_sprintf
	line	316
	
l3005:	
;sim300.c: 316: SIM300Cmd(cmd);
	movlw	(SIM300ReadValidMsg@cmd&0ffh)
	bcf	status, 5	;RP0=0, select bank0
	bcf	status, 6	;RP1=0, select bank0
	movwf	(SIM300Cmd@cmd)
	movlw	(0x0)
	movwf	(SIM300Cmd@cmd+1)
	fcall	_SIM300Cmd
	line	318
;sim300.c: 318: uint8_t len=SIM300WaitForResponse(2000);
	movlw	low(07D0h)
	bcf	status, 5	;RP0=0, select bank0
	bcf	status, 6	;RP1=0, select bank0
	movwf	(SIM300WaitForResponse@timeout)
	movlw	high(07D0h)
	movwf	((SIM300WaitForResponse@timeout))+1
	fcall	_SIM300WaitForResponse
	bcf	status, 5	;RP0=0, select bank0
	bcf	status, 6	;RP1=0, select bank0
	movwf	(??_SIM300ReadValidMsg+0)+0
	movf	(??_SIM300ReadValidMsg+0)+0,w
	movwf	(SIM300ReadValidMsg@len)
	line	320
	
l3007:	
;sim300.c: 320: if(len==0)
	movf	(SIM300ReadValidMsg@len),f
	skipz
	goto	u2411
	goto	u2410
u2411:
	goto	l3013
u2410:
	line	321
	
l3009:	
;sim300.c: 321: return -3;
	movlw	(-3)
	goto	l328
	
l3011:	
	goto	l328
	
l327:	
	line	323
	
l3013:	
;sim300.c: 323: sim300_buffer[len-1]='\0';
	movf	(SIM300ReadValidMsg@len),w
	addlw	0FFh
	addlw	_sim300_buffer&0ffh
	movwf	fsr0
	bsf	status, 7	;select IRP bank3
	clrf	indf
	line	339
	
l3015:	
;sim300.c: 339: if(strrichr(sim300_buffer,'X') != (0))
	movlw	low(058h)
	movwf	(strrichr@chr)
	movlw	high(058h)
	movwf	((strrichr@chr))+1
	movlw	(_sim300_buffer)&0ffh
	fcall	_strrichr
	xorlw	0
	skipnz
	goto	u2421
	goto	u2420
u2421:
	goto	l3053
u2420:
	line	343
	
l3017:	
;sim300.c: 340: {
;sim300.c: 342: char *start;
;sim300.c: 343: start = strichr(sim300_buffer+10,'+');
	movlw	low(02Bh)
	bcf	status, 5	;RP0=0, select bank0
	bcf	status, 6	;RP1=0, select bank0
	movwf	(strichr@chr)
	movlw	high(02Bh)
	movwf	((strichr@chr))+1
	movlw	(_sim300_buffer+0Ah)&0ffh
	fcall	_strichr
	bcf	status, 5	;RP0=0, select bank0
	bcf	status, 6	;RP1=0, select bank0
	movwf	(??_SIM300ReadValidMsg+0)+0
	movf	(??_SIM300ReadValidMsg+0)+0,w
	movwf	(SIM300ReadValidMsg@start)
	line	344
	
l3019:	
;sim300.c: 344: char i = 0;
	clrf	(SIM300ReadValidMsg@i_328)
	line	345
;sim300.c: 345: while(*start != '"')
	goto	l3027
	
l331:	
	line	347
	
l3021:	
;sim300.c: 346: {
;sim300.c: 347: MSG_number[i] = *start;
	movf	(SIM300ReadValidMsg@start),w
	movwf	fsr0
	bsf	status, 7	;select IRP bank2
	movf	indf,w
	movwf	(??_SIM300ReadValidMsg+0)+0
	movf	(SIM300ReadValidMsg@i_328),w
	addlw	_MSG_number&0ffh
	movwf	fsr0
	movf	(??_SIM300ReadValidMsg+0)+0,w
	movwf	indf
	line	348
	
l3023:	
;sim300.c: 348: start++;
	movlw	(01h)
	movwf	(??_SIM300ReadValidMsg+0)+0
	movf	(??_SIM300ReadValidMsg+0)+0,w
	addwf	(SIM300ReadValidMsg@start),f
	line	349
	
l3025:	
;sim300.c: 349: i++;
	movlw	(01h)
	movwf	(??_SIM300ReadValidMsg+0)+0
	movf	(??_SIM300ReadValidMsg+0)+0,w
	addwf	(SIM300ReadValidMsg@i_328),f
	goto	l3027
	line	350
	
l330:	
	line	345
	
l3027:	
	movf	(SIM300ReadValidMsg@start),w
	movwf	fsr0
	bsf	status, 7	;select IRP bank2
	movf	indf,w
	xorlw	022h
	skipz
	goto	u2431
	goto	u2430
u2431:
	goto	l3021
u2430:
	goto	l3029
	
l332:	
	line	351
	
l3029:	
;sim300.c: 350: }
;sim300.c: 351: MSG_number[i] = '\0';
	movf	(SIM300ReadValidMsg@i_328),w
	addlw	_MSG_number&0ffh
	movwf	fsr0
	clrf	indf
	line	353
	
l3031:	
;sim300.c: 353: len=SIM300WaitForResponse(1000);
	movlw	low(03E8h)
	movwf	(SIM300WaitForResponse@timeout)
	movlw	high(03E8h)
	movwf	((SIM300WaitForResponse@timeout))+1
	fcall	_SIM300WaitForResponse
	bcf	status, 5	;RP0=0, select bank0
	bcf	status, 6	;RP1=0, select bank0
	movwf	(??_SIM300ReadValidMsg+0)+0
	movf	(??_SIM300ReadValidMsg+0)+0,w
	movwf	(SIM300ReadValidMsg@len)
	line	355
	
l3033:	
;sim300.c: 355: if(len==0)
	movf	(SIM300ReadValidMsg@len),f
	skipz
	goto	u2441
	goto	u2440
u2441:
	goto	l3039
u2440:
	line	356
	
l3035:	
;sim300.c: 356: return -3;
	movlw	(-3)
	goto	l328
	
l3037:	
	goto	l328
	
l333:	
	line	358
	
l3039:	
;sim300.c: 358: sim300_buffer[len-1]='\0';
	movf	(SIM300ReadValidMsg@len),w
	addlw	0FFh
	addlw	_sim300_buffer&0ffh
	movwf	fsr0
	bsf	status, 7	;select IRP bank3
	clrf	indf
	line	360
	
l3041:	
;sim300.c: 360: if(strstr(sim300_buffer,"EGL")!= (0))
	movlw	low((STR_44)|8000h)
	movwf	(strstr@s2)
	movlw	high((STR_44)|8000h)
	movwf	((strstr@s2))+1
	movlw	(_sim300_buffer)&0ffh
	fcall	_strstr
	xorlw	0
	skipnz
	goto	u2451
	goto	u2450
u2451:
	goto	l3049
u2450:
	line	362
	
l3043:	
;sim300.c: 361: {
;sim300.c: 362: return 1;
	movlw	(01h)
	goto	l328
	
l3045:	
	goto	l328
	line	363
	
l3047:	
;sim300.c: 363: }
	goto	l328
	line	364
	
l334:	
	line	366
	
l3049:	
;sim300.c: 364: else
;sim300.c: 365: {
;sim300.c: 366: return 201;
	movlw	(-55)
	goto	l328
	
l3051:	
	goto	l328
	line	367
	
l335:	
	line	368
;sim300.c: 367: }
;sim300.c: 368: }
	goto	l328
	line	369
	
l329:	
	line	372
	
l3053:	
;sim300.c: 369: else
;sim300.c: 370: {
;sim300.c: 372: return -2;
	movlw	(-2)
	goto	l328
	
l3055:	
	goto	l328
	line	373
	
l336:	
	line	374
	
l328:	
	return
	opt stack 0
GLOBAL	__end_of_SIM300ReadValidMsg
	__end_of_SIM300ReadValidMsg:
	signat	_SIM300ReadValidMsg,4217
	global	_strstr

;; *************** function _strstr *****************
;; Defined at:
;;		line 4 in file "C:\Program Files (x86)\Microchip\xc8\v1.32\sources\common\strstr.c"
;; Parameters:    Size  Location     Type
;;  s1              1    wreg     PTR const unsigned char 
;;		 -> NULL(0), sim300_buffer(70), 
;;  s2              2   13[BANK0 ] PTR const unsigned char 
;;		 -> STR_44(4), 
;; Auto vars:     Size  Location     Type
;;  s1              1   18[BANK0 ] PTR const unsigned char 
;;		 -> NULL(0), sim300_buffer(70), 
;; Return value:  Size  Location     Type
;;                  1    wreg      PTR unsigned char 
;; Registers used:
;;		wreg, fsr0l, fsr0h, status,2, status,0, btemp+1, pclath, cstack
;; Tracked objects:
;;		On entry : 0/0
;;		On exit  : 0/0
;;		Unchanged: 0/0
;; Data sizes:     COMMON   BANK0   BANK1   BANK3   BANK2
;;      Params:         0       2       0       0       0
;;      Locals:         0       1       0       0       0
;;      Temps:          0       3       0       0       0
;;      Totals:         0       6       0       0       0
;;Total ram usage:        6 bytes
;; Hardware stack levels used:    1
;; Hardware stack levels required when called:    3
;; This function calls:
;;		_strchr
;;		_strlen
;;		_strncmp
;; This function is called by:
;;		_SIM300ReadValidMsg
;; This function uses a non-reentrant model
;;
psect	text11,local,class=CODE,delta=2,merge=1
	file	"C:\Program Files (x86)\Microchip\xc8\v1.32\sources\common\strstr.c"
	line	4
global __ptext11
__ptext11:	;psect for function _strstr
psect	text11
	file	"C:\Program Files (x86)\Microchip\xc8\v1.32\sources\common\strstr.c"
	line	4
	global	__size_of_strstr
	__size_of_strstr	equ	__end_of_strstr-_strstr
	
_strstr:	
;incstack = 0
	opt	stack 1
; Regs used in _strstr: [wreg-fsr0h+status,2+status,0+btemp+1+pclath+cstack]
;strstr@s1 stored from wreg
	bcf	status, 5	;RP0=0, select bank0
	bcf	status, 6	;RP1=0, select bank0
	movwf	(strstr@s1)
	line	6
	
l2941:	
	goto	l2951
	
l1049:	
	line	7
	
l2943:	
	movf	(strstr@s2+1),w
	clrf	(strncmp@s2+1)
	addwf	(strncmp@s2+1)
	movf	(strstr@s2),w
	clrf	(strncmp@s2)
	addwf	(strncmp@s2)

	movf	(strstr@s2+1),w
	clrf	(strlen@s+1)
	addwf	(strlen@s+1)
	movf	(strstr@s2),w
	clrf	(strlen@s)
	addwf	(strlen@s)

	fcall	_strlen
	bcf	status, 5	;RP0=0, select bank0
	bcf	status, 6	;RP1=0, select bank0
	movf	(1+(?_strlen)),w
	clrf	(strncmp@len+1)
	addwf	(strncmp@len+1)
	movf	(0+(?_strlen)),w
	clrf	(strncmp@len)
	addwf	(strncmp@len)

	movf	(strstr@s1),w
	fcall	_strncmp
	bcf	status, 5	;RP0=0, select bank0
	bcf	status, 6	;RP1=0, select bank0
	movf	((1+(?_strncmp))),w
	iorwf	((0+(?_strncmp))),w
	skipz
	goto	u2341
	goto	u2340
u2341:
	goto	l2949
u2340:
	line	8
	
l2945:	
	movf	(strstr@s1),w
	goto	l1051
	
l2947:	
	goto	l1051
	
l1050:	
	line	9
	
l2949:	
	movf	(strstr@s2+1),w
	movwf	btemp+1
	movf	(strstr@s2),w
	movwf	fsr0
	fcall	stringtab
	movwf	(??_strstr+0)+0
	clrf	(??_strstr+0)+0+1
	movf	0+(??_strstr+0)+0,w
	movwf	(strchr@chr)
	movf	1+(??_strstr+0)+0,w
	movwf	(strchr@chr+1)
	movf	(strstr@s1),w
	addlw	01h
	fcall	_strchr
	bcf	status, 5	;RP0=0, select bank0
	bcf	status, 6	;RP1=0, select bank0
	movwf	(??_strstr+2)+0
	movf	(??_strstr+2)+0,w
	movwf	(strstr@s1)
	goto	l2951
	line	10
	
l1048:	
	line	6
	
l2951:	
	movf	(strstr@s1),w
	skipz
	goto	u2350
	goto	l2955
u2350:
	
l2953:	
	movf	(strstr@s1),w
	movwf	fsr0
	bsf	status, 7	;select IRP bank2
	movf	indf,f
	skipz
	goto	u2361
	goto	u2360
u2361:
	goto	l2943
u2360:
	goto	l2955
	
l1053:	
	goto	l2955
	
l1054:	
	line	11
	
l2955:	
	movlw	(0)
	goto	l1051
	
l2957:	
	line	12
	
l1051:	
	return
	opt stack 0
GLOBAL	__end_of_strstr
	__end_of_strstr:
	signat	_strstr,8313
	global	_strncmp

;; *************** function _strncmp *****************
;; Defined at:
;;		line 4 in file "C:\Program Files (x86)\Microchip\xc8\v1.32\sources\common\strncmp.c"
;; Parameters:    Size  Location     Type
;;  s1              1    wreg     PTR const unsigned char 
;;		 -> NULL(0), sim300_buffer(70), 
;;  s2              2    6[BANK0 ] PTR const unsigned char 
;;		 -> STR_44(4), 
;;  len             2    8[BANK0 ] unsigned int 
;; Auto vars:     Size  Location     Type
;;  s1              1   12[BANK0 ] PTR const unsigned char 
;;		 -> NULL(0), sim300_buffer(70), 
;; Return value:  Size  Location     Type
;;                  2    6[BANK0 ] int 
;; Registers used:
;;		wreg, fsr0l, fsr0h, status,2, status,0, btemp+1, pclath
;; Tracked objects:
;;		On entry : 0/0
;;		On exit  : 0/0
;;		Unchanged: 0/0
;; Data sizes:     COMMON   BANK0   BANK1   BANK3   BANK2
;;      Params:         0       4       0       0       0
;;      Locals:         0       1       0       0       0
;;      Temps:          0       2       0       0       0
;;      Totals:         0       7       0       0       0
;;Total ram usage:        7 bytes
;; Hardware stack levels used:    1
;; Hardware stack levels required when called:    2
;; This function calls:
;;		Nothing
;; This function is called by:
;;		_strstr
;; This function uses a non-reentrant model
;;
psect	text12,local,class=CODE,delta=2,merge=1
	file	"C:\Program Files (x86)\Microchip\xc8\v1.32\sources\common\strncmp.c"
	line	4
global __ptext12
__ptext12:	;psect for function _strncmp
psect	text12
	file	"C:\Program Files (x86)\Microchip\xc8\v1.32\sources\common\strncmp.c"
	line	4
	global	__size_of_strncmp
	__size_of_strncmp	equ	__end_of_strncmp-_strncmp
	
_strncmp:	
;incstack = 0
	opt	stack 1
; Regs used in _strncmp: [wreg-fsr0h+status,2+status,0+btemp+1+pclath]
;strncmp@s1 stored from wreg
	bcf	status, 5	;RP0=0, select bank0
	bcf	status, 6	;RP1=0, select bank0
	movwf	(strncmp@s1)
	line	6
	
l2723:	
	goto	l2737
	
l1068:	
	line	7
	
l2725:	
	movf	(strncmp@s1),w
	movwf	fsr0
	bsf	status, 7	;select IRP bank2
	movf	indf
	skipnz
	goto	u2041
	goto	u2040
u2041:
	goto	l2729
u2040:
	
l2727:	
	movf	(strncmp@s2+1),w
	movwf	btemp+1
	movf	(strncmp@s2),w
	movwf	fsr0
	fcall	stringtab
	movwf	(??_strncmp+0)+0
	movf	(strncmp@s1),w
	movwf	fsr0
	bsf	status, 7	;select IRP bank2
	movf	indf,w
	xorwf	(??_strncmp+0)+0,w
	skipnz
	goto	u2051
	goto	u2050
u2051:
	goto	l2733
u2050:
	goto	l2729
	
l1071:	
	line	8
	
l2729:	
	movf	(strncmp@s2+1),w
	movwf	btemp+1
	movf	(strncmp@s2),w
	movwf	fsr0
	fcall	stringtab
	movwf	(??_strncmp+0)+0
	clrf	(??_strncmp+0)+0+1
	comf	(??_strncmp+0)+0,f
	comf	(??_strncmp+0)+1,f
	incf	(??_strncmp+0)+0,f
	skipnz
	incf	(??_strncmp+0)+1,f
	movf	(strncmp@s1),w
	movwf	fsr0
	bsf	status, 7	;select IRP bank2
	movf	indf,w
	addwf	0+(??_strncmp+0)+0,w
	movwf	(?_strncmp)
	movf	1+(??_strncmp+0)+0,w
	skipnc
	incf	1+(??_strncmp+0)+0,w
	movwf	((?_strncmp))+1
	goto	l1072
	
l2731:	
	goto	l1072
	
l1069:	
	line	10
	
l2733:	
	movlw	(01h)
	movwf	(??_strncmp+0)+0
	movf	(??_strncmp+0)+0,w
	addwf	(strncmp@s1),f
	line	11
	
l2735:	
	movlw	01h
	addwf	(strncmp@s2),f
	skipnc
	incf	(strncmp@s2+1),f
	goto	l2737
	line	12
	
l1067:	
	line	6
	
l2737:	
	movlw	low(01h)
	subwf	(strncmp@len),f
	movlw	high(01h)
	skipc
	decf	(strncmp@len+1),f
	subwf	(strncmp@len+1),f
	movlw	high(0FFFFh)
	xorwf	((strncmp@len+1)),w
	skipz
	goto	u2065
	movlw	low(0FFFFh)
	xorwf	((strncmp@len)),w
u2065:

	skipz
	goto	u2061
	goto	u2060
u2061:
	goto	l2725
u2060:
	goto	l2739
	
l1073:	
	line	13
	
l2739:	
	clrf	(?_strncmp)
	clrf	(?_strncmp+1)
	goto	l1072
	
l2741:	
	line	14
	
l1072:	
	return
	opt stack 0
GLOBAL	__end_of_strncmp
	__end_of_strncmp:
	signat	_strncmp,12410
	global	_strchr

;; *************** function _strchr *****************
;; Defined at:
;;		line 4 in file "C:\Program Files (x86)\Microchip\xc8\v1.32\sources\common\strchr.c"
;; Parameters:    Size  Location     Type
;;  ptr             1    wreg     PTR const unsigned char 
;;		 -> NULL(0), sim300_buffer(70), 
;;  chr             2    0[BANK0 ] int 
;; Auto vars:     Size  Location     Type
;;  ptr             1    2[BANK0 ] PTR const unsigned char 
;;		 -> NULL(0), sim300_buffer(70), 
;; Return value:  Size  Location     Type
;;                  1    wreg      PTR unsigned char 
;; Registers used:
;;		wreg, fsr0l, fsr0h, status,2, status,0
;; Tracked objects:
;;		On entry : 0/0
;;		On exit  : 0/0
;;		Unchanged: 0/0
;; Data sizes:     COMMON   BANK0   BANK1   BANK3   BANK2
;;      Params:         0       2       0       0       0
;;      Locals:         0       1       0       0       0
;;      Temps:          0       0       0       0       0
;;      Totals:         0       3       0       0       0
;;Total ram usage:        3 bytes
;; Hardware stack levels used:    1
;; Hardware stack levels required when called:    2
;; This function calls:
;;		Nothing
;; This function is called by:
;;		_strstr
;; This function uses a non-reentrant model
;;
psect	text13,local,class=CODE,delta=2,merge=1
	file	"C:\Program Files (x86)\Microchip\xc8\v1.32\sources\common\strchr.c"
	line	4
global __ptext13
__ptext13:	;psect for function _strchr
psect	text13
	file	"C:\Program Files (x86)\Microchip\xc8\v1.32\sources\common\strchr.c"
	line	4
	global	__size_of_strchr
	__size_of_strchr	equ	__end_of_strchr-_strchr
	
_strchr:	
;incstack = 0
	opt	stack 1
; Regs used in _strchr: [wreg-fsr0h+status,2+status,0]
;strchr@ptr stored from wreg
	bcf	status, 5	;RP0=0, select bank0
	bcf	status, 6	;RP1=0, select bank0
	movwf	(strchr@ptr)
	line	6
	
l1061:	
	line	7
	
l2743:	
	movf	(strchr@ptr),w
	movwf	fsr0
	bsf	status, 7	;select IRP bank2
	movf	indf,w
	xorwf	(strchr@chr),w
	skipz
	goto	u2071
	goto	u2070
u2071:
	goto	l2749
u2070:
	line	8
	
l2745:	
	movf	(strchr@ptr),w
	goto	l1063
	
l2747:	
	goto	l1063
	
l1062:	
	line	9
	
l2749:	
	movf	(strchr@ptr),w
	movwf	fsr0
	movlw	01h
	addwf	(strchr@ptr),f
	movf	indf,f
	skipz
	goto	u2081
	goto	u2080
u2081:
	goto	l1061
u2080:
	goto	l2751
	
l1064:	
	line	10
	
l2751:	
	movlw	(0)
	goto	l1063
	
l2753:	
	line	11
	
l1063:	
	return
	opt stack 0
GLOBAL	__end_of_strchr
	__end_of_strchr:
	signat	_strchr,8313
	global	_SIM300SendMsg

;; *************** function _SIM300SendMsg *****************
;; Defined at:
;;		line 375 in file "E:\Study Material\XC8 PROJECTS\Aurangabad\sim300.c"
;; Parameters:    Size  Location     Type
;;  num             2   50[BANK0 ] PTR const unsigned char 
;;		 -> STR_17(11), STR_15(11), MSG_number(15), STR_9(11), 
;;		 -> STR_7(11), 
;;  msg             2   52[BANK0 ] PTR const unsigned char 
;;		 -> STR_37(16), STR_18(22), STR_16(22), STR_11(20), 
;;		 -> STR_10(22), STR_8(22), phone_number(40), 
;;  msg_ref         1   54[BANK0 ] PTR unsigned char 
;;		 -> SMSCommunication@ref_213(1), SMSCommunication@ref_210(1), SMSCommunication@ref_201(1), SMSCommunication@ref(1), 
;;		 -> main@ref(1), 
;; Auto vars:     Size  Location     Type
;;  cmd            25    0[BANK1 ] unsigned char [25]
;;  n               1   26[BANK1 ] unsigned char 
;;  len             1   25[BANK1 ] unsigned char 
;; Return value:  Size  Location     Type
;;                  1    wreg      char 
;; Registers used:
;;		wreg, fsr0l, fsr0h, status,2, status,0, btemp+1, pclath, cstack
;; Tracked objects:
;;		On entry : 0/0
;;		On exit  : 0/0
;;		Unchanged: 0/0
;; Data sizes:     COMMON   BANK0   BANK1   BANK3   BANK2
;;      Params:         0       5       0       0       0
;;      Locals:         0       0      27       0       0
;;      Temps:          0       4       0       0       0
;;      Totals:         0       9      27       0       0
;;Total ram usage:       36 bytes
;; Hardware stack levels used:    1
;; Hardware stack levels required when called:    6
;; This function calls:
;;		_SIM300Cmd
;;		_SIM300DeleteMsg
;;		_SIM300WaitForResponse
;;		_USARTDataAvailable
;;		_USARTFlushBuffer
;;		_USARTReadBuffer
;;		_USARTWriteChar
;;		_USARTWriteString
;;		_atoi
;;		_sprintf
;;		_strlen
;;		_strnicmp
;; This function is called by:
;;		_main
;;		_SMSCommunication
;; This function uses a non-reentrant model
;;
psect	text14,local,class=CODE,delta=2,merge=1
	file	"E:\Study Material\XC8 PROJECTS\Aurangabad\sim300.c"
	line	375
global __ptext14
__ptext14:	;psect for function _SIM300SendMsg
psect	text14
	file	"E:\Study Material\XC8 PROJECTS\Aurangabad\sim300.c"
	line	375
	global	__size_of_SIM300SendMsg
	__size_of_SIM300SendMsg	equ	__end_of_SIM300SendMsg-_SIM300SendMsg
	
_SIM300SendMsg:	
;incstack = 0
	opt	stack 0
; Regs used in _SIM300SendMsg: [wreg-fsr0h+status,2+status,0+btemp+1+pclath+cstack]
	line	377
	
l3111:	
;sim300.c: 377: USARTFlushBuffer();
	fcall	_USARTFlushBuffer
	line	381
	
l3113:	
;sim300.c: 379: char cmd[25];
;sim300.c: 381: sprintf(cmd,"AT+CMGS= %s",num);
	movlw	low((STR_45)|8000h)
	bcf	status, 5	;RP0=0, select bank0
	bcf	status, 6	;RP1=0, select bank0
	movwf	(sprintf@f)
	movlw	high((STR_45)|8000h)
	movwf	((sprintf@f))+1
	movf	(SIM300SendMsg@num+1),w
	clrf	(1+?_sprintf+02h)
	addwf	(1+?_sprintf+02h)
	movf	(SIM300SendMsg@num),w
	clrf	(0+?_sprintf+02h)
	addwf	(0+?_sprintf+02h)

	movlw	(SIM300SendMsg@cmd)&0ffh
	fcall	_sprintf
	line	383
	
l3115:	
;sim300.c: 383: cmd[8]=0x22;
	movlw	(022h)
	bcf	status, 5	;RP0=0, select bank0
	bcf	status, 6	;RP1=0, select bank0
	movwf	(??_SIM300SendMsg+0)+0
	movf	(??_SIM300SendMsg+0)+0,w
	bsf	status, 5	;RP0=1, select bank1
	bcf	status, 6	;RP1=0, select bank1
	movwf	0+(SIM300SendMsg@cmd)^080h+08h
	line	385
	
l3117:	
;sim300.c: 385: uint8_t n=strlen(cmd);
	movlw	(SIM300SendMsg@cmd&0ffh)
	bcf	status, 5	;RP0=0, select bank0
	bcf	status, 6	;RP1=0, select bank0
	movwf	(strlen@s)
	movlw	(0x0)
	movwf	(strlen@s+1)
	fcall	_strlen
	bcf	status, 5	;RP0=0, select bank0
	bcf	status, 6	;RP1=0, select bank0
	movf	(0+(?_strlen)),w
	movwf	(??_SIM300SendMsg+0)+0
	movf	(??_SIM300SendMsg+0)+0,w
	bsf	status, 5	;RP0=1, select bank1
	bcf	status, 6	;RP1=0, select bank1
	movwf	(SIM300SendMsg@n)^080h
	line	387
	
l3119:	
;sim300.c: 387: cmd[n]=0x22;
	movlw	(022h)
	bcf	status, 5	;RP0=0, select bank0
	bcf	status, 6	;RP1=0, select bank0
	movwf	(??_SIM300SendMsg+0)+0
	bsf	status, 5	;RP0=1, select bank1
	bcf	status, 6	;RP1=0, select bank1
	movf	(SIM300SendMsg@n)^080h,w
	addlw	SIM300SendMsg@cmd&0ffh
	movwf	fsr0
	bcf	status, 5	;RP0=0, select bank0
	bcf	status, 6	;RP1=0, select bank0
	movf	(??_SIM300SendMsg+0)+0,w
	bcf	status, 7	;select IRP bank1
	movwf	indf
	line	388
	
l3121:	
;sim300.c: 388: cmd[n+1]='\0';
	bsf	status, 5	;RP0=1, select bank1
	bcf	status, 6	;RP1=0, select bank1
	movf	(SIM300SendMsg@n)^080h,w
	addlw	01h
	addlw	SIM300SendMsg@cmd&0ffh
	movwf	fsr0
	clrf	indf
	line	391
	
l3123:	
;sim300.c: 391: SIM300Cmd(cmd);
	movlw	(SIM300SendMsg@cmd&0ffh)
	bcf	status, 5	;RP0=0, select bank0
	bcf	status, 6	;RP1=0, select bank0
	movwf	(SIM300Cmd@cmd)
	movlw	(0x0)
	movwf	(SIM300Cmd@cmd+1)
	fcall	_SIM300Cmd
	line	393
	
l3125:	
;sim300.c: 393: _delay((unsigned long)((100)*(4000000/4000.0)));
	opt asmopt_off
movlw	130
	bcf	status, 5	;RP0=0, select bank0
	bcf	status, 6	;RP1=0, select bank0
movwf	((??_SIM300SendMsg+0)+0+1),f
	movlw	221
movwf	((??_SIM300SendMsg+0)+0),f
u4067:
	decfsz	((??_SIM300SendMsg+0)+0),f
	goto	u4067
	decfsz	((??_SIM300SendMsg+0)+0+1),f
	goto	u4067
	nop2
opt asmopt_on

	line	395
	
l3127:	
;sim300.c: 395: USARTWriteString(msg);
	bcf	status, 5	;RP0=0, select bank0
	bcf	status, 6	;RP1=0, select bank0
	movf	(SIM300SendMsg@msg+1),w
	clrf	(USARTWriteString@str+1)
	addwf	(USARTWriteString@str+1)
	movf	(SIM300SendMsg@msg),w
	clrf	(USARTWriteString@str)
	addwf	(USARTWriteString@str)

	fcall	_USARTWriteString
	line	397
	
l3129:	
;sim300.c: 397: USARTWriteChar(0x1A);
	movlw	(01Ah)
	fcall	_USARTWriteChar
	line	399
;sim300.c: 399: while( USARTDataAvailable()<(strlen(msg)+5) );
	goto	l3131
	
l340:	
	goto	l3131
	
l339:	
	
l3131:	
	bcf	status, 5	;RP0=0, select bank0
	bcf	status, 6	;RP1=0, select bank0
	movf	(SIM300SendMsg@msg+1),w
	clrf	(strlen@s+1)
	addwf	(strlen@s+1)
	movf	(SIM300SendMsg@msg),w
	clrf	(strlen@s)
	addwf	(strlen@s)

	fcall	_strlen
	bcf	status, 5	;RP0=0, select bank0
	bcf	status, 6	;RP1=0, select bank0
	movf	(0+(?_strlen)),w
	addlw	low(05h)
	movwf	(??_SIM300SendMsg+0)+0
	movf	(1+(?_strlen)),w
	skipnc
	addlw	1
	addlw	high(05h)
	movwf	1+(??_SIM300SendMsg+0)+0
	fcall	_USARTDataAvailable
	bcf	status, 5	;RP0=0, select bank0
	bcf	status, 6	;RP1=0, select bank0
	movwf	(??_SIM300SendMsg+2)+0
	clrf	(??_SIM300SendMsg+2)+0+1
	movf	1+(??_SIM300SendMsg+0)+0,w
	subwf	1+(??_SIM300SendMsg+2)+0,w
	skipz
	goto	u2565
	movf	0+(??_SIM300SendMsg+0)+0,w
	subwf	0+(??_SIM300SendMsg+2)+0,w
u2565:
	skipc
	goto	u2561
	goto	u2560
u2561:
	goto	l3131
u2560:
	goto	l3133
	
l341:	
	line	402
	
l3133:	
;sim300.c: 402: USARTReadBuffer(sim300_buffer,strlen(msg)+5);
	movf	(SIM300SendMsg@msg+1),w
	clrf	(strlen@s+1)
	addwf	(strlen@s+1)
	movf	(SIM300SendMsg@msg),w
	clrf	(strlen@s)
	addwf	(strlen@s)

	fcall	_strlen
	bcf	status, 5	;RP0=0, select bank0
	bcf	status, 6	;RP1=0, select bank0
	movf	(0+(?_strlen)),w
	addlw	low(05h)
	movwf	(USARTReadBuffer@len)
	movf	(1+(?_strlen)),w
	skipnc
	addlw	1
	addlw	high(05h)
	movwf	1+(USARTReadBuffer@len)
	movlw	(_sim300_buffer)&0ffh
	fcall	_USARTReadBuffer
	line	404
	
l3135:	
;sim300.c: 404: uint8_t len=SIM300WaitForResponse(6000);
	movlw	low(01770h)
	bcf	status, 5	;RP0=0, select bank0
	bcf	status, 6	;RP1=0, select bank0
	movwf	(SIM300WaitForResponse@timeout)
	movlw	high(01770h)
	movwf	((SIM300WaitForResponse@timeout))+1
	fcall	_SIM300WaitForResponse
	bcf	status, 5	;RP0=0, select bank0
	bcf	status, 6	;RP1=0, select bank0
	movwf	(??_SIM300SendMsg+0)+0
	movf	(??_SIM300SendMsg+0)+0,w
	bsf	status, 5	;RP0=1, select bank1
	bcf	status, 6	;RP1=0, select bank1
	movwf	(SIM300SendMsg@len)^080h
	line	406
	
l3137:	
;sim300.c: 406: if(len==0)
	movf	(SIM300SendMsg@len)^080h,f
	skipz
	goto	u2571
	goto	u2570
u2571:
	goto	l3143
u2570:
	line	407
	
l3139:	
;sim300.c: 407: return -3;
	movlw	(-3)
	goto	l343
	
l3141:	
	goto	l343
	
l342:	
	line	409
	
l3143:	
;sim300.c: 409: sim300_buffer[len-1]='\0';
	movf	(SIM300SendMsg@len)^080h,w
	addlw	0FFh
	addlw	_sim300_buffer&0ffh
	movwf	fsr0
	bsf	status, 7	;select IRP bank3
	clrf	indf
	line	410
	
l3145:	
;sim300.c: 410: n = 1;
	clrf	(SIM300SendMsg@n)^080h
	incf	(SIM300SendMsg@n)^080h,f
	line	412
	
l3147:	
;sim300.c: 412: if(strnicmp(sim300_buffer+2,"CMGS:",5)==0)
	movlw	low((STR_46)|8000h)
	bcf	status, 5	;RP0=0, select bank0
	bcf	status, 6	;RP1=0, select bank0
	movwf	(strnicmp@s2)
	movlw	high((STR_46)|8000h)
	movwf	((strnicmp@s2))+1
	movlw	low(05h)
	movwf	(strnicmp@len)
	movlw	high(05h)
	movwf	((strnicmp@len))+1
	movlw	(_sim300_buffer+02h)&0ffh
	fcall	_strnicmp
	bcf	status, 5	;RP0=0, select bank0
	bcf	status, 6	;RP1=0, select bank0
	movf	((1+(?_strnicmp))),w
	iorwf	((0+(?_strnicmp))),w
	skipz
	goto	u2581
	goto	u2580
u2581:
	goto	l3161
u2580:
	line	415
	
l3149:	
;sim300.c: 413: {
;sim300.c: 415: *msg_ref=atoi(sim300_buffer+8);
	movlw	(_sim300_buffer+08h)&0ffh
	fcall	_atoi
	bcf	status, 5	;RP0=0, select bank0
	bcf	status, 6	;RP1=0, select bank0
	movf	(0+(?_atoi)),w
	movwf	(??_SIM300SendMsg+0)+0
	movf	(SIM300SendMsg@msg_ref),w
	movwf	fsr0
	movf	(??_SIM300SendMsg+0)+0,w
	bcf	status, 7	;select IRP bank0
	movwf	indf
	line	417
	
l3151:	
;sim300.c: 417: len = SIM300DeleteMsg(n);
	bsf	status, 5	;RP0=1, select bank1
	bcf	status, 6	;RP1=0, select bank1
	movf	(SIM300SendMsg@n)^080h,w
	fcall	_SIM300DeleteMsg
	bcf	status, 5	;RP0=0, select bank0
	bcf	status, 6	;RP1=0, select bank0
	movwf	(??_SIM300SendMsg+0)+0
	movf	(??_SIM300SendMsg+0)+0,w
	bsf	status, 5	;RP0=1, select bank1
	bcf	status, 6	;RP1=0, select bank1
	movwf	(SIM300SendMsg@len)^080h
	line	419
	
l3153:	
;sim300.c: 419: USARTFlushBuffer();
	fcall	_USARTFlushBuffer
	line	421
	
l3155:	
;sim300.c: 421: return 1;
	movlw	(01h)
	goto	l343
	
l3157:	
	goto	l343
	line	422
	
l3159:	
;sim300.c: 422: }
	goto	l343
	line	423
	
l344:	
	line	425
	
l3161:	
;sim300.c: 423: else
;sim300.c: 424: {
;sim300.c: 425: len = SIM300DeleteMsg(n);
	bsf	status, 5	;RP0=1, select bank1
	bcf	status, 6	;RP1=0, select bank1
	movf	(SIM300SendMsg@n)^080h,w
	fcall	_SIM300DeleteMsg
	bcf	status, 5	;RP0=0, select bank0
	bcf	status, 6	;RP1=0, select bank0
	movwf	(??_SIM300SendMsg+0)+0
	movf	(??_SIM300SendMsg+0)+0,w
	bsf	status, 5	;RP0=1, select bank1
	bcf	status, 6	;RP1=0, select bank1
	movwf	(SIM300SendMsg@len)^080h
	line	426
	
l3163:	
;sim300.c: 426: USARTFlushBuffer();
	fcall	_USARTFlushBuffer
	line	427
	
l3165:	
;sim300.c: 427: return -2;
	movlw	(-2)
	goto	l343
	
l3167:	
	goto	l343
	line	428
	
l345:	
	line	429
	
l343:	
	return
	opt stack 0
GLOBAL	__end_of_SIM300SendMsg
	__end_of_SIM300SendMsg:
	signat	_SIM300SendMsg,12409
	global	_atoi

;; *************** function _atoi *****************
;; Defined at:
;;		line 5 in file "C:\Program Files (x86)\Microchip\xc8\v1.32\sources\common\atoi.c"
;; Parameters:    Size  Location     Type
;;  s               1    wreg     PTR const unsigned char 
;;		 -> sim300_buffer(70), 
;; Auto vars:     Size  Location     Type
;;  s               1   13[BANK0 ] PTR const unsigned char 
;;		 -> sim300_buffer(70), 
;;  a               2   11[BANK0 ] int 
;;  sign            1   10[BANK0 ] unsigned char 
;; Return value:  Size  Location     Type
;;                  2    6[BANK0 ] int 
;; Registers used:
;;		wreg, fsr0l, fsr0h, status,2, status,0, pclath, cstack
;; Tracked objects:
;;		On entry : 0/0
;;		On exit  : 0/0
;;		Unchanged: 0/0
;; Data sizes:     COMMON   BANK0   BANK1   BANK3   BANK2
;;      Params:         0       2       0       0       0
;;      Locals:         0       4       0       0       0
;;      Temps:          0       2       0       0       0
;;      Totals:         0       8       0       0       0
;;Total ram usage:        8 bytes
;; Hardware stack levels used:    1
;; Hardware stack levels required when called:    3
;; This function calls:
;;		___wmul
;;		_isdigit
;; This function is called by:
;;		_SIM300SendMsg
;; This function uses a non-reentrant model
;;
psect	text15,local,class=CODE,delta=2,merge=1
	file	"C:\Program Files (x86)\Microchip\xc8\v1.32\sources\common\atoi.c"
	line	5
global __ptext15
__ptext15:	;psect for function _atoi
psect	text15
	file	"C:\Program Files (x86)\Microchip\xc8\v1.32\sources\common\atoi.c"
	line	5
	global	__size_of_atoi
	__size_of_atoi	equ	__end_of_atoi-_atoi
	
_atoi:	
;incstack = 0
	opt	stack 2
; Regs used in _atoi: [wreg-fsr0h+status,2+status,0+pclath+cstack]
;atoi@s stored from wreg
	bcf	status, 5	;RP0=0, select bank0
	bcf	status, 6	;RP1=0, select bank0
	movwf	(atoi@s)
	line	10
	
l3057:	
	goto	l3061
	
l734:	
	line	11
	
l3059:	
	movlw	(01h)
	movwf	(??_atoi+0)+0
	movf	(??_atoi+0)+0,w
	addwf	(atoi@s),f
	goto	l3061
	
l733:	
	line	10
	
l3061:	
	movf	(atoi@s),w
	movwf	fsr0
	bsf	status, 7	;select IRP bank2
	movf	indf,w
	xorlw	020h
	skipnz
	goto	u2461
	goto	u2460
u2461:
	goto	l3059
u2460:
	
l3063:	
	movf	(atoi@s),w
	movwf	fsr0
	movf	indf,w
	xorlw	09h
	skipnz
	goto	u2471
	goto	u2470
u2471:
	goto	l3059
u2470:
	goto	l3065
	
l735:	
	line	12
	
l3065:	
	clrf	(atoi@a)
	clrf	(atoi@a+1)
	line	13
	clrf	(atoi@sign)
	line	14
	
l3067:	
	movf	(atoi@s),w
	movwf	fsr0
	movf	indf,w
	xorlw	02Dh
	skipz
	goto	u2481
	goto	u2480
u2481:
	goto	l3071
u2480:
	line	15
	
l3069:	
	movlw	(01h)
	movwf	(??_atoi+0)+0
	movf	(??_atoi+0)+0,w
	addwf	(atoi@sign),f
	line	16
	movlw	(01h)
	movwf	(??_atoi+0)+0
	movf	(??_atoi+0)+0,w
	addwf	(atoi@s),f
	line	17
	goto	l3079
	
l736:	
	
l3071:	
	movf	(atoi@s),w
	movwf	fsr0
	movf	indf,w
	xorlw	02Bh
	skipz
	goto	u2491
	goto	u2490
u2491:
	goto	l3079
u2490:
	line	18
	
l3073:	
	movlw	(01h)
	movwf	(??_atoi+0)+0
	movf	(??_atoi+0)+0,w
	addwf	(atoi@s),f
	goto	l3079
	
l738:	
	goto	l3079
	line	19
	
l737:	
	goto	l3079
	
l740:	
	line	20
	
l3075:	
	bcf	status, 5	;RP0=0, select bank0
	bcf	status, 6	;RP1=0, select bank0
	movf	(atoi@a+1),w
	clrf	(___wmul@multiplier+1)
	addwf	(___wmul@multiplier+1)
	movf	(atoi@a),w
	clrf	(___wmul@multiplier)
	addwf	(___wmul@multiplier)

	movlw	low(0Ah)
	movwf	(___wmul@multiplicand)
	movlw	high(0Ah)
	movwf	((___wmul@multiplicand))+1
	fcall	___wmul
	bcf	status, 5	;RP0=0, select bank0
	bcf	status, 6	;RP1=0, select bank0
	movf	(atoi@s),w
	movwf	fsr0
	bsf	status, 7	;select IRP bank2
	movf	indf,w
	addwf	(0+(?___wmul)),w
	movwf	(??_atoi+0)+0
	movf	(1+(?___wmul)),w
	skipnc
	incf	(1+(?___wmul)),w
	movwf	((??_atoi+0)+0)+1
	movf	0+(??_atoi+0)+0,w
	addlw	low(0FFD0h)
	movwf	(atoi@a)
	movf	1+(??_atoi+0)+0,w
	skipnc
	addlw	1
	addlw	high(0FFD0h)
	movwf	1+(atoi@a)
	
l3077:	
	movlw	(01h)
	movwf	(??_atoi+0)+0
	movf	(??_atoi+0)+0,w
	addwf	(atoi@s),f
	goto	l3079
	
l739:	
	line	19
	
l3079:	
	movf	(atoi@s),w
	movwf	fsr0
	movf	indf,w
	fcall	_isdigit
	btfsc	status,0
	goto	u2501
	goto	u2500
u2501:
	goto	l3075
u2500:
	goto	l3081
	
l741:	
	line	21
	
l3081:	
	bcf	status, 5	;RP0=0, select bank0
	bcf	status, 6	;RP1=0, select bank0
	movf	(atoi@sign),w
	skipz
	goto	u2510
	goto	l3087
u2510:
	line	22
	
l3083:	
	comf	(atoi@a),w
	movwf	(??_atoi+0)+0
	comf	(atoi@a+1),w
	movwf	((??_atoi+0)+0+1)
	incf	(??_atoi+0)+0,f
	skipnz
	incf	((??_atoi+0)+0+1),f
	movf	0+(??_atoi+0)+0,w
	movwf	(?_atoi)
	movf	1+(??_atoi+0)+0,w
	movwf	(?_atoi+1)
	goto	l743
	
l3085:	
	goto	l743
	
l742:	
	line	23
	
l3087:	
	movf	(atoi@a+1),w
	clrf	(?_atoi+1)
	addwf	(?_atoi+1)
	movf	(atoi@a),w
	clrf	(?_atoi)
	addwf	(?_atoi)

	goto	l743
	
l3089:	
	line	24
	
l743:	
	return
	opt stack 0
GLOBAL	__end_of_atoi
	__end_of_atoi:
	signat	_atoi,4218
	global	_isdigit

;; *************** function _isdigit *****************
;; Defined at:
;;		line 8 in file "C:\Program Files (x86)\Microchip\xc8\v1.32\sources\common\isdigit.c"
;; Parameters:    Size  Location     Type
;;  c               1    wreg     unsigned char 
;; Auto vars:     Size  Location     Type
;;  c               1    1[BANK0 ] unsigned char 
;; Return value:  Size  Location     Type
;;		None               void
;; Registers used:
;;		wreg, status,2, status,0
;; Tracked objects:
;;		On entry : 0/0
;;		On exit  : 0/0
;;		Unchanged: 0/0
;; Data sizes:     COMMON   BANK0   BANK1   BANK3   BANK2
;;      Params:         0       0       0       0       0
;;      Locals:         0       2       0       0       0
;;      Temps:          0       0       0       0       0
;;      Totals:         0       2       0       0       0
;;Total ram usage:        2 bytes
;; Hardware stack levels used:    1
;; Hardware stack levels required when called:    2
;; This function calls:
;;		Nothing
;; This function is called by:
;;		_atoi
;; This function uses a non-reentrant model
;;
psect	text16,local,class=CODE,delta=2,merge=1
	file	"C:\Program Files (x86)\Microchip\xc8\v1.32\sources\common\isdigit.c"
	line	8
global __ptext16
__ptext16:	;psect for function _isdigit
psect	text16
	file	"C:\Program Files (x86)\Microchip\xc8\v1.32\sources\common\isdigit.c"
	line	8
	global	__size_of_isdigit
	__size_of_isdigit	equ	__end_of_isdigit-_isdigit
	
_isdigit:	
;incstack = 0
	opt	stack 2
; Regs used in _isdigit: [wreg+status,2+status,0]
;isdigit@c stored from wreg
	bcf	status, 5	;RP0=0, select bank0
	bcf	status, 6	;RP1=0, select bank0
	movwf	(isdigit@c)
	line	14
	
l2959:	
	clrf	(_isdigit$742)
	
l2961:	
	movlw	(03Ah)
	subwf	(isdigit@c),w
	skipnc
	goto	u2371
	goto	u2370
u2371:
	goto	l2967
u2370:
	
l2963:	
	movlw	(030h)
	subwf	(isdigit@c),w
	skipc
	goto	u2381
	goto	u2380
u2381:
	goto	l2967
u2380:
	
l2965:	
	clrf	(_isdigit$742)
	incf	(_isdigit$742),f
	goto	l2967
	
l886:	
	
l2967:	
	rrf	(_isdigit$742),w
	
	goto	l887
	
l2969:	
	line	15
	
l887:	
	return
	opt stack 0
GLOBAL	__end_of_isdigit
	__end_of_isdigit:
	signat	_isdigit,4216
	global	_SIM300DeleteMsg

;; *************** function _SIM300DeleteMsg *****************
;; Defined at:
;;		line 227 in file "E:\Study Material\XC8 PROJECTS\Aurangabad\sim300.c"
;; Parameters:    Size  Location     Type
;;  i               1    wreg     unsigned char 
;; Auto vars:     Size  Location     Type
;;  i               1   48[BANK0 ] unsigned char 
;;  cmd            16   32[BANK0 ] unsigned char [16]
;;  len             1   49[BANK0 ] unsigned char 
;; Return value:  Size  Location     Type
;;                  1    wreg      char 
;; Registers used:
;;		wreg, fsr0l, fsr0h, status,2, status,0, btemp+1, pclath, cstack
;; Tracked objects:
;;		On entry : 0/0
;;		On exit  : 0/0
;;		Unchanged: 0/0
;; Data sizes:     COMMON   BANK0   BANK1   BANK3   BANK2
;;      Params:         0       0       0       0       0
;;      Locals:         0      18       0       0       0
;;      Temps:          0       2       0       0       0
;;      Totals:         0      20       0       0       0
;;Total ram usage:       20 bytes
;; Hardware stack levels used:    1
;; Hardware stack levels required when called:    5
;; This function calls:
;;		_SIM300Cmd
;;		_SIM300WaitForResponse
;;		_USARTFlushBuffer
;;		_sprintf
;;		_strnicmp
;; This function is called by:
;;		_SIM300WaitForValidMsg
;;		_SIM300SendMsg
;; This function uses a non-reentrant model
;;
psect	text17,local,class=CODE,delta=2,merge=1
	file	"E:\Study Material\XC8 PROJECTS\Aurangabad\sim300.c"
	line	227
global __ptext17
__ptext17:	;psect for function _SIM300DeleteMsg
psect	text17
	file	"E:\Study Material\XC8 PROJECTS\Aurangabad\sim300.c"
	line	227
	global	__size_of_SIM300DeleteMsg
	__size_of_SIM300DeleteMsg	equ	__end_of_SIM300DeleteMsg-_SIM300DeleteMsg
	
_SIM300DeleteMsg:	
;incstack = 0
	opt	stack 0
; Regs used in _SIM300DeleteMsg: [wreg-fsr0h+status,2+status,0+btemp+1+pclath+cstack]
;SIM300DeleteMsg@i stored from wreg
	bcf	status, 5	;RP0=0, select bank0
	bcf	status, 6	;RP1=0, select bank0
	movwf	(SIM300DeleteMsg@i)
	line	229
	
l2971:	
;sim300.c: 229: USARTFlushBuffer();
	fcall	_USARTFlushBuffer
	line	235
	
l2973:	
;sim300.c: 232: char cmd[16];
;sim300.c: 235: sprintf(cmd,"AT+CMGD=%d",i);
	movlw	low((STR_40)|8000h)
	bcf	status, 5	;RP0=0, select bank0
	bcf	status, 6	;RP1=0, select bank0
	movwf	(sprintf@f)
	movlw	high((STR_40)|8000h)
	movwf	((sprintf@f))+1
	movf	(SIM300DeleteMsg@i),w
	movwf	(??_SIM300DeleteMsg+0)+0
	clrf	(??_SIM300DeleteMsg+0)+0+1
	movf	0+(??_SIM300DeleteMsg+0)+0,w
	movwf	0+(?_sprintf)+02h
	movf	1+(??_SIM300DeleteMsg+0)+0,w
	movwf	1+(?_sprintf)+02h
	movlw	(SIM300DeleteMsg@cmd)&0ffh
	fcall	_sprintf
	line	238
	
l2975:	
;sim300.c: 238: SIM300Cmd(cmd);
	movlw	(SIM300DeleteMsg@cmd&0ffh)
	bcf	status, 5	;RP0=0, select bank0
	bcf	status, 6	;RP1=0, select bank0
	movwf	(SIM300Cmd@cmd)
	movlw	(0x0)
	movwf	(SIM300Cmd@cmd+1)
	fcall	_SIM300Cmd
	line	240
;sim300.c: 240: uint8_t len=SIM300WaitForResponse(1000);
	movlw	low(03E8h)
	bcf	status, 5	;RP0=0, select bank0
	bcf	status, 6	;RP1=0, select bank0
	movwf	(SIM300WaitForResponse@timeout)
	movlw	high(03E8h)
	movwf	((SIM300WaitForResponse@timeout))+1
	fcall	_SIM300WaitForResponse
	bcf	status, 5	;RP0=0, select bank0
	bcf	status, 6	;RP1=0, select bank0
	movwf	(??_SIM300DeleteMsg+0)+0
	movf	(??_SIM300DeleteMsg+0)+0,w
	movwf	(SIM300DeleteMsg@len)
	line	242
	
l2977:	
;sim300.c: 242: if(len==0)
	movf	(SIM300DeleteMsg@len),f
	skipz
	goto	u2391
	goto	u2390
u2391:
	goto	l2983
u2390:
	line	243
	
l2979:	
;sim300.c: 243: return -3;
	movlw	(-3)
	goto	l315
	
l2981:	
	goto	l315
	
l314:	
	line	245
	
l2983:	
;sim300.c: 245: sim300_buffer[len-1]='\0';
	movf	(SIM300DeleteMsg@len),w
	addlw	0FFh
	addlw	_sim300_buffer&0ffh
	movwf	fsr0
	bsf	status, 7	;select IRP bank3
	clrf	indf
	line	248
	
l2985:	
;sim300.c: 248: if(strnicmp(sim300_buffer+2,"OK",2)==0)
	movlw	low((STR_41)|8000h)
	movwf	(strnicmp@s2)
	movlw	high((STR_41)|8000h)
	movwf	((strnicmp@s2))+1
	movlw	low(02h)
	movwf	(strnicmp@len)
	movlw	high(02h)
	movwf	((strnicmp@len))+1
	movlw	(_sim300_buffer+02h)&0ffh
	fcall	_strnicmp
	bcf	status, 5	;RP0=0, select bank0
	bcf	status, 6	;RP1=0, select bank0
	movf	((1+(?_strnicmp))),w
	iorwf	((0+(?_strnicmp))),w
	skipz
	goto	u2401
	goto	u2400
u2401:
	goto	l2995
u2400:
	line	250
	
l2987:	
;sim300.c: 249: {
;sim300.c: 250: USARTFlushBuffer();
	fcall	_USARTFlushBuffer
	line	251
	
l2989:	
;sim300.c: 251: return 1;
	movlw	(01h)
	goto	l315
	
l2991:	
	goto	l315
	line	252
	
l2993:	
;sim300.c: 252: }
	goto	l315
	line	253
	
l316:	
	line	255
	
l2995:	
;sim300.c: 253: else
;sim300.c: 254: {
;sim300.c: 255: USARTFlushBuffer();
	fcall	_USARTFlushBuffer
	line	256
	
l2997:	
;sim300.c: 256: return -2;
	movlw	(-2)
	goto	l315
	
l2999:	
	goto	l315
	line	257
	
l317:	
	line	258
	
l315:	
	return
	opt stack 0
GLOBAL	__end_of_SIM300DeleteMsg
	__end_of_SIM300DeleteMsg:
	signat	_SIM300DeleteMsg,4217
	global	_sprintf

;; *************** function _sprintf *****************
;; Defined at:
;;		line 492 in file "C:\Program Files (x86)\Microchip\xc8\v1.32\sources\common\doprnt.c"
;; Parameters:    Size  Location     Type
;;  sp              1    wreg     PTR unsigned char 
;;		 -> SIM300SendMsg@cmd(25), SIM300ReadValidMsg@cmd(16), SIM300DeleteMsg@cmd(16), 
;;  f               2   14[BANK0 ] PTR const unsigned char 
;;		 -> STR_45(12), STR_43(11), STR_40(11), 
;; Auto vars:     Size  Location     Type
;;  sp              1   24[BANK0 ] PTR unsigned char 
;;		 -> SIM300SendMsg@cmd(25), SIM300ReadValidMsg@cmd(16), SIM300DeleteMsg@cmd(16), 
;;  _val            4   25[BANK0 ] struct .
;;  c               1   29[BANK0 ] char 
;;  ap              1   23[BANK0 ] PTR void [1]
;;		 -> ?_sprintf(2), 
;;  prec            1   22[BANK0 ] char 
;;  flag            1   21[BANK0 ] unsigned char 
;; Return value:  Size  Location     Type
;;                  2   14[BANK0 ] int 
;; Registers used:
;;		wreg, fsr0l, fsr0h, status,2, status,0, btemp+1, pclath, cstack
;; Tracked objects:
;;		On entry : 0/0
;;		On exit  : 0/0
;;		Unchanged: 0/0
;; Data sizes:     COMMON   BANK0   BANK1   BANK3   BANK2
;;      Params:         0       4       0       0       0
;;      Locals:         0       9       0       0       0
;;      Temps:          0       3       0       0       0
;;      Totals:         0      16       0       0       0
;;Total ram usage:       16 bytes
;; Hardware stack levels used:    1
;; Hardware stack levels required when called:    3
;; This function calls:
;;		___lwdiv
;;		___lwmod
;; This function is called by:
;;		_SIM300DeleteMsg
;;		_SIM300ReadValidMsg
;;		_SIM300SendMsg
;; This function uses a non-reentrant model
;;
psect	text18,local,class=CODE,delta=2,merge=1
	file	"C:\Program Files (x86)\Microchip\xc8\v1.32\sources\common\doprnt.c"
	line	492
global __ptext18
__ptext18:	;psect for function _sprintf
psect	text18
	file	"C:\Program Files (x86)\Microchip\xc8\v1.32\sources\common\doprnt.c"
	line	492
	global	__size_of_sprintf
	__size_of_sprintf	equ	__end_of_sprintf-_sprintf
	
_sprintf:	
;incstack = 0
	opt	stack 1
; Regs used in _sprintf: [wreg-fsr0h+status,2+status,0+btemp+1+pclath+cstack]
;sprintf@sp stored from wreg
	bcf	status, 5	;RP0=0, select bank0
	bcf	status, 6	;RP1=0, select bank0
	movwf	(sprintf@sp)
	line	542
	
l2867:	
;doprnt.c: 494: va_list ap;
;doprnt.c: 499: signed char c;
;doprnt.c: 506: signed char prec;
;doprnt.c: 508: unsigned char flag;
;doprnt.c: 527: union {
;doprnt.c: 528: unsigned int _val;
;doprnt.c: 529: struct {
;doprnt.c: 530: const char * _cp;
;doprnt.c: 531: unsigned _len;
;doprnt.c: 532: } _str;
;doprnt.c: 533: } _val;
;doprnt.c: 542: *ap = __va_start();
	movlw	(?_sprintf+02h)&0ffh
	movwf	(??_sprintf+0)+0
	movf	(??_sprintf+0)+0,w
	movwf	(sprintf@ap)
	line	545
;doprnt.c: 545: while(c = *f++) {
	goto	l2935
	
l467:	
	line	547
	
l2869:	
;doprnt.c: 547: if(c != '%')
	movf	(sprintf@c),w
	xorlw	025h
	skipnz
	goto	u2241
	goto	u2240
u2241:
	goto	l2875
u2240:
	line	550
	
l2871:	
;doprnt.c: 549: {
;doprnt.c: 550: ((*sp++ = (c)));
	movf	(sprintf@c),w
	movwf	(??_sprintf+0)+0
	movf	(sprintf@sp),w
	movwf	fsr0
	movf	(??_sprintf+0)+0,w
	bcf	status, 7	;select IRP bank0
	movwf	indf
	
l2873:	
	movlw	(01h)
	movwf	(??_sprintf+0)+0
	movf	(??_sprintf+0)+0,w
	addwf	(sprintf@sp),f
	line	551
;doprnt.c: 551: continue;
	goto	l2935
	line	552
	
l468:	
	line	557
	
l2875:	
;doprnt.c: 552: }
;doprnt.c: 557: flag = 0;
	clrf	(sprintf@flag)
	line	644
;doprnt.c: 644: switch(c = *f++) {
	goto	l2895
	line	646
;doprnt.c: 646: case 0:
	
l470:	
	line	647
;doprnt.c: 647: goto alldone;
	goto	l2937
	line	706
;doprnt.c: 706: case 'd':
	
l472:	
	goto	l2897
	line	707
	
l473:	
	line	708
;doprnt.c: 707: case 'i':
;doprnt.c: 708: break;
	goto	l2897
	line	737
;doprnt.c: 737: case 's':
	
l475:	
	line	743
	
l2877:	
;doprnt.c: 743: _val._str._cp = (*(const char * *)__va_arg((*(const char * **)ap), (const char *)0));
	movf	(sprintf@ap),w
	movwf	fsr0
	bcf	status, 7	;select IRP bank0
	movf	indf,w
	movwf	(sprintf@_val)
	incf	fsr0,f
	movf	indf,w
	movwf	(sprintf@_val+1)
	
l2879:	
	movlw	(02h)
	movwf	(??_sprintf+0)+0
	movf	(??_sprintf+0)+0,w
	addwf	(sprintf@ap),f
	line	749
	
l2881:	
;doprnt.c: 749: if(!_val._str._cp)
	movf	((sprintf@_val+1)),w
	iorwf	((sprintf@_val)),w
	skipz
	goto	u2251
	goto	u2250
u2251:
	goto	l2891
u2250:
	line	750
	
l2883:	
;doprnt.c: 750: _val._str._cp = "(null)";
	movlw	low((STR_47)|8000h)
	movwf	(sprintf@_val)
	movlw	high((STR_47)|8000h)
	movwf	((sprintf@_val))+1
	goto	l2891
	
l476:	
	line	786
;doprnt.c: 786: while(*_val._str._cp)
	goto	l2891
	
l478:	
	line	787
	
l2885:	
;doprnt.c: 787: ((*sp++ = (*_val._str._cp++)));
	movf	(sprintf@_val+1),w
	movwf	btemp+1
	movf	(sprintf@_val),w
	movwf	fsr0
	fcall	stringtab
	movwf	(??_sprintf+0)+0
	movf	(sprintf@sp),w
	movwf	fsr0
	movf	(??_sprintf+0)+0,w
	bcf	status, 7	;select IRP bank0
	movwf	indf
	
l2887:	
	movlw	01h
	addwf	(sprintf@_val),f
	skipnc
	incf	(sprintf@_val+1),f
	
l2889:	
	movlw	(01h)
	movwf	(??_sprintf+0)+0
	movf	(??_sprintf+0)+0,w
	addwf	(sprintf@sp),f
	goto	l2891
	
l477:	
	line	786
	
l2891:	
	movf	(sprintf@_val+1),w
	movwf	btemp+1
	movf	(sprintf@_val),w
	movwf	fsr0
	fcall	stringtab
	iorlw	0
	skipz
	goto	u2261
	goto	u2260
u2261:
	goto	l2885
u2260:
	goto	l2935
	
l479:	
	line	788
;doprnt.c: 788: continue;
	goto	l2935
	line	811
;doprnt.c: 811: default:
	
l480:	
	line	822
;doprnt.c: 822: continue;
	goto	l2935
	line	831
	
l2893:	
;doprnt.c: 831: }
	goto	l2897
	line	644
	
l469:	
	
l2895:	
	movf	(sprintf@f+1),w
	movwf	(??_sprintf+0)+0+1
	movf	(sprintf@f),w
	movwf	(??_sprintf+0)+0
	incf	(sprintf@f),f
	skipnz
	incf	(sprintf@f+1),f
	movf	1+(??_sprintf+0)+0,w
	movwf	btemp+1
	movf	0+(??_sprintf+0)+0,w
	movwf	fsr0
	fcall	stringtab
	movwf	(sprintf@c)
	; Switch size 1, requested type "space"
; Number of cases is 4, Range of values is 0 to 115
; switch strategies available:
; Name         Instructions Cycles
; simple_byte           13     7 (average)
; jumptable            260     6 (fixed)
;	Chosen strategy is simple_byte

	opt asmopt_off
	xorlw	0^0	; case 0
	skipnz
	goto	l2937
	xorlw	100^0	; case 100
	skipnz
	goto	l2897
	xorlw	105^100	; case 105
	skipnz
	goto	l2897
	xorlw	115^105	; case 115
	skipnz
	goto	l2877
	goto	l2935
	opt asmopt_on

	line	831
	
l474:	
	line	1268
	
l2897:	
;doprnt.c: 1262: {
;doprnt.c: 1268: _val._val = (int)(*(int *)__va_arg((*(int **)ap), (int)0));
	movf	(sprintf@ap),w
	movwf	fsr0
	bcf	status, 7	;select IRP bank0
	movf	indf,w
	movwf	(sprintf@_val)
	incf	fsr0,f
	movf	indf,w
	movwf	(sprintf@_val+1)
	
l2899:	
	movlw	(02h)
	movwf	(??_sprintf+0)+0
	movf	(??_sprintf+0)+0,w
	addwf	(sprintf@ap),f
	line	1270
	
l2901:	
;doprnt.c: 1270: if((int)_val._val < 0) {
	btfss	(sprintf@_val+1),7
	goto	u2271
	goto	u2270
u2271:
	goto	l2907
u2270:
	line	1271
	
l2903:	
;doprnt.c: 1271: flag |= 0x03;
	movlw	(03h)
	movwf	(??_sprintf+0)+0
	movf	(??_sprintf+0)+0,w
	iorwf	(sprintf@flag),f
	line	1272
	
l2905:	
;doprnt.c: 1272: _val._val = -_val._val;
	comf	(sprintf@_val),f
	comf	(sprintf@_val+1),f
	incf	(sprintf@_val),f
	skipnz
	incf	(sprintf@_val+1),f
	goto	l2907
	line	1273
	
l481:	
	line	1314
	
l2907:	
;doprnt.c: 1273: }
;doprnt.c: 1275: }
;doprnt.c: 1314: for(c = 1 ; c != sizeof dpowers/sizeof dpowers[0] ; c++)
	clrf	(sprintf@c)
	incf	(sprintf@c),f
	movf	(sprintf@c),w
	xorlw	05h
	skipz
	goto	u2281
	goto	u2280
u2281:
	goto	l2911
u2280:
	goto	l2919
	
l2909:	
	goto	l2919
	line	1315
	
l482:	
	
l2911:	
;doprnt.c: 1315: if(_val._val < dpowers[c])
	movf	(sprintf@c),w
	movwf	(??_sprintf+0)+0
	addwf	(??_sprintf+0)+0,w
	addlw	low((_dpowers)|8000h)
	movwf	fsr0
	movlw	high((_dpowers)|8000h)
	skipnc
	addlw	1
	movwf	btemp+1
	fcall	stringtab
	movwf	(??_sprintf+1)+0
	fcall	stringtab
	movwf	(??_sprintf+1)+0+1
	movf	1+(??_sprintf+1)+0,w
	subwf	(sprintf@_val+1),w
	skipz
	goto	u2295
	movf	0+(??_sprintf+1)+0,w
	subwf	(sprintf@_val),w
u2295:
	skipnc
	goto	u2291
	goto	u2290
u2291:
	goto	l2915
u2290:
	goto	l2919
	line	1316
	
l2913:	
;doprnt.c: 1316: break;
	goto	l2919
	
l484:	
	line	1314
	
l2915:	
	movlw	(01h)
	movwf	(??_sprintf+0)+0
	movf	(??_sprintf+0)+0,w
	addwf	(sprintf@c),f
	
l2917:	
	movf	(sprintf@c),w
	xorlw	05h
	skipz
	goto	u2301
	goto	u2300
u2301:
	goto	l2911
u2300:
	goto	l2919
	
l483:	
	line	1447
	
l2919:	
;doprnt.c: 1431: {
;doprnt.c: 1447: if(flag & 0x03)
	movf	(sprintf@flag),w
	andlw	03h
	btfsc	status,2
	goto	u2311
	goto	u2310
u2311:
	goto	l2925
u2310:
	line	1448
	
l2921:	
;doprnt.c: 1448: ((*sp++ = ('-')));
	movlw	(02Dh)
	movwf	(??_sprintf+0)+0
	movf	(sprintf@sp),w
	movwf	fsr0
	movf	(??_sprintf+0)+0,w
	bcf	status, 7	;select IRP bank0
	movwf	indf
	
l2923:	
	movlw	(01h)
	movwf	(??_sprintf+0)+0
	movf	(??_sprintf+0)+0,w
	addwf	(sprintf@sp),f
	goto	l2925
	
l485:	
	line	1481
	
l2925:	
;doprnt.c: 1478: }
;doprnt.c: 1481: prec = c;
	movf	(sprintf@c),w
	movwf	(??_sprintf+0)+0
	movf	(??_sprintf+0)+0,w
	movwf	(sprintf@prec)
	line	1483
;doprnt.c: 1483: while(prec--) {
	goto	l2933
	
l487:	
	line	1498
	
l2927:	
;doprnt.c: 1487: {
;doprnt.c: 1498: c = (_val._val / dpowers[prec]) % 10 + '0';
	movlw	low(0Ah)
	movwf	(___lwmod@divisor)
	movlw	high(0Ah)
	movwf	((___lwmod@divisor))+1
	movf	(sprintf@prec),w
	movwf	(??_sprintf+0)+0
	addwf	(??_sprintf+0)+0,w
	addlw	low((_dpowers)|8000h)
	movwf	fsr0
	movlw	high((_dpowers)|8000h)
	skipnc
	addlw	1
	movwf	btemp+1
	fcall	stringtab
	movwf	(___lwdiv@divisor)
	fcall	stringtab
	movwf	(___lwdiv@divisor+1)
	movf	(sprintf@_val+1),w
	clrf	(___lwdiv@dividend+1)
	addwf	(___lwdiv@dividend+1)
	movf	(sprintf@_val),w
	clrf	(___lwdiv@dividend)
	addwf	(___lwdiv@dividend)

	fcall	___lwdiv
	bcf	status, 5	;RP0=0, select bank0
	bcf	status, 6	;RP1=0, select bank0
	movf	(1+(?___lwdiv)),w
	clrf	(___lwmod@dividend+1)
	addwf	(___lwmod@dividend+1)
	movf	(0+(?___lwdiv)),w
	clrf	(___lwmod@dividend)
	addwf	(___lwmod@dividend)

	fcall	___lwmod
	bcf	status, 5	;RP0=0, select bank0
	bcf	status, 6	;RP1=0, select bank0
	movf	(0+(?___lwmod)),w
	addlw	030h
	movwf	(??_sprintf+1)+0
	movf	(??_sprintf+1)+0,w
	movwf	(sprintf@c)
	line	1533
	
l2929:	
;doprnt.c: 1532: }
;doprnt.c: 1533: ((*sp++ = (c)));
	movf	(sprintf@c),w
	movwf	(??_sprintf+0)+0
	movf	(sprintf@sp),w
	movwf	fsr0
	movf	(??_sprintf+0)+0,w
	bcf	status, 7	;select IRP bank0
	movwf	indf
	
l2931:	
	movlw	(01h)
	movwf	(??_sprintf+0)+0
	movf	(??_sprintf+0)+0,w
	addwf	(sprintf@sp),f
	goto	l2933
	line	1534
	
l486:	
	line	1483
	
l2933:	
	movlw	(-1)
	movwf	(??_sprintf+0)+0
	movf	(??_sprintf+0)+0,w
	addwf	(sprintf@prec),f
	movf	((sprintf@prec)),w
	xorlw	-1
	skipz
	goto	u2321
	goto	u2320
u2321:
	goto	l2927
u2320:
	goto	l2935
	
l488:	
	goto	l2935
	line	1542
	
l466:	
	line	545
	
l2935:	
	movf	(sprintf@f+1),w
	movwf	(??_sprintf+0)+0+1
	movf	(sprintf@f),w
	movwf	(??_sprintf+0)+0
	incf	(sprintf@f),f
	skipnz
	incf	(sprintf@f+1),f
	movf	1+(??_sprintf+0)+0,w
	movwf	btemp+1
	movf	0+(??_sprintf+0)+0,w
	movwf	fsr0
	fcall	stringtab
	movwf	(??_sprintf+2)+0
	movf	(??_sprintf+2)+0,w
	movwf	(sprintf@c)
	movf	((sprintf@c)),f
	skipz
	goto	u2331
	goto	u2330
u2331:
	goto	l2869
u2330:
	goto	l2937
	
l489:	
	goto	l2937
	line	1544
;doprnt.c: 1534: }
;doprnt.c: 1542: }
;doprnt.c: 1544: alldone:
	
l471:	
	line	1547
	
l2937:	
;doprnt.c: 1547: *sp = 0;
	movf	(sprintf@sp),w
	movwf	fsr0
	bcf	status, 7	;select IRP bank0
	clrf	indf
	goto	l490
	line	1549
	
l2939:	
	line	1550
;doprnt.c: 1549: return 0;
;	Return value of _sprintf is never used
	
l490:	
	return
	opt stack 0
GLOBAL	__end_of_sprintf
	__end_of_sprintf:
	signat	_sprintf,4698
	global	___lwmod

;; *************** function ___lwmod *****************
;; Defined at:
;;		line 6 in file "C:\Program Files (x86)\Microchip\xc8\v1.32\sources\common\lwmod.c"
;; Parameters:    Size  Location     Type
;;  divisor         2    8[BANK0 ] unsigned int 
;;  dividend        2   10[BANK0 ] unsigned int 
;; Auto vars:     Size  Location     Type
;;  counter         1   13[BANK0 ] unsigned char 
;; Return value:  Size  Location     Type
;;                  2    8[BANK0 ] unsigned int 
;; Registers used:
;;		wreg, status,2, status,0
;; Tracked objects:
;;		On entry : 0/0
;;		On exit  : 0/0
;;		Unchanged: 0/0
;; Data sizes:     COMMON   BANK0   BANK1   BANK3   BANK2
;;      Params:         0       4       0       0       0
;;      Locals:         0       1       0       0       0
;;      Temps:          0       1       0       0       0
;;      Totals:         0       6       0       0       0
;;Total ram usage:        6 bytes
;; Hardware stack levels used:    1
;; Hardware stack levels required when called:    2
;; This function calls:
;;		Nothing
;; This function is called by:
;;		_sprintf
;; This function uses a non-reentrant model
;;
psect	text19,local,class=CODE,delta=2,merge=1
	file	"C:\Program Files (x86)\Microchip\xc8\v1.32\sources\common\lwmod.c"
	line	6
global __ptext19
__ptext19:	;psect for function ___lwmod
psect	text19
	file	"C:\Program Files (x86)\Microchip\xc8\v1.32\sources\common\lwmod.c"
	line	6
	global	__size_of___lwmod
	__size_of___lwmod	equ	__end_of___lwmod-___lwmod
	
___lwmod:	
;incstack = 0
	opt	stack 1
; Regs used in ___lwmod: [wreg+status,2+status,0]
	line	13
	
l2691:	
	bcf	status, 5	;RP0=0, select bank0
	bcf	status, 6	;RP1=0, select bank0
	movf	(___lwmod@divisor+1),w
	iorwf	(___lwmod@divisor),w
	skipnz
	goto	u1961
	goto	u1960
u1961:
	goto	l2709
u1960:
	line	14
	
l2693:	
	clrf	(___lwmod@counter)
	incf	(___lwmod@counter),f
	line	15
	goto	l2699
	
l976:	
	line	16
	
l2695:	
	movlw	01h
	
u1975:
	clrc
	rlf	(___lwmod@divisor),f
	rlf	(___lwmod@divisor+1),f
	addlw	-1
	skipz
	goto	u1975
	line	17
	
l2697:	
	movlw	(01h)
	movwf	(??___lwmod+0)+0
	movf	(??___lwmod+0)+0,w
	addwf	(___lwmod@counter),f
	goto	l2699
	line	18
	
l975:	
	line	15
	
l2699:	
	btfss	(___lwmod@divisor+1),(15)&7
	goto	u1981
	goto	u1980
u1981:
	goto	l2695
u1980:
	goto	l2701
	
l977:	
	goto	l2701
	line	19
	
l978:	
	line	20
	
l2701:	
	movf	(___lwmod@divisor+1),w
	subwf	(___lwmod@dividend+1),w
	skipz
	goto	u1995
	movf	(___lwmod@divisor),w
	subwf	(___lwmod@dividend),w
u1995:
	skipc
	goto	u1991
	goto	u1990
u1991:
	goto	l2705
u1990:
	line	21
	
l2703:	
	movf	(___lwmod@divisor),w
	subwf	(___lwmod@dividend),f
	movf	(___lwmod@divisor+1),w
	skipc
	decf	(___lwmod@dividend+1),f
	subwf	(___lwmod@dividend+1),f
	goto	l2705
	
l979:	
	line	22
	
l2705:	
	movlw	01h
	
u2005:
	clrc
	rrf	(___lwmod@divisor+1),f
	rrf	(___lwmod@divisor),f
	addlw	-1
	skipz
	goto	u2005
	line	23
	
l2707:	
	movlw	low(01h)
	subwf	(___lwmod@counter),f
	btfss	status,2
	goto	u2011
	goto	u2010
u2011:
	goto	l2701
u2010:
	goto	l2709
	
l980:	
	goto	l2709
	line	24
	
l974:	
	line	25
	
l2709:	
	movf	(___lwmod@dividend+1),w
	clrf	(?___lwmod+1)
	addwf	(?___lwmod+1)
	movf	(___lwmod@dividend),w
	clrf	(?___lwmod)
	addwf	(?___lwmod)

	goto	l981
	
l2711:	
	line	26
	
l981:	
	return
	opt stack 0
GLOBAL	__end_of___lwmod
	__end_of___lwmod:
	signat	___lwmod,8314
	global	___lwdiv

;; *************** function ___lwdiv *****************
;; Defined at:
;;		line 6 in file "C:\Program Files (x86)\Microchip\xc8\v1.32\sources\common\lwdiv.c"
;; Parameters:    Size  Location     Type
;;  divisor         2    0[BANK0 ] unsigned int 
;;  dividend        2    2[BANK0 ] unsigned int 
;; Auto vars:     Size  Location     Type
;;  quotient        2    5[BANK0 ] unsigned int 
;;  counter         1    7[BANK0 ] unsigned char 
;; Return value:  Size  Location     Type
;;                  2    0[BANK0 ] unsigned int 
;; Registers used:
;;		wreg, status,2, status,0
;; Tracked objects:
;;		On entry : 0/0
;;		On exit  : 0/0
;;		Unchanged: 0/0
;; Data sizes:     COMMON   BANK0   BANK1   BANK3   BANK2
;;      Params:         0       4       0       0       0
;;      Locals:         0       3       0       0       0
;;      Temps:          0       1       0       0       0
;;      Totals:         0       8       0       0       0
;;Total ram usage:        8 bytes
;; Hardware stack levels used:    1
;; Hardware stack levels required when called:    2
;; This function calls:
;;		Nothing
;; This function is called by:
;;		_sprintf
;; This function uses a non-reentrant model
;;
psect	text20,local,class=CODE,delta=2,merge=1
	file	"C:\Program Files (x86)\Microchip\xc8\v1.32\sources\common\lwdiv.c"
	line	6
global __ptext20
__ptext20:	;psect for function ___lwdiv
psect	text20
	file	"C:\Program Files (x86)\Microchip\xc8\v1.32\sources\common\lwdiv.c"
	line	6
	global	__size_of___lwdiv
	__size_of___lwdiv	equ	__end_of___lwdiv-___lwdiv
	
___lwdiv:	
;incstack = 0
	opt	stack 1
; Regs used in ___lwdiv: [wreg+status,2+status,0]
	line	14
	
l2665:	
	bcf	status, 5	;RP0=0, select bank0
	bcf	status, 6	;RP1=0, select bank0
	clrf	(___lwdiv@quotient)
	clrf	(___lwdiv@quotient+1)
	line	15
	
l2667:	
	movf	(___lwdiv@divisor+1),w
	iorwf	(___lwdiv@divisor),w
	skipnz
	goto	u1891
	goto	u1890
u1891:
	goto	l2687
u1890:
	line	16
	
l2669:	
	clrf	(___lwdiv@counter)
	incf	(___lwdiv@counter),f
	line	17
	goto	l2675
	
l966:	
	line	18
	
l2671:	
	movlw	01h
	
u1905:
	clrc
	rlf	(___lwdiv@divisor),f
	rlf	(___lwdiv@divisor+1),f
	addlw	-1
	skipz
	goto	u1905
	line	19
	
l2673:	
	movlw	(01h)
	movwf	(??___lwdiv+0)+0
	movf	(??___lwdiv+0)+0,w
	addwf	(___lwdiv@counter),f
	goto	l2675
	line	20
	
l965:	
	line	17
	
l2675:	
	btfss	(___lwdiv@divisor+1),(15)&7
	goto	u1911
	goto	u1910
u1911:
	goto	l2671
u1910:
	goto	l2677
	
l967:	
	goto	l2677
	line	21
	
l968:	
	line	22
	
l2677:	
	movlw	01h
	
u1925:
	clrc
	rlf	(___lwdiv@quotient),f
	rlf	(___lwdiv@quotient+1),f
	addlw	-1
	skipz
	goto	u1925
	line	23
	movf	(___lwdiv@divisor+1),w
	subwf	(___lwdiv@dividend+1),w
	skipz
	goto	u1935
	movf	(___lwdiv@divisor),w
	subwf	(___lwdiv@dividend),w
u1935:
	skipc
	goto	u1931
	goto	u1930
u1931:
	goto	l2683
u1930:
	line	24
	
l2679:	
	movf	(___lwdiv@divisor),w
	subwf	(___lwdiv@dividend),f
	movf	(___lwdiv@divisor+1),w
	skipc
	decf	(___lwdiv@dividend+1),f
	subwf	(___lwdiv@dividend+1),f
	line	25
	
l2681:	
	bsf	(___lwdiv@quotient)+(0/8),(0)&7
	goto	l2683
	line	26
	
l969:	
	line	27
	
l2683:	
	movlw	01h
	
u1945:
	clrc
	rrf	(___lwdiv@divisor+1),f
	rrf	(___lwdiv@divisor),f
	addlw	-1
	skipz
	goto	u1945
	line	28
	
l2685:	
	movlw	low(01h)
	subwf	(___lwdiv@counter),f
	btfss	status,2
	goto	u1951
	goto	u1950
u1951:
	goto	l2677
u1950:
	goto	l2687
	
l970:	
	goto	l2687
	line	29
	
l964:	
	line	30
	
l2687:	
	movf	(___lwdiv@quotient+1),w
	clrf	(?___lwdiv+1)
	addwf	(?___lwdiv+1)
	movf	(___lwdiv@quotient),w
	clrf	(?___lwdiv)
	addwf	(?___lwdiv)

	goto	l971
	
l2689:	
	line	31
	
l971:	
	return
	opt stack 0
GLOBAL	__end_of___lwdiv
	__end_of___lwdiv:
	signat	___lwdiv,8314
	global	_SIM300WaitForResponse

;; *************** function _SIM300WaitForResponse *****************
;; Defined at:
;;		line 154 in file "E:\Study Material\XC8 PROJECTS\Aurangabad\sim300.c"
;; Parameters:    Size  Location     Type
;;  timeout         2    2[BANK0 ] unsigned int 
;; Auto vars:     Size  Location     Type
;;  n               2    5[BANK0 ] unsigned int 
;;  i               1    7[BANK0 ] unsigned char 
;; Return value:  Size  Location     Type
;;                  1    wreg      char 
;; Registers used:
;;		wreg, fsr0l, fsr0h, status,2, status,0, pclath, cstack
;; Tracked objects:
;;		On entry : 0/0
;;		On exit  : 0/0
;;		Unchanged: 0/0
;; Data sizes:     COMMON   BANK0   BANK1   BANK3   BANK2
;;      Params:         0       2       0       0       0
;;      Locals:         0       3       0       0       0
;;      Temps:          0       1       0       0       0
;;      Totals:         0       6       0       0       0
;;Total ram usage:        6 bytes
;; Hardware stack levels used:    1
;; Hardware stack levels required when called:    4
;; This function calls:
;;		_USARTDataAvailable
;;		_USARTFlushBuffer
;;		_USARTReadData
;; This function is called by:
;;		_SIM300DeleteMsg
;;		_SIM300ReadValidMsg
;;		_SIM300SendMsg
;; This function uses a non-reentrant model
;;
psect	text21,local,class=CODE,delta=2,merge=1
	file	"E:\Study Material\XC8 PROJECTS\Aurangabad\sim300.c"
	line	154
global __ptext21
__ptext21:	;psect for function _SIM300WaitForResponse
psect	text21
	file	"E:\Study Material\XC8 PROJECTS\Aurangabad\sim300.c"
	line	154
	global	__size_of_SIM300WaitForResponse
	__size_of_SIM300WaitForResponse	equ	__end_of_SIM300WaitForResponse-_SIM300WaitForResponse
	
_SIM300WaitForResponse:	
;incstack = 0
	opt	stack 0
; Regs used in _SIM300WaitForResponse: [wreg-fsr0h+status,2+status,0+pclath+cstack]
	line	156
	
l2835:	
;sim300.c: 156: uint8_t i=0;
	bcf	status, 5	;RP0=0, select bank0
	bcf	status, 6	;RP1=0, select bank0
	clrf	(SIM300WaitForResponse@i)
	line	157
;sim300.c: 157: uint16_t n=0;
	clrf	(SIM300WaitForResponse@n)
	clrf	(SIM300WaitForResponse@n+1)
	goto	l2839
	line	159
;sim300.c: 159: while(1)
	
l284:	
	line	162
;sim300.c: 160: {
;sim300.c: 162: while (USARTDataAvailable()==0 && n<timeout)
	goto	l2839
	
l286:	
	line	164
	
l2837:	
;sim300.c: 163: {
;sim300.c: 164: n++;
	movlw	low(01h)
	addwf	(SIM300WaitForResponse@n),f
	skipnc
	incf	(SIM300WaitForResponse@n+1),f
	movlw	high(01h)
	addwf	(SIM300WaitForResponse@n+1),f
	line	165
;sim300.c: 165: _delay((unsigned long)((1)*(4000000/4000.0)));
	opt asmopt_off
movlw	249
movwf	(??_SIM300WaitForResponse+0)+0,f
u4077:
	nop
decfsz	(??_SIM300WaitForResponse+0)+0,f
	goto	u4077
	nop2	;nop
	nop
opt asmopt_on

	goto	l2839
	line	167
	
l285:	
	line	162
	
l2839:	
	fcall	_USARTDataAvailable
	iorlw	0
	skipz
	goto	u2191
	goto	u2190
u2191:
	goto	l2843
u2190:
	
l2841:	
	bcf	status, 5	;RP0=0, select bank0
	bcf	status, 6	;RP1=0, select bank0
	movf	(SIM300WaitForResponse@timeout+1),w
	subwf	(SIM300WaitForResponse@n+1),w
	skipz
	goto	u2205
	movf	(SIM300WaitForResponse@timeout),w
	subwf	(SIM300WaitForResponse@n),w
u2205:
	skipc
	goto	u2201
	goto	u2200
u2201:
	goto	l2837
u2200:
	goto	l2843
	
l288:	
	goto	l2843
	
l289:	
	line	169
	
l2843:	
;sim300.c: 167: }
;sim300.c: 169: if(n==timeout)
	bcf	status, 5	;RP0=0, select bank0
	bcf	status, 6	;RP1=0, select bank0
	movf	(SIM300WaitForResponse@timeout+1),w
	xorwf	(SIM300WaitForResponse@n+1),w
	skipz
	goto	u2215
	movf	(SIM300WaitForResponse@timeout),w
	xorwf	(SIM300WaitForResponse@n),w
u2215:

	skipz
	goto	u2211
	goto	u2210
u2211:
	goto	l2851
u2210:
	line	172
	
l2845:	
;sim300.c: 170: {
;sim300.c: 172: return 0;
	movlw	(0)
	goto	l291
	
l2847:	
	goto	l291
	line	173
	
l2849:	
;sim300.c: 173: }
	goto	l2839
	line	174
	
l290:	
	line	177
	
l2851:	
;sim300.c: 174: else
;sim300.c: 175: {
;sim300.c: 177: sim300_buffer[i]=USARTReadData();
	fcall	_USARTReadData
	bcf	status, 5	;RP0=0, select bank0
	bcf	status, 6	;RP1=0, select bank0
	movwf	(??_SIM300WaitForResponse+0)+0
	movf	(SIM300WaitForResponse@i),w
	addlw	_sim300_buffer&0ffh
	movwf	fsr0
	movf	(??_SIM300WaitForResponse+0)+0,w
	bsf	status, 7	;select IRP bank3
	movwf	indf
	line	179
	
l2853:	
;sim300.c: 179: if(sim300_buffer[i]==0x0D && i!=0)
	movf	(SIM300WaitForResponse@i),w
	addlw	_sim300_buffer&0ffh
	movwf	fsr0
	movf	indf,w
	xorlw	0Dh
	skipz
	goto	u2221
	goto	u2220
u2221:
	goto	l2865
u2220:
	
l2855:	
	movf	(SIM300WaitForResponse@i),w
	skipz
	goto	u2230
	goto	l2865
u2230:
	line	181
	
l2857:	
;sim300.c: 180: {
;sim300.c: 181: USARTFlushBuffer();
	fcall	_USARTFlushBuffer
	line	182
	
l2859:	
;sim300.c: 182: return i+1;
	bcf	status, 5	;RP0=0, select bank0
	bcf	status, 6	;RP1=0, select bank0
	movf	(SIM300WaitForResponse@i),w
	addlw	01h
	goto	l291
	
l2861:	
	goto	l291
	line	183
	
l2863:	
;sim300.c: 183: }
	goto	l2839
	line	184
	
l293:	
	line	185
	
l2865:	
;sim300.c: 184: else
;sim300.c: 185: i++;
	movlw	(01h)
	movwf	(??_SIM300WaitForResponse+0)+0
	movf	(??_SIM300WaitForResponse+0)+0,w
	addwf	(SIM300WaitForResponse@i),f
	goto	l2839
	
l294:	
	goto	l2839
	line	186
	
l292:	
	goto	l2839
	line	187
	
l295:	
	line	159
	goto	l2839
	
l296:	
	line	188
	
l291:	
	return
	opt stack 0
GLOBAL	__end_of_SIM300WaitForResponse
	__end_of_SIM300WaitForResponse:
	signat	_SIM300WaitForResponse,4217
	global	_SIM300WaitForValidCall

;; *************** function _SIM300WaitForValidCall *****************
;; Defined at:
;;		line 323 in file "E:\Study Material\XC8 PROJECTS\Aurangabad\MobileAdv.c"
;; Parameters:    Size  Location     Type
;;		None
;; Auto vars:     Size  Location     Type
;;  i               1   13[BANK0 ] unsigned char 
;;  start           1   12[BANK0 ] PTR unsigned char 
;;		 -> NULL(0), sim300_buffer(70), 
;;  len             1   11[BANK0 ] unsigned char 
;; Return value:  Size  Location     Type
;;                  1    wreg      char 
;; Registers used:
;;		wreg, fsr0l, fsr0h, status,2, status,0, btemp+1, pclath, cstack
;; Tracked objects:
;;		On entry : 0/0
;;		On exit  : 0/0
;;		Unchanged: 0/0
;; Data sizes:     COMMON   BANK0   BANK1   BANK3   BANK2
;;      Params:         0       0       0       0       0
;;      Locals:         0       3       0       0       0
;;      Temps:          0       1       0       0       0
;;      Totals:         0       4       0       0       0
;;Total ram usage:        4 bytes
;; Hardware stack levels used:    1
;; Hardware stack levels required when called:    5
;; This function calls:
;;		_SIM300RingResponse
;;		_USARTFlushBuffer
;;		_strichr
;;		_strnicmp
;;		_strrichr
;; This function is called by:
;;		_main
;; This function uses a non-reentrant model
;;
psect	text22,local,class=CODE,delta=2,merge=1
	file	"E:\Study Material\XC8 PROJECTS\Aurangabad\MobileAdv.c"
	line	323
global __ptext22
__ptext22:	;psect for function _SIM300WaitForValidCall
psect	text22
	file	"E:\Study Material\XC8 PROJECTS\Aurangabad\MobileAdv.c"
	line	323
	global	__size_of_SIM300WaitForValidCall
	__size_of_SIM300WaitForValidCall	equ	__end_of_SIM300WaitForValidCall-_SIM300WaitForValidCall
	
_SIM300WaitForValidCall:	
;incstack = 0
	opt	stack 2
; Regs used in _SIM300WaitForValidCall: [wreg-fsr0h+status,2+status,0+btemp+1+pclath+cstack]
	line	328
	
l3561:	
;MobileAdv.c: 328: uint8_t len=SIM300RingResponse(15000);
	movlw	low(03A98h)
	bcf	status, 5	;RP0=0, select bank0
	bcf	status, 6	;RP1=0, select bank0
	movwf	(SIM300RingResponse@timeout)
	movlw	high(03A98h)
	movwf	((SIM300RingResponse@timeout))+1
	fcall	_SIM300RingResponse
	bcf	status, 5	;RP0=0, select bank0
	bcf	status, 6	;RP1=0, select bank0
	movwf	(??_SIM300WaitForValidCall+0)+0
	movf	(??_SIM300WaitForValidCall+0)+0,w
	movwf	(SIM300WaitForValidCall@len)
	line	329
	
l3563:	
;MobileAdv.c: 329: if(len==0)
	movf	(SIM300WaitForValidCall@len),f
	skipz
	goto	u3031
	goto	u3030
u3031:
	goto	l3569
u3030:
	line	330
	
l3565:	
;MobileAdv.c: 330: return -3;
	movlw	(-3)
	goto	l164
	
l3567:	
	goto	l164
	
l163:	
	line	332
	
l3569:	
;MobileAdv.c: 332: sim300_buffer[len-1]='\0';
	movf	(SIM300WaitForValidCall@len),w
	addlw	0FFh
	addlw	_sim300_buffer&0ffh
	movwf	fsr0
	bsf	status, 7	;select IRP bank3
	clrf	indf
	line	335
	
l3571:	
;MobileAdv.c: 335: if(strnicmp(sim300_buffer+10,"+CLIP:",6)==0)
	movlw	low((STR_19)|8000h)
	movwf	(strnicmp@s2)
	movlw	high((STR_19)|8000h)
	movwf	((strnicmp@s2))+1
	movlw	low(06h)
	movwf	(strnicmp@len)
	movlw	high(06h)
	movwf	((strnicmp@len))+1
	movlw	(_sim300_buffer+0Ah)&0ffh
	fcall	_strnicmp
	bcf	status, 5	;RP0=0, select bank0
	bcf	status, 6	;RP1=0, select bank0
	movf	((1+(?_strnicmp))),w
	iorwf	((0+(?_strnicmp))),w
	skipz
	goto	u3041
	goto	u3040
u3041:
	goto	l3625
u3040:
	line	339
	
l3573:	
;MobileAdv.c: 336: {
;MobileAdv.c: 339: if(strrichr(sim300_buffer,'X') != (0))
	movlw	low(058h)
	movwf	(strrichr@chr)
	movlw	high(058h)
	movwf	((strrichr@chr))+1
	movlw	(_sim300_buffer)&0ffh
	fcall	_strrichr
	xorlw	0
	skipnz
	goto	u3051
	goto	u3050
u3051:
	goto	l166
u3050:
	line	341
	
l3575:	
;MobileAdv.c: 340: {
;MobileAdv.c: 341: if(RING_COUNT == REQUIRED_RING_COUNT)
	bsf	status, 5	;RP0=1, select bank1
	bcf	status, 6	;RP1=0, select bank1
	movf	(_RING_COUNT)^080h,w
	xorwf	(_REQUIRED_RING_COUNT)^080h,w
	skipz
	goto	u3061
	goto	u3060
u3061:
	goto	l3609
u3060:
	line	345
	
l3577:	
;MobileAdv.c: 342: {
;MobileAdv.c: 344: char *start;
;MobileAdv.c: 345: start = strichr(sim300_buffer+10,'"');
	movlw	low(022h)
	bcf	status, 5	;RP0=0, select bank0
	bcf	status, 6	;RP1=0, select bank0
	movwf	(strichr@chr)
	movlw	high(022h)
	movwf	((strichr@chr))+1
	movlw	(_sim300_buffer+0Ah)&0ffh
	fcall	_strichr
	bcf	status, 5	;RP0=0, select bank0
	bcf	status, 6	;RP1=0, select bank0
	movwf	(??_SIM300WaitForValidCall+0)+0
	movf	(??_SIM300WaitForValidCall+0)+0,w
	movwf	(SIM300WaitForValidCall@start)
	line	346
	
l3579:	
;MobileAdv.c: 346: start++;
	movlw	(01h)
	movwf	(??_SIM300WaitForValidCall+0)+0
	movf	(??_SIM300WaitForValidCall+0)+0,w
	addwf	(SIM300WaitForValidCall@start),f
	line	347
	
l3581:	
;MobileAdv.c: 347: char i = 3;
	movlw	(03h)
	movwf	(??_SIM300WaitForValidCall+0)+0
	movf	(??_SIM300WaitForValidCall+0)+0,w
	movwf	(SIM300WaitForValidCall@i)
	line	348
;MobileAdv.c: 348: while(*start != '"')
	goto	l3589
	
l169:	
	line	350
	
l3583:	
;MobileAdv.c: 349: {
;MobileAdv.c: 350: phone_number[i] = *start;
	movf	(SIM300WaitForValidCall@start),w
	movwf	fsr0
	bsf	status, 7	;select IRP bank2
	movf	indf,w
	movwf	(??_SIM300WaitForValidCall+0)+0
	movf	(SIM300WaitForValidCall@i),w
	addlw	_phone_number&0ffh
	movwf	fsr0
	movf	(??_SIM300WaitForValidCall+0)+0,w
	bcf	status, 7	;select IRP bank1
	movwf	indf
	line	351
	
l3585:	
;MobileAdv.c: 351: start++;
	movlw	(01h)
	movwf	(??_SIM300WaitForValidCall+0)+0
	movf	(??_SIM300WaitForValidCall+0)+0,w
	addwf	(SIM300WaitForValidCall@start),f
	line	352
	
l3587:	
;MobileAdv.c: 352: i++;
	movlw	(01h)
	movwf	(??_SIM300WaitForValidCall+0)+0
	movf	(??_SIM300WaitForValidCall+0)+0,w
	addwf	(SIM300WaitForValidCall@i),f
	goto	l3589
	line	353
	
l168:	
	line	348
	
l3589:	
	movf	(SIM300WaitForValidCall@start),w
	movwf	fsr0
	bsf	status, 7	;select IRP bank2
	movf	indf,w
	xorlw	022h
	skipz
	goto	u3071
	goto	u3070
u3071:
	goto	l3583
u3070:
	goto	l3591
	
l170:	
	line	354
	
l3591:	
;MobileAdv.c: 353: }
;MobileAdv.c: 354: phone_number[i] = ';';
	movlw	(03Bh)
	movwf	(??_SIM300WaitForValidCall+0)+0
	movf	(SIM300WaitForValidCall@i),w
	addlw	_phone_number&0ffh
	movwf	fsr0
	movf	(??_SIM300WaitForValidCall+0)+0,w
	bcf	status, 7	;select IRP bank1
	movwf	indf
	line	355
	
l3593:	
;MobileAdv.c: 355: i++;
	movlw	(01h)
	movwf	(??_SIM300WaitForValidCall+0)+0
	movf	(??_SIM300WaitForValidCall+0)+0,w
	addwf	(SIM300WaitForValidCall@i),f
	line	356
	
l3595:	
;MobileAdv.c: 356: phone_number[i] = '\0';
	movf	(SIM300WaitForValidCall@i),w
	addlw	_phone_number&0ffh
	movwf	fsr0
	clrf	indf
	line	357
	
l3597:	
;MobileAdv.c: 357: RING_COUNT = 0;
	bsf	status, 5	;RP0=1, select bank1
	bcf	status, 6	;RP1=0, select bank1
	clrf	(_RING_COUNT)^080h
	line	358
	
l3599:	
;MobileAdv.c: 358: Timer = 0;
	clrf	(_Timer)^080h
	line	360
	
l3601:	
;MobileAdv.c: 360: USARTFlushBuffer();
	fcall	_USARTFlushBuffer
	line	361
	
l3603:	
;MobileAdv.c: 361: return 1;
	movlw	(01h)
	goto	l164
	
l3605:	
	goto	l164
	line	362
	
l3607:	
;MobileAdv.c: 362: }
	goto	l164
	line	363
	
l167:	
	line	365
	
l3609:	
;MobileAdv.c: 363: else
;MobileAdv.c: 364: {
;MobileAdv.c: 365: RING_COUNT++;
	movlw	(01h)
	bcf	status, 5	;RP0=0, select bank0
	bcf	status, 6	;RP1=0, select bank0
	movwf	(??_SIM300WaitForValidCall+0)+0
	movf	(??_SIM300WaitForValidCall+0)+0,w
	bsf	status, 5	;RP0=1, select bank1
	bcf	status, 6	;RP1=0, select bank1
	addwf	(_RING_COUNT)^080h,f
	line	366
	
l3611:	
;MobileAdv.c: 366: Timer = 0;
	clrf	(_Timer)^080h
	line	368
	
l3613:	
;MobileAdv.c: 368: USARTFlushBuffer();
	fcall	_USARTFlushBuffer
	line	369
	
l3615:	
;MobileAdv.c: 369: return -2;
	movlw	(-2)
	goto	l164
	
l3617:	
	goto	l164
	line	370
	
l171:	
	line	371
;MobileAdv.c: 370: }
;MobileAdv.c: 371: }
	goto	l164
	line	372
	
l166:	
	line	374
;MobileAdv.c: 372: else
;MobileAdv.c: 373: {
;MobileAdv.c: 374: WRONG_NUMBER = 1;
	bsf	status, 5	;RP0=1, select bank1
	bcf	status, 6	;RP1=0, select bank1
	clrf	(_WRONG_NUMBER)^080h
	incf	(_WRONG_NUMBER)^080h,f
	line	376
	
l3619:	
;MobileAdv.c: 376: USARTFlushBuffer();
	fcall	_USARTFlushBuffer
	line	377
	
l3621:	
;MobileAdv.c: 377: return -2;
	movlw	(-2)
	goto	l164
	
l3623:	
	goto	l164
	line	378
	
l172:	
	line	379
;MobileAdv.c: 378: }
;MobileAdv.c: 379: }
	goto	l164
	line	381
	
l165:	
	line	385
	
l3625:	
;MobileAdv.c: 381: else
;MobileAdv.c: 382: {
;MobileAdv.c: 385: return -2;
	movlw	(-2)
	goto	l164
	
l3627:	
	goto	l164
	line	386
	
l173:	
	line	387
	
l164:	
	return
	opt stack 0
GLOBAL	__end_of_SIM300WaitForValidCall
	__end_of_SIM300WaitForValidCall:
	signat	_SIM300WaitForValidCall,89
	global	_strrichr

;; *************** function _strrichr *****************
;; Defined at:
;;		line 5 in file "C:\Program Files (x86)\Microchip\xc8\v1.32\sources\common\strrichr.c"
;; Parameters:    Size  Location     Type
;;  ptr             1    wreg     PTR const unsigned char 
;;		 -> sim300_buffer(70), 
;;  chr             2    2[BANK0 ] int 
;; Auto vars:     Size  Location     Type
;;  ptr             1    7[BANK0 ] PTR const unsigned char 
;;		 -> sim300_buffer(70), 
;;  cp              1    6[BANK0 ] PTR const unsigned char 
;;		 -> sim300_buffer(70), 
;; Return value:  Size  Location     Type
;;                  1    wreg      PTR unsigned char 
;; Registers used:
;;		wreg, fsr0l, fsr0h, status,2, status,0, pclath, cstack
;; Tracked objects:
;;		On entry : 0/0
;;		On exit  : 0/0
;;		Unchanged: 0/0
;; Data sizes:     COMMON   BANK0   BANK1   BANK3   BANK2
;;      Params:         0       2       0       0       0
;;      Locals:         0       2       0       0       0
;;      Temps:          0       2       0       0       0
;;      Totals:         0       6       0       0       0
;;Total ram usage:        6 bytes
;; Hardware stack levels used:    1
;; Hardware stack levels required when called:    3
;; This function calls:
;;		_toupper
;; This function is called by:
;;		_SIM300WaitForValidCall
;;		_SIM300ReadValidMsg
;; This function uses a non-reentrant model
;;
psect	text23,local,class=CODE,delta=2,merge=1
	file	"C:\Program Files (x86)\Microchip\xc8\v1.32\sources\common\strrichr.c"
	line	5
global __ptext23
__ptext23:	;psect for function _strrichr
psect	text23
	file	"C:\Program Files (x86)\Microchip\xc8\v1.32\sources\common\strrichr.c"
	line	5
	global	__size_of_strrichr
	__size_of_strrichr	equ	__end_of_strrichr-_strrichr
	
_strrichr:	
;incstack = 0
	opt	stack 1
; Regs used in _strrichr: [wreg-fsr0h+status,2+status,0+pclath+cstack]
;strrichr@ptr stored from wreg
	bcf	status, 5	;RP0=0, select bank0
	bcf	status, 6	;RP1=0, select bank0
	movwf	(strrichr@ptr)
	line	9
	
l2797:	
	movf	(strrichr@ptr),w
	movwf	(??_strrichr+0)+0
	movf	(??_strrichr+0)+0,w
	movwf	(strrichr@cp)
	line	10
	goto	l2801
	
l1033:	
	line	11
	
l2799:	
	movlw	(01h)
	movwf	(??_strrichr+0)+0
	movf	(??_strrichr+0)+0,w
	addwf	(strrichr@ptr),f
	goto	l2801
	
l1032:	
	line	10
	
l2801:	
	movf	(strrichr@ptr),w
	movwf	fsr0
	bsf	status, 7	;select IRP bank2
	movf	indf,f
	skipz
	goto	u2141
	goto	u2140
u2141:
	goto	l2799
u2140:
	goto	l2803
	
l1034:	
	line	12
	
l2803:	
	movf	(strrichr@chr),w
	fcall	_toupper
	bcf	status, 5	;RP0=0, select bank0
	bcf	status, 6	;RP1=0, select bank0
	movwf	(??_strrichr+0)+0
	clrf	(??_strrichr+0)+0+1
	movf	0+(??_strrichr+0)+0,w
	movwf	(strrichr@chr)
	movf	1+(??_strrichr+0)+0,w
	movwf	(strrichr@chr+1)
	line	13
	goto	l2813
	
l1036:	
	line	14
	
l2805:	
	movlw	low(01h)
	subwf	(strrichr@ptr),f
	line	15
	
l2807:	
	movf	(strrichr@ptr),w
	movwf	fsr0
	bsf	status, 7	;select IRP bank2
	movf	indf,w
	fcall	_toupper
	bcf	status, 5	;RP0=0, select bank0
	bcf	status, 6	;RP1=0, select bank0
	xorwf	(strrichr@chr),w
	skipz
	goto	u2151
	goto	u2150
u2151:
	goto	l2813
u2150:
	line	16
	
l2809:	
	movf	(strrichr@ptr),w
	goto	l1038
	
l2811:	
	goto	l1038
	
l1037:	
	goto	l2813
	line	17
	
l1035:	
	line	13
	
l2813:	
	movf	(strrichr@ptr),w
	xorwf	(strrichr@cp),w
	skipz
	goto	u2161
	goto	u2160
u2161:
	goto	l2805
u2160:
	goto	l2815
	
l1039:	
	line	18
	
l2815:	
	movlw	(0)
	goto	l1038
	
l2817:	
	line	19
	
l1038:	
	return
	opt stack 0
GLOBAL	__end_of_strrichr
	__end_of_strrichr:
	signat	_strrichr,8313
	global	_strnicmp

;; *************** function _strnicmp *****************
;; Defined at:
;;		line 5 in file "C:\Program Files (x86)\Microchip\xc8\v1.32\sources\common\strnicmp.c"
;; Parameters:    Size  Location     Type
;;  s1              1    wreg     PTR const unsigned char 
;;		 -> sim300_buffer(70), 
;;  s2              2    2[BANK0 ] PTR const unsigned char 
;;		 -> STR_46(6), STR_42(7), STR_41(3), STR_19(7), 
;;  len             2    4[BANK0 ] unsigned int 
;; Auto vars:     Size  Location     Type
;;  s1              1    9[BANK0 ] PTR const unsigned char 
;;		 -> sim300_buffer(70), 
;;  r               1    8[BANK0 ] char 
;; Return value:  Size  Location     Type
;;                  2    2[BANK0 ] int 
;; Registers used:
;;		wreg, fsr0l, fsr0h, status,2, status,0, btemp+1, pclath, cstack
;; Tracked objects:
;;		On entry : 0/0
;;		On exit  : 0/0
;;		Unchanged: 0/0
;; Data sizes:     COMMON   BANK0   BANK1   BANK3   BANK2
;;      Params:         0       4       0       0       0
;;      Locals:         0       2       0       0       0
;;      Temps:          0       2       0       0       0
;;      Totals:         0       8       0       0       0
;;Total ram usage:        8 bytes
;; Hardware stack levels used:    1
;; Hardware stack levels required when called:    3
;; This function calls:
;;		_toupper
;; This function is called by:
;;		_SIM300WaitForValidCall
;;		_SIM300DeleteMsg
;;		_SIM300WaitForValidMsg
;;		_SIM300SendMsg
;; This function uses a non-reentrant model
;;
psect	text24,local,class=CODE,delta=2,merge=1
	file	"C:\Program Files (x86)\Microchip\xc8\v1.32\sources\common\strnicmp.c"
	line	5
global __ptext24
__ptext24:	;psect for function _strnicmp
psect	text24
	file	"C:\Program Files (x86)\Microchip\xc8\v1.32\sources\common\strnicmp.c"
	line	5
	global	__size_of_strnicmp
	__size_of_strnicmp	equ	__end_of_strnicmp-_strnicmp
	
_strnicmp:	
;incstack = 0
	opt	stack 2
; Regs used in _strnicmp: [wreg-fsr0h+status,2+status,0+btemp+1+pclath+cstack]
;strnicmp@s1 stored from wreg
	bcf	status, 5	;RP0=0, select bank0
	bcf	status, 6	;RP1=0, select bank0
	movwf	(strnicmp@s1)
	line	9
	
l2777:	
	goto	l2791
	
l1022:	
	line	10
	
l2779:	
	movf	(strnicmp@s2+1),w
	movwf	btemp+1
	movf	(strnicmp@s2),w
	movwf	fsr0
	fcall	stringtab
	fcall	_toupper
	xorlw	0ffh
	addlw	1
	bcf	status, 5	;RP0=0, select bank0
	bcf	status, 6	;RP1=0, select bank0
	movwf	(??_strnicmp+0)+0
	movf	(strnicmp@s1),w
	movwf	fsr0
	bsf	status, 7	;select IRP bank2
	movf	indf,w
	fcall	_toupper
	bcf	status, 5	;RP0=0, select bank0
	bcf	status, 6	;RP1=0, select bank0
	addwf	(??_strnicmp+0)+0,w
	movwf	(??_strnicmp+1)+0
	movf	(??_strnicmp+1)+0,w
	movwf	(strnicmp@r)
	movf	((strnicmp@r)),f
	skipz
	goto	u2111
	goto	u2110
u2111:
	goto	l2783
u2110:
	
l2781:	
	movf	(strnicmp@s1),w
	movwf	fsr0
	bsf	status, 7	;select IRP bank2
	movf	indf,f
	skipz
	goto	u2121
	goto	u2120
u2121:
	goto	l2787
u2120:
	goto	l2783
	
l1025:	
	line	11
	
l2783:	
	movf	(strnicmp@r),w
	movwf	(?_strnicmp)
	clrf	(?_strnicmp+1)
	btfsc	(?_strnicmp),7
	decf	(?_strnicmp+1),f
	goto	l1026
	
l2785:	
	goto	l1026
	
l1023:	
	line	12
	
l2787:	
	movlw	(01h)
	movwf	(??_strnicmp+0)+0
	movf	(??_strnicmp+0)+0,w
	addwf	(strnicmp@s1),f
	line	13
	
l2789:	
	movlw	01h
	addwf	(strnicmp@s2),f
	skipnc
	incf	(strnicmp@s2+1),f
	goto	l2791
	line	14
	
l1021:	
	line	9
	
l2791:	
	movlw	low(01h)
	subwf	(strnicmp@len),f
	movlw	high(01h)
	skipc
	decf	(strnicmp@len+1),f
	subwf	(strnicmp@len+1),f
	movlw	high(0FFFFh)
	xorwf	((strnicmp@len+1)),w
	skipz
	goto	u2135
	movlw	low(0FFFFh)
	xorwf	((strnicmp@len)),w
u2135:

	skipz
	goto	u2131
	goto	u2130
u2131:
	goto	l2779
u2130:
	goto	l2793
	
l1027:	
	line	15
	
l2793:	
	clrf	(?_strnicmp)
	clrf	(?_strnicmp+1)
	goto	l1026
	
l2795:	
	line	16
	
l1026:	
	return
	opt stack 0
GLOBAL	__end_of_strnicmp
	__end_of_strnicmp:
	signat	_strnicmp,12410
	global	_strichr

;; *************** function _strichr *****************
;; Defined at:
;;		line 5 in file "C:\Program Files (x86)\Microchip\xc8\v1.32\sources\common\strichr.c"
;; Parameters:    Size  Location     Type
;;  ptr             1    wreg     PTR const unsigned char 
;;		 -> sim300_buffer(70), 
;;  chr             2    2[BANK0 ] int 
;; Auto vars:     Size  Location     Type
;;  ptr             1    6[BANK0 ] PTR const unsigned char 
;;		 -> sim300_buffer(70), 
;; Return value:  Size  Location     Type
;;                  1    wreg      PTR unsigned char 
;; Registers used:
;;		wreg, fsr0l, fsr0h, status,2, status,0, pclath, cstack
;; Tracked objects:
;;		On entry : 0/0
;;		On exit  : 0/0
;;		Unchanged: 0/0
;; Data sizes:     COMMON   BANK0   BANK1   BANK3   BANK2
;;      Params:         0       2       0       0       0
;;      Locals:         0       1       0       0       0
;;      Temps:          0       2       0       0       0
;;      Totals:         0       5       0       0       0
;;Total ram usage:        5 bytes
;; Hardware stack levels used:    1
;; Hardware stack levels required when called:    3
;; This function calls:
;;		_toupper
;; This function is called by:
;;		_SIM300WaitForValidCall
;;		_SIM300ReadValidMsg
;; This function uses a non-reentrant model
;;
psect	text25,local,class=CODE,delta=2,merge=1
	file	"C:\Program Files (x86)\Microchip\xc8\v1.32\sources\common\strichr.c"
	line	5
global __ptext25
__ptext25:	;psect for function _strichr
psect	text25
	file	"C:\Program Files (x86)\Microchip\xc8\v1.32\sources\common\strichr.c"
	line	5
	global	__size_of_strichr
	__size_of_strichr	equ	__end_of_strichr-_strichr
	
_strichr:	
;incstack = 0
	opt	stack 1
; Regs used in _strichr: [wreg-fsr0h+status,2+status,0+pclath+cstack]
;strichr@ptr stored from wreg
	bcf	status, 5	;RP0=0, select bank0
	bcf	status, 6	;RP1=0, select bank0
	movwf	(strichr@ptr)
	line	7
	
l2819:	
	movf	(strichr@chr),w
	fcall	_toupper
	bcf	status, 5	;RP0=0, select bank0
	bcf	status, 6	;RP1=0, select bank0
	movwf	(??_strichr+0)+0
	clrf	(??_strichr+0)+0+1
	movf	0+(??_strichr+0)+0,w
	movwf	(strichr@chr)
	movf	1+(??_strichr+0)+0,w
	movwf	(strichr@chr+1)
	line	8
	goto	l2829
	
l1007:	
	line	9
	
l2821:	
	movf	(strichr@ptr),w
	movwf	fsr0
	bsf	status, 7	;select IRP bank2
	movf	indf,w
	fcall	_toupper
	bcf	status, 5	;RP0=0, select bank0
	bcf	status, 6	;RP1=0, select bank0
	xorwf	(strichr@chr),w
	skipz
	goto	u2171
	goto	u2170
u2171:
	goto	l2827
u2170:
	line	10
	
l2823:	
	movf	(strichr@ptr),w
	goto	l1009
	
l2825:	
	goto	l1009
	
l1008:	
	line	11
	
l2827:	
	movlw	(01h)
	movwf	(??_strichr+0)+0
	movf	(??_strichr+0)+0,w
	addwf	(strichr@ptr),f
	goto	l2829
	line	12
	
l1006:	
	line	8
	
l2829:	
	movf	(strichr@ptr),w
	movwf	fsr0
	bsf	status, 7	;select IRP bank2
	movf	indf,f
	skipz
	goto	u2181
	goto	u2180
u2181:
	goto	l2821
u2180:
	goto	l2831
	
l1010:	
	line	13
	
l2831:	
	movlw	(0)
	goto	l1009
	
l2833:	
	line	14
	
l1009:	
	return
	opt stack 0
GLOBAL	__end_of_strichr
	__end_of_strichr:
	signat	_strichr,8313
	global	_toupper

;; *************** function _toupper *****************
;; Defined at:
;;		line 5 in file "C:\Program Files (x86)\Microchip\xc8\v1.32\sources\common\toupper.c"
;; Parameters:    Size  Location     Type
;;  c               1    wreg     unsigned char 
;; Auto vars:     Size  Location     Type
;;  c               1    1[BANK0 ] unsigned char 
;; Return value:  Size  Location     Type
;;                  1    wreg      unsigned char 
;; Registers used:
;;		wreg, status,2, status,0
;; Tracked objects:
;;		On entry : 0/0
;;		On exit  : 0/0
;;		Unchanged: 0/0
;; Data sizes:     COMMON   BANK0   BANK1   BANK3   BANK2
;;      Params:         0       0       0       0       0
;;      Locals:         0       1       0       0       0
;;      Temps:          0       1       0       0       0
;;      Totals:         0       2       0       0       0
;;Total ram usage:        2 bytes
;; Hardware stack levels used:    1
;; Hardware stack levels required when called:    2
;; This function calls:
;;		Nothing
;; This function is called by:
;;		_strichr
;;		_strnicmp
;;		_strrichr
;; This function uses a non-reentrant model
;;
psect	text26,local,class=CODE,delta=2,merge=1
	file	"C:\Program Files (x86)\Microchip\xc8\v1.32\sources\common\toupper.c"
	line	5
global __ptext26
__ptext26:	;psect for function _toupper
psect	text26
	file	"C:\Program Files (x86)\Microchip\xc8\v1.32\sources\common\toupper.c"
	line	5
	global	__size_of_toupper
	__size_of_toupper	equ	__end_of_toupper-_toupper
	
_toupper:	
;incstack = 0
	opt	stack 2
; Regs used in _toupper: [wreg+status,2+status,0]
;toupper@c stored from wreg
	bcf	status, 5	;RP0=0, select bank0
	bcf	status, 6	;RP1=0, select bank0
	movwf	(toupper@c)
	line	10
	
l2713:	
	movlw	(07Bh)
	subwf	(toupper@c),w
	skipnc
	goto	u2021
	goto	u2020
u2021:
	goto	l2719
u2020:
	
l2715:	
	movlw	(061h)
	subwf	(toupper@c),w
	skipc
	goto	u2031
	goto	u2030
u2031:
	goto	l2719
u2030:
	line	11
	
l2717:	
	movlw	(0DFh)
	movwf	(??_toupper+0)+0
	movf	(??_toupper+0)+0,w
	andwf	(toupper@c),f
	goto	l2719
	
l1057:	
	line	12
	
l2719:	
	movf	(toupper@c),w
	goto	l1058
	
l2721:	
	line	13
	
l1058:	
	return
	opt stack 0
GLOBAL	__end_of_toupper
	__end_of_toupper:
	signat	_toupper,4217
	global	_SIM300RingResponse

;; *************** function _SIM300RingResponse *****************
;; Defined at:
;;		line 190 in file "E:\Study Material\XC8 PROJECTS\Aurangabad\sim300.c"
;; Parameters:    Size  Location     Type
;;  timeout         2    2[BANK0 ] unsigned int 
;; Auto vars:     Size  Location     Type
;;  n               2    5[BANK0 ] unsigned int 
;;  i               1    7[BANK0 ] char 
;; Return value:  Size  Location     Type
;;                  1    wreg      char 
;; Registers used:
;;		wreg, fsr0l, fsr0h, status,2, status,0, pclath, cstack
;; Tracked objects:
;;		On entry : 0/0
;;		On exit  : 0/0
;;		Unchanged: 0/0
;; Data sizes:     COMMON   BANK0   BANK1   BANK3   BANK2
;;      Params:         0       2       0       0       0
;;      Locals:         0       3       0       0       0
;;      Temps:          0       1       0       0       0
;;      Totals:         0       6       0       0       0
;;Total ram usage:        6 bytes
;; Hardware stack levels used:    1
;; Hardware stack levels required when called:    4
;; This function calls:
;;		_USARTDataAvailable
;;		_USARTFlushBuffer
;;		_USARTReadData
;; This function is called by:
;;		_SIM300WaitForValidCall
;; This function uses a non-reentrant model
;;
psect	text27,local,class=CODE,delta=2,merge=1
	file	"E:\Study Material\XC8 PROJECTS\Aurangabad\sim300.c"
	line	190
global __ptext27
__ptext27:	;psect for function _SIM300RingResponse
psect	text27
	file	"E:\Study Material\XC8 PROJECTS\Aurangabad\sim300.c"
	line	190
	global	__size_of_SIM300RingResponse
	__size_of_SIM300RingResponse	equ	__end_of_SIM300RingResponse-_SIM300RingResponse
	
_SIM300RingResponse:	
;incstack = 0
	opt	stack 2
; Regs used in _SIM300RingResponse: [wreg-fsr0h+status,2+status,0+pclath+cstack]
	line	192
	
l3169:	
;sim300.c: 192: int8_t i=0;
	bcf	status, 5	;RP0=0, select bank0
	bcf	status, 6	;RP1=0, select bank0
	clrf	(SIM300RingResponse@i)
	line	193
;sim300.c: 193: uint16_t n=0;
	clrf	(SIM300RingResponse@n)
	clrf	(SIM300RingResponse@n+1)
	goto	l3173
	line	195
;sim300.c: 195: while(1)
	
l299:	
	line	198
;sim300.c: 196: {
;sim300.c: 198: while (USARTDataAvailable()==0 && n<timeout)
	goto	l3173
	
l301:	
	line	200
	
l3171:	
;sim300.c: 199: {
;sim300.c: 200: n++;
	movlw	low(01h)
	addwf	(SIM300RingResponse@n),f
	skipnc
	incf	(SIM300RingResponse@n+1),f
	movlw	high(01h)
	addwf	(SIM300RingResponse@n+1),f
	line	201
;sim300.c: 201: _delay((unsigned long)((1)*(4000000/4000.0)));
	opt asmopt_off
movlw	249
movwf	(??_SIM300RingResponse+0)+0,f
u4087:
	nop
decfsz	(??_SIM300RingResponse+0)+0,f
	goto	u4087
	nop2	;nop
	nop
opt asmopt_on

	goto	l3173
	line	203
	
l300:	
	line	198
	
l3173:	
	fcall	_USARTDataAvailable
	iorlw	0
	skipz
	goto	u2591
	goto	u2590
u2591:
	goto	l3177
u2590:
	
l3175:	
	bcf	status, 5	;RP0=0, select bank0
	bcf	status, 6	;RP1=0, select bank0
	movf	(SIM300RingResponse@timeout+1),w
	subwf	(SIM300RingResponse@n+1),w
	skipz
	goto	u2605
	movf	(SIM300RingResponse@timeout),w
	subwf	(SIM300RingResponse@n),w
u2605:
	skipc
	goto	u2601
	goto	u2600
u2601:
	goto	l3171
u2600:
	goto	l3177
	
l303:	
	goto	l3177
	
l304:	
	line	205
	
l3177:	
;sim300.c: 203: }
;sim300.c: 205: if(n==timeout)
	bcf	status, 5	;RP0=0, select bank0
	bcf	status, 6	;RP1=0, select bank0
	movf	(SIM300RingResponse@timeout+1),w
	xorwf	(SIM300RingResponse@n+1),w
	skipz
	goto	u2615
	movf	(SIM300RingResponse@timeout),w
	xorwf	(SIM300RingResponse@n),w
u2615:

	skipz
	goto	u2611
	goto	u2610
u2611:
	goto	l3185
u2610:
	line	208
	
l3179:	
;sim300.c: 206: {
;sim300.c: 208: return 0;
	movlw	(0)
	goto	l306
	
l3181:	
	goto	l306
	line	209
	
l3183:	
;sim300.c: 209: }
	goto	l3173
	line	210
	
l305:	
	line	213
	
l3185:	
;sim300.c: 210: else
;sim300.c: 211: {
;sim300.c: 213: sim300_buffer[i]=USARTReadData();
	fcall	_USARTReadData
	bcf	status, 5	;RP0=0, select bank0
	bcf	status, 6	;RP1=0, select bank0
	movwf	(??_SIM300RingResponse+0)+0
	movf	(SIM300RingResponse@i),w
	addlw	_sim300_buffer&0ffh
	movwf	fsr0
	movf	(??_SIM300RingResponse+0)+0,w
	bsf	status, 7	;select IRP bank3
	movwf	indf
	line	215
	
l3187:	
;sim300.c: 215: if(sim300_buffer[i]==0x0D && i>20)
	movf	(SIM300RingResponse@i),w
	addlw	_sim300_buffer&0ffh
	movwf	fsr0
	movf	indf,w
	xorlw	0Dh
	skipz
	goto	u2621
	goto	u2620
u2621:
	goto	l3199
u2620:
	
l3189:	
	movf	(SIM300RingResponse@i),w
	xorlw	80h
	addlw	-((015h)^80h)
	skipc
	goto	u2631
	goto	u2630
u2631:
	goto	l3199
u2630:
	line	217
	
l3191:	
;sim300.c: 216: {
;sim300.c: 217: USARTFlushBuffer();
	fcall	_USARTFlushBuffer
	line	218
	
l3193:	
;sim300.c: 218: return i+1;
	bcf	status, 5	;RP0=0, select bank0
	bcf	status, 6	;RP1=0, select bank0
	movf	(SIM300RingResponse@i),w
	addlw	01h
	goto	l306
	
l3195:	
	goto	l306
	line	219
	
l3197:	
;sim300.c: 219: }
	goto	l3173
	line	220
	
l308:	
	line	221
	
l3199:	
;sim300.c: 220: else
;sim300.c: 221: i++;
	movlw	(01h)
	movwf	(??_SIM300RingResponse+0)+0
	movf	(??_SIM300RingResponse+0)+0,w
	addwf	(SIM300RingResponse@i),f
	goto	l3173
	
l309:	
	goto	l3173
	line	222
	
l307:	
	goto	l3173
	line	223
	
l310:	
	line	195
	goto	l3173
	
l311:	
	line	224
	
l306:	
	return
	opt stack 0
GLOBAL	__end_of_SIM300RingResponse
	__end_of_SIM300RingResponse:
	signat	_SIM300RingResponse,4217
	global	_USARTFlushBuffer

;; *************** function _USARTFlushBuffer *****************
;; Defined at:
;;		line 233 in file "E:\Study Material\XC8 PROJECTS\Aurangabad\usart_pic16.c"
;; Parameters:    Size  Location     Type
;;		None
;; Auto vars:     Size  Location     Type
;;		None
;; Return value:  Size  Location     Type
;;                  2   42[COMMON] int 
;; Registers used:
;;		wreg, fsr0l, fsr0h, status,2, status,0, pclath, cstack
;; Tracked objects:
;;		On entry : 0/0
;;		On exit  : 0/0
;;		Unchanged: 0/0
;; Data sizes:     COMMON   BANK0   BANK1   BANK3   BANK2
;;      Params:         0       0       0       0       0
;;      Locals:         0       0       0       0       0
;;      Temps:          0       0       0       0       0
;;      Totals:         0       0       0       0       0
;;Total ram usage:        0 bytes
;; Hardware stack levels used:    1
;; Hardware stack levels required when called:    3
;; This function calls:
;;		_USARTDataAvailable
;;		_USARTReadData
;; This function is called by:
;;		_main
;;		_SIM300WaitForValidCall
;;		_SMSCommunication
;;		_SIM300WaitForResponse
;;		_SIM300RingResponse
;;		_SIM300DeleteMsg
;;		_SIM300WaitForValidMsg
;;		_SIM300ReadValidMsg
;;		_SIM300SendMsg
;; This function uses a non-reentrant model
;;
psect	text28,local,class=CODE,delta=2,merge=1
	file	"E:\Study Material\XC8 PROJECTS\Aurangabad\usart_pic16.c"
	line	233
global __ptext28
__ptext28:	;psect for function _USARTFlushBuffer
psect	text28
	file	"E:\Study Material\XC8 PROJECTS\Aurangabad\usart_pic16.c"
	line	233
	global	__size_of_USARTFlushBuffer
	__size_of_USARTFlushBuffer	equ	__end_of_USARTFlushBuffer-_USARTFlushBuffer
	
_USARTFlushBuffer:	
;incstack = 0
	opt	stack 4
; Regs used in _USARTFlushBuffer: [wreg-fsr0h+status,2+status,0+pclath+cstack]
	line	235
	
l2623:	
;usart_pic16.c: 235: while(USARTDataAvailable()>0)
	goto	l2627
	
l455:	
	line	237
	
l2625:	
;usart_pic16.c: 236: {
;usart_pic16.c: 237: USARTReadData();
	fcall	_USARTReadData
	goto	l2627
	line	238
	
l454:	
	line	235
	
l2627:	
	fcall	_USARTDataAvailable
	iorlw	0
	skipz
	goto	u1811
	goto	u1810
u1811:
	goto	l2625
u1810:
	goto	l457
	
l456:	
	line	239
	
l457:	
	return
	opt stack 0
GLOBAL	__end_of_USARTFlushBuffer
	__end_of_USARTFlushBuffer:
	signat	_USARTFlushBuffer,90
	global	_SIM300Init

;; *************** function _SIM300Init *****************
;; Defined at:
;;		line 59 in file "E:\Study Material\XC8 PROJECTS\Aurangabad\sim300.c"
;; Parameters:    Size  Location     Type
;;		None
;; Auto vars:     Size  Location     Type
;;  i               2   22[BANK0 ] unsigned int 
;; Return value:  Size  Location     Type
;;                  1    wreg      char 
;; Registers used:
;;		wreg, fsr0l, fsr0h, status,2, status,0, btemp+1, pclath, cstack
;; Tracked objects:
;;		On entry : 0/0
;;		On exit  : 0/0
;;		Unchanged: 0/0
;; Data sizes:     COMMON   BANK0   BANK1   BANK3   BANK2
;;      Params:         0       0       0       0       0
;;      Locals:         0       2       0       0       0
;;      Temps:          0       2       0       0       0
;;      Totals:         0       4       0       0       0
;;Total ram usage:        4 bytes
;; Hardware stack levels used:    1
;; Hardware stack levels required when called:    5
;; This function calls:
;;		_SIM300CheckResponse
;;		_SIM300Cmd
;;		_USARTDataAvailable
;;		_USARTInit
;;		_USARTReadBuffer
;; This function is called by:
;;		_main
;; This function uses a non-reentrant model
;;
psect	text29,local,class=CODE,delta=2,merge=1
	file	"E:\Study Material\XC8 PROJECTS\Aurangabad\sim300.c"
	line	59
global __ptext29
__ptext29:	;psect for function _SIM300Init
psect	text29
	file	"E:\Study Material\XC8 PROJECTS\Aurangabad\sim300.c"
	line	59
	global	__size_of_SIM300Init
	__size_of_SIM300Init	equ	__end_of_SIM300Init-_SIM300Init
	
_SIM300Init:	
;incstack = 0
	opt	stack 2
; Regs used in _SIM300Init: [wreg-fsr0h+status,2+status,0+btemp+1+pclath+cstack]
	line	62
	
l3353:	
;sim300.c: 62: USARTInit(9600);
	movlw	low(02580h)
	bcf	status, 5	;RP0=0, select bank0
	bcf	status, 6	;RP1=0, select bank0
	movwf	(USARTInit@baud_rate)
	movlw	high(02580h)
	movwf	((USARTInit@baud_rate))+1
	fcall	_USARTInit
	line	65
	
l3355:	
;sim300.c: 65: SIM300Cmd("AT");
	movlw	low((STR_38)|8000h)
	bcf	status, 5	;RP0=0, select bank0
	bcf	status, 6	;RP1=0, select bank0
	movwf	(SIM300Cmd@cmd)
	movlw	high((STR_38)|8000h)
	movwf	((SIM300Cmd@cmd))+1
	fcall	_SIM300Cmd
	line	68
	
l3357:	
;sim300.c: 68: uint16_t i=0;
	bcf	status, 5	;RP0=0, select bank0
	bcf	status, 6	;RP1=0, select bank0
	clrf	(SIM300Init@i)
	clrf	(SIM300Init@i+1)
	line	74
;sim300.c: 74: while(i<10)
	goto	l3371
	
l256:	
	line	76
	
l3359:	
;sim300.c: 75: {
;sim300.c: 76: if(USARTDataAvailable()<6)
	fcall	_USARTDataAvailable
	bcf	status, 5	;RP0=0, select bank0
	bcf	status, 6	;RP1=0, select bank0
	movwf	(??_SIM300Init+0)+0
	movlw	low(06h)
	subwf	(??_SIM300Init+0)+0,w
	skipnc
	goto	u2851
	goto	u2850
u2851:
	goto	l3365
u2850:
	line	78
	
l3361:	
;sim300.c: 77: {
;sim300.c: 78: i++;
	movlw	low(01h)
	addwf	(SIM300Init@i),f
	skipnc
	incf	(SIM300Init@i+1),f
	movlw	high(01h)
	addwf	(SIM300Init@i+1),f
	line	79
;sim300.c: 79: _delay((unsigned long)((10)*(4000000/4000.0)));
	opt asmopt_off
movlw	13
movwf	((??_SIM300Init+0)+0+1),f
	movlw	251
movwf	((??_SIM300Init+0)+0),f
u4097:
	decfsz	((??_SIM300Init+0)+0),f
	goto	u4097
	decfsz	((??_SIM300Init+0)+0+1),f
	goto	u4097
	nop2
opt asmopt_on

	line	80
;sim300.c: 80: continue;
	goto	l3371
	line	81
	
l3363:	
;sim300.c: 81: }
	goto	l3371
	line	82
	
l257:	
	line	86
	
l3365:	
;sim300.c: 82: else
;sim300.c: 83: {
;sim300.c: 86: USARTReadBuffer(sim300_buffer,6);
	movlw	low(06h)
	bcf	status, 5	;RP0=0, select bank0
	bcf	status, 6	;RP1=0, select bank0
	movwf	(USARTReadBuffer@len)
	movlw	high(06h)
	movwf	((USARTReadBuffer@len))+1
	movlw	(_sim300_buffer)&0ffh
	fcall	_USARTReadBuffer
	line	88
	
l3367:	
;sim300.c: 88: return SIM300CheckResponse(sim300_buffer,"OK",6);
	movlw	low((STR_39)|8000h)
	bcf	status, 5	;RP0=0, select bank0
	bcf	status, 6	;RP1=0, select bank0
	movwf	(SIM300CheckResponse@check)
	movlw	high((STR_39)|8000h)
	movwf	((SIM300CheckResponse@check))+1
	movlw	(06h)
	movwf	(??_SIM300Init+0)+0
	movf	(??_SIM300Init+0)+0,w
	movwf	(SIM300CheckResponse@len)
	movlw	(_sim300_buffer)&0ffh
	fcall	_SIM300CheckResponse
	goto	l259
	
l3369:	
	goto	l259
	line	89
	
l258:	
	goto	l3371
	line	90
	
l255:	
	line	74
	
l3371:	
	movlw	high(0Ah)
	bcf	status, 5	;RP0=0, select bank0
	bcf	status, 6	;RP1=0, select bank0
	subwf	(SIM300Init@i+1),w
	movlw	low(0Ah)
	skipnz
	subwf	(SIM300Init@i),w
	skipc
	goto	u2861
	goto	u2860
u2861:
	goto	l3359
u2860:
	goto	l3373
	
l260:	
	line	95
	
l3373:	
;sim300.c: 89: }
;sim300.c: 90: }
;sim300.c: 95: return -3;
	movlw	(-3)
	goto	l259
	
l3375:	
	line	96
	
l259:	
	return
	opt stack 0
GLOBAL	__end_of_SIM300Init
	__end_of_SIM300Init:
	signat	_SIM300Init,89
	global	_USARTInit

;; *************** function _USARTInit *****************
;; Defined at:
;;		line 31 in file "E:\Study Material\XC8 PROJECTS\Aurangabad\usart_pic16.c"
;; Parameters:    Size  Location     Type
;;  baud_rate       2    0[BANK0 ] unsigned int 
;; Auto vars:     Size  Location     Type
;;		None
;; Return value:  Size  Location     Type
;;		None               void
;; Registers used:
;;		wreg, fsr0l, fsr0h, status,2, status,0
;; Tracked objects:
;;		On entry : 0/0
;;		On exit  : 0/0
;;		Unchanged: 0/0
;; Data sizes:     COMMON   BANK0   BANK1   BANK3   BANK2
;;      Params:         0       2       0       0       0
;;      Locals:         0       0       0       0       0
;;      Temps:          0       1       0       0       0
;;      Totals:         0       3       0       0       0
;;Total ram usage:        3 bytes
;; Hardware stack levels used:    1
;; Hardware stack levels required when called:    2
;; This function calls:
;;		Nothing
;; This function is called by:
;;		_SIM300Init
;; This function uses a non-reentrant model
;;
psect	text30,local,class=CODE,delta=2,merge=1
	file	"E:\Study Material\XC8 PROJECTS\Aurangabad\usart_pic16.c"
	line	31
global __ptext30
__ptext30:	;psect for function _USARTInit
psect	text30
	file	"E:\Study Material\XC8 PROJECTS\Aurangabad\usart_pic16.c"
	line	31
	global	__size_of_USARTInit
	__size_of_USARTInit	equ	__end_of_USARTInit-_USARTInit
	
_USARTInit:	
;incstack = 0
	opt	stack 4
; Regs used in _USARTInit: [wreg-fsr0h+status,2+status,0]
	line	34
	
l3261:	
;usart_pic16.c: 34: UQFront=UQEnd=-1;
	movlw	(-1)
	movwf	(_UQEnd)	;volatile
	bcf	status, 5	;RP0=0, select bank0
	bcf	status, 6	;RP1=0, select bank0
	movwf	(??_USARTInit+0)+0
	movf	(??_USARTInit+0)+0,w
	movwf	(_UQFront)	;volatile
	line	37
;usart_pic16.c: 37: switch(baud_rate)
	goto	l3273
	line	39
;usart_pic16.c: 38: {
;usart_pic16.c: 39: case 9600:
	
l375:	
	line	40
	
l3263:	
;usart_pic16.c: 40: SPBRG=25;
	movlw	(019h)
	bsf	status, 5	;RP0=1, select bank1
	bcf	status, 6	;RP1=0, select bank1
	movwf	(153)^080h	;volatile
	line	41
;usart_pic16.c: 41: break;
	goto	l376
	line	42
;usart_pic16.c: 42: case 19200:
	
l377:	
	line	43
	
l3265:	
;usart_pic16.c: 43: SPBRG=12;
	movlw	(0Ch)
	bsf	status, 5	;RP0=1, select bank1
	bcf	status, 6	;RP1=0, select bank1
	movwf	(153)^080h	;volatile
	line	44
;usart_pic16.c: 44: break;
	goto	l376
	line	45
;usart_pic16.c: 45: case 28800:
	
l378:	
	line	46
	
l3267:	
;usart_pic16.c: 46: SPBRG=8;
	movlw	(08h)
	bsf	status, 5	;RP0=1, select bank1
	bcf	status, 6	;RP1=0, select bank1
	movwf	(153)^080h	;volatile
	line	47
;usart_pic16.c: 47: break;
	goto	l376
	line	48
;usart_pic16.c: 48: case 33600:
	
l379:	
	line	49
	
l3269:	
;usart_pic16.c: 49: SPBRG=6;
	movlw	(06h)
	bsf	status, 5	;RP0=1, select bank1
	bcf	status, 6	;RP1=0, select bank1
	movwf	(153)^080h	;volatile
	line	50
;usart_pic16.c: 50: break;
	goto	l376
	line	51
	
l3271:	
;usart_pic16.c: 51: }
	goto	l376
	line	37
	
l374:	
	
l3273:	
	; Switch on 2 bytes has been partitioned into a top level switch of size 1, and 4 sub-switches
; Switch size 1, requested type "space"
; Number of cases is 4, Range of values is 37 to 131
; switch strategies available:
; Name         Instructions Cycles
; simple_byte           13     7 (average)
; jumptable            263     9 (fixed)
;	Chosen strategy is simple_byte

	bcf	status, 5	;RP0=0, select bank0
	movf (USARTInit@baud_rate+1),w
	opt asmopt_off
	xorlw	37^0	; case 37
	skipnz
	goto	l4129
	xorlw	75^37	; case 75
	skipnz
	goto	l4131
	xorlw	112^75	; case 112
	skipnz
	goto	l4133
	xorlw	131^112	; case 131
	skipnz
	goto	l4135
	goto	l376
	opt asmopt_on
	
l4129:	
; Switch size 1, requested type "space"
; Number of cases is 1, Range of values is 128 to 128
; switch strategies available:
; Name         Instructions Cycles
; simple_byte            4     3 (average)
; direct_byte           14    11 (fixed)
; jumptable            263     9 (fixed)
;	Chosen strategy is simple_byte

	movf (USARTInit@baud_rate),w
	opt asmopt_off
	xorlw	128^0	; case 128
	skipnz
	goto	l3263
	goto	l376
	opt asmopt_on
	
l4131:	
; Switch size 1, requested type "space"
; Number of cases is 1, Range of values is 0 to 0
; switch strategies available:
; Name         Instructions Cycles
; simple_byte            4     3 (average)
; direct_byte           11     8 (fixed)
; jumptable            260     6 (fixed)
;	Chosen strategy is simple_byte

	movf (USARTInit@baud_rate),w
	opt asmopt_off
	xorlw	0^0	; case 0
	skipnz
	goto	l3265
	goto	l376
	opt asmopt_on
	
l4133:	
; Switch size 1, requested type "space"
; Number of cases is 1, Range of values is 128 to 128
; switch strategies available:
; Name         Instructions Cycles
; simple_byte            4     3 (average)
; direct_byte           14    11 (fixed)
; jumptable            263     9 (fixed)
;	Chosen strategy is simple_byte

	movf (USARTInit@baud_rate),w
	opt asmopt_off
	xorlw	128^0	; case 128
	skipnz
	goto	l3267
	goto	l376
	opt asmopt_on
	
l4135:	
; Switch size 1, requested type "space"
; Number of cases is 1, Range of values is 64 to 64
; switch strategies available:
; Name         Instructions Cycles
; simple_byte            4     3 (average)
; direct_byte           14    11 (fixed)
; jumptable            263     9 (fixed)
;	Chosen strategy is simple_byte

	movf (USARTInit@baud_rate),w
	opt asmopt_off
	xorlw	64^0	; case 64
	skipnz
	goto	l3269
	goto	l376
	opt asmopt_on

	line	51
	
l376:	
	line	53
;usart_pic16.c: 53: TXSTAbits.TX9=0;
	bsf	status, 5	;RP0=1, select bank1
	bcf	status, 6	;RP1=0, select bank1
	bcf	(152)^080h,6	;volatile
	line	54
;usart_pic16.c: 54: TXSTAbits.TXEN=1;
	bsf	(152)^080h,5	;volatile
	line	55
;usart_pic16.c: 55: TXSTAbits.SYNC=0;
	bcf	(152)^080h,4	;volatile
	line	56
;usart_pic16.c: 56: TXSTAbits.BRGH=1;
	bsf	(152)^080h,2	;volatile
	line	59
;usart_pic16.c: 59: RCSTAbits.SPEN=1;
	bcf	status, 5	;RP0=0, select bank0
	bcf	status, 6	;RP1=0, select bank0
	bsf	(24),7	;volatile
	line	60
;usart_pic16.c: 60: RCSTAbits.RX9=0;
	bcf	(24),6	;volatile
	line	61
;usart_pic16.c: 61: RCSTAbits.CREN=1;
	bsf	(24),4	;volatile
	line	62
;usart_pic16.c: 62: RCSTAbits.ADDEN=0;
	bcf	(24),3	;volatile
	line	65
;usart_pic16.c: 65: RCIE=1;
	bsf	status, 5	;RP0=1, select bank1
	bcf	status, 6	;RP1=0, select bank1
	bsf	(1125/8)^080h,(1125)&7	;volatile
	line	66
;usart_pic16.c: 66: PEIE=1;
	bsf	(94/8),(94)&7	;volatile
	line	69
;usart_pic16.c: 69: (GIE = 1);
	bsf	(95/8),(95)&7	;volatile
	line	70
	
l380:	
	return
	opt stack 0
GLOBAL	__end_of_USARTInit
	__end_of_USARTInit:
	signat	_USARTInit,4216
	global	_SIM300Cmd

;; *************** function _SIM300Cmd *****************
;; Defined at:
;;		line 98 in file "E:\Study Material\XC8 PROJECTS\Aurangabad\sim300.c"
;; Parameters:    Size  Location     Type
;;  cmd             2   13[BANK0 ] PTR const unsigned char 
;;		 -> SIM300SendMsg@cmd(25), SIM300ReadValidMsg@cmd(16), SIM300DeleteMsg@cmd(16), STR_38(3), 
;;		 -> STR_14(4), STR_13(4), STR_12(4), STR_6(4), 
;;		 -> phone_number(40), STR_5(4), STR_4(4), STR_3(10), 
;;		 -> STR_2(10), STR_1(10), 
;; Auto vars:     Size  Location     Type
;;  i               2   17[BANK0 ] unsigned int 
;;  len             1   19[BANK0 ] unsigned char 
;; Return value:  Size  Location     Type
;;                  1    wreg      char 
;; Registers used:
;;		wreg, fsr0l, fsr0h, status,2, status,0, btemp+1, pclath, cstack
;; Tracked objects:
;;		On entry : 0/0
;;		On exit  : 0/0
;;		Unchanged: 0/0
;; Data sizes:     COMMON   BANK0   BANK1   BANK3   BANK2
;;      Params:         0       2       0       0       0
;;      Locals:         0       3       0       0       0
;;      Temps:          0       2       0       0       0
;;      Totals:         0       7       0       0       0
;;Total ram usage:        7 bytes
;; Hardware stack levels used:    1
;; Hardware stack levels required when called:    4
;; This function calls:
;;		_USARTDataAvailable
;;		_USARTReadBuffer
;;		_USARTWriteChar
;;		_USARTWriteString
;;		___wmul
;;		_strlen
;; This function is called by:
;;		_main
;;		_SIM300Init
;;		_SIM300DeleteMsg
;;		_SIM300ReadValidMsg
;;		_SIM300SendMsg
;; This function uses a non-reentrant model
;;
psect	text31,local,class=CODE,delta=2,merge=1
	file	"E:\Study Material\XC8 PROJECTS\Aurangabad\sim300.c"
	line	98
global __ptext31
__ptext31:	;psect for function _SIM300Cmd
psect	text31
	file	"E:\Study Material\XC8 PROJECTS\Aurangabad\sim300.c"
	line	98
	global	__size_of_SIM300Cmd
	__size_of_SIM300Cmd	equ	__end_of_SIM300Cmd-_SIM300Cmd
	
_SIM300Cmd:	
;incstack = 0
	opt	stack 0
; Regs used in _SIM300Cmd: [wreg-fsr0h+status,2+status,0+btemp+1+pclath+cstack]
	line	100
	
l2755:	
;sim300.c: 100: USARTWriteString(cmd);
	bcf	status, 5	;RP0=0, select bank0
	bcf	status, 6	;RP1=0, select bank0
	movf	(SIM300Cmd@cmd+1),w
	clrf	(USARTWriteString@str+1)
	addwf	(USARTWriteString@str+1)
	movf	(SIM300Cmd@cmd),w
	clrf	(USARTWriteString@str)
	addwf	(USARTWriteString@str)

	fcall	_USARTWriteString
	line	101
	
l2757:	
;sim300.c: 101: USARTWriteChar(0x0D);
	movlw	(0Dh)
	fcall	_USARTWriteChar
	line	103
	
l2759:	
;sim300.c: 103: uint8_t len=strlen(cmd);
	bcf	status, 5	;RP0=0, select bank0
	bcf	status, 6	;RP1=0, select bank0
	movf	(SIM300Cmd@cmd+1),w
	clrf	(strlen@s+1)
	addwf	(strlen@s+1)
	movf	(SIM300Cmd@cmd),w
	clrf	(strlen@s)
	addwf	(strlen@s)

	fcall	_strlen
	bcf	status, 5	;RP0=0, select bank0
	bcf	status, 6	;RP1=0, select bank0
	movf	(0+(?_strlen)),w
	movwf	(??_SIM300Cmd+0)+0
	movf	(??_SIM300Cmd+0)+0,w
	movwf	(SIM300Cmd@len)
	line	105
	
l2761:	
;sim300.c: 105: len++;
	movlw	(01h)
	movwf	(??_SIM300Cmd+0)+0
	movf	(??_SIM300Cmd+0)+0,w
	addwf	(SIM300Cmd@len),f
	line	107
	
l2763:	
;sim300.c: 107: uint16_t i=0;
	clrf	(SIM300Cmd@i)
	clrf	(SIM300Cmd@i+1)
	line	110
;sim300.c: 110: while(i<10*len)
	goto	l2775
	
l264:	
	line	112
	
l2765:	
;sim300.c: 111: {
;sim300.c: 112: if(USARTDataAvailable()<len)
	fcall	_USARTDataAvailable
	bcf	status, 5	;RP0=0, select bank0
	bcf	status, 6	;RP1=0, select bank0
	movwf	(??_SIM300Cmd+0)+0
	movf	(SIM300Cmd@len),w
	subwf	(??_SIM300Cmd+0)+0,w
	skipnc
	goto	u2091
	goto	u2090
u2091:
	goto	l2771
u2090:
	line	114
	
l2767:	
;sim300.c: 113: {
;sim300.c: 114: i++;
	movlw	low(01h)
	addwf	(SIM300Cmd@i),f
	skipnc
	incf	(SIM300Cmd@i+1),f
	movlw	high(01h)
	addwf	(SIM300Cmd@i+1),f
	line	115
;sim300.c: 115: _delay((unsigned long)((10)*(4000000/4000.0)));
	opt asmopt_off
movlw	13
movwf	((??_SIM300Cmd+0)+0+1),f
	movlw	251
movwf	((??_SIM300Cmd+0)+0),f
u4107:
	decfsz	((??_SIM300Cmd+0)+0),f
	goto	u4107
	decfsz	((??_SIM300Cmd+0)+0+1),f
	goto	u4107
	nop2
opt asmopt_on

	line	116
;sim300.c: 116: continue;
	goto	l2775
	line	117
	
l2769:	
;sim300.c: 117: }
	goto	l2775
	line	118
	
l265:	
	line	122
	
l2771:	
;sim300.c: 118: else
;sim300.c: 119: {
;sim300.c: 122: USARTReadBuffer(sim300_buffer,len);
	bcf	status, 5	;RP0=0, select bank0
	bcf	status, 6	;RP1=0, select bank0
	movf	(SIM300Cmd@len),w
	movwf	(??_SIM300Cmd+0)+0
	clrf	(??_SIM300Cmd+0)+0+1
	movf	0+(??_SIM300Cmd+0)+0,w
	movwf	(USARTReadBuffer@len)
	movf	1+(??_SIM300Cmd+0)+0,w
	movwf	(USARTReadBuffer@len+1)
	movlw	(_sim300_buffer)&0ffh
	fcall	_USARTReadBuffer
	goto	l267
	line	124
	
l2773:	
;sim300.c: 124: return 1;
;	Return value of _SIM300Cmd is never used
	goto	l267
	line	125
	
l266:	
	goto	l2775
	line	126
	
l263:	
	line	110
	
l2775:	
	bcf	status, 5	;RP0=0, select bank0
	bcf	status, 6	;RP1=0, select bank0
	movf	(SIM300Cmd@len),w
	movwf	(??_SIM300Cmd+0)+0
	clrf	(??_SIM300Cmd+0)+0+1
	movf	0+(??_SIM300Cmd+0)+0,w
	movwf	(___wmul@multiplier)
	movf	1+(??_SIM300Cmd+0)+0,w
	movwf	(___wmul@multiplier+1)
	movlw	low(0Ah)
	movwf	(___wmul@multiplicand)
	movlw	high(0Ah)
	movwf	((___wmul@multiplicand))+1
	fcall	___wmul
	bcf	status, 5	;RP0=0, select bank0
	bcf	status, 6	;RP1=0, select bank0
	movf	(1+(?___wmul)),w
	subwf	(SIM300Cmd@i+1),w
	skipz
	goto	u2105
	movf	(0+(?___wmul)),w
	subwf	(SIM300Cmd@i),w
u2105:
	skipc
	goto	u2101
	goto	u2100
u2101:
	goto	l2765
u2100:
	goto	l267
	
l268:	
	line	129
;sim300.c: 125: }
;sim300.c: 126: }
;sim300.c: 128: return -3;
;	Return value of _SIM300Cmd is never used
	
l267:	
	return
	opt stack 0
GLOBAL	__end_of_SIM300Cmd
	__end_of_SIM300Cmd:
	signat	_SIM300Cmd,4217
	global	_strlen

;; *************** function _strlen *****************
;; Defined at:
;;		line 4 in file "C:\Program Files (x86)\Microchip\xc8\v1.32\sources\common\strlen.c"
;; Parameters:    Size  Location     Type
;;  s               2    0[BANK0 ] PTR const unsigned char 
;;		 -> SIM300SendMsg@cmd(25), STR_44(4), SIM300ReadValidMsg@cmd(16), SIM300DeleteMsg@cmd(16), 
;;		 -> STR_38(3), STR_37(16), STR_18(22), STR_16(22), 
;;		 -> STR_14(4), STR_13(4), STR_12(4), STR_11(20), 
;;		 -> STR_10(22), STR_8(22), STR_6(4), phone_number(40), 
;;		 -> STR_5(4), STR_4(4), STR_3(10), STR_2(10), 
;;		 -> STR_1(10), 
;; Auto vars:     Size  Location     Type
;;  cp              2    4[BANK0 ] PTR const unsigned char 
;;		 -> SIM300SendMsg@cmd(25), STR_44(4), SIM300ReadValidMsg@cmd(16), SIM300DeleteMsg@cmd(16), 
;;		 -> STR_38(3), STR_37(16), STR_18(22), STR_16(22), 
;;		 -> STR_14(4), STR_13(4), STR_12(4), STR_11(20), 
;;		 -> STR_10(22), STR_8(22), STR_6(4), phone_number(40), 
;;		 -> STR_5(4), STR_4(4), STR_3(10), STR_2(10), 
;;		 -> STR_1(10), 
;; Return value:  Size  Location     Type
;;                  2    0[BANK0 ] unsigned int 
;; Registers used:
;;		wreg, fsr0l, fsr0h, status,2, status,0, btemp+1, pclath
;; Tracked objects:
;;		On entry : 0/0
;;		On exit  : 0/0
;;		Unchanged: 0/0
;; Data sizes:     COMMON   BANK0   BANK1   BANK3   BANK2
;;      Params:         0       2       0       0       0
;;      Locals:         0       2       0       0       0
;;      Temps:          0       2       0       0       0
;;      Totals:         0       6       0       0       0
;;Total ram usage:        6 bytes
;; Hardware stack levels used:    1
;; Hardware stack levels required when called:    2
;; This function calls:
;;		Nothing
;; This function is called by:
;;		_SMSCommunication
;;		_SIM300Cmd
;;		_SIM300SendMsg
;;		_strstr
;; This function uses a non-reentrant model
;;
psect	text32,local,class=CODE,delta=2,merge=1
	file	"C:\Program Files (x86)\Microchip\xc8\v1.32\sources\common\strlen.c"
	line	4
global __ptext32
__ptext32:	;psect for function _strlen
psect	text32
	file	"C:\Program Files (x86)\Microchip\xc8\v1.32\sources\common\strlen.c"
	line	4
	global	__size_of_strlen
	__size_of_strlen	equ	__end_of_strlen-_strlen
	
_strlen:	
;incstack = 0
	opt	stack 4
; Regs used in _strlen: [wreg-fsr0h+status,2+status,0+btemp+1+pclath]
	line	8
	
l2629:	
	bcf	status, 5	;RP0=0, select bank0
	bcf	status, 6	;RP1=0, select bank0
	movf	(strlen@s+1),w
	clrf	(strlen@cp+1)
	addwf	(strlen@cp+1)
	movf	(strlen@s),w
	clrf	(strlen@cp)
	addwf	(strlen@cp)

	line	9
	goto	l2631
	
l1014:	
	line	10
	movlw	01h
	addwf	(strlen@cp),f
	skipnc
	incf	(strlen@cp+1),f
	goto	l2631
	line	11
	
l1013:	
	line	9
	
l2631:	
	movf	(strlen@cp+1),w
	movwf	btemp+1
	movf	(strlen@cp),w
	movwf	fsr0
	fcall	stringtab
	iorlw	0
	skipz
	goto	u1821
	goto	u1820
u1821:
	goto	l1014
u1820:
	goto	l2633
	
l1015:	
	line	12
	
l2633:	
	comf	(strlen@s),w
	movwf	(??_strlen+0)+0
	comf	(strlen@s+1),w
	movwf	((??_strlen+0)+0+1)
	incf	(??_strlen+0)+0,f
	skipnz
	incf	((??_strlen+0)+0+1),f
	movf	(strlen@cp),w
	addwf	0+(??_strlen+0)+0,w
	movwf	(?_strlen)
	movf	(strlen@cp+1),w
	skipnc
	incf	(strlen@cp+1),w
	addwf	1+(??_strlen+0)+0,w
	movwf	1+(?_strlen)
	goto	l1016
	
l2635:	
	line	13
	
l1016:	
	return
	opt stack 0
GLOBAL	__end_of_strlen
	__end_of_strlen:
	signat	_strlen,4218
	global	___wmul

;; *************** function ___wmul *****************
;; Defined at:
;;		line 15 in file "C:\Program Files (x86)\Microchip\xc8\v1.32\sources\common\Umul16.c"
;; Parameters:    Size  Location     Type
;;  multiplier      2    0[BANK0 ] unsigned int 
;;  multiplicand    2    2[BANK0 ] unsigned int 
;; Auto vars:     Size  Location     Type
;;  product         2    4[BANK0 ] unsigned int 
;; Return value:  Size  Location     Type
;;                  2    0[BANK0 ] unsigned int 
;; Registers used:
;;		wreg, status,2, status,0
;; Tracked objects:
;;		On entry : 0/0
;;		On exit  : 0/0
;;		Unchanged: 0/0
;; Data sizes:     COMMON   BANK0   BANK1   BANK3   BANK2
;;      Params:         0       4       0       0       0
;;      Locals:         0       2       0       0       0
;;      Temps:          0       0       0       0       0
;;      Totals:         0       6       0       0       0
;;Total ram usage:        6 bytes
;; Hardware stack levels used:    1
;; Hardware stack levels required when called:    2
;; This function calls:
;;		Nothing
;; This function is called by:
;;		_SIM300Cmd
;;		_atoi
;; This function uses a non-reentrant model
;;
psect	text33,local,class=CODE,delta=2,merge=1
	file	"C:\Program Files (x86)\Microchip\xc8\v1.32\sources\common\Umul16.c"
	line	15
global __ptext33
__ptext33:	;psect for function ___wmul
psect	text33
	file	"C:\Program Files (x86)\Microchip\xc8\v1.32\sources\common\Umul16.c"
	line	15
	global	__size_of___wmul
	__size_of___wmul	equ	__end_of___wmul-___wmul
	
___wmul:	
;incstack = 0
	opt	stack 1
; Regs used in ___wmul: [wreg+status,2+status,0]
	line	43
	
l2653:	
	bcf	status, 5	;RP0=0, select bank0
	bcf	status, 6	;RP1=0, select bank0
	clrf	(___wmul@product)
	clrf	(___wmul@product+1)
	goto	l2655
	line	44
	
l614:	
	line	45
	
l2655:	
	btfss	(___wmul@multiplier),(0)&7
	goto	u1851
	goto	u1850
u1851:
	goto	l615
u1850:
	line	46
	
l2657:	
	movf	(___wmul@multiplicand),w
	addwf	(___wmul@product),f
	skipnc
	incf	(___wmul@product+1),f
	movf	(___wmul@multiplicand+1),w
	addwf	(___wmul@product+1),f
	
l615:	
	line	47
	movlw	01h
	
u1865:
	clrc
	rlf	(___wmul@multiplicand),f
	rlf	(___wmul@multiplicand+1),f
	addlw	-1
	skipz
	goto	u1865
	line	48
	
l2659:	
	movlw	01h
	
u1875:
	clrc
	rrf	(___wmul@multiplier+1),f
	rrf	(___wmul@multiplier),f
	addlw	-1
	skipz
	goto	u1875
	line	49
	movf	((___wmul@multiplier+1)),w
	iorwf	((___wmul@multiplier)),w
	skipz
	goto	u1881
	goto	u1880
u1881:
	goto	l2655
u1880:
	goto	l2661
	
l616:	
	line	52
	
l2661:	
	movf	(___wmul@product+1),w
	clrf	(?___wmul+1)
	addwf	(?___wmul+1)
	movf	(___wmul@product),w
	clrf	(?___wmul)
	addwf	(?___wmul)

	goto	l617
	
l2663:	
	line	53
	
l617:	
	return
	opt stack 0
GLOBAL	__end_of___wmul
	__end_of___wmul:
	signat	___wmul,8314
	global	_USARTWriteString

;; *************** function _USARTWriteString *****************
;; Defined at:
;;		line 80 in file "E:\Study Material\XC8 PROJECTS\Aurangabad\usart_pic16.c"
;; Parameters:    Size  Location     Type
;;  str             2    1[BANK0 ] PTR const unsigned char 
;;		 -> SIM300SendMsg@cmd(25), SIM300ReadValidMsg@cmd(16), SIM300DeleteMsg@cmd(16), STR_38(3), 
;;		 -> STR_37(16), STR_18(22), STR_16(22), STR_14(4), 
;;		 -> STR_13(4), STR_12(4), STR_11(20), STR_10(22), 
;;		 -> STR_8(22), STR_6(4), phone_number(40), STR_5(4), 
;;		 -> STR_4(4), STR_3(10), STR_2(10), STR_1(10), 
;; Auto vars:     Size  Location     Type
;;		None
;; Return value:  Size  Location     Type
;;		None               void
;; Registers used:
;;		wreg, fsr0l, fsr0h, status,2, status,0, btemp+1, pclath, cstack
;; Tracked objects:
;;		On entry : 0/0
;;		On exit  : 0/0
;;		Unchanged: 0/0
;; Data sizes:     COMMON   BANK0   BANK1   BANK3   BANK2
;;      Params:         0       2       0       0       0
;;      Locals:         0       0       0       0       0
;;      Temps:          0       0       0       0       0
;;      Totals:         0       2       0       0       0
;;Total ram usage:        2 bytes
;; Hardware stack levels used:    1
;; Hardware stack levels required when called:    3
;; This function calls:
;;		_USARTWriteChar
;; This function is called by:
;;		_SIM300Cmd
;;		_SIM300SendMsg
;;		_USARTWriteLine
;; This function uses a non-reentrant model
;;
psect	text34,local,class=CODE,delta=2,merge=1
	file	"E:\Study Material\XC8 PROJECTS\Aurangabad\usart_pic16.c"
	line	80
global __ptext34
__ptext34:	;psect for function _USARTWriteString
psect	text34
	file	"E:\Study Material\XC8 PROJECTS\Aurangabad\usart_pic16.c"
	line	80
	global	__size_of_USARTWriteString
	__size_of_USARTWriteString	equ	__end_of_USARTWriteString-_USARTWriteString
	
_USARTWriteString:	
;incstack = 0
;; using string table level
	opt	stack 1
; Regs used in _USARTWriteString: [wreg-fsr0h+status,2+status,0+btemp+1+pclath+cstack]
	line	82
	
l2645:	
;usart_pic16.c: 82: while(*str!='\0')
	goto	l2651
	
l390:	
	line	84
	
l2647:	
;usart_pic16.c: 83: {
;usart_pic16.c: 84: USARTWriteChar(*str);
	bcf	status, 5	;RP0=0, select bank0
	bcf	status, 6	;RP1=0, select bank0
	movf	(USARTWriteString@str+1),w
	movwf	btemp+1
	movf	(USARTWriteString@str),w
	movwf	fsr0
	fcall	stringtab
	fcall	_USARTWriteChar
	line	85
	
l2649:	
;usart_pic16.c: 85: str++;
	movlw	01h
	bcf	status, 5	;RP0=0, select bank0
	bcf	status, 6	;RP1=0, select bank0
	addwf	(USARTWriteString@str),f
	skipnc
	incf	(USARTWriteString@str+1),f
	goto	l2651
	line	86
	
l389:	
	line	82
	
l2651:	
	bcf	status, 5	;RP0=0, select bank0
	bcf	status, 6	;RP1=0, select bank0
	movf	(USARTWriteString@str+1),w
	movwf	btemp+1
	movf	(USARTWriteString@str),w
	movwf	fsr0
	fcall	stringtab
	iorlw	0
	skipz
	goto	u1841
	goto	u1840
u1841:
	goto	l2647
u1840:
	goto	l392
	
l391:	
	line	87
	
l392:	
	return
	opt stack 0
GLOBAL	__end_of_USARTWriteString
	__end_of_USARTWriteString:
	signat	_USARTWriteString,4216
	global	_USARTWriteChar

;; *************** function _USARTWriteChar *****************
;; Defined at:
;;		line 73 in file "E:\Study Material\XC8 PROJECTS\Aurangabad\usart_pic16.c"
;; Parameters:    Size  Location     Type
;;  ch              1    wreg     unsigned char 
;; Auto vars:     Size  Location     Type
;;  ch              1    0[BANK0 ] unsigned char 
;; Return value:  Size  Location     Type
;;		None               void
;; Registers used:
;;		wreg
;; Tracked objects:
;;		On entry : 0/0
;;		On exit  : 0/0
;;		Unchanged: 0/0
;; Data sizes:     COMMON   BANK0   BANK1   BANK3   BANK2
;;      Params:         0       0       0       0       0
;;      Locals:         0       1       0       0       0
;;      Temps:          0       0       0       0       0
;;      Totals:         0       1       0       0       0
;;Total ram usage:        1 bytes
;; Hardware stack levels used:    1
;; Hardware stack levels required when called:    2
;; This function calls:
;;		Nothing
;; This function is called by:
;;		_SIM300Cmd
;;		_SIM300SendMsg
;;		_USARTWriteString
;;		_USARTWriteLine
;;		_USARTWriteInt
;;		_USARTGotoNewLine
;; This function uses a non-reentrant model
;;
psect	text35,local,class=CODE,delta=2,merge=1
	line	73
global __ptext35
__ptext35:	;psect for function _USARTWriteChar
psect	text35
	file	"E:\Study Material\XC8 PROJECTS\Aurangabad\usart_pic16.c"
	line	73
	global	__size_of_USARTWriteChar
	__size_of_USARTWriteChar	equ	__end_of_USARTWriteChar-_USARTWriteChar
	
_USARTWriteChar:	
;incstack = 0
	opt	stack 0
; Regs used in _USARTWriteChar: [wreg]
;USARTWriteChar@ch stored from wreg
	bcf	status, 5	;RP0=0, select bank0
	bcf	status, 6	;RP1=0, select bank0
	movwf	(USARTWriteChar@ch)
	line	75
	
l2597:	
;usart_pic16.c: 75: while(!PIR1bits.TXIF);
	goto	l383
	
l384:	
	
l383:	
	btfss	(12),4	;volatile
	goto	u1771
	goto	u1770
u1771:
	goto	l383
u1770:
	goto	l2599
	
l385:	
	line	76
	
l2599:	
;usart_pic16.c: 76: TXREG=ch;
	movf	(USARTWriteChar@ch),w
	movwf	(25)	;volatile
	line	77
	
l386:	
	return
	opt stack 0
GLOBAL	__end_of_USARTWriteChar
	__end_of_USARTWriteChar:
	signat	_USARTWriteChar,4216
	global	_USARTReadBuffer

;; *************** function _USARTReadBuffer *****************
;; Defined at:
;;		line 223 in file "E:\Study Material\XC8 PROJECTS\Aurangabad\usart_pic16.c"
;; Parameters:    Size  Location     Type
;;  buff            1    wreg     PTR unsigned char 
;;		 -> sim300_buffer(70), 
;;  len             2    6[BANK0 ] unsigned int 
;; Auto vars:     Size  Location     Type
;;  buff            1   10[BANK0 ] PTR unsigned char 
;;		 -> sim300_buffer(70), 
;;  i               2   11[BANK0 ] unsigned int 
;; Return value:  Size  Location     Type
;;		None               void
;; Registers used:
;;		wreg, fsr0l, fsr0h, status,2, status,0, pclath, cstack
;; Tracked objects:
;;		On entry : 0/0
;;		On exit  : 0/0
;;		Unchanged: 0/0
;; Data sizes:     COMMON   BANK0   BANK1   BANK3   BANK2
;;      Params:         0       2       0       0       0
;;      Locals:         0       3       0       0       0
;;      Temps:          0       2       0       0       0
;;      Totals:         0       7       0       0       0
;;Total ram usage:        7 bytes
;; Hardware stack levels used:    1
;; Hardware stack levels required when called:    3
;; This function calls:
;;		_USARTReadData
;; This function is called by:
;;		_SIM300Init
;;		_SIM300Cmd
;;		_SIM300SendMsg
;; This function uses a non-reentrant model
;;
psect	text36,local,class=CODE,delta=2,merge=1
	line	223
global __ptext36
__ptext36:	;psect for function _USARTReadBuffer
psect	text36
	file	"E:\Study Material\XC8 PROJECTS\Aurangabad\usart_pic16.c"
	line	223
	global	__size_of_USARTReadBuffer
	__size_of_USARTReadBuffer	equ	__end_of_USARTReadBuffer-_USARTReadBuffer
	
_USARTReadBuffer:	
;incstack = 0
	opt	stack 0
; Regs used in _USARTReadBuffer: [wreg-fsr0h+status,2+status,0+pclath+cstack]
;USARTReadBuffer@buff stored from wreg
	bcf	status, 5	;RP0=0, select bank0
	bcf	status, 6	;RP1=0, select bank0
	movwf	(USARTReadBuffer@buff)
	line	226
	
l2637:	
;usart_pic16.c: 225: uint16_t i;
;usart_pic16.c: 226: for(i=0;i<len;i++)
	clrf	(USARTReadBuffer@i)
	clrf	(USARTReadBuffer@i+1)
	goto	l2643
	line	227
	
l449:	
	line	228
	
l2639:	
;usart_pic16.c: 227: {
;usart_pic16.c: 228: buff[i]=USARTReadData();
	fcall	_USARTReadData
	bcf	status, 5	;RP0=0, select bank0
	bcf	status, 6	;RP1=0, select bank0
	movwf	(??_USARTReadBuffer+0)+0
	movf	(USARTReadBuffer@i),w
	addwf	(USARTReadBuffer@buff),w
	movwf	(??_USARTReadBuffer+1)+0
	movf	0+(??_USARTReadBuffer+1)+0,w
	movwf	fsr0
	movf	(??_USARTReadBuffer+0)+0,w
	bsf	status, 7	;select IRP bank2
	movwf	indf
	line	226
	
l2641:	
	movlw	low(01h)
	addwf	(USARTReadBuffer@i),f
	skipnc
	incf	(USARTReadBuffer@i+1),f
	movlw	high(01h)
	addwf	(USARTReadBuffer@i+1),f
	goto	l2643
	
l448:	
	
l2643:	
	movf	(USARTReadBuffer@len+1),w
	subwf	(USARTReadBuffer@i+1),w
	skipz
	goto	u1835
	movf	(USARTReadBuffer@len),w
	subwf	(USARTReadBuffer@i),w
u1835:
	skipc
	goto	u1831
	goto	u1830
u1831:
	goto	l2639
u1830:
	goto	l451
	
l450:	
	line	230
	
l451:	
	return
	opt stack 0
GLOBAL	__end_of_USARTReadBuffer
	__end_of_USARTReadBuffer:
	signat	_USARTReadBuffer,8312
	global	_USARTReadData

;; *************** function _USARTReadData *****************
;; Defined at:
;;		line 131 in file "E:\Study Material\XC8 PROJECTS\Aurangabad\usart_pic16.c"
;; Parameters:    Size  Location     Type
;;		None
;; Auto vars:     Size  Location     Type
;;  data            1    1[BANK0 ] unsigned char 
;; Return value:  Size  Location     Type
;;                  1    wreg      unsigned char 
;; Registers used:
;;		wreg, fsr0l, fsr0h, status,2, status,0
;; Tracked objects:
;;		On entry : 0/0
;;		On exit  : 0/0
;;		Unchanged: 0/0
;; Data sizes:     COMMON   BANK0   BANK1   BANK3   BANK2
;;      Params:         0       0       0       0       0
;;      Locals:         0       1       0       0       0
;;      Temps:          0       1       0       0       0
;;      Totals:         0       2       0       0       0
;;Total ram usage:        2 bytes
;; Hardware stack levels used:    1
;; Hardware stack levels required when called:    2
;; This function calls:
;;		Nothing
;; This function is called by:
;;		_SIM300WaitForResponse
;;		_SIM300RingResponse
;;		_USARTReadBuffer
;;		_USARTFlushBuffer
;; This function uses a non-reentrant model
;;
psect	text37,local,class=CODE,delta=2,merge=1
	line	131
global __ptext37
__ptext37:	;psect for function _USARTReadData
psect	text37
	file	"E:\Study Material\XC8 PROJECTS\Aurangabad\usart_pic16.c"
	line	131
	global	__size_of_USARTReadData
	__size_of_USARTReadData	equ	__end_of_USARTReadData-_USARTReadData
	
_USARTReadData:	
;incstack = 0
	opt	stack 4
; Regs used in _USARTReadData: [wreg-fsr0h+status,2+status,0]
	line	136
	
l2601:	
;usart_pic16.c: 133: char data;
;usart_pic16.c: 136: if(UQFront==-1)
	movf	(_UQFront),w	;volatile
	xorlw	-1
	skipz
	goto	u1781
	goto	u1780
u1781:
	goto	l2607
u1780:
	line	137
	
l2603:	
;usart_pic16.c: 137: return 0;
	movlw	(0)
	goto	l413
	
l2605:	
	goto	l413
	
l412:	
	line	139
	
l2607:	
;usart_pic16.c: 139: data=URBuff[UQFront];
	movf	(_UQFront),w
	addlw	_URBuff&0ffh
	movwf	fsr0
	bsf	status, 7	;select IRP bank2
	movf	indf,w
	bcf	status, 5	;RP0=0, select bank0
	bcf	status, 6	;RP1=0, select bank0
	movwf	(??_USARTReadData+0)+0
	movf	(??_USARTReadData+0)+0,w
	movwf	(USARTReadData@data)
	line	141
	
l2609:	
;usart_pic16.c: 141: if(UQFront==UQEnd)
	movf	(_UQFront),w	;volatile
	xorwf	(_UQEnd),w	;volatile
	skipz
	goto	u1791
	goto	u1790
u1791:
	goto	l2613
u1790:
	line	145
	
l2611:	
;usart_pic16.c: 142: {
;usart_pic16.c: 145: UQFront=UQEnd=-1;
	movlw	(-1)
	movwf	(_UQEnd)	;volatile
	movwf	(??_USARTReadData+0)+0
	movf	(??_USARTReadData+0)+0,w
	movwf	(_UQFront)	;volatile
	line	146
;usart_pic16.c: 146: }
	goto	l2619
	line	147
	
l414:	
	line	149
	
l2613:	
;usart_pic16.c: 147: else
;usart_pic16.c: 148: {
;usart_pic16.c: 149: UQFront++;
	movlw	(01h)
	movwf	(??_USARTReadData+0)+0
	movf	(??_USARTReadData+0)+0,w
	addwf	(_UQFront),f	;volatile
	line	151
	
l2615:	
;usart_pic16.c: 151: if(UQFront==64)
	movf	(_UQFront),w	;volatile
	xorlw	040h
	skipz
	goto	u1801
	goto	u1800
u1801:
	goto	l2619
u1800:
	line	152
	
l2617:	
;usart_pic16.c: 152: UQFront=0;
	clrf	(_UQFront)	;volatile
	goto	l2619
	
l416:	
	goto	l2619
	line	153
	
l415:	
	line	155
	
l2619:	
;usart_pic16.c: 153: }
;usart_pic16.c: 155: return data;
	movf	(USARTReadData@data),w
	goto	l413
	
l2621:	
	line	156
	
l413:	
	return
	opt stack 0
GLOBAL	__end_of_USARTReadData
	__end_of_USARTReadData:
	signat	_USARTReadData,89
	global	_USARTDataAvailable

;; *************** function _USARTDataAvailable *****************
;; Defined at:
;;		line 159 in file "E:\Study Material\XC8 PROJECTS\Aurangabad\usart_pic16.c"
;; Parameters:    Size  Location     Type
;;		None
;; Auto vars:     Size  Location     Type
;;		None
;; Return value:  Size  Location     Type
;;                  1    wreg      unsigned char 
;; Registers used:
;;		wreg, status,2, status,0
;; Tracked objects:
;;		On entry : 0/0
;;		On exit  : 0/0
;;		Unchanged: 0/0
;; Data sizes:     COMMON   BANK0   BANK1   BANK3   BANK2
;;      Params:         0       0       0       0       0
;;      Locals:         0       0       0       0       0
;;      Temps:          0       1       0       0       0
;;      Totals:         0       1       0       0       0
;;Total ram usage:        1 bytes
;; Hardware stack levels used:    1
;; Hardware stack levels required when called:    2
;; This function calls:
;;		Nothing
;; This function is called by:
;;		_SIM300Init
;;		_SIM300Cmd
;;		_SIM300WaitForResponse
;;		_SIM300RingResponse
;;		_SIM300SendMsg
;;		_USARTFlushBuffer
;; This function uses a non-reentrant model
;;
psect	text38,local,class=CODE,delta=2,merge=1
	line	159
global __ptext38
__ptext38:	;psect for function _USARTDataAvailable
psect	text38
	file	"E:\Study Material\XC8 PROJECTS\Aurangabad\usart_pic16.c"
	line	159
	global	__size_of_USARTDataAvailable
	__size_of_USARTDataAvailable	equ	__end_of_USARTDataAvailable-_USARTDataAvailable
	
_USARTDataAvailable:	
;incstack = 0
	opt	stack 4
; Regs used in _USARTDataAvailable: [wreg+status,2+status,0]
	line	161
	
l2571:	
;usart_pic16.c: 161: if(UQFront==-1)
	movf	(_UQFront),w	;volatile
	xorlw	-1
	skipz
	goto	u1741
	goto	u1740
u1741:
	goto	l2577
u1740:
	line	162
	
l2573:	
;usart_pic16.c: 162: return 0;
	movlw	(0)
	goto	l420
	
l2575:	
	goto	l420
	
l419:	
	line	163
	
l2577:	
;usart_pic16.c: 163: if(UQFront<UQEnd)
	movf	(_UQFront),w	;volatile
	xorlw	80h
	bcf	status, 5	;RP0=0, select bank0
	bcf	status, 6	;RP1=0, select bank0
	movwf	(??_USARTDataAvailable+0)+0
	movf	(_UQEnd),w	;volatile
	xorlw	80h
	subwf	(??_USARTDataAvailable+0)+0
	skipnc
	goto	u1751
	goto	u1750
u1751:
	goto	l2585
u1750:
	line	164
	
l2579:	
;usart_pic16.c: 164: return(UQEnd-UQFront+1);
	decf	(_UQFront),w	;volatile
	xorlw	0ffh
	addwf	(_UQEnd),w	;volatile
	addlw	01h
	goto	l420
	
l2581:	
	goto	l420
	
l2583:	
	goto	l420
	line	165
	
l421:	
	
l2585:	
;usart_pic16.c: 165: else if(UQFront>UQEnd)
	movf	(_UQEnd),w	;volatile
	xorlw	80h
	movwf	(??_USARTDataAvailable+0)+0
	movf	(_UQFront),w	;volatile
	xorlw	80h
	subwf	(??_USARTDataAvailable+0)+0
	skipnc
	goto	u1761
	goto	u1760
u1761:
	goto	l2593
u1760:
	line	166
	
l2587:	
;usart_pic16.c: 166: return (64-UQFront+UQEnd+1);
	decf	(_UQFront),w	;volatile
	xorlw	0ffh
	addwf	(_UQEnd),w	;volatile
	addlw	041h
	goto	l420
	
l2589:	
	goto	l420
	
l2591:	
	goto	l420
	line	167
	
l423:	
	line	168
	
l2593:	
;usart_pic16.c: 167: else
;usart_pic16.c: 168: return 1;
	movlw	(01h)
	goto	l420
	
l2595:	
	goto	l420
	
l424:	
	goto	l420
	
l422:	
	line	169
	
l420:	
	return
	opt stack 0
GLOBAL	__end_of_USARTDataAvailable
	__end_of_USARTDataAvailable:
	signat	_USARTDataAvailable,89
	global	_SIM300CheckResponse

;; *************** function _SIM300CheckResponse *****************
;; Defined at:
;;		line 131 in file "E:\Study Material\XC8 PROJECTS\Aurangabad\sim300.c"
;; Parameters:    Size  Location     Type
;;  response        1    wreg     PTR const unsigned char 
;;		 -> sim300_buffer(70), 
;;  check           2    0[BANK0 ] PTR const unsigned char 
;;		 -> STR_39(3), 
;;  len             1    2[BANK0 ] unsigned char 
;; Auto vars:     Size  Location     Type
;;  response        1   10[BANK0 ] PTR const unsigned char 
;;		 -> sim300_buffer(70), 
;;  i               1    9[BANK0 ] unsigned char 
;; Return value:  Size  Location     Type
;;                  1    wreg      char 
;; Registers used:
;;		wreg, fsr0l, fsr0h, status,2, status,0, btemp+1, pclath
;; Tracked objects:
;;		On entry : 0/0
;;		On exit  : 0/0
;;		Unchanged: 0/0
;; Data sizes:     COMMON   BANK0   BANK1   BANK3   BANK2
;;      Params:         0       3       0       0       0
;;      Locals:         0       2       0       0       0
;;      Temps:          0       6       0       0       0
;;      Totals:         0      11       0       0       0
;;Total ram usage:       11 bytes
;; Hardware stack levels used:    1
;; Hardware stack levels required when called:    2
;; This function calls:
;;		Nothing
;; This function is called by:
;;		_SIM300Init
;; This function uses a non-reentrant model
;;
psect	text39,local,class=CODE,delta=2,merge=1
	file	"E:\Study Material\XC8 PROJECTS\Aurangabad\sim300.c"
	line	131
global __ptext39
__ptext39:	;psect for function _SIM300CheckResponse
psect	text39
	file	"E:\Study Material\XC8 PROJECTS\Aurangabad\sim300.c"
	line	131
	global	__size_of_SIM300CheckResponse
	__size_of_SIM300CheckResponse	equ	__end_of_SIM300CheckResponse-_SIM300CheckResponse
	
_SIM300CheckResponse:	
;incstack = 0
	opt	stack 4
; Regs used in _SIM300CheckResponse: [wreg-fsr0h+status,2+status,0+btemp+1+pclath]
;SIM300CheckResponse@response stored from wreg
	bcf	status, 5	;RP0=0, select bank0
	bcf	status, 6	;RP1=0, select bank0
	movwf	(SIM300CheckResponse@response)
	line	133
	
l3291:	
;sim300.c: 133: len-=2;
	movlw	low(02h)
	subwf	(SIM300CheckResponse@len),f
	line	136
	
l3293:	
;sim300.c: 136: if(response[0]!=0x0D | response[1]!=0x0A)
	movf	(SIM300CheckResponse@response),w
	movwf	fsr0
	bsf	status, 7	;select IRP bank2
	movf	indf,w
	xorlw	0Dh
	skipz
	goto	u2701
	goto	u2700
u2701:
	goto	l3297
u2700:
	
l3295:	
	incf	(SIM300CheckResponse@response),w
	movwf	fsr0
	movf	indf,w
	xorlw	0Ah
	skipnz
	goto	u2711
	goto	u2710
u2711:
	goto	l3301
u2710:
	goto	l3297
	
l273:	
	line	137
	
l3297:	
;sim300.c: 137: return -1;
	movlw	(-1)
	goto	l274
	
l3299:	
	goto	l274
	
l271:	
	line	140
	
l3301:	
;sim300.c: 140: if(response[len]!=0x0D | response[len+1]!=0x0A)
	movf	(SIM300CheckResponse@len),w
	addwf	(SIM300CheckResponse@response),w
	movwf	(??_SIM300CheckResponse+0)+0
	movf	0+(??_SIM300CheckResponse+0)+0,w
	movwf	fsr0
	movf	indf,w
	xorlw	0Dh
	skipz
	goto	u2721
	goto	u2720
u2721:
	goto	l3305
u2720:
	
l3303:	
	movf	(SIM300CheckResponse@len),w
	addlw	01h
	addwf	(SIM300CheckResponse@response),w
	movwf	(??_SIM300CheckResponse+0)+0
	movf	0+(??_SIM300CheckResponse+0)+0,w
	movwf	fsr0
	movf	indf,w
	xorlw	0Ah
	skipnz
	goto	u2731
	goto	u2730
u2731:
	goto	l3309
u2730:
	goto	l3305
	
l277:	
	line	141
	
l3305:	
;sim300.c: 141: return -1;
	movlw	(-1)
	goto	l274
	
l3307:	
	goto	l274
	
l275:	
	line	145
	
l3309:	
;sim300.c: 145: for(uint8_t i=2;i<len;i++)
	movlw	(02h)
	movwf	(??_SIM300CheckResponse+0)+0
	movf	(??_SIM300CheckResponse+0)+0,w
	movwf	(SIM300CheckResponse@i)
	goto	l3319
	line	146
	
l279:	
	line	147
	
l3311:	
;sim300.c: 146: {
;sim300.c: 147: if(response[i]!=check[i-2])
	movlw	(-2)
	addwf	(SIM300CheckResponse@i),w
	movwf	(??_SIM300CheckResponse+0)+0
	movf	0+(??_SIM300CheckResponse+0)+0,w
	addwf	(SIM300CheckResponse@check),w
	movwf	(??_SIM300CheckResponse+2)+0
	movf	(SIM300CheckResponse@check+1),w
	movwf	(??_SIM300CheckResponse+1)+0
	skipnc
	incf	(??_SIM300CheckResponse+1)+0,f
	btfss	0+(??_SIM300CheckResponse+0)+0,7
	goto	u2740
	decf	(??_SIM300CheckResponse+1)+0,f
u2740:
	bcf	status, 5	;RP0=0, select bank0
	bcf	status, 6	;RP1=0, select bank0
	movf	(??_SIM300CheckResponse+1)+0,w
	movwf	0+((??_SIM300CheckResponse+2)+0)+1
	movf	1+(??_SIM300CheckResponse+2)+0,w
	movwf	btemp+1
	movf	0+(??_SIM300CheckResponse+2)+0,w
	movwf	fsr0
	fcall	stringtab
	movwf	(??_SIM300CheckResponse+4)+0
	movf	(SIM300CheckResponse@i),w
	addwf	(SIM300CheckResponse@response),w
	movwf	(??_SIM300CheckResponse+5)+0
	movf	0+(??_SIM300CheckResponse+5)+0,w
	movwf	fsr0
	bsf	status, 7	;select IRP bank2
	movf	indf,w
	xorwf	(??_SIM300CheckResponse+4)+0,w
	skipnz
	goto	u2751
	goto	u2750
u2751:
	goto	l3317
u2750:
	line	148
	
l3313:	
;sim300.c: 148: return -2;
	movlw	(-2)
	goto	l274
	
l3315:	
	goto	l274
	
l280:	
	line	145
	
l3317:	
	movlw	(01h)
	movwf	(??_SIM300CheckResponse+0)+0
	movf	(??_SIM300CheckResponse+0)+0,w
	addwf	(SIM300CheckResponse@i),f
	goto	l3319
	
l278:	
	
l3319:	
	movf	(SIM300CheckResponse@len),w
	subwf	(SIM300CheckResponse@i),w
	skipc
	goto	u2761
	goto	u2760
u2761:
	goto	l3311
u2760:
	goto	l3321
	
l281:	
	line	151
	
l3321:	
;sim300.c: 149: }
;sim300.c: 151: return 1;
	movlw	(01h)
	goto	l274
	
l3323:	
	line	152
	
l274:	
	return
	opt stack 0
GLOBAL	__end_of_SIM300CheckResponse
	__end_of_SIM300CheckResponse:
	signat	_SIM300CheckResponse,12409
	global	_ISR

;; *************** function _ISR *****************
;; Defined at:
;;		line 6 in file "E:\Study Material\XC8 PROJECTS\Aurangabad\isr.c"
;; Parameters:    Size  Location     Type
;;		None
;; Auto vars:     Size  Location     Type
;;		None
;; Return value:  Size  Location     Type
;;		None               void
;; Registers used:
;;		wreg, fsr0l, fsr0h, status,2, status,0, pclath, cstack
;; Tracked objects:
;;		On entry : 0/0
;;		On exit  : 0/0
;;		Unchanged: 0/0
;; Data sizes:     COMMON   BANK0   BANK1   BANK3   BANK2
;;      Params:         0       0       0       0       0
;;      Locals:         0       0       0       0       0
;;      Temps:          4       0       0       0       0
;;      Totals:         4       0       0       0       0
;;Total ram usage:        4 bytes
;; Hardware stack levels used:    1
;; Hardware stack levels required when called:    1
;; This function calls:
;;		_USARTHandleRxInt
;; This function is called by:
;;		Interrupt level 1
;; This function uses a non-reentrant model
;;
psect	text40,local,class=CODE,delta=2,merge=1
	file	"E:\Study Material\XC8 PROJECTS\Aurangabad\isr.c"
	line	6
global __ptext40
__ptext40:	;psect for function _ISR
psect	text40
	file	"E:\Study Material\XC8 PROJECTS\Aurangabad\isr.c"
	line	6
	global	__size_of_ISR
	__size_of_ISR	equ	__end_of_ISR-_ISR
	
_ISR:	
;incstack = 0
	opt	stack 0
; Regs used in _ISR: [wreg-fsr0h+status,2+status,0+pclath+cstack]
psect	intentry,class=CODE,delta=2
global __pintentry
__pintentry:
global interrupt_function
interrupt_function:
	global saved_w
	saved_w	set	btemp+0
	movwf	saved_w
	swapf	status,w
	movwf	(??_ISR+0)
	movf	fsr0,w
	movwf	(??_ISR+1)
	movf	pclath,w
	movwf	(??_ISR+2)
	bcf	status, 5	;RP0=0, select bank0
	bcf	status, 6	;RP1=0, select bank0
	movf	btemp+1,w
	movwf	(??_ISR+3)
	ljmp	_ISR
psect	text40
	line	8
	
i1l3629:	
;isr.c: 8: if (RCIE && RCIF) {
	bsf	status, 5	;RP0=1, select bank1
	bcf	status, 6	;RP1=0, select bank1
	btfss	(1125/8)^080h,(1125)&7	;volatile
	goto	u308_21
	goto	u308_20
u308_21:
	goto	i1l16
u308_20:
	
i1l3631:	
	bcf	status, 5	;RP0=0, select bank0
	bcf	status, 6	;RP1=0, select bank0
	btfss	(101/8),(101)&7	;volatile
	goto	u309_21
	goto	u309_20
u309_21:
	goto	i1l16
u309_20:
	line	9
	
i1l3633:	
;isr.c: 9: USARTHandleRxInt();
	fcall	_USARTHandleRxInt
	goto	i1l16
	line	10
	
i1l3635:	
;isr.c: 10: return;
	goto	i1l16
	line	11
	
i1l15:	
	line	12
	
i1l16:	
	movf	(??_ISR+3),w
	bcf	status, 5	;RP0=0, select bank0
	bcf	status, 6	;RP1=0, select bank0
	movwf	btemp+1
	movf	(??_ISR+2),w
	movwf	pclath
	movf	(??_ISR+1),w
	movwf	fsr0
	swapf	(??_ISR+0)^0FFFFFF80h,w
	movwf	status
	swapf	saved_w,f
	swapf	saved_w,w
	retfie
	opt stack 0
GLOBAL	__end_of_ISR
	__end_of_ISR:
	signat	_ISR,88
	global	_USARTHandleRxInt

;; *************** function _USARTHandleRxInt *****************
;; Defined at:
;;		line 99 in file "E:\Study Material\XC8 PROJECTS\Aurangabad\usart_pic16.c"
;; Parameters:    Size  Location     Type
;;		None
;; Auto vars:     Size  Location     Type
;;  data            1    4[COMMON] unsigned char 
;; Return value:  Size  Location     Type
;;		None               void
;; Registers used:
;;		wreg, fsr0l, fsr0h, status,2, status,0
;; Tracked objects:
;;		On entry : 0/0
;;		On exit  : 0/0
;;		Unchanged: 0/0
;; Data sizes:     COMMON   BANK0   BANK1   BANK3   BANK2
;;      Params:         0       0       0       0       0
;;      Locals:         1       0       0       0       0
;;      Temps:          4       0       0       0       0
;;      Totals:         5       0       0       0       0
;;Total ram usage:        5 bytes
;; Hardware stack levels used:    1
;; This function calls:
;;		Nothing
;; This function is called by:
;;		_ISR
;; This function uses a non-reentrant model
;;
psect	text41,local,class=CODE,delta=2,merge=1
	file	"E:\Study Material\XC8 PROJECTS\Aurangabad\usart_pic16.c"
	line	99
global __ptext41
__ptext41:	;psect for function _USARTHandleRxInt
psect	text41
	file	"E:\Study Material\XC8 PROJECTS\Aurangabad\usart_pic16.c"
	line	99
	global	__size_of_USARTHandleRxInt
	__size_of_USARTHandleRxInt	equ	__end_of_USARTHandleRxInt-_USARTHandleRxInt
	
_USARTHandleRxInt:	
;incstack = 0
	opt	stack 0
; Regs used in _USARTHandleRxInt: [wreg-fsr0h+status,2+status,0]
	line	102
	
i1l3325:	
;usart_pic16.c: 102: if(RB1==1)
	bcf	status, 5	;RP0=0, select bank0
	bcf	status, 6	;RP1=0, select bank0
	btfss	(49/8),(49)&7	;volatile
	goto	u277_21
	goto	u277_20
u277_21:
	goto	i1l398
u277_20:
	line	103
	
i1l3327:	
;usart_pic16.c: 103: RB1=0;
	bcf	(49/8),(49)&7	;volatile
	goto	i1l3329
	line	104
	
i1l398:	
	line	105
;usart_pic16.c: 104: else
;usart_pic16.c: 105: RB1=1;
	bsf	(49/8),(49)&7	;volatile
	goto	i1l3329
	
i1l399:	
	line	108
	
i1l3329:	
;usart_pic16.c: 108: char data=RCREG;
	movf	(26),w	;volatile
	movwf	(??_USARTHandleRxInt+0)+0
	movf	(??_USARTHandleRxInt+0)+0,w
	movwf	(USARTHandleRxInt@data)
	line	111
;usart_pic16.c: 111: if(((UQEnd==64-1) && UQFront==0) || ((UQEnd+1)==UQFront))
	movf	(_UQEnd),w	;volatile
	xorlw	03Fh
	skipz
	goto	u278_21
	goto	u278_20
u278_21:
	goto	i1l3333
u278_20:
	
i1l3331:	
	movf	(_UQFront),w	;volatile
	skipz
	goto	u279_20
	goto	i1l3335
u279_20:
	goto	i1l3333
	
i1l404:	
	
i1l3333:	
	movf	(_UQFront),w	;volatile
	movwf	(??_USARTHandleRxInt+0)+0
	clrf	(??_USARTHandleRxInt+0)+0+1
	btfsc	(??_USARTHandleRxInt+0)+0,7
	decf	(??_USARTHandleRxInt+0)+0+1,f
	movlw	01h
	addwf	(_UQEnd),w	;volatile
	movwf	(??_USARTHandleRxInt+2)+0
	clrf	1+(??_USARTHandleRxInt+2)+0
	skipnc
	incf	((??_USARTHandleRxInt+2)+0)+1,f
	btfss	(_UQEnd),7	;volatile
	goto	u280_24
	decf	((??_USARTHandleRxInt+2)+0)+1,f
	u280_24:
	
	movf	1+(??_USARTHandleRxInt+0)+0,w
	xorwf	1+(??_USARTHandleRxInt+2)+0,w
	skipz
	goto	u281_25
	movf	0+(??_USARTHandleRxInt+0)+0,w
	xorwf	0+(??_USARTHandleRxInt+2)+0,w
u281_25:

	skipz
	goto	u281_21
	goto	u281_20
u281_21:
	goto	i1l3341
u281_20:
	bcf	status, 5	;RP0=0, select bank0
	bcf	status, 6	;RP1=0, select bank0
	goto	i1l3335
	
i1l402:	
	line	114
	
i1l3335:	
;usart_pic16.c: 112: {
;usart_pic16.c: 114: UQFront++;
	movlw	(01h)
	movwf	(??_USARTHandleRxInt+0)+0
	movf	(??_USARTHandleRxInt+0)+0,w
	addwf	(_UQFront),f	;volatile
	line	115
	
i1l3337:	
;usart_pic16.c: 115: if(UQFront==64)
	movf	(_UQFront),w	;volatile
	xorlw	040h
	skipz
	goto	u282_21
	goto	u282_20
u282_21:
	goto	i1l3341
u282_20:
	line	116
	
i1l3339:	
;usart_pic16.c: 116: UQFront=0;
	clrf	(_UQFront)	;volatile
	goto	i1l3341
	
i1l405:	
	goto	i1l3341
	line	117
	
i1l400:	
	line	119
	
i1l3341:	
;usart_pic16.c: 117: }
;usart_pic16.c: 119: if(UQEnd==64-1)
	movf	(_UQEnd),w	;volatile
	xorlw	03Fh
	skipz
	goto	u283_21
	goto	u283_20
u283_21:
	goto	i1l3345
u283_20:
	line	120
	
i1l3343:	
;usart_pic16.c: 120: UQEnd=0;
	clrf	(_UQEnd)	;volatile
	goto	i1l3347
	line	121
	
i1l406:	
	line	122
	
i1l3345:	
;usart_pic16.c: 121: else
;usart_pic16.c: 122: UQEnd++;
	movlw	(01h)
	movwf	(??_USARTHandleRxInt+0)+0
	movf	(??_USARTHandleRxInt+0)+0,w
	addwf	(_UQEnd),f	;volatile
	goto	i1l3347
	
i1l407:	
	line	124
	
i1l3347:	
;usart_pic16.c: 124: URBuff[UQEnd]=data;
	movf	(USARTHandleRxInt@data),w
	movwf	(??_USARTHandleRxInt+0)+0
	movf	(_UQEnd),w
	addlw	_URBuff&0ffh
	movwf	fsr0
	movf	(??_USARTHandleRxInt+0)+0,w
	bsf	status, 7	;select IRP bank2
	movwf	indf
	line	126
	
i1l3349:	
;usart_pic16.c: 126: if(UQFront==-1)
	movf	(_UQFront),w	;volatile
	xorlw	-1
	skipz
	goto	u284_21
	goto	u284_20
u284_21:
	goto	i1l409
u284_20:
	line	127
	
i1l3351:	
;usart_pic16.c: 127: UQFront=0;
	clrf	(_UQFront)	;volatile
	goto	i1l409
	
i1l408:	
	line	128
	
i1l409:	
	return
	opt stack 0
GLOBAL	__end_of_USARTHandleRxInt
	__end_of_USARTHandleRxInt:
	signat	_USARTHandleRxInt,88
global	___latbits
___latbits	equ	2
	global	btemp
	btemp set 07Eh

	DABS	1,126,2	;btemp
	global	wtemp
	global	wtemp0
	wtemp set btemp
	wtemp0 set btemp
	global	wtemp1
	wtemp1 set btemp+2
	global	wtemp2
	wtemp2 set btemp+4
	global	wtemp3
	wtemp3 set btemp+6
	global	wtemp4
	wtemp4 set btemp+8
	global	wtemp5
	wtemp5 set btemp+10
	global	wtemp6
	wtemp6 set btemp+1
	global	ttemp
	global	ttemp0
	ttemp set btemp
	ttemp0 set btemp
	global	ttemp1
	ttemp1 set btemp+3
	global	ttemp2
	ttemp2 set btemp+6
	global	ttemp3
	ttemp3 set btemp+9
	global	ttemp4
	ttemp4 set btemp+1
	global	ltemp
	global	ltemp0
	ltemp set btemp
	ltemp0 set btemp
	global	ltemp1
	ltemp1 set btemp+4
	global	ltemp2
	ltemp2 set btemp+8
	global	ltemp3
	ltemp3 set btemp+2
	end
