

Microchip Technology PIC LITE Macro Assembler V1.32 build 58300 
                                                                                               Tue Feb 03 13:46:30 2015

Microchip Technology Omniscient Code Generator (Lite mode) build 58300
     1                           	processor	16F876A
     2                           	opt	pw 120
     3                           	opt	lm
     4                           	psect	idataBANK1,global,class=CODE,delta=2
     5                           	psect	stringtext,global,reloc=256,class=STRCODE,delta=2
     6                           	psect	cinit,global,class=CODE,merge=1,delta=2
     7                           	psect	bssCOMMON,global,class=COMMON,space=1,delta=1
     8                           	psect	bssBANK1,global,class=BANK1,space=1,delta=1
     9                           	psect	dataBANK1,global,class=BANK1,space=1,delta=1
    10                           	psect	bssBANK3,global,class=BANK3,space=1,delta=1
    11                           	psect	bssBANK2,global,class=BANK2,space=1,delta=1
    12                           	psect	clrtext,global,class=CODE,delta=2
    13                           	psect	inittext,global,class=CODE,delta=2
    14                           	psect	cstackBANK1,global,class=BANK1,space=1,delta=1
    15                           	psect	cstackCOMMON,global,class=COMMON,space=1,delta=1
    16                           	psect	cstackBANK0,global,class=BANK0,space=1,delta=1
    17                           	psect	maintext,global,class=CODE,split=1,delta=2
    18                           	psect	text1,local,class=CODE,merge=1,delta=2
    19                           	psect	text2,local,class=CODE,merge=1,delta=2
    20                           	psect	text3,local,class=CODE,merge=1,delta=2
    21                           	psect	text4,local,class=CODE,merge=1,delta=2
    22                           	psect	text5,local,class=CODE,merge=1,delta=2
    23                           	psect	text6,local,class=CODE,merge=1,delta=2
    24                           	psect	text7,local,class=CODE,merge=1,delta=2
    25                           	psect	text8,local,class=CODE,merge=1,delta=2
    26                           	psect	text9,local,class=CODE,merge=1,delta=2
    27                           	psect	text10,local,class=CODE,merge=1,delta=2
    28                           	psect	text11,local,class=CODE,merge=1,delta=2
    29                           	psect	text12,local,class=CODE,merge=1,delta=2
    30                           	psect	text13,local,class=CODE,merge=1,delta=2
    31                           	psect	text14,local,class=CODE,merge=1,delta=2
    32                           	psect	text15,local,class=CODE,merge=1,delta=2
    33                           	psect	text16,local,class=CODE,merge=1,delta=2
    34                           	psect	text17,local,class=CODE,merge=1,delta=2
    35                           	psect	text18,local,class=CODE,merge=1,delta=2
    36                           	psect	text19,local,class=CODE,merge=1,delta=2
    37                           	psect	text20,local,class=CODE,merge=1,delta=2
    38                           	psect	text21,local,class=CODE,merge=1,delta=2
    39                           	psect	text22,local,class=CODE,merge=1,delta=2
    40                           	psect	text23,local,class=CODE,merge=1,delta=2
    41                           	psect	text24,local,class=CODE,merge=1,delta=2
    42                           	psect	text25,local,class=CODE,merge=1,delta=2
    43                           	psect	text26,local,class=CODE,merge=1,delta=2
    44                           	psect	text27,local,class=CODE,merge=1,delta=2
    45                           	psect	text28,local,class=CODE,merge=1,delta=2
    46                           	psect	text29,local,class=CODE,merge=1,delta=2
    47                           	psect	text30,local,class=CODE,merge=1,delta=2
    48                           	psect	text31,local,class=CODE,merge=1,delta=2
    49                           	psect	text32,local,class=CODE,merge=1,delta=2
    50                           	psect	text33,local,class=CODE,merge=1,delta=2
    51                           	psect	text34,local,class=CODE,merge=1,delta=2
    52                           	psect	text35,local,class=CODE,merge=1,delta=2
    53                           	psect	text36,local,class=CODE,merge=1,delta=2
    54                           	psect	text37,local,class=CODE,merge=1,delta=2
    55                           	psect	text38,local,class=CODE,merge=1,delta=2
    56                           	psect	text39,local,class=CODE,merge=1,delta=2
    57                           	psect	text40,local,class=CODE,merge=1,delta=2
    58                           	psect	intentry,global,class=CODE,delta=2
    59                           	psect	text41,local,class=CODE,merge=1,delta=2
    60                           	dabs	1,0x7E,2
    61  0000                     	;# 
    62  0001                     	;# 
    63  0002                     	;# 
    64  0003                     	;# 
    65  0004                     	;# 
    66  0005                     	;# 
    67  0006                     	;# 
    68  0007                     	;# 
    69  000A                     	;# 
    70  000B                     	;# 
    71  000C                     	;# 
    72  000D                     	;# 
    73  000E                     	;# 
    74  000E                     	;# 
    75  000F                     	;# 
    76  0010                     	;# 
    77  0011                     	;# 
    78  0012                     	;# 
    79  0013                     	;# 
    80  0014                     	;# 
    81  0015                     	;# 
    82  0015                     	;# 
    83  0016                     	;# 
    84  0017                     	;# 
    85  0018                     	;# 
    86  0019                     	;# 
    87  001A                     	;# 
    88  001B                     	;# 
    89  001B                     	;# 
    90  001C                     	;# 
    91  001D                     	;# 
    92  001E                     	;# 
    93  001F                     	;# 
    94  0081                     	;# 
    95  0085                     	;# 
    96  0086                     	;# 
    97  0087                     	;# 
    98  008C                     	;# 
    99  008D                     	;# 
   100  008E                     	;# 
   101  0091                     	;# 
   102  0092                     	;# 
   103  0093                     	;# 
   104  0094                     	;# 
   105  0098                     	;# 
   106  0099                     	;# 
   107  009C                     	;# 
   108  009D                     	;# 
   109  009E                     	;# 
   110  009F                     	;# 
   111  010C                     	;# 
   112  010D                     	;# 
   113  010E                     	;# 
   114  010F                     	;# 
   115  018C                     	;# 
   116  018D                     	;# 
   117  0000                     	;# 
   118  0001                     	;# 
   119  0002                     	;# 
   120  0003                     	;# 
   121  0004                     	;# 
   122  0005                     	;# 
   123  0006                     	;# 
   124  0007                     	;# 
   125  000A                     	;# 
   126  000B                     	;# 
   127  000C                     	;# 
   128  000D                     	;# 
   129  000E                     	;# 
   130  000E                     	;# 
   131  000F                     	;# 
   132  0010                     	;# 
   133  0011                     	;# 
   134  0012                     	;# 
   135  0013                     	;# 
   136  0014                     	;# 
   137  0015                     	;# 
   138  0015                     	;# 
   139  0016                     	;# 
   140  0017                     	;# 
   141  0018                     	;# 
   142  0019                     	;# 
   143  001A                     	;# 
   144  001B                     	;# 
   145  001B                     	;# 
   146  001C                     	;# 
   147  001D                     	;# 
   148  001E                     	;# 
   149  001F                     	;# 
   150  0081                     	;# 
   151  0085                     	;# 
   152  0086                     	;# 
   153  0087                     	;# 
   154  008C                     	;# 
   155  008D                     	;# 
   156  008E                     	;# 
   157  0091                     	;# 
   158  0092                     	;# 
   159  0093                     	;# 
   160  0094                     	;# 
   161  0098                     	;# 
   162  0099                     	;# 
   163  009C                     	;# 
   164  009D                     	;# 
   165  009E                     	;# 
   166  009F                     	;# 
   167  010C                     	;# 
   168  010D                     	;# 
   169  010E                     	;# 
   170  010F                     	;# 
   171  018C                     	;# 
   172  018D                     	;# 
   173  0000                     	;# 
   174  0001                     	;# 
   175  0002                     	;# 
   176  0003                     	;# 
   177  0004                     	;# 
   178  0005                     	;# 
   179  0006                     	;# 
   180  0007                     	;# 
   181  000A                     	;# 
   182  000B                     	;# 
   183  000C                     	;# 
   184  000D                     	;# 
   185  000E                     	;# 
   186  000E                     	;# 
   187  000F                     	;# 
   188  0010                     	;# 
   189  0011                     	;# 
   190  0012                     	;# 
   191  0013                     	;# 
   192  0014                     	;# 
   193  0015                     	;# 
   194  0015                     	;# 
   195  0016                     	;# 
   196  0017                     	;# 
   197  0018                     	;# 
   198  0019                     	;# 
   199  001A                     	;# 
   200  001B                     	;# 
   201  001B                     	;# 
   202  001C                     	;# 
   203  001D                     	;# 
   204  001E                     	;# 
   205  001F                     	;# 
   206  0081                     	;# 
   207  0085                     	;# 
   208  0086                     	;# 
   209  0087                     	;# 
   210  008C                     	;# 
   211  008D                     	;# 
   212  008E                     	;# 
   213  0091                     	;# 
   214  0092                     	;# 
   215  0093                     	;# 
   216  0094                     	;# 
   217  0098                     	;# 
   218  0099                     	;# 
   219  009C                     	;# 
   220  009D                     	;# 
   221  009E                     	;# 
   222  009F                     	;# 
   223  010C                     	;# 
   224  010D                     	;# 
   225  010E                     	;# 
   226  010F                     	;# 
   227  018C                     	;# 
   228  018D                     	;# 
   229  0000                     	;# 
   230  0001                     	;# 
   231  0002                     	;# 
   232  0003                     	;# 
   233  0004                     	;# 
   234  0005                     	;# 
   235  0006                     	;# 
   236  0007                     	;# 
   237  000A                     	;# 
   238  000B                     	;# 
   239  000C                     	;# 
   240  000D                     	;# 
   241  000E                     	;# 
   242  000E                     	;# 
   243  000F                     	;# 
   244  0010                     	;# 
   245  0011                     	;# 
   246  0012                     	;# 
   247  0013                     	;# 
   248  0014                     	;# 
   249  0015                     	;# 
   250  0015                     	;# 
   251  0016                     	;# 
   252  0017                     	;# 
   253  0018                     	;# 
   254  0019                     	;# 
   255  001A                     	;# 
   256  001B                     	;# 
   257  001B                     	;# 
   258  001C                     	;# 
   259  001D                     	;# 
   260  001E                     	;# 
   261  001F                     	;# 
   262  0081                     	;# 
   263  0085                     	;# 
   264  0086                     	;# 
   265  0087                     	;# 
   266  008C                     	;# 
   267  008D                     	;# 
   268  008E                     	;# 
   269  0091                     	;# 
   270  0092                     	;# 
   271  0093                     	;# 
   272  0094                     	;# 
   273  0098                     	;# 
   274  0099                     	;# 
   275  009C                     	;# 
   276  009D                     	;# 
   277  009E                     	;# 
   278  009F                     	;# 
   279  010C                     	;# 
   280  010D                     	;# 
   281  010E                     	;# 
   282  010F                     	;# 
   283  018C                     	;# 
   284  018D                     	;# 
   285                           
   286                           	psect	idataBANK1
   287  15AB                     __pidataBANK1:	
   288                           
   289                           ;initializer for _REQUIRED_RING_COUNT
   290  15AB  3403               	retlw	3
   291                           
   292                           ;initializer for _phone_number
   293  15AC  3441               	retlw	65
   294  15AD  3454               	retlw	84
   295  15AE  3444               	retlw	68
   296  15AF  3400               	retlw	0
   297  15B0  3400               	retlw	0
   298  15B1  3400               	retlw	0
   299  15B2  3400               	retlw	0
   300  15B3  3400               	retlw	0
   301  15B4  3400               	retlw	0
   302  15B5  3400               	retlw	0
   303  15B6  3400               	retlw	0
   304  15B7  3400               	retlw	0
   305  15B8  3400               	retlw	0
   306  15B9  3400               	retlw	0
   307  15BA  3400               	retlw	0
   308  15BB  3400               	retlw	0
   309  15BC  3400               	retlw	0
   310  15BD  3400               	retlw	0
   311  15BE  3400               	retlw	0
   312  15BF  3400               	retlw	0
   313  15C0  3400               	retlw	0
   314  15C1  3400               	retlw	0
   315  15C2  3400               	retlw	0
   316  15C3  3400               	retlw	0
   317  15C4  3400               	retlw	0
   318  15C5  3400               	retlw	0
   319  15C6  3400               	retlw	0
   320  15C7  3400               	retlw	0
   321  15C8  3400               	retlw	0
   322  15C9  3400               	retlw	0
   323  15CA  3400               	retlw	0
   324  15CB  3400               	retlw	0
   325  15CC  3400               	retlw	0
   326  15CD  3400               	retlw	0
   327  15CE  3400               	retlw	0
   328  15CF  3400               	retlw	0
   329  15D0  3400               	retlw	0
   330  15D1  3400               	retlw	0
   331  15D2  3400               	retlw	0
   332  15D3  3400               	retlw	0
   333                           
   334                           	psect	stringtext
   335  0800                     __pstringtext:	
   336  0800                     stringtab:	
   337  0800                     __stringtab:	
   338                           
   339                           ;	String table - string pointers are 2 bytes each
   340  0800  1BFF               	btfsc	btemp+1,7
   341  0801  280A               	ljmp	stringcode
   342  0802  1383               	bcf	3,7
   343  0803  187F               	btfsc	btemp+1,0
   344  0804  1783               	bsf	3,7
   345  0805  0800               	movf	0,w
   346  0806  0A84               	incf	4,f
   347  0807  1903               	skipnz
   348  0808  0AFF               	incf	btemp+1,f
   349  0809  0008               	return
   350  080A                     stringcode:	
   351  080A  087F               	movf	btemp+1,w
   352  080B  397F               	andlw	127
   353  080C  008A               	movwf	10
   354  080D  0804               	movf	4,w
   355  080E  0A84               	incf	4,f
   356  080F  1903               	skipnz
   357  0810  0AFF               	incf	btemp+1,f
   358  0811  0082               	movwf	2
   359  0812                     __stringbase:	
   360  0812                     __end_of__stringtab:	
   361  0812                     _dpowers:	
   362  0812  3401               	retlw	1
   363  0813  3400               	retlw	0
   364  0814  340A               	retlw	10
   365  0815  3400               	retlw	0
   366  0816  3464               	retlw	100
   367  0817  3400               	retlw	0
   368  0818  34E8               	retlw	232
   369  0819  3403               	retlw	3
   370  081A  3410               	retlw	16
   371  081B  3427               	retlw	39
   372  081C                     __end_of_dpowers:	
   373  000C                     _PIR1bits	set	12
   374  001A                     _RCREG	set	26
   375  0018                     _RCSTAbits	set	24
   376  0019                     _TXREG	set	25
   377  0018                     _CARRY	set	24
   378  005F                     _GIE	set	95
   379  005E                     _PEIE	set	94
   380  002D                     _RA5	set	45
   381  0030                     _RB0	set	48
   382  0031                     _RB1	set	49
   383  0037                     _RB7	set	55
   384  0038                     _RC0	set	56
   385  0039                     _RC1	set	57
   386  003A                     _RC2	set	58
   387  003B                     _RC3	set	59
   388  003C                     _RC4	set	60
   389  003D                     _RC5	set	61
   390  0065                     _RCIF	set	101
   391  009F                     _ADCON1	set	159
   392  0099                     _SPBRG	set	153
   393  0085                     _TRISA	set	133
   394  0086                     _TRISB	set	134
   395  0087                     _TRISC	set	135
   396  0098                     _TXSTAbits	set	152
   397  0465                     _RCIE	set	1125
   398  010D                     _EEADR	set	269
   399  010C                     _EEDATA	set	268
   400  018C                     _EECON1	set	396
   401  018D                     _EECON2	set	397
   402  0C60                     _RD	set	3168
   403  0C61                     _WR	set	3169
   404  0C62                     _WREN	set	3170
   405  081C                     __stringdata:	
   406  081C                     STR_16:	
   407  081C  344D               	retlw	77	;'M'
   408  081D  344F               	retlw	79	;'O'
   409  081E  3454               	retlw	84	;'T'
   410  081F  344F               	retlw	79	;'O'
   411  0820  3452               	retlw	82	;'R'
   412  0821  3420               	retlw	32	;' '
   413  0822  3449               	retlw	73	;'I'
   414  0823  3453               	retlw	83	;'S'
   415  0824  3420               	retlw	32	;' '
   416  0825  3453               	retlw	83	;'S'
   417  0826  3454               	retlw	84	;'T'
   418  0827  344F               	retlw	79	;'O'
   419  0828  3450               	retlw	80	;'P'
   420  0829  3450               	retlw	80	;'P'
   421  082A  3445               	retlw	69	;'E'
   422  082B  3444               	retlw	68	;'D'
   423  082C  3420               	retlw	32	;' '
   424  082D  342E               	retlw	46	;'.'
   425  082E  342E               	retlw	46	;'.'
   426  082F  342E               	retlw	46	;'.'
   427  0830  3421               	retlw	33	;'!'
   428  0831  3400               	retlw	0
   429  0832                     STR_8:	
   430  0832  344D               	retlw	77	;'M'
   431  0833  344F               	retlw	79	;'O'
   432  0834  3454               	retlw	84	;'T'
   433  0835  344F               	retlw	79	;'O'
   434  0836  3452               	retlw	82	;'R'
   435  0837  3420               	retlw	32	;' '
   436  0838  3449               	retlw	73	;'I'
   437  0839  3453               	retlw	83	;'S'
   438  083A  3420               	retlw	32	;' '
   439  083B  3453               	retlw	83	;'S'
   440  083C  3454               	retlw	84	;'T'
   441  083D  3441               	retlw	65	;'A'
   442  083E  3452               	retlw	82	;'R'
   443  083F  3454               	retlw	84	;'T'
   444  0840  3445               	retlw	69	;'E'
   445  0841  3444               	retlw	68	;'D'
   446  0842  3420               	retlw	32	;' '
   447  0843  342E               	retlw	46	;'.'
   448  0844  342E               	retlw	46	;'.'
   449  0845  342E               	retlw	46	;'.'
   450  0846  3421               	retlw	33	;'!'
   451  0847  3400               	retlw	0
   452  0848                     STR_26:	
   453  0848  3450               	retlw	80	;'P'
   454  0849  344F               	retlw	79	;'O'
   455  084A  3457               	retlw	87	;'W'
   456  084B  3445               	retlw	69	;'E'
   457  084C  3452               	retlw	82	;'R'
   458  084D  3420               	retlw	32	;' '
   459  084E  3446               	retlw	70	;'F'
   460  084F  3441               	retlw	65	;'A'
   461  0850  3449               	retlw	73	;'I'
   462  0851  344C               	retlw	76	;'L'
   463  0852  3420               	retlw	32	;' '
   464  0853  344F               	retlw	79	;'O'
   465  0854  344E               	retlw	78	;'N'
   466  0855  3420               	retlw	32	;' '
   467  0856  3450               	retlw	80	;'P'
   468  0857  3448               	retlw	72	;'H'
   469  0858  3441               	retlw	65	;'A'
   470  0859  3453               	retlw	83	;'S'
   471  085A  3445               	retlw	69	;'E'
   472  085B  3420               	retlw	32	;' '
   473  085C  3400               	retlw	0
   474  085D                     STR_11:	
   475  085D  3453               	retlw	83	;'S'
   476  085E  3454               	retlw	84	;'T'
   477  085F  3441               	retlw	65	;'A'
   478  0860  3452               	retlw	82	;'R'
   479  0861  3454               	retlw	84	;'T'
   480  0862  3445               	retlw	69	;'E'
   481  0863  3452               	retlw	82	;'R'
   482  0864  3420               	retlw	32	;' '
   483  0865  3450               	retlw	80	;'P'
   484  0866  3452               	retlw	82	;'R'
   485  0867  344F               	retlw	79	;'O'
   486  0868  3442               	retlw	66	;'B'
   487  0869  344C               	retlw	76	;'L'
   488  086A  3445               	retlw	69	;'E'
   489  086B  344D               	retlw	77	;'M'
   490  086C  342E               	retlw	46	;'.'
   491  086D  342E               	retlw	46	;'.'
   492  086E  342E               	retlw	46	;'.'
   493  086F  3421               	retlw	33	;'!'
   494  0870  3400               	retlw	0
   495  0871                     STR_37:	
   496  0871  3449               	retlw	73	;'I'
   497  0872  346E               	retlw	110	;'n'
   498  0873  3476               	retlw	118	;'v'
   499  0874  3461               	retlw	97	;'a'
   500  0875  346C               	retlw	108	;'l'
   501  0876  3469               	retlw	105	;'i'
   502  0877  3464               	retlw	100	;'d'
   503  0878  3420               	retlw	32	;' '
   504  0879  344B               	retlw	75	;'K'
   505  087A  3465               	retlw	101	;'e'
   506  087B  3479               	retlw	121	;'y'
   507  087C  3477               	retlw	119	;'w'
   508  087D  346F               	retlw	111	;'o'
   509  087E  3472               	retlw	114	;'r'
   510  087F  3464               	retlw	100	;'d'
   511  0880  3400               	retlw	0
   512  0881                     STR_32:	
   513  0881  344D               	retlw	77	;'M'
   514  0882  344F               	retlw	79	;'O'
   515  0883  3454               	retlw	84	;'T'
   516  0884  344F               	retlw	79	;'O'
   517  0885  3452               	retlw	82	;'R'
   518  0886  3420               	retlw	32	;' '
   519  0887  344F               	retlw	79	;'O'
   520  0888  3446               	retlw	70	;'F'
   521  0889  3446               	retlw	70	;'F'
   522  088A  3420               	retlw	32	;' '
   523  088B  3442               	retlw	66	;'B'
   524  088C  3459               	retlw	89	;'Y'
   525  088D  343A               	retlw	58	;':'
   526  088E  3420               	retlw	32	;' '
   527  088F  3400               	retlw	0
   528  0890                     STR_21:	
   529  0890  344D               	retlw	77	;'M'
   530  0891  344F               	retlw	79	;'O'
   531  0892  3454               	retlw	84	;'T'
   532  0893  344F               	retlw	79	;'O'
   533  0894  3452               	retlw	82	;'R'
   534  0895  3420               	retlw	32	;' '
   535  0896  344F               	retlw	79	;'O'
   536  0897  344E               	retlw	78	;'N'
   537  0898  3420               	retlw	32	;' '
   538  0899  3442               	retlw	66	;'B'
   539  089A  3459               	retlw	89	;'Y'
   540  089B  343A               	retlw	58	;':'
   541  089C  3420               	retlw	32	;' '
   542  089D  3400               	retlw	0
   543  089E                     STR_34:	
   544  089E  340A               	retlw	10
   545  089F  3450               	retlw	80	;'P'
   546  08A0  344F               	retlw	79	;'O'
   547  08A1  3457               	retlw	87	;'W'
   548  08A2  3445               	retlw	69	;'E'
   549  08A3  3452               	retlw	82	;'R'
   550  08A4  3420               	retlw	32	;' '
   551  08A5  3446               	retlw	70	;'F'
   552  08A6  3441               	retlw	65	;'A'
   553  08A7  3449               	retlw	73	;'I'
   554  08A8  344C               	retlw	76	;'L'
   555  08A9  3421               	retlw	33	;'!'
   556  08AA  3400               	retlw	0
   557  08AB                     STR_45:	
   558  08AB  3441               	retlw	65	;'A'
   559  08AC  3454               	retlw	84	;'T'
   560  08AD  342B               	retlw	43	;'+'
   561  08AE  3443               	retlw	67	;'C'
   562  08AF  344D               	retlw	77	;'M'
   563  08B0  3447               	retlw	71	;'G'
   564  08B1  3453               	retlw	83	;'S'
   565  08B2  343D               	retlw	61	;'='
   566  08B3  3420               	retlw	32	;' '
   567  08B4  3425               	retlw	37	;'%'
   568  08B5  3473               	retlw	115	;'s'
   569  08B6  3400               	retlw	0
   570  08B7                     STR_40:	
   571  08B7  3441               	retlw	65	;'A'
   572  08B8  3454               	retlw	84	;'T'
   573  08B9  342B               	retlw	43	;'+'
   574  08BA  3443               	retlw	67	;'C'
   575  08BB  344D               	retlw	77	;'M'
   576  08BC  3447               	retlw	71	;'G'
   577  08BD  3444               	retlw	68	;'D'
   578  08BE  343D               	retlw	61	;'='
   579  08BF  3425               	retlw	37	;'%'
   580  08C0  3464               	retlw	100	;'d'
   581  08C1  3400               	retlw	0
   582  08C2                     STR_43:	
   583  08C2  3441               	retlw	65	;'A'
   584  08C3  3454               	retlw	84	;'T'
   585  08C4  342B               	retlw	43	;'+'
   586  08C5  3443               	retlw	67	;'C'
   587  08C6  344D               	retlw	77	;'M'
   588  08C7  3447               	retlw	71	;'G'
   589  08C8  3452               	retlw	82	;'R'
   590  08C9  343D               	retlw	61	;'='
   591  08CA  3425               	retlw	37	;'%'
   592  08CB  3464               	retlw	100	;'d'
   593  08CC  3400               	retlw	0
   594  08CD                     STR_22:	
   595  08CD  340A               	retlw	10
   596  08CE  3450               	retlw	80	;'P'
   597  08CF  344F               	retlw	79	;'O'
   598  08D0  3457               	retlw	87	;'W'
   599  08D1  3445               	retlw	69	;'E'
   600  08D2  3452               	retlw	82	;'R'
   601  08D3  3420               	retlw	32	;' '
   602  08D4  344F               	retlw	79	;'O'
   603  08D5  344B               	retlw	75	;'K'
   604  08D6  3421               	retlw	33	;'!'
   605  08D7  3400               	retlw	0
   606  08D8                     STR_9:	
   607  08D8  3439               	retlw	57	;'9'
   608  08D9  3438               	retlw	56	;'8'
   609  08DA  3431               	retlw	49	;'1'
   610  08DB  3439               	retlw	57	;'9'
   611  08DC  3438               	retlw	56	;'8'
   612  08DD  3439               	retlw	57	;'9'
   613  08DE  3435               	retlw	53	;'5'
   614  08DF  3439               	retlw	57	;'9'
   615  08E0  3431               	retlw	49	;'1'
   616  08E1  3433               	retlw	51	;'3'
   617  08E2  3400               	retlw	0
   618  08E3                     STR_7:	
   619  08E3  3439               	retlw	57	;'9'
   620  08E4  3434               	retlw	52	;'4'
   621  08E5  3430               	retlw	48	;'0'
   622  08E6  3433               	retlw	51	;'3'
   623  08E7  3435               	retlw	53	;'5'
   624  08E8  3438               	retlw	56	;'8'
   625  08E9  3435               	retlw	53	;'5'
   626  08EA  3434               	retlw	52	;'4'
   627  08EB  3433               	retlw	51	;'3'
   628  08EC  3436               	retlw	54	;'6'
   629  08ED  3400               	retlw	0
   630  08EE                     STR_3:	
   631  08EE  3441               	retlw	65	;'A'
   632  08EF  3454               	retlw	84	;'T'
   633  08F0  342B               	retlw	43	;'+'
   634  08F1  3443               	retlw	67	;'C'
   635  08F2  344D               	retlw	77	;'M'
   636  08F3  3447               	retlw	71	;'G'
   637  08F4  3444               	retlw	68	;'D'
   638  08F5  343D               	retlw	61	;'='
   639  08F6  3431               	retlw	49	;'1'
   640  08F7  3400               	retlw	0
   641  08F8                     STR_2:	
   642  08F8  3441               	retlw	65	;'A'
   643  08F9  3454               	retlw	84	;'T'
   644  08FA  342B               	retlw	43	;'+'
   645  08FB  3443               	retlw	67	;'C'
   646  08FC  344D               	retlw	77	;'M'
   647  08FD  3447               	retlw	71	;'G'
   648  08FE  3446               	retlw	70	;'F'
   649  08FF  343D               	retlw	61	;'='
   650  0900  3431               	retlw	49	;'1'
   651  0901  3400               	retlw	0
   652  0902                     STR_1:	
   653  0902  3441               	retlw	65	;'A'
   654  0903  3454               	retlw	84	;'T'
   655  0904  342B               	retlw	43	;'+'
   656  0905  3443               	retlw	67	;'C'
   657  0906  344C               	retlw	76	;'L'
   658  0907  3449               	retlw	73	;'I'
   659  0908  3450               	retlw	80	;'P'
   660  0909  343D               	retlw	61	;'='
   661  090A  3431               	retlw	49	;'1'
   662  090B  3400               	retlw	0
   663  090C                     STR_30:	
   664  090C  3444               	retlw	68	;'D'
   665  090D  3452               	retlw	82	;'R'
   666  090E  3459               	retlw	89	;'Y'
   667  090F  3420               	retlw	32	;' '
   668  0910  3452               	retlw	82	;'R'
   669  0911  3455               	retlw	85	;'U'
   670  0912  344E               	retlw	78	;'N'
   671  0913  342E               	retlw	46	;'.'
   672  0914  3400               	retlw	0
   673  0915                     STR_47:	
   674  0915  3428               	retlw	40	;'('
   675  0916  346E               	retlw	110	;'n'
   676  0917  3475               	retlw	117	;'u'
   677  0918  346C               	retlw	108	;'l'
   678  0919  346C               	retlw	108	;'l'
   679  091A  3429               	retlw	41	;')'
   680  091B  3400               	retlw	0
   681  091C                     STR_42:	
   682  091C  342B               	retlw	43	;'+'
   683  091D  3443               	retlw	67	;'C'
   684  091E  344D               	retlw	77	;'M'
   685  091F  3454               	retlw	84	;'T'
   686  0920  3449               	retlw	73	;'I'
   687  0921  343A               	retlw	58	;':'
   688  0922  3400               	retlw	0
   689  0923                     STR_19:	
   690  0923  342B               	retlw	43	;'+'
   691  0924  3443               	retlw	67	;'C'
   692  0925  344C               	retlw	76	;'L'
   693  0926  3449               	retlw	73	;'I'
   694  0927  3450               	retlw	80	;'P'
   695  0928  343A               	retlw	58	;':'
   696  0929  3400               	retlw	0
   697  092A                     STR_46:	
   698  092A  3443               	retlw	67	;'C'
   699  092B  344D               	retlw	77	;'M'
   700  092C  3447               	retlw	71	;'G'
   701  092D  3453               	retlw	83	;'S'
   702  092E  343A               	retlw	58	;':'
   703  092F  3400               	retlw	0
   704  0930                     STR_44:	
   705  0930  3445               	retlw	69	;'E'
   706  0931  3447               	retlw	71	;'G'
   707  0932  344C               	retlw	76	;'L'
   708  0933  3400               	retlw	0
   709  0934                     STR_24:	
   710  0934  3441               	retlw	65	;'A'
   711  0935  3454               	retlw	84	;'T'
   712  0936  3444               	retlw	68	;'D'
   713  0937  3400               	retlw	0
   714  0938                     STR_4:	
   715  0938  3441               	retlw	65	;'A'
   716  0939  3454               	retlw	84	;'T'
   717  093A  3448               	retlw	72	;'H'
   718  093B  3400               	retlw	0
   719  093C                     STR_39:	
   720  093C  344F               	retlw	79	;'O'
   721  093D  344B               	retlw	75	;'K'
   722  093E  3400               	retlw	0
   723  093F                     STR_38:	
   724  093F  3441               	retlw	65	;'A'
   725  0940  3454               	retlw	84	;'T'
   726  0941  3400               	retlw	0
   727  0942                     __end_of__stringdata:	
   728                           
   729                           	psect	cinit
   730  0015                     start_initialization:	
   731                           ; #config settings
   732                           
   733  0015                     __initialization:	
   734                           
   735                           ; Clear objects allocated to COMMON
   736  0015  01F9               	clrf	__pbssCOMMON& (0+127)
   737  0016  01FA               	clrf	(__pbssCOMMON+1)& (0+127)
   738                           
   739                           ; Clear objects allocated to BANK1
   740  0017  1383               	bcf	3,7	;select IRP bank0
   741  0018  30E4               	movlw	low __pbssBANK1
   742  0019  0084               	movwf	4
   743  001A  30F0               	movlw	low (__pbssBANK1+12)
   744  001B  160A  118A  23D5  120A  118A  	fcall	clear_ram0
   745                           
   746                           ; Clear objects allocated to BANK3
   747  0020  1783               	bsf	3,7	;select IRP bank2
   748  0021  3090               	movlw	low __pbssBANK3
   749  0022  0084               	movwf	4
   750  0023  30E5               	movlw	low (__pbssBANK3+85)
   751  0024  160A  118A  23D5  120A  118A  	fcall	clear_ram0
   752                           
   753                           ; Clear objects allocated to BANK2
   754  0029  3010               	movlw	low __pbssBANK2
   755  002A  0084               	movwf	4
   756  002B  3050               	movlw	low (__pbssBANK2+64)
   757  002C  160A  118A  23D5  120A  118A  	fcall	clear_ram0
   758                           
   759                           ; Initialize objects allocated to BANK1
   760  0031  1383               	bcf	3,7	;select IRP bank0
   761  0032  30C9               	movlw	low (__pdataBANK1+41)
   762  0033  00FD               	movwf	btemp+-1
   763  0034  3015               	movlw	high __pidataBANK1
   764  0035  00FE               	movwf	btemp
   765  0036  30AB               	movlw	low __pidataBANK1
   766  0037  00FF               	movwf	btemp+1
   767  0038  30A0               	movlw	low __pdataBANK1
   768  0039  0084               	movwf	4
   769  003A  160A  118A  241B   	fcall	init_ram0
   770  003D                     end_of_initialization:	
   771                           ;End of C runtime variable initialization code
   772                           
   773  003D                     __end_of__initialization:	
   774  003D  0183               	clrf	3
   775  003E  120A  118A  2841   	ljmp	_main	;jump to C main() function
   776                           
   777                           	psect	bssCOMMON
   778  0079                     __pbssCOMMON:	
   779  0079                     _UQEnd:	
   780  0079                     	ds	1
   781  007A                     _UQFront:	
   782  007A                     	ds	1
   783                           
   784                           	psect	bssBANK1
   785  00E4                     __pbssBANK1:	
   786  00E4                     USARTWriteInt@F1040:	
   787  00E4                     	ds	5
   788  00E9                     _Dry_Run_Timer:	
   789  00E9                     	ds	1
   790  00EA                     _LP_FLAG:	
   791  00EA                     	ds	1
   792  00EB                     _MOTOR_FLAG:	
   793  00EB                     	ds	1
   794  00EC                     _RING_COUNT:	
   795  00EC                     	ds	1
   796  00ED                     _Timer:	
   797  00ED                     	ds	1
   798  00EE                     _WRONG_NUMBER:	
   799  00EE                     	ds	1
   800  00EF                     _count:	
   801  00EF                     	ds	1
   802                           
   803                           	psect	dataBANK1
   804  00A0                     __pdataBANK1:	
   805  00A0                     _REQUIRED_RING_COUNT:	
   806  00A0                     	ds	1
   807  00A1                     _phone_number:	
   808  00A1                     	ds	40
   809                           
   810                           	psect	bssBANK3
   811  0190                     __pbssBANK3:	
   812  0190                     _sim300_buffer:	
   813  0190                     	ds	70
   814  01D6                     _MSG_number:	
   815  01D6                     	ds	15
   816                           
   817                           	psect	bssBANK2
   818  0110                     __pbssBANK2:	
   819  0110                     _URBuff:	
   820  0110                     	ds	64
   821                           
   822                           	psect	clrtext
   823  13D5                     clear_ram0:	
   824                           ;	Called with FSR containing the base address, and
   825                           ;	W with the last address+1
   826                           
   827  13D5  0064               	clrwdt	;clear the watchdog before getting into this loop
   828  13D6                     clrloop0:	
   829  13D6  0180               	clrf	0	;clear RAM location pointed to by FSR
   830  13D7  0A84               	incf	4,f	;increment pointer
   831  13D8  0604               	xorwf	4,w	;XOR with final address
   832  13D9  1903               	btfsc	3,2	;have we reached the end yet?
   833  13DA  3400               	retlw	0	;all done for this memory range, return
   834  13DB  0604               	xorwf	4,w	;XOR again to restore value
   835  13DC  2BD6               	goto	clrloop0	;do the next byte
   836                           
   837                           	psect	inittext
   838  1417                     init_fetch0:	
   839                           ;	Called with low address in FSR and high address in W
   840                           
   841  1417  087E               	movf	126,w
   842  1418  008A               	movwf	10
   843  1419  087F               	movf	127,w
   844  141A  0082               	movwf	2
   845  141B                     init_ram0:	
   846                           ;Called with:
   847                           ;	high address of idata address in btemp 
   848                           ;	low address of idata address in btemp+1 
   849                           ;	low address of data in FSR
   850                           ;	high address + 1 of data in btemp-1
   851                           
   852  141B  2417  160A  118A   	fcall	init_fetch0
   853  141E  0080               	movwf	0
   854  141F  0A84               	incf	4,f
   855  1420  0804               	movf	4,w
   856  1421  067D               	xorwf	125,w
   857  1422  1903               	btfsc	3,2
   858  1423  3400               	retlw	0
   859  1424  0AFF               	incf	127,f
   860  1425  1903               	btfsc	3,2
   861  1426  0AFE               	incf	126,f
   862  1427  2C1B               	goto	init_ram0
   863                           
   864                           	psect	cstackBANK1
   865  00C9                     __pcstackBANK1:	
   866  00C9                     SIM300SendMsg@cmd:	
   867                           
   868                           ; 25 bytes @ 0x0
   869  00C9                     	ds	25
   870  00E2                     SIM300SendMsg@len:	
   871                           
   872                           ; 1 bytes @ 0x19
   873  00E2                     	ds	1
   874  00E3                     SIM300SendMsg@n:	
   875                           
   876                           ; 1 bytes @ 0x1A
   877  00E3                     	ds	1
   878                           
   879                           	psect	cstackCOMMON
   880  0070                     __pcstackCOMMON:	
   881  0070                     ?_USARTHandleRxInt:	
   882  0070                     ??_USARTHandleRxInt:	
   883                           ; 0 bytes @ 0x0
   884                           
   885  0070                     ?_start:	
   886                           ; 0 bytes @ 0x0
   887                           
   888  0070                     ?_stop:	
   889                           ; 0 bytes @ 0x0
   890                           
   891  0070                     ?_SMSCommunication:	
   892                           ; 0 bytes @ 0x0
   893                           
   894  0070                     ?_USARTWriteChar:	
   895                           ; 0 bytes @ 0x0
   896                           
   897  0070                     ?_isdigit:	
   898                           ; 0 bytes @ 0x0
   899                           
   900  0070                     ?_ISR:	
   901                           ; 1 bit 
   902                           
   903  0070                     ?_main:	
   904                           ; 0 bytes @ 0x0
   905                           
   906  0070                     ?_eeprom_read:	
   907                           ; 0 bytes @ 0x0
   908                           
   909  0070                     ?_SIM300Init:	
   910                           ; 1 bytes @ 0x0
   911                           
   912  0070                     ?_phase_check:	
   913                           ; 1 bytes @ 0x0
   914                           
   915  0070                     ?_SIM300WaitForValidCall:	
   916                           ; 1 bytes @ 0x0
   917                           
   918  0070                     ?_SIM300WaitForValidMsg:	
   919                           ; 1 bytes @ 0x0
   920                           
   921  0070                     ?_USARTDataAvailable:	
   922                           ; 1 bytes @ 0x0
   923                           
   924  0070                     ?_USARTReadData:	
   925                           ; 1 bytes @ 0x0
   926                           
   927  0070                     ?_SIM300ReadValidMsg:	
   928                           ; 1 bytes @ 0x0
   929                           
   930  0070                     ?_toupper:	
   931                           ; 1 bytes @ 0x0
   932                           
   933  0070                     ?_SIM300DeleteMsg:	
   934                           ; 1 bytes @ 0x0
   935                           
   936  0070                     ?_USARTFlushBuffer:	
   937                           ; 1 bytes @ 0x0
   938                           
   939                           
   940                           ; 2 bytes @ 0x0
   941  0070                     	ds	4
   942  0074                     USARTHandleRxInt@data:	
   943                           
   944                           ; 1 bytes @ 0x4
   945  0074                     	ds	1
   946  0075                     ??_ISR:	
   947                           
   948                           ; 0 bytes @ 0x5
   949  0075                     	ds	4
   950                           
   951                           	psect	cstackBANK0
   952  0020                     __pcstackBANK0:	
   953  0020                     ??_eeprom_read:	
   954  0020                     ??_phase_check:	
   955                           ; 0 bytes @ 0x0
   956                           
   957  0020                     ??_start:	
   958                           ; 0 bytes @ 0x0
   959                           
   960  0020                     ??_stop:	
   961                           ; 0 bytes @ 0x0
   962                           
   963  0020                     ?_eeprom_write:	
   964                           ; 0 bytes @ 0x0
   965                           
   966  0020                     ?_USARTInit:	
   967                           ; 0 bytes @ 0x0
   968                           
   969  0020                     ??_USARTDataAvailable:	
   970                           ; 0 bytes @ 0x0
   971                           
   972  0020                     ??_USARTWriteChar:	
   973                           ; 0 bytes @ 0x0
   974                           
   975  0020                     ??_USARTReadData:	
   976                           ; 0 bytes @ 0x0
   977                           
   978  0020                     ??_isdigit:	
   979                           ; 0 bytes @ 0x0
   980                           
   981  0020                     ??_toupper:	
   982                           ; 0 bytes @ 0x0
   983                           
   984  0020                     ?_strcpy:	
   985                           ; 0 bytes @ 0x0
   986                           
   987  0020                     ?_strcat:	
   988                           ; 1 bytes @ 0x0
   989                           
   990  0020                     ?_SIM300CheckResponse:	
   991                           ; 1 bytes @ 0x0
   992                           
   993  0020                     ?_strchr:	
   994                           ; 1 bytes @ 0x0
   995                           
   996  0020                     ?_strlen:	
   997                           ; 1 bytes @ 0x0
   998                           
   999  0020                     ?___wmul:	
  1000                           ; 2 bytes @ 0x0
  1001                           
  1002  0020                     ?___lwdiv:	
  1003                           ; 2 bytes @ 0x0
  1004                           
  1005  0020                     USARTWriteChar@ch:	
  1006                           ; 2 bytes @ 0x0
  1007                           
  1008  0020                     eeprom_write@value:	
  1009                           ; 1 bytes @ 0x0
  1010                           
  1011  0020                     _isdigit$742:	
  1012                           ; 1 bytes @ 0x0
  1013                           
  1014  0020                     SIM300CheckResponse@check:	
  1015                           ; 1 bytes @ 0x0
  1016                           
  1017  0020                     USARTInit@baud_rate:	
  1018                           ; 2 bytes @ 0x0
  1019                           
  1020  0020                     ___wmul@multiplier:	
  1021                           ; 2 bytes @ 0x0
  1022                           
  1023  0020                     ___lwdiv@divisor:	
  1024                           ; 2 bytes @ 0x0
  1025                           
  1026  0020                     strcat@from:	
  1027                           ; 2 bytes @ 0x0
  1028                           
  1029  0020                     strcpy@from:	
  1030                           ; 2 bytes @ 0x0
  1031                           
  1032  0020                     strlen@s:	
  1033                           ; 2 bytes @ 0x0
  1034                           
  1035  0020                     strchr@chr:	
  1036                           ; 2 bytes @ 0x0
  1037                           
  1038                           
  1039                           ; 2 bytes @ 0x0
  1040  0020                     	ds	1
  1041  0021                     ??_eeprom_write:	
  1042  0021                     ?_USARTWriteString:	
  1043                           ; 0 bytes @ 0x1
  1044                           
  1045  0021                     USARTReadData@data:	
  1046                           ; 0 bytes @ 0x1
  1047                           
  1048  0021                     eeprom_read@addr:	
  1049                           ; 1 bytes @ 0x1
  1050                           
  1051  0021                     isdigit@c:	
  1052                           ; 1 bytes @ 0x1
  1053                           
  1054  0021                     toupper@c:	
  1055                           ; 1 bytes @ 0x1
  1056                           
  1057  0021                     USARTWriteString@str:	
  1058                           ; 1 bytes @ 0x1
  1059                           
  1060                           
  1061                           ; 2 bytes @ 0x1
  1062  0021                     	ds	1
  1063  0022                     ??_USARTFlushBuffer:	
  1064  0022                     ??_strcpy:	
  1065                           ; 0 bytes @ 0x2
  1066                           
  1067  0022                     ??_strlen:	
  1068                           ; 0 bytes @ 0x2
  1069                           
  1070  0022                     ??_strcat:	
  1071                           ; 0 bytes @ 0x2
  1072                           
  1073  0022                     ??_USARTInit:	
  1074                           ; 0 bytes @ 0x2
  1075                           
  1076  0022                     ??_strchr:	
  1077                           ; 0 bytes @ 0x2
  1078                           
  1079  0022                     ?_SIM300RingResponse:	
  1080                           ; 0 bytes @ 0x2
  1081                           
  1082  0022                     ?_strrichr:	
  1083                           ; 1 bytes @ 0x2
  1084                           
  1085  0022                     ?_strichr:	
  1086                           ; 1 bytes @ 0x2
  1087                           
  1088  0022                     ?_SIM300WaitForResponse:	
  1089                           ; 1 bytes @ 0x2
  1090                           
  1091  0022                     ?_strnicmp:	
  1092                           ; 1 bytes @ 0x2
  1093                           
  1094  0022                     SIM300CheckResponse@len:	
  1095                           ; 2 bytes @ 0x2
  1096                           
  1097  0022                     eeprom_write@addr:	
  1098                           ; 1 bytes @ 0x2
  1099                           
  1100  0022                     strchr@ptr:	
  1101                           ; 1 bytes @ 0x2
  1102                           
  1103  0022                     SIM300WaitForResponse@timeout:	
  1104                           ; 1 bytes @ 0x2
  1105                           
  1106  0022                     SIM300RingResponse@timeout:	
  1107                           ; 2 bytes @ 0x2
  1108                           
  1109  0022                     ___wmul@multiplicand:	
  1110                           ; 2 bytes @ 0x2
  1111                           
  1112  0022                     ___lwdiv@dividend:	
  1113                           ; 2 bytes @ 0x2
  1114                           
  1115  0022                     strichr@chr:	
  1116                           ; 2 bytes @ 0x2
  1117                           
  1118  0022                     strnicmp@s2:	
  1119                           ; 2 bytes @ 0x2
  1120                           
  1121  0022                     strrichr@chr:	
  1122                           ; 2 bytes @ 0x2
  1123                           
  1124                           
  1125                           ; 2 bytes @ 0x2
  1126  0022                     	ds	1
  1127  0023                     ??_SIM300CheckResponse:	
  1128  0023                     ??_USARTWriteString:	
  1129                           ; 0 bytes @ 0x3
  1130                           
  1131  0023                     strcat@to:	
  1132                           ; 0 bytes @ 0x3
  1133                           
  1134  0023                     strcpy@cp:	
  1135                           ; 1 bytes @ 0x3
  1136                           
  1137                           
  1138                           ; 1 bytes @ 0x3
  1139  0023                     	ds	1
  1140  0024                     ??_SIM300RingResponse:	
  1141  0024                     ??_strrichr:	
  1142                           ; 0 bytes @ 0x4
  1143                           
  1144  0024                     ??_strichr:	
  1145                           ; 0 bytes @ 0x4
  1146                           
  1147  0024                     ??_SIM300WaitForResponse:	
  1148                           ; 0 bytes @ 0x4
  1149                           
  1150  0024                     ??___wmul:	
  1151                           ; 0 bytes @ 0x4
  1152                           
  1153  0024                     ??___lwdiv:	
  1154                           ; 0 bytes @ 0x4
  1155                           
  1156  0024                     strcat@cp:	
  1157                           ; 0 bytes @ 0x4
  1158                           
  1159  0024                     strcpy@to:	
  1160                           ; 1 bytes @ 0x4
  1161                           
  1162  0024                     ___wmul@product:	
  1163                           ; 1 bytes @ 0x4
  1164                           
  1165  0024                     strlen@cp:	
  1166                           ; 2 bytes @ 0x4
  1167                           
  1168  0024                     strnicmp@len:	
  1169                           ; 2 bytes @ 0x4
  1170                           
  1171                           
  1172                           ; 2 bytes @ 0x4
  1173  0024                     	ds	1
  1174  0025                     SIM300WaitForResponse@n:	
  1175  0025                     SIM300RingResponse@n:	
  1176                           ; 2 bytes @ 0x5
  1177                           
  1178  0025                     ___lwdiv@quotient:	
  1179                           ; 2 bytes @ 0x5
  1180                           
  1181                           
  1182                           ; 2 bytes @ 0x5
  1183  0025                     	ds	1
  1184  0026                     ??_strnicmp:	
  1185  0026                     ?_USARTReadBuffer:	
  1186                           ; 0 bytes @ 0x6
  1187                           
  1188  0026                     ?_atoi:	
  1189                           ; 0 bytes @ 0x6
  1190                           
  1191  0026                     ?_strncmp:	
  1192                           ; 2 bytes @ 0x6
  1193                           
  1194  0026                     strichr@ptr:	
  1195                           ; 2 bytes @ 0x6
  1196                           
  1197  0026                     strrichr@cp:	
  1198                           ; 1 bytes @ 0x6
  1199                           
  1200  0026                     USARTReadBuffer@len:	
  1201                           ; 1 bytes @ 0x6
  1202                           
  1203  0026                     strncmp@s2:	
  1204                           ; 2 bytes @ 0x6
  1205                           
  1206                           
  1207                           ; 2 bytes @ 0x6
  1208  0026                     	ds	1
  1209  0027                     SIM300WaitForResponse@i:	
  1210  0027                     SIM300RingResponse@i:	
  1211                           ; 1 bytes @ 0x7
  1212                           
  1213  0027                     ___lwdiv@counter:	
  1214                           ; 1 bytes @ 0x7
  1215                           
  1216  0027                     strrichr@ptr:	
  1217                           ; 1 bytes @ 0x7
  1218                           
  1219                           
  1220                           ; 1 bytes @ 0x7
  1221  0027                     	ds	1
  1222  0028                     ??_USARTReadBuffer:	
  1223  0028                     ??_atoi:	
  1224                           ; 0 bytes @ 0x8
  1225                           
  1226  0028                     ?___lwmod:	
  1227                           ; 0 bytes @ 0x8
  1228                           
  1229  0028                     strnicmp@r:	
  1230                           ; 2 bytes @ 0x8
  1231                           
  1232  0028                     ___lwmod@divisor:	
  1233                           ; 1 bytes @ 0x8
  1234                           
  1235  0028                     strncmp@len:	
  1236                           ; 2 bytes @ 0x8
  1237                           
  1238                           
  1239                           ; 2 bytes @ 0x8
  1240  0028                     	ds	1
  1241  0029                     SIM300CheckResponse@i:	
  1242  0029                     strnicmp@s1:	
  1243                           ; 1 bytes @ 0x9
  1244                           
  1245                           
  1246                           ; 1 bytes @ 0x9
  1247  0029                     	ds	1
  1248  002A                     ??_SIM300WaitForValidCall:	
  1249  002A                     ??_strncmp:	
  1250                           ; 0 bytes @ 0xA
  1251                           
  1252  002A                     SIM300CheckResponse@response:	
  1253                           ; 0 bytes @ 0xA
  1254                           
  1255  002A                     USARTReadBuffer@buff:	
  1256                           ; 1 bytes @ 0xA
  1257                           
  1258  002A                     atoi@sign:	
  1259                           ; 1 bytes @ 0xA
  1260                           
  1261  002A                     ___lwmod@dividend:	
  1262                           ; 1 bytes @ 0xA
  1263                           
  1264                           
  1265                           ; 2 bytes @ 0xA
  1266  002A                     	ds	1
  1267  002B                     SIM300WaitForValidCall@len:	
  1268  002B                     USARTReadBuffer@i:	
  1269                           ; 1 bytes @ 0xB
  1270                           
  1271  002B                     atoi@a:	
  1272                           ; 2 bytes @ 0xB
  1273                           
  1274                           
  1275                           ; 2 bytes @ 0xB
  1276  002B                     	ds	1
  1277  002C                     ??___lwmod:	
  1278  002C                     SIM300WaitForValidCall@start:	
  1279                           ; 0 bytes @ 0xC
  1280                           
  1281  002C                     strncmp@s1:	
  1282                           ; 1 bytes @ 0xC
  1283                           
  1284                           
  1285                           ; 1 bytes @ 0xC
  1286  002C                     	ds	1
  1287  002D                     ?_SIM300Cmd:	
  1288  002D                     ?_strstr:	
  1289                           ; 1 bytes @ 0xD
  1290                           
  1291  002D                     SIM300WaitForValidCall@i:	
  1292                           ; 1 bytes @ 0xD
  1293                           
  1294  002D                     atoi@s:	
  1295                           ; 1 bytes @ 0xD
  1296                           
  1297  002D                     ___lwmod@counter:	
  1298                           ; 1 bytes @ 0xD
  1299                           
  1300  002D                     SIM300Cmd@cmd:	
  1301                           ; 1 bytes @ 0xD
  1302                           
  1303  002D                     strstr@s2:	
  1304                           ; 2 bytes @ 0xD
  1305                           
  1306                           
  1307                           ; 2 bytes @ 0xD
  1308  002D                     	ds	1
  1309  002E                     ?_sprintf:	
  1310  002E                     sprintf@f:	
  1311                           ; 2 bytes @ 0xE
  1312                           
  1313                           
  1314                           ; 2 bytes @ 0xE
  1315  002E                     	ds	1
  1316  002F                     ??_SIM300Cmd:	
  1317  002F                     ??_strstr:	
  1318                           ; 0 bytes @ 0xF
  1319                           
  1320                           
  1321                           ; 0 bytes @ 0xF
  1322  002F                     	ds	2
  1323  0031                     SIM300Cmd@i:	
  1324                           
  1325                           ; 2 bytes @ 0x11
  1326  0031                     	ds	1
  1327  0032                     ??_sprintf:	
  1328  0032                     strstr@s1:	
  1329                           ; 0 bytes @ 0x12
  1330                           
  1331                           
  1332                           ; 1 bytes @ 0x12
  1333  0032                     	ds	1
  1334  0033                     SIM300Cmd@len:	
  1335                           
  1336                           ; 1 bytes @ 0x13
  1337  0033                     	ds	1
  1338  0034                     ??_SIM300Init:	
  1339                           
  1340                           ; 0 bytes @ 0x14
  1341  0034                     	ds	1
  1342  0035                     sprintf@flag:	
  1343                           
  1344                           ; 1 bytes @ 0x15
  1345  0035                     	ds	1
  1346  0036                     sprintf@prec:	
  1347  0036                     SIM300Init@i:	
  1348                           ; 1 bytes @ 0x16
  1349                           
  1350                           
  1351                           ; 2 bytes @ 0x16
  1352  0036                     	ds	1
  1353  0037                     sprintf@ap:	
  1354                           
  1355                           ; 1 bytes @ 0x17
  1356  0037                     	ds	1
  1357  0038                     sprintf@sp:	
  1358                           
  1359                           ; 1 bytes @ 0x18
  1360  0038                     	ds	1
  1361  0039                     sprintf@_val:	
  1362                           
  1363                           ; 4 bytes @ 0x19
  1364  0039                     	ds	4
  1365  003D                     sprintf@c:	
  1366                           
  1367                           ; 1 bytes @ 0x1D
  1368  003D                     	ds	1
  1369  003E                     ??_SIM300ReadValidMsg:	
  1370  003E                     ??_SIM300DeleteMsg:	
  1371                           ; 0 bytes @ 0x1E
  1372                           
  1373                           
  1374                           ; 0 bytes @ 0x1E
  1375  003E                     	ds	2
  1376  0040                     SIM300DeleteMsg@cmd:	
  1377  0040                     SIM300ReadValidMsg@cmd:	
  1378                           ; 16 bytes @ 0x20
  1379                           
  1380                           
  1381                           ; 16 bytes @ 0x20
  1382  0040                     	ds	16
  1383  0050                     SIM300DeleteMsg@i:	
  1384  0050                     SIM300ReadValidMsg@i:	
  1385                           ; 1 bytes @ 0x30
  1386                           
  1387                           
  1388                           ; 1 bytes @ 0x30
  1389  0050                     	ds	1
  1390  0051                     SIM300DeleteMsg@len:	
  1391  0051                     SIM300ReadValidMsg@start:	
  1392                           ; 1 bytes @ 0x31
  1393                           
  1394                           
  1395                           ; 1 bytes @ 0x31
  1396  0051                     	ds	1
  1397  0052                     ?_SIM300SendMsg:	
  1398  0052                     SIM300ReadValidMsg@i_328:	
  1399                           ; 1 bytes @ 0x32
  1400                           
  1401  0052                     SIM300SendMsg@num:	
  1402                           ; 1 bytes @ 0x32
  1403                           
  1404                           
  1405                           ; 2 bytes @ 0x32
  1406  0052                     	ds	1
  1407  0053                     SIM300ReadValidMsg@len:	
  1408                           
  1409                           ; 1 bytes @ 0x33
  1410  0053                     	ds	1
  1411  0054                     ??_SIM300WaitForValidMsg:	
  1412  0054                     SIM300SendMsg@msg:	
  1413                           ; 0 bytes @ 0x34
  1414                           
  1415                           
  1416                           ; 2 bytes @ 0x34
  1417  0054                     	ds	2
  1418  0056                     SIM300SendMsg@msg_ref:	
  1419                           
  1420                           ; 1 bytes @ 0x36
  1421  0056                     	ds	1
  1422  0057                     ??_SIM300SendMsg:	
  1423  0057                     SIM300WaitForValidMsg@response:	
  1424                           ; 0 bytes @ 0x37
  1425                           
  1426                           
  1427                           ; 1 bytes @ 0x37
  1428  0057                     	ds	1
  1429  0058                     SIM300WaitForValidMsg@id:	
  1430                           
  1431                           ; 1 bytes @ 0x38
  1432  0058                     	ds	3
  1433  005B                     ??_SMSCommunication:	
  1434                           
  1435                           ; 0 bytes @ 0x3B
  1436  005B                     	ds	3
  1437  005E                     SMSCommunication@ref:	
  1438                           
  1439                           ; 1 bytes @ 0x3E
  1440  005E                     	ds	1
  1441  005F                     SMSCommunication@ref_201:	
  1442                           
  1443                           ; 1 bytes @ 0x3F
  1444  005F                     	ds	1
  1445  0060                     SMSCommunication@ref_210:	
  1446                           
  1447                           ; 1 bytes @ 0x40
  1448  0060                     	ds	1
  1449  0061                     SMSCommunication@ref_213:	
  1450                           
  1451                           ; 1 bytes @ 0x41
  1452  0061                     	ds	1
  1453  0062                     SMSCommunication@i:	
  1454                           
  1455                           ; 1 bytes @ 0x42
  1456  0062                     	ds	1
  1457  0063                     SMSCommunication@result:	
  1458                           
  1459                           ; 1 bytes @ 0x43
  1460  0063                     	ds	1
  1461  0064                     SMSCommunication@c:	
  1462                           
  1463                           ; 1 bytes @ 0x44
  1464  0064                     	ds	1
  1465  0065                     SMSCommunication@len:	
  1466                           
  1467                           ; 1 bytes @ 0x45
  1468  0065                     	ds	1
  1469  0066                     ??_main:	
  1470                           
  1471                           ; 0 bytes @ 0x46
  1472  0066                     	ds	3
  1473  0069                     main@result:	
  1474                           
  1475                           ; 1 bytes @ 0x49
  1476  0069                     	ds	1
  1477  006A                     main@ten_seconds:	
  1478                           
  1479                           ; 1 bytes @ 0x4A
  1480  006A                     	ds	1
  1481  006B                     main@r:	
  1482                           
  1483                           ; 1 bytes @ 0x4B
  1484  006B                     	ds	1
  1485  006C                     main@i:	
  1486                           
  1487                           ; 1 bytes @ 0x4C
  1488  006C                     	ds	1
  1489  006D                     main@i_172:	
  1490                           
  1491                           ; 1 bytes @ 0x4D
  1492  006D                     	ds	1
  1493  006E                     main@i_177:	
  1494                           
  1495                           ; 1 bytes @ 0x4E
  1496  006E                     	ds	1
  1497  006F                     main@ref:	
  1498                           
  1499                           ; 1 bytes @ 0x4F
  1500  006F                     	ds	1
  1501                           
  1502                           	psect	maintext
  1503  0041                     __pmaintext:	
  1504 ;;
  1505 ;;Main: autosize = 0, tempsize = 3, incstack = 0, save=0
  1506 ;;
  1507 ;; *************** function _main *****************
  1508 ;; Defined at:
  1509 ;;		line 31 in file "E:\Study Material\XC8 PROJECTS\Aurangabad\MobileAdv.c"
  1510 ;; Parameters:    Size  Location     Type
  1511 ;;		None
  1512 ;; Auto vars:     Size  Location     Type
  1513 ;;  i               1   77[BANK0 ] unsigned char 
  1514 ;;  i               1   76[BANK0 ] unsigned char 
  1515 ;;  ten_seconds     1   74[BANK0 ] unsigned char 
  1516 ;;  i               1   78[BANK0 ] unsigned char 
  1517 ;;  ref             1   79[BANK0 ] unsigned char 
  1518 ;;  r               1   75[BANK0 ] char 
  1519 ;;  result          1   73[BANK0 ] unsigned char 
  1520 ;; Return value:  Size  Location     Type
  1521 ;;		None               void
  1522 ;; Registers used:
  1523 ;;		wreg, fsr0l, fsr0h, status,2, status,0, btemp+1, pclath, cstack
  1524 ;; Tracked objects:
  1525 ;;		On entry : 17F/0
  1526 ;;		On exit  : 0/0
  1527 ;;		Unchanged: 0/0
  1528 ;; Data sizes:     COMMON   BANK0   BANK1   BANK3   BANK2
  1529 ;;      Params:         0       0       0       0       0
  1530 ;;      Locals:         0       7       0       0       0
  1531 ;;      Temps:          0       3       0       0       0
  1532 ;;      Totals:         0      10       0       0       0
  1533 ;;Total ram usage:       10 bytes
  1534 ;; Hardware stack levels required when called:    8
  1535 ;; This function calls:
  1536 ;;		_SIM300Cmd
  1537 ;;		_SIM300Init
  1538 ;;		_SIM300SendMsg
  1539 ;;		_SIM300WaitForValidCall
  1540 ;;		_SMSCommunication
  1541 ;;		_USARTFlushBuffer
  1542 ;;		_eeprom_read
  1543 ;;		_eeprom_write
  1544 ;;		_phase_check
  1545 ;;		_start
  1546 ;;		_stop
  1547 ;; This function is called by:
  1548 ;;		Startup code after reset
  1549 ;; This function uses a non-reentrant model
  1550 ;;
  1551                           
  1552                           
  1553                           ;psect for function _main
  1554  0041                     _main:	
  1555                           
  1556                           ;MobileAdv.c: 33: TRISA = 0xFE;
  1557                           
  1558                           ;incstack = 0
  1559                           ; Regs used in _main: [wreg-fsr0h+status,2+status,0+btemp+1+pclath+cstack]
  1560  0041  30FE               	movlw	254
  1561  0042  1683               	bsf	3,5	;RP0=1, select bank1
  1562  0043  1303               	bcf	3,6	;RP1=0, select bank1
  1563  0044  0085               	movwf	5	;volatile
  1564                           
  1565                           ;MobileAdv.c: 34: TRISB = 0x01;
  1566  0045  3001               	movlw	1
  1567  0046  0086               	movwf	6	;volatile
  1568                           
  1569                           ;MobileAdv.c: 35: TRISC = 0xC7;
  1570  0047  30C7               	movlw	199
  1571  0048  0087               	movwf	7	;volatile
  1572                           
  1573                           ;MobileAdv.c: 36: ADCON1 = 0x06;
  1574  0049  3006               	movlw	6
  1575  004A  009F               	movwf	31	;volatile
  1576                           
  1577                           ;MobileAdv.c: 38: RC3 = 0;
  1578  004B  1283               	bcf	3,5	;RP0=0, select bank0
  1579  004C  1303               	bcf	3,6	;RP1=0, select bank0
  1580  004D  1187               	bcf	7,3	;volatile
  1581                           
  1582                           ;MobileAdv.c: 39: RC4 = 0;
  1583  004E  1207               	bcf	7,4	;volatile
  1584                           
  1585                           ;MobileAdv.c: 40: RC5 = 0;
  1586  004F  1287               	bcf	7,5	;volatile
  1587                           
  1588                           ;MobileAdv.c: 42: uint8_t ref,result;
  1589                           ;MobileAdv.c: 45: for(count = 0; count <= 10; count++)
  1590  0050  1683               	bsf	3,5	;RP0=1, select bank1
  1591  0051  1303               	bcf	3,6	;RP1=0, select bank1
  1592  0052  01EF               	clrf	_count^(0+128)
  1593  0053  300B               	movlw	11
  1594  0054  026F               	subwf	_count^(0+128),w
  1595  0055  1803               	btfsc	3,0
  1596  0056  2883               	goto	l3659
  1597  0057                     l107:	
  1598                           
  1599                           ;MobileAdv.c: 46: {
  1600                           ;MobileAdv.c: 47: RB7 = 1;
  1601  0057  1283               	bcf	3,5	;RP0=0, select bank0
  1602  0058  1303               	bcf	3,6	;RP1=0, select bank0
  1603  0059  1786               	bsf	6,7	;volatile
  1604                           
  1605                           ;MobileAdv.c: 48: _delay(1000000);
  1606  005A  3006               	movlw	6
  1607  005B  00E8               	movwf	??_main+2
  1608  005C  3013               	movlw	19
  1609  005D  00E7               	movwf	??_main+1
  1610  005E  30B1               	movlw	177
  1611  005F  00E6               	movwf	??_main
  1612  0060                     u3667:	
  1613  0060  0BE6               	decfsz	??_main,f
  1614  0061  2860               	goto	u3667
  1615  0062  0BE7               	decfsz	??_main+1,f
  1616  0063  2860               	goto	u3667
  1617  0064  0BE8               	decfsz	??_main+2,f
  1618  0065  2860               	goto	u3667
  1619  0066  2867               	nop2
  1620                           
  1621                           ;MobileAdv.c: 49: RB7 = 0;
  1622  0067  1283               	bcf	3,5	;RP0=0, select bank0
  1623  0068  1303               	bcf	3,6	;RP1=0, select bank0
  1624  0069  1386               	bcf	6,7	;volatile
  1625                           
  1626                           ;MobileAdv.c: 50: _delay(1000000);
  1627  006A  3006               	movlw	6
  1628  006B  00E8               	movwf	??_main+2
  1629  006C  3013               	movlw	19
  1630  006D  00E7               	movwf	??_main+1
  1631  006E  30B1               	movlw	177
  1632  006F  00E6               	movwf	??_main
  1633  0070                     u3677:	
  1634  0070  0BE6               	decfsz	??_main,f
  1635  0071  2870               	goto	u3677
  1636  0072  0BE7               	decfsz	??_main+1,f
  1637  0073  2870               	goto	u3677
  1638  0074  0BE8               	decfsz	??_main+2,f
  1639  0075  2870               	goto	u3677
  1640  0076  2877               	nop2
  1641  0077  3001               	movlw	1
  1642  0078  1283               	bcf	3,5	;RP0=0, select bank0
  1643  0079  1303               	bcf	3,6	;RP1=0, select bank0
  1644  007A  00E6               	movwf	??_main
  1645  007B  0866               	movf	??_main,w
  1646  007C  1683               	bsf	3,5	;RP0=1, select bank1
  1647  007D  1303               	bcf	3,6	;RP1=0, select bank1
  1648  007E  07EF               	addwf	_count^(0+128),f
  1649  007F  300B               	movlw	11
  1650  0080  026F               	subwf	_count^(0+128),w
  1651  0081  1C03               	skipc
  1652  0082  2857               	goto	l107
  1653  0083                     l3659:	
  1654                           
  1655                           ;MobileAdv.c: 51: }
  1656                           ;MobileAdv.c: 54: MOTOR_FLAG = (char)eeprom_read(0x01);
  1657  0083  3001               	movlw	1
  1658  0084  160A  118A  2514  120A  118A  	fcall	_eeprom_read
  1659  0089  1283               	bcf	3,5	;RP0=0, select bank0
  1660  008A  1303               	bcf	3,6	;RP1=0, select bank0
  1661  008B  00E6               	movwf	??_main
  1662  008C  0866               	movf	??_main,w
  1663  008D  1683               	bsf	3,5	;RP0=1, select bank1
  1664  008E  1303               	bcf	3,6	;RP1=0, select bank1
  1665  008F  00EB               	movwf	_MOTOR_FLAG^(0+128)
  1666                           
  1667                           ;MobileAdv.c: 55: if(MOTOR_FLAG != 0 && MOTOR_FLAG != 1)
  1668  0090  086B               	movf	_MOTOR_FLAG^(0+128),w
  1669  0091  1903               	btfsc	3,2
  1670  0092  2898               	goto	l3667
  1671  0093  086B               	movf	_MOTOR_FLAG^(0+128),w
  1672  0094  3A01               	xorlw	1
  1673  0095  1903               	skipnz
  1674  0096  2898               	goto	l3667
  1675                           
  1676                           ;MobileAdv.c: 56: MOTOR_FLAG = 0;
  1677  0097  01EB               	clrf	_MOTOR_FLAG^(0+128)
  1678  0098                     l3667:	
  1679                           
  1680                           ;MobileAdv.c: 58: if(MOTOR_FLAG == 1)
  1681  0098  086B               	movf	_MOTOR_FLAG^(0+128),w
  1682  0099  3A01               	xorlw	1
  1683  009A  1D03               	skipz
  1684  009B  289F               	goto	l3671
  1685                           
  1686                           ;MobileAdv.c: 59: REQUIRED_RING_COUNT = 1;
  1687  009C  01A0               	clrf	_REQUIRED_RING_COUNT^(0+128)
  1688  009D  0AA0               	incf	_REQUIRED_RING_COUNT^(0+128),f
  1689  009E  28A7               	goto	l3673
  1690  009F                     l3671:	
  1691                           
  1692                           ;MobileAdv.c: 60: else
  1693                           ;MobileAdv.c: 61: REQUIRED_RING_COUNT = 3;
  1694  009F  3003               	movlw	3
  1695  00A0  1283               	bcf	3,5	;RP0=0, select bank0
  1696  00A1  1303               	bcf	3,6	;RP1=0, select bank0
  1697  00A2  00E6               	movwf	??_main
  1698  00A3  0866               	movf	??_main,w
  1699  00A4  1683               	bsf	3,5	;RP0=1, select bank1
  1700  00A5  1303               	bcf	3,6	;RP1=0, select bank1
  1701  00A6  00A0               	movwf	_REQUIRED_RING_COUNT^(0+128)
  1702  00A7                     l3673:	
  1703                           
  1704                           ;MobileAdv.c: 63: int8_t r= SIM300Init();
  1705  00A7  120A  158A  227B  120A  118A  	fcall	_SIM300Init
  1706  00AC  1283               	bcf	3,5	;RP0=0, select bank0
  1707  00AD  1303               	bcf	3,6	;RP1=0, select bank0
  1708  00AE  00E6               	movwf	??_main
  1709  00AF  0866               	movf	??_main,w
  1710  00B0  00EB               	movwf	main@r
  1711                           
  1712                           ;MobileAdv.c: 64: _delay(1000000);
  1713  00B1  3006               	movlw	6
  1714  00B2  00E8               	movwf	??_main+2
  1715  00B3  3013               	movlw	19
  1716  00B4  00E7               	movwf	??_main+1
  1717  00B5  30B1               	movlw	177
  1718  00B6  00E6               	movwf	??_main
  1719  00B7                     u3687:	
  1720  00B7  0BE6               	decfsz	??_main,f
  1721  00B8  28B7               	goto	u3687
  1722  00B9  0BE7               	decfsz	??_main+1,f
  1723  00BA  28B7               	goto	u3687
  1724  00BB  0BE8               	decfsz	??_main+2,f
  1725  00BC  28B7               	goto	u3687
  1726  00BD  28BE               	nop2
  1727                           
  1728                           ;MobileAdv.c: 66: if(r == 1)
  1729  00BE  1283               	bcf	3,5	;RP0=0, select bank0
  1730  00BF  1303               	bcf	3,6	;RP1=0, select bank0
  1731  00C0  086B               	movf	main@r,w
  1732  00C1  3A01               	xorlw	1
  1733  00C2  1D03               	skipz
  1734  00C3  2926               	goto	l114
  1735                           
  1736                           ;MobileAdv.c: 67: {
  1737                           ;MobileAdv.c: 69: SIM300Cmd("AT+CLIP=1");
  1738  00C4  3002               	movlw	low (STR_1| (0+32768))
  1739  00C5  00AD               	movwf	SIM300Cmd@cmd
  1740  00C6  3089               	movlw	high (STR_1| (0+32768))
  1741  00C7  00AE               	movwf	SIM300Cmd@cmd+1
  1742  00C8  120A  158A  23F2  120A  118A  	fcall	_SIM300Cmd
  1743                           
  1744                           ;MobileAdv.c: 70: _delay(1000000);
  1745  00CD  3006               	movlw	6
  1746  00CE  1283               	bcf	3,5	;RP0=0, select bank0
  1747  00CF  1303               	bcf	3,6	;RP1=0, select bank0
  1748  00D0  00E8               	movwf	??_main+2
  1749  00D1  3013               	movlw	19
  1750  00D2  00E7               	movwf	??_main+1
  1751  00D3  30B1               	movlw	177
  1752  00D4  00E6               	movwf	??_main
  1753  00D5                     u3697:	
  1754  00D5  0BE6               	decfsz	??_main,f
  1755  00D6  28D5               	goto	u3697
  1756  00D7  0BE7               	decfsz	??_main+1,f
  1757  00D8  28D5               	goto	u3697
  1758  00D9  0BE8               	decfsz	??_main+2,f
  1759  00DA  28D5               	goto	u3697
  1760  00DB  28DC               	nop2
  1761                           
  1762                           ;MobileAdv.c: 72: SIM300Cmd("AT+CMGF=1");
  1763  00DC  30F8               	movlw	low (STR_2| (0+32768))
  1764  00DD  1283               	bcf	3,5	;RP0=0, select bank0
  1765  00DE  1303               	bcf	3,6	;RP1=0, select bank0
  1766  00DF  00AD               	movwf	SIM300Cmd@cmd
  1767  00E0  3088               	movlw	high (STR_2| (0+32768))
  1768  00E1  00AE               	movwf	SIM300Cmd@cmd+1
  1769  00E2  120A  158A  23F2  120A  118A  	fcall	_SIM300Cmd
  1770                           
  1771                           ;MobileAdv.c: 73: _delay(1000000);
  1772  00E7  3006               	movlw	6
  1773  00E8  1283               	bcf	3,5	;RP0=0, select bank0
  1774  00E9  1303               	bcf	3,6	;RP1=0, select bank0
  1775  00EA  00E8               	movwf	??_main+2
  1776  00EB  3013               	movlw	19
  1777  00EC  00E7               	movwf	??_main+1
  1778  00ED  30B1               	movlw	177
  1779  00EE  00E6               	movwf	??_main
  1780  00EF                     u3707:	
  1781  00EF  0BE6               	decfsz	??_main,f
  1782  00F0  28EF               	goto	u3707
  1783  00F1  0BE7               	decfsz	??_main+1,f
  1784  00F2  28EF               	goto	u3707
  1785  00F3  0BE8               	decfsz	??_main+2,f
  1786  00F4  28EF               	goto	u3707
  1787  00F5  28F6               	nop2
  1788                           
  1789                           ;MobileAdv.c: 75: SIM300Cmd("AT+CMGD=1");
  1790  00F6  30EE               	movlw	low (STR_3| (0+32768))
  1791  00F7  1283               	bcf	3,5	;RP0=0, select bank0
  1792  00F8  1303               	bcf	3,6	;RP1=0, select bank0
  1793  00F9  00AD               	movwf	SIM300Cmd@cmd
  1794  00FA  3088               	movlw	high (STR_3| (0+32768))
  1795  00FB  00AE               	movwf	SIM300Cmd@cmd+1
  1796  00FC  120A  158A  23F2  120A  118A  	fcall	_SIM300Cmd
  1797                           
  1798                           ;MobileAdv.c: 76: _delay(1000000);
  1799  0101  3006               	movlw	6
  1800  0102  1283               	bcf	3,5	;RP0=0, select bank0
  1801  0103  1303               	bcf	3,6	;RP1=0, select bank0
  1802  0104  00E8               	movwf	??_main+2
  1803  0105  3013               	movlw	19
  1804  0106  00E7               	movwf	??_main+1
  1805  0107  30B1               	movlw	177
  1806  0108  00E6               	movwf	??_main
  1807  0109                     u3717:	
  1808  0109  0BE6               	decfsz	??_main,f
  1809  010A  2909               	goto	u3717
  1810  010B  0BE7               	decfsz	??_main+1,f
  1811  010C  2909               	goto	u3717
  1812  010D  0BE8               	decfsz	??_main+2,f
  1813  010E  2909               	goto	u3717
  1814  010F  2910               	nop2
  1815                           
  1816                           ;MobileAdv.c: 78: USARTFlushBuffer();
  1817  0110  160A  118A  23E8  120A  118A  	fcall	_USARTFlushBuffer
  1818                           
  1819                           ;MobileAdv.c: 80: RB7 = 1;
  1820  0115  1283               	bcf	3,5	;RP0=0, select bank0
  1821  0116  1303               	bcf	3,6	;RP1=0, select bank0
  1822  0117  1786               	bsf	6,7	;volatile
  1823                           
  1824                           ;MobileAdv.c: 81: _delay(1000000);
  1825  0118  3006               	movlw	6
  1826  0119  00E8               	movwf	??_main+2
  1827  011A  3013               	movlw	19
  1828  011B  00E7               	movwf	??_main+1
  1829  011C  30B1               	movlw	177
  1830  011D  00E6               	movwf	??_main
  1831  011E                     u3727:	
  1832  011E  0BE6               	decfsz	??_main,f
  1833  011F  291E               	goto	u3727
  1834  0120  0BE7               	decfsz	??_main+1,f
  1835  0121  291E               	goto	u3727
  1836  0122  0BE8               	decfsz	??_main+2,f
  1837  0123  291E               	goto	u3727
  1838  0124  2925               	nop2
  1839                           
  1840                           ;MobileAdv.c: 84: }
  1841  0125  2A37               	goto	l3777
  1842  0126                     l114:	
  1843                           ;MobileAdv.c: 85: else
  1844                           ;MobileAdv.c: 86: {
  1845                           ;MobileAdv.c: 88: while(1)
  1846                           
  1847                           
  1848                           ;MobileAdv.c: 89: {
  1849                           ;MobileAdv.c: 90: RB7 = 1;
  1850  0126  1283               	bcf	3,5	;RP0=0, select bank0
  1851  0127  1303               	bcf	3,6	;RP1=0, select bank0
  1852  0128  1786               	bsf	6,7	;volatile
  1853                           
  1854                           ;MobileAdv.c: 91: _delay(100000);
  1855  0129  3082               	movlw	130
  1856  012A  00E7               	movwf	??_main+1
  1857  012B  30DD               	movlw	221
  1858  012C  00E6               	movwf	??_main
  1859  012D                     u3737:	
  1860  012D  0BE6               	decfsz	??_main,f
  1861  012E  292D               	goto	u3737
  1862  012F  0BE7               	decfsz	??_main+1,f
  1863  0130  292D               	goto	u3737
  1864  0131  2932               	nop2
  1865                           
  1866                           ;MobileAdv.c: 92: RB7 = 0;
  1867  0132  1283               	bcf	3,5	;RP0=0, select bank0
  1868  0133  1303               	bcf	3,6	;RP1=0, select bank0
  1869  0134  1386               	bcf	6,7	;volatile
  1870                           
  1871                           ;MobileAdv.c: 93: _delay(100000);
  1872  0135  3082               	movlw	130
  1873  0136  00E7               	movwf	??_main+1
  1874  0137  30DD               	movlw	221
  1875  0138  00E6               	movwf	??_main
  1876  0139                     u3747:	
  1877  0139  0BE6               	decfsz	??_main,f
  1878  013A  2939               	goto	u3747
  1879  013B  0BE7               	decfsz	??_main+1,f
  1880  013C  2939               	goto	u3747
  1881  013D  293E               	nop2
  1882  013E  2926               	goto	l114
  1883  013F                     l3699:	
  1884                           ;MobileAdv.c: 100: {
  1885                           ;MobileAdv.c: 102: while(SIM300WaitForValidCall() != 1)
  1886                           
  1887                           ;MobileAdv.c: 94: }
  1888                           ;MobileAdv.c: 95: }
  1889                           ;MobileAdv.c: 99: while(1)
  1890                           
  1891                           
  1892                           ;MobileAdv.c: 103: {
  1893                           ;MobileAdv.c: 105: if(MOTOR_FLAG == 1)
  1894  013F  1683               	bsf	3,5	;RP0=1, select bank1
  1895  0140  1303               	bcf	3,6	;RP1=0, select bank1
  1896  0141  086B               	movf	_MOTOR_FLAG^(0+128),w
  1897  0142  3A01               	xorlw	1
  1898  0143  1D03               	skipz
  1899  0144  2996               	goto	l3733
  1900                           
  1901                           ;MobileAdv.c: 106: {
  1902                           ;MobileAdv.c: 107: if(phase_check() == 1)
  1903  0145  160A  118A  23DD  120A  118A  	fcall	_phase_check
  1904  014A  3A01               	xorlw	1
  1905  014B  1D03               	skipz
  1906  014C  295C               	goto	l3709
  1907                           
  1908                           ;MobileAdv.c: 108: {
  1909                           ;MobileAdv.c: 109: if(LP_FLAG == 0)
  1910  014D  1683               	bsf	3,5	;RP0=1, select bank1
  1911  014E  1303               	bcf	3,6	;RP1=0, select bank1
  1912  014F  08EA               	movf	_LP_FLAG^(0+128),f
  1913  0150  1D03               	skipz
  1914  0151  296A               	goto	l3715
  1915                           
  1916                           ;MobileAdv.c: 110: {
  1917                           ;MobileAdv.c: 111: start();
  1918  0152  160A  118A  2464  120A  118A  	fcall	_start
  1919                           
  1920                           ;MobileAdv.c: 112: LP_FLAG = 1;
  1921  0157  1683               	bsf	3,5	;RP0=1, select bank1
  1922  0158  1303               	bcf	3,6	;RP1=0, select bank1
  1923  0159  01EA               	clrf	_LP_FLAG^(0+128)
  1924  015A  0AEA               	incf	_LP_FLAG^(0+128),f
  1925                           
  1926                           ;MobileAdv.c: 113: }
  1927                           ;MobileAdv.c: 114: }
  1928  015B  296A               	goto	l3715
  1929  015C                     l3709:	
  1930                           
  1931                           ;MobileAdv.c: 115: else
  1932                           ;MobileAdv.c: 116: {
  1933                           ;MobileAdv.c: 117: if(LP_FLAG == 1)
  1934  015C  1683               	bsf	3,5	;RP0=1, select bank1
  1935  015D  1303               	bcf	3,6	;RP1=0, select bank1
  1936  015E  086A               	movf	_LP_FLAG^(0+128),w
  1937  015F  3A01               	xorlw	1
  1938  0160  1D03               	skipz
  1939  0161  296A               	goto	l3715
  1940                           
  1941                           ;MobileAdv.c: 118: {
  1942                           ;MobileAdv.c: 119: stop();
  1943  0162  160A  118A  2486  120A  118A  	fcall	_stop
  1944                           
  1945                           ;MobileAdv.c: 120: LP_FLAG = 0;
  1946  0167  1683               	bsf	3,5	;RP0=1, select bank1
  1947  0168  1303               	bcf	3,6	;RP1=0, select bank1
  1948  0169  01EA               	clrf	_LP_FLAG^(0+128)
  1949  016A                     l3715:	
  1950                           
  1951                           ;MobileAdv.c: 121: }
  1952                           ;MobileAdv.c: 122: }
  1953                           ;MobileAdv.c: 125: if(RB0 == 0)
  1954  016A  1283               	bcf	3,5	;RP0=0, select bank0
  1955  016B  1303               	bcf	3,6	;RP1=0, select bank0
  1956  016C  1806               	btfsc	6,0	;volatile
  1957  016D  2993               	goto	l3731
  1958                           
  1959                           ;MobileAdv.c: 126: {
  1960                           ;MobileAdv.c: 127: Dry_Run_Timer++;
  1961  016E  3001               	movlw	1
  1962  016F  00E6               	movwf	??_main
  1963  0170  0866               	movf	??_main,w
  1964  0171  1683               	bsf	3,5	;RP0=1, select bank1
  1965  0172  1303               	bcf	3,6	;RP1=0, select bank1
  1966  0173  07E9               	addwf	_Dry_Run_Timer^(0+128),f
  1967                           
  1968                           ;MobileAdv.c: 128: if(Dry_Run_Timer > 6)
  1969  0174  3007               	movlw	7
  1970  0175  0269               	subwf	_Dry_Run_Timer^(0+128),w
  1971  0176  1C03               	skipc
  1972  0177  2996               	goto	l3733
  1973                           
  1974                           ;MobileAdv.c: 129: {
  1975                           ;MobileAdv.c: 131: stop();
  1976  0178  160A  118A  2486  120A  118A  	fcall	_stop
  1977                           
  1978                           ;MobileAdv.c: 132: LP_FLAG = 0;
  1979  017D  1683               	bsf	3,5	;RP0=1, select bank1
  1980  017E  1303               	bcf	3,6	;RP1=0, select bank1
  1981  017F  01EA               	clrf	_LP_FLAG^(0+128)
  1982                           
  1983                           ;MobileAdv.c: 133: MOTOR_FLAG = 0;
  1984  0180  01EB               	clrf	_MOTOR_FLAG^(0+128)
  1985                           
  1986                           ;MobileAdv.c: 134: REQUIRED_RING_COUNT = 3;
  1987  0181  3003               	movlw	3
  1988  0182  1283               	bcf	3,5	;RP0=0, select bank0
  1989  0183  1303               	bcf	3,6	;RP1=0, select bank0
  1990  0184  00E6               	movwf	??_main
  1991  0185  0866               	movf	??_main,w
  1992  0186  1683               	bsf	3,5	;RP0=1, select bank1
  1993  0187  1303               	bcf	3,6	;RP1=0, select bank1
  1994  0188  00A0               	movwf	_REQUIRED_RING_COUNT^(0+128)
  1995                           
  1996                           ;MobileAdv.c: 135: eeprom_write(0x01,0);
  1997  0189  1283               	bcf	3,5	;RP0=0, select bank0
  1998  018A  1303               	bcf	3,6	;RP1=0, select bank0
  1999  018B  01A0               	clrf	eeprom_write@value
  2000  018C  3001               	movlw	1
  2001  018D  160A  118A  262F  120A  118A  	fcall	_eeprom_write
  2002                           
  2003                           ;MobileAdv.c: 136: }
  2004                           ;MobileAdv.c: 137: }
  2005  0192  2996               	goto	l3733
  2006  0193                     l3731:	
  2007                           
  2008                           ;MobileAdv.c: 138: else
  2009                           ;MobileAdv.c: 139: {
  2010                           ;MobileAdv.c: 140: Dry_Run_Timer = 0;
  2011  0193  1683               	bsf	3,5	;RP0=1, select bank1
  2012  0194  1303               	bcf	3,6	;RP1=0, select bank1
  2013  0195  01E9               	clrf	_Dry_Run_Timer^(0+128)
  2014  0196                     l3733:	
  2015                           
  2016                           ;MobileAdv.c: 141: }
  2017                           ;MobileAdv.c: 143: }
  2018                           ;MobileAdv.c: 145: if(WRONG_NUMBER == 1)
  2019  0196  1683               	bsf	3,5	;RP0=1, select bank1
  2020  0197  1303               	bcf	3,6	;RP1=0, select bank1
  2021  0198  086E               	movf	_WRONG_NUMBER^(0+128),w
  2022  0199  3A01               	xorlw	1
  2023  019A  1D03               	skipz
  2024  019B  29C8               	goto	l3743
  2025                           
  2026                           ;MobileAdv.c: 146: {
  2027                           ;MobileAdv.c: 148: _delay(1000000);
  2028  019C  3006               	movlw	6
  2029  019D  1283               	bcf	3,5	;RP0=0, select bank0
  2030  019E  1303               	bcf	3,6	;RP1=0, select bank0
  2031  019F  00E8               	movwf	??_main+2
  2032  01A0  3013               	movlw	19
  2033  01A1  00E7               	movwf	??_main+1
  2034  01A2  30B1               	movlw	177
  2035  01A3  00E6               	movwf	??_main
  2036  01A4                     u3757:	
  2037  01A4  0BE6               	decfsz	??_main,f
  2038  01A5  29A4               	goto	u3757
  2039  01A6  0BE7               	decfsz	??_main+1,f
  2040  01A7  29A4               	goto	u3757
  2041  01A8  0BE8               	decfsz	??_main+2,f
  2042  01A9  29A4               	goto	u3757
  2043  01AA  29AB               	nop2
  2044                           
  2045                           ;MobileAdv.c: 149: SIM300Cmd("ATH");
  2046  01AB  3038               	movlw	low (STR_4| (0+32768))
  2047  01AC  1283               	bcf	3,5	;RP0=0, select bank0
  2048  01AD  1303               	bcf	3,6	;RP1=0, select bank0
  2049  01AE  00AD               	movwf	SIM300Cmd@cmd
  2050  01AF  3089               	movlw	high (STR_4| (0+32768))
  2051  01B0  00AE               	movwf	SIM300Cmd@cmd+1
  2052  01B1  120A  158A  23F2  120A  118A  	fcall	_SIM300Cmd
  2053                           
  2054                           ;MobileAdv.c: 150: _delay(1000000);
  2055  01B6  3006               	movlw	6
  2056  01B7  1283               	bcf	3,5	;RP0=0, select bank0
  2057  01B8  1303               	bcf	3,6	;RP1=0, select bank0
  2058  01B9  00E8               	movwf	??_main+2
  2059  01BA  3013               	movlw	19
  2060  01BB  00E7               	movwf	??_main+1
  2061  01BC  30B1               	movlw	177
  2062  01BD  00E6               	movwf	??_main
  2063  01BE                     u3767:	
  2064  01BE  0BE6               	decfsz	??_main,f
  2065  01BF  29BE               	goto	u3767
  2066  01C0  0BE7               	decfsz	??_main+1,f
  2067  01C1  29BE               	goto	u3767
  2068  01C2  0BE8               	decfsz	??_main+2,f
  2069  01C3  29BE               	goto	u3767
  2070  01C4  29C5               	nop2
  2071                           
  2072                           ;MobileAdv.c: 151: WRONG_NUMBER = 0;
  2073  01C5  1683               	bsf	3,5	;RP0=1, select bank1
  2074  01C6  1303               	bcf	3,6	;RP1=0, select bank1
  2075  01C7  01EE               	clrf	_WRONG_NUMBER^(0+128)
  2076  01C8                     l3743:	
  2077                           
  2078                           ;MobileAdv.c: 152: }
  2079                           ;MobileAdv.c: 155: SMSCommunication();
  2080  01C8  120A  118A  24E3  120A  118A  	fcall	_SMSCommunication
  2081                           
  2082                           ;MobileAdv.c: 157: if(RING_COUNT != 0)
  2083  01CD  1683               	bsf	3,5	;RP0=1, select bank1
  2084  01CE  1303               	bcf	3,6	;RP1=0, select bank1
  2085  01CF  086C               	movf	_RING_COUNT^(0+128),w
  2086  01D0  1903               	btfsc	3,2
  2087  01D1  29E1               	goto	l3753
  2088                           
  2089                           ;MobileAdv.c: 158: {
  2090                           ;MobileAdv.c: 159: if(Timer > 2)
  2091  01D2  3003               	movlw	3
  2092  01D3  026D               	subwf	_Timer^(0+128),w
  2093  01D4  1C03               	skipc
  2094  01D5  29D9               	goto	l3751
  2095                           
  2096                           ;MobileAdv.c: 160: {
  2097                           ;MobileAdv.c: 161: RING_COUNT = 0;
  2098  01D6  01EC               	clrf	_RING_COUNT^(0+128)
  2099                           
  2100                           ;MobileAdv.c: 162: Timer = 0;
  2101  01D7  01ED               	clrf	_Timer^(0+128)
  2102                           
  2103                           ;MobileAdv.c: 163: }
  2104  01D8  29E1               	goto	l3753
  2105  01D9                     l3751:	
  2106                           
  2107                           ;MobileAdv.c: 164: else
  2108                           ;MobileAdv.c: 165: {
  2109                           ;MobileAdv.c: 166: Timer++;
  2110  01D9  3001               	movlw	1
  2111  01DA  1283               	bcf	3,5	;RP0=0, select bank0
  2112  01DB  1303               	bcf	3,6	;RP1=0, select bank0
  2113  01DC  00E6               	movwf	??_main
  2114  01DD  0866               	movf	??_main,w
  2115  01DE  1683               	bsf	3,5	;RP0=1, select bank1
  2116  01DF  1303               	bcf	3,6	;RP1=0, select bank1
  2117  01E0  07ED               	addwf	_Timer^(0+128),f
  2118  01E1                     l3753:	
  2119                           
  2120                           ;MobileAdv.c: 167: }
  2121                           ;MobileAdv.c: 168: }
  2122                           ;MobileAdv.c: 170: if(RING_COUNT == 0)
  2123  01E1  08EC               	movf	_RING_COUNT^(0+128),f
  2124  01E2  1D03               	skipz
  2125  01E3  2A37               	goto	l3777
  2126                           
  2127                           ;MobileAdv.c: 171: {
  2128                           ;MobileAdv.c: 173: r= SIM300Init();
  2129  01E4  120A  158A  227B  120A  118A  	fcall	_SIM300Init
  2130  01E9  1283               	bcf	3,5	;RP0=0, select bank0
  2131  01EA  1303               	bcf	3,6	;RP1=0, select bank0
  2132  01EB  00E6               	movwf	??_main
  2133  01EC  0866               	movf	??_main,w
  2134  01ED  00EB               	movwf	main@r
  2135                           
  2136                           ;MobileAdv.c: 174: _delay(250000);
  2137  01EE  3002               	movlw	2
  2138  01EF  00E8               	movwf	??_main+2
  2139  01F0  3045               	movlw	69
  2140  01F1  00E7               	movwf	??_main+1
  2141  01F2  30A9               	movlw	169
  2142  01F3  00E6               	movwf	??_main
  2143  01F4                     u3777:	
  2144  01F4  0BE6               	decfsz	??_main,f
  2145  01F5  29F4               	goto	u3777
  2146  01F6  0BE7               	decfsz	??_main+1,f
  2147  01F7  29F4               	goto	u3777
  2148  01F8  0BE8               	decfsz	??_main+2,f
  2149  01F9  29F4               	goto	u3777
  2150  01FA  29FB               	nop2
  2151                           
  2152                           ;MobileAdv.c: 176: if(r != 1)
  2153  01FB  1283               	bcf	3,5	;RP0=0, select bank0
  2154  01FC  1303               	bcf	3,6	;RP1=0, select bank0
  2155  01FD  086B               	movf	main@r,w
  2156  01FE  3A01               	xorlw	1
  2157  01FF  1D03               	btfss	3,2
  2158  0200  2A2B               	goto	l3773
  2159  0201  2A32               	goto	l3775
  2160  0202                     l135:	
  2161                           ;MobileAdv.c: 177: {
  2162                           ;MobileAdv.c: 179: while(r != 1)
  2163                           
  2164                           
  2165                           ;MobileAdv.c: 180: {
  2166                           ;MobileAdv.c: 181: RB7 = 1;
  2167  0202  1786               	bsf	6,7	;volatile
  2168                           
  2169                           ;MobileAdv.c: 182: _delay(100000);
  2170  0203  3082               	movlw	130
  2171  0204  00E7               	movwf	??_main+1
  2172  0205  30DD               	movlw	221
  2173  0206  00E6               	movwf	??_main
  2174  0207                     u3787:	
  2175  0207  0BE6               	decfsz	??_main,f
  2176  0208  2A07               	goto	u3787
  2177  0209  0BE7               	decfsz	??_main+1,f
  2178  020A  2A07               	goto	u3787
  2179  020B  2A0C               	nop2
  2180                           
  2181                           ;MobileAdv.c: 183: RB7 = 0;
  2182  020C  1283               	bcf	3,5	;RP0=0, select bank0
  2183  020D  1303               	bcf	3,6	;RP1=0, select bank0
  2184  020E  1386               	bcf	6,7	;volatile
  2185                           
  2186                           ;MobileAdv.c: 185: r= SIM300Init();
  2187  020F  120A  158A  227B  120A  118A  	fcall	_SIM300Init
  2188  0214  1283               	bcf	3,5	;RP0=0, select bank0
  2189  0215  1303               	bcf	3,6	;RP1=0, select bank0
  2190  0216  00E6               	movwf	??_main
  2191  0217  0866               	movf	??_main,w
  2192  0218  00EB               	movwf	main@r
  2193                           
  2194                           ;MobileAdv.c: 186: _delay(250000);
  2195  0219  3002               	movlw	2
  2196  021A  00E8               	movwf	??_main+2
  2197  021B  3045               	movlw	69
  2198  021C  00E7               	movwf	??_main+1
  2199  021D  30A9               	movlw	169
  2200  021E  00E6               	movwf	??_main
  2201  021F                     u3797:	
  2202  021F  0BE6               	decfsz	??_main,f
  2203  0220  2A1F               	goto	u3797
  2204  0221  0BE7               	decfsz	??_main+1,f
  2205  0222  2A1F               	goto	u3797
  2206  0223  0BE8               	decfsz	??_main+2,f
  2207  0224  2A1F               	goto	u3797
  2208  0225  2A26               	nop2
  2209                           
  2210                           ;MobileAdv.c: 187: USARTFlushBuffer();
  2211  0226  160A  118A  23E8  120A  118A  	fcall	_USARTFlushBuffer
  2212  022B                     l3773:	
  2213  022B  1283               	bcf	3,5	;RP0=0, select bank0
  2214  022C  1303               	bcf	3,6	;RP1=0, select bank0
  2215  022D  086B               	movf	main@r,w
  2216  022E  3A01               	xorlw	1
  2217  022F  1D03               	skipz
  2218  0230  2A02               	goto	l135
  2219                           
  2220                           ;MobileAdv.c: 188: }
  2221                           ;MobileAdv.c: 189: RB7 = 1;
  2222  0231  1786               	bsf	6,7	;volatile
  2223  0232                     l3775:	
  2224                           
  2225                           ;MobileAdv.c: 190: }
  2226                           ;MobileAdv.c: 191: USARTFlushBuffer();
  2227  0232  160A  118A  23E8  120A  118A  	fcall	_USARTFlushBuffer
  2228  0237                     l3777:	
  2229  0237  120A  158A  2464  120A  118A  	fcall	_SIM300WaitForValidCall
  2230  023C  3A01               	xorlw	1
  2231  023D  1D03               	skipz
  2232  023E  293F               	goto	l3699
  2233                           
  2234                           ;MobileAdv.c: 192: }
  2235                           ;MobileAdv.c: 193: }
  2236                           ;MobileAdv.c: 196: if ( MOTOR_FLAG == 0 )
  2237  023F  1683               	bsf	3,5	;RP0=1, select bank1
  2238  0240  1303               	bcf	3,6	;RP1=0, select bank1
  2239  0241  08EB               	movf	_MOTOR_FLAG^(0+128),f
  2240  0242  1D03               	skipz
  2241  0243  2BE0               	goto	l3865
  2242                           
  2243                           ;MobileAdv.c: 197: {
  2244                           ;MobileAdv.c: 199: if ( phase_check() == 1 )
  2245  0244  160A  118A  23DD  120A  118A  	fcall	_phase_check
  2246  0249  3A01               	xorlw	1
  2247  024A  1D03               	skipz
  2248  024B  2BB7               	goto	l3859
  2249                           
  2250                           ;MobileAdv.c: 200: {
  2251                           ;MobileAdv.c: 201: _delay(5000000);
  2252  024C  301A               	movlw	26
  2253  024D  1283               	bcf	3,5	;RP0=0, select bank0
  2254  024E  1303               	bcf	3,6	;RP1=0, select bank0
  2255  024F  00E8               	movwf	??_main+2
  2256  0250  305E               	movlw	94
  2257  0251  00E7               	movwf	??_main+1
  2258  0252  3086               	movlw	134
  2259  0253  00E6               	movwf	??_main
  2260  0254                     u3807:	
  2261  0254  0BE6               	decfsz	??_main,f
  2262  0255  2A54               	goto	u3807
  2263  0256  0BE7               	decfsz	??_main+1,f
  2264  0257  2A54               	goto	u3807
  2265  0258  0BE8               	decfsz	??_main+2,f
  2266  0259  2A54               	goto	u3807
  2267  025A  0000               	nop
  2268                           
  2269                           ;MobileAdv.c: 204: SIM300Cmd("ATH");
  2270  025B  3038               	movlw	low (STR_4| (0+32768))
  2271  025C  1283               	bcf	3,5	;RP0=0, select bank0
  2272  025D  1303               	bcf	3,6	;RP1=0, select bank0
  2273  025E  00AD               	movwf	SIM300Cmd@cmd
  2274  025F  3089               	movlw	high (STR_4| (0+32768))
  2275  0260  00AE               	movwf	SIM300Cmd@cmd+1
  2276  0261  120A  158A  23F2  120A  118A  	fcall	_SIM300Cmd
  2277                           
  2278                           ;MobileAdv.c: 205: _delay(1000000);
  2279  0266  3006               	movlw	6
  2280  0267  1283               	bcf	3,5	;RP0=0, select bank0
  2281  0268  1303               	bcf	3,6	;RP1=0, select bank0
  2282  0269  00E8               	movwf	??_main+2
  2283  026A  3013               	movlw	19
  2284  026B  00E7               	movwf	??_main+1
  2285  026C  30B1               	movlw	177
  2286  026D  00E6               	movwf	??_main
  2287  026E                     u3817:	
  2288  026E  0BE6               	decfsz	??_main,f
  2289  026F  2A6E               	goto	u3817
  2290  0270  0BE7               	decfsz	??_main+1,f
  2291  0271  2A6E               	goto	u3817
  2292  0272  0BE8               	decfsz	??_main+2,f
  2293  0273  2A6E               	goto	u3817
  2294  0274  2A75               	nop2
  2295                           
  2296                           ;MobileAdv.c: 208: LP_FLAG = 1;
  2297  0275  1683               	bsf	3,5	;RP0=1, select bank1
  2298  0276  1303               	bcf	3,6	;RP1=0, select bank1
  2299  0277  01EA               	clrf	_LP_FLAG^(0+128)
  2300  0278  0AEA               	incf	_LP_FLAG^(0+128),f
  2301                           
  2302                           ;MobileAdv.c: 209: start();
  2303  0279  160A  118A  2464  120A  118A  	fcall	_start
  2304                           
  2305                           ;MobileAdv.c: 210: MOTOR_FLAG = 1;
  2306  027E  1683               	bsf	3,5	;RP0=1, select bank1
  2307  027F  1303               	bcf	3,6	;RP1=0, select bank1
  2308  0280  01EB               	clrf	_MOTOR_FLAG^(0+128)
  2309  0281  0AEB               	incf	_MOTOR_FLAG^(0+128),f
  2310                           
  2311                           ;MobileAdv.c: 211: REQUIRED_RING_COUNT = 1;
  2312  0282  01A0               	clrf	_REQUIRED_RING_COUNT^(0+128)
  2313  0283  0AA0               	incf	_REQUIRED_RING_COUNT^(0+128),f
  2314                           
  2315                           ;MobileAdv.c: 212: Dry_Run_Timer = 0;
  2316  0284  01E9               	clrf	_Dry_Run_Timer^(0+128)
  2317                           
  2318                           ;MobileAdv.c: 214: unsigned char ten_seconds = 0;
  2319  0285  1283               	bcf	3,5	;RP0=0, select bank0
  2320  0286  1303               	bcf	3,6	;RP1=0, select bank0
  2321  0287  01EA               	clrf	main@ten_seconds
  2322                           
  2323                           ;MobileAdv.c: 215: while(phase_check() == 1 && ten_seconds < 5)
  2324  0288  2A9B               	goto	l3805
  2325  0289                     l3801:	
  2326                           
  2327                           ;MobileAdv.c: 216: {
  2328                           ;MobileAdv.c: 217: _delay(10000000);
  2329  0289  3033               	movlw	51
  2330  028A  00E8               	movwf	??_main+2
  2331  028B  30BC               	movlw	188
  2332  028C  00E7               	movwf	??_main+1
  2333  028D  3010               	movlw	16
  2334  028E  00E6               	movwf	??_main
  2335  028F                     u3827:	
  2336  028F  0BE6               	decfsz	??_main,f
  2337  0290  2A8F               	goto	u3827
  2338  0291  0BE7               	decfsz	??_main+1,f
  2339  0292  2A8F               	goto	u3827
  2340  0293  0BE8               	decfsz	??_main+2,f
  2341  0294  2A8F               	goto	u3827
  2342                           
  2343                           ;MobileAdv.c: 218: ten_seconds++;
  2344  0295  3001               	movlw	1
  2345  0296  1283               	bcf	3,5	;RP0=0, select bank0
  2346  0297  1303               	bcf	3,6	;RP1=0, select bank0
  2347  0298  00E6               	movwf	??_main
  2348  0299  0866               	movf	??_main,w
  2349  029A  07EA               	addwf	main@ten_seconds,f
  2350  029B                     l3805:	
  2351  029B  160A  118A  23DD  120A  118A  	fcall	_phase_check
  2352  02A0  3A01               	xorlw	1
  2353  02A1  1D03               	skipz
  2354  02A2  2AA9               	goto	l3809
  2355  02A3  3005               	movlw	5
  2356  02A4  1283               	bcf	3,5	;RP0=0, select bank0
  2357  02A5  1303               	bcf	3,6	;RP1=0, select bank0
  2358  02A6  026A               	subwf	main@ten_seconds,w
  2359  02A7  1C03               	skipc
  2360  02A8  2A89               	goto	l3801
  2361  02A9                     l3809:	
  2362                           
  2363                           ;MobileAdv.c: 219: }
  2364                           ;MobileAdv.c: 220: if(ten_seconds >= 5 && RA5 == 1)
  2365  02A9  3005               	movlw	5
  2366  02AA  1283               	bcf	3,5	;RP0=0, select bank0
  2367  02AB  1303               	bcf	3,6	;RP1=0, select bank0
  2368  02AC  026A               	subwf	main@ten_seconds,w
  2369  02AD  1803               	btfsc	3,0
  2370  02AE  1E85               	btfss	5,5	;volatile
  2371  02AF  2B64               	goto	l3839
  2372                           
  2373                           ;MobileAdv.c: 221: {
  2374                           ;MobileAdv.c: 223: SIM300Cmd(phone_number);
  2375  02B0  30A1               	movlw	_phone_number& (0+255)
  2376  02B1  00AD               	movwf	SIM300Cmd@cmd
  2377  02B2  3000               	movlw	0
  2378  02B3  00AE               	movwf	SIM300Cmd@cmd+1
  2379  02B4  120A  158A  23F2  120A  118A  	fcall	_SIM300Cmd
  2380                           
  2381                           ;MobileAdv.c: 224: _delay(30000000);
  2382  02B9  3099               	movlw	153
  2383  02BA  1283               	bcf	3,5	;RP0=0, select bank0
  2384  02BB  1303               	bcf	3,6	;RP1=0, select bank0
  2385  02BC  00E8               	movwf	??_main+2
  2386  02BD  3032               	movlw	50
  2387  02BE  00E7               	movwf	??_main+1
  2388  02BF  3038               	movlw	56
  2389  02C0  00E6               	movwf	??_main
  2390  02C1                     u3837:	
  2391  02C1  0BE6               	decfsz	??_main,f
  2392  02C2  2AC1               	goto	u3837
  2393  02C3  0BE7               	decfsz	??_main+1,f
  2394  02C4  2AC1               	goto	u3837
  2395  02C5  0BE8               	decfsz	??_main+2,f
  2396  02C6  2AC1               	goto	u3837
  2397  02C7  2AC8               	nop2
  2398                           
  2399                           ;MobileAdv.c: 225: SIM300Cmd("ATH");
  2400  02C8  3038               	movlw	low (STR_4| (0+32768))
  2401  02C9  1283               	bcf	3,5	;RP0=0, select bank0
  2402  02CA  1303               	bcf	3,6	;RP1=0, select bank0
  2403  02CB  00AD               	movwf	SIM300Cmd@cmd
  2404  02CC  3089               	movlw	high (STR_4| (0+32768))
  2405  02CD  00AE               	movwf	SIM300Cmd@cmd+1
  2406  02CE  120A  158A  23F2  120A  118A  	fcall	_SIM300Cmd
  2407                           
  2408                           ;MobileAdv.c: 226: _delay(1000000);
  2409  02D3  3006               	movlw	6
  2410  02D4  1283               	bcf	3,5	;RP0=0, select bank0
  2411  02D5  1303               	bcf	3,6	;RP1=0, select bank0
  2412  02D6  00E8               	movwf	??_main+2
  2413  02D7  3013               	movlw	19
  2414  02D8  00E7               	movwf	??_main+1
  2415  02D9  30B1               	movlw	177
  2416  02DA  00E6               	movwf	??_main
  2417  02DB                     u3847:	
  2418  02DB  0BE6               	decfsz	??_main,f
  2419  02DC  2ADB               	goto	u3847
  2420  02DD  0BE7               	decfsz	??_main+1,f
  2421  02DE  2ADB               	goto	u3847
  2422  02DF  0BE8               	decfsz	??_main+2,f
  2423  02E0  2ADB               	goto	u3847
  2424  02E1  2AE2               	nop2
  2425                           
  2426                           ;MobileAdv.c: 228: eeprom_write(0x01,1);
  2427  02E2  1283               	bcf	3,5	;RP0=0, select bank0
  2428  02E3  1303               	bcf	3,6	;RP1=0, select bank0
  2429  02E4  01A0               	clrf	eeprom_write@value
  2430  02E5  0AA0               	incf	eeprom_write@value,f
  2431  02E6  3001               	movlw	1
  2432  02E7  160A  118A  262F  120A  118A  	fcall	_eeprom_write
  2433                           
  2434                           ;MobileAdv.c: 231: char i = 3;
  2435  02EC  3003               	movlw	3
  2436  02ED  1283               	bcf	3,5	;RP0=0, select bank0
  2437  02EE  1303               	bcf	3,6	;RP1=0, select bank0
  2438  02EF  00E6               	movwf	??_main
  2439  02F0  0866               	movf	??_main,w
  2440  02F1  00EC               	movwf	main@i
  2441  02F2                     l3827:	
  2442                           ;MobileAdv.c: 232: while(phone_number[i] != ';')
  2443                           
  2444  02F2  086C               	movf	main@i,w
  2445  02F3  3EA1               	addlw	_phone_number& (0+255)
  2446  02F4  0084               	movwf	4
  2447  02F5  1383               	bcf	3,7	;select IRP bank1
  2448  02F6  0800               	movf	0,w
  2449  02F7  3A3B               	xorlw	59
  2450  02F8  1903               	btfsc	3,2
  2451  02F9  2B0F               	goto	l3829
  2452                           
  2453                           ;MobileAdv.c: 233: {
  2454                           ;MobileAdv.c: 234: eeprom_write(i,phone_number[i]);
  2455  02FA  086C               	movf	main@i,w
  2456  02FB  3EA1               	addlw	_phone_number& (0+255)
  2457  02FC  0084               	movwf	4
  2458  02FD  1383               	bcf	3,7	;select IRP bank1
  2459  02FE  0800               	movf	0,w
  2460  02FF  00E6               	movwf	??_main
  2461  0300  0866               	movf	??_main,w
  2462  0301  00A0               	movwf	eeprom_write@value
  2463  0302  086C               	movf	main@i,w
  2464  0303  160A  118A  262F  120A  118A  	fcall	_eeprom_write
  2465                           
  2466                           ;MobileAdv.c: 235: i++;
  2467  0308  3001               	movlw	1
  2468  0309  1283               	bcf	3,5	;RP0=0, select bank0
  2469  030A  1303               	bcf	3,6	;RP1=0, select bank0
  2470  030B  00E6               	movwf	??_main
  2471  030C  0866               	movf	??_main,w
  2472  030D  07EC               	addwf	main@i,f
  2473  030E  2AF2               	goto	l3827
  2474  030F                     l3829:	
  2475                           
  2476                           ;MobileAdv.c: 236: }
  2477                           ;MobileAdv.c: 237: eeprom_write(i,';');
  2478  030F  303B               	movlw	59
  2479  0310  00E6               	movwf	??_main
  2480  0311  0866               	movf	??_main,w
  2481  0312  00A0               	movwf	eeprom_write@value
  2482  0313  086C               	movf	main@i,w
  2483  0314  160A  118A  262F  120A  118A  	fcall	_eeprom_write
  2484                           
  2485                           ;MobileAdv.c: 241: result=SIM300SendMsg("9403585436","MOTOR IS STARTED ...!",&ref);
  2486  0319  30E3               	movlw	low (STR_7| (0+32768))
  2487  031A  1283               	bcf	3,5	;RP0=0, select bank0
  2488  031B  1303               	bcf	3,6	;RP1=0, select bank0
  2489  031C  00D2               	movwf	SIM300SendMsg@num
  2490  031D  3088               	movlw	high (STR_7| (0+32768))
  2491  031E  00D3               	movwf	SIM300SendMsg@num+1
  2492  031F  3032               	movlw	low (STR_8| (0+32768))
  2493  0320  00D4               	movwf	SIM300SendMsg@msg
  2494  0321  3088               	movlw	high (STR_8| (0+32768))
  2495  0322  00D5               	movwf	SIM300SendMsg@msg+1
  2496  0323  306F               	movlw	main@ref& (0+255)
  2497  0324  00E6               	movwf	??_main
  2498  0325  0866               	movf	??_main,w
  2499  0326  00D6               	movwf	SIM300SendMsg@msg_ref
  2500  0327  120A  158A  25B6  120A  118A  	fcall	_SIM300SendMsg
  2501  032C  1283               	bcf	3,5	;RP0=0, select bank0
  2502  032D  1303               	bcf	3,6	;RP1=0, select bank0
  2503  032E  00E7               	movwf	??_main+1
  2504  032F  0867               	movf	??_main+1,w
  2505  0330  00E9               	movwf	main@result
  2506                           
  2507                           ;MobileAdv.c: 242: _delay(5000000);
  2508  0331  301A               	movlw	26
  2509  0332  00E8               	movwf	??_main+2
  2510  0333  305E               	movlw	94
  2511  0334  00E7               	movwf	??_main+1
  2512  0335  3086               	movlw	134
  2513  0336  00E6               	movwf	??_main
  2514  0337                     u3857:	
  2515  0337  0BE6               	decfsz	??_main,f
  2516  0338  2B37               	goto	u3857
  2517  0339  0BE7               	decfsz	??_main+1,f
  2518  033A  2B37               	goto	u3857
  2519  033B  0BE8               	decfsz	??_main+2,f
  2520  033C  2B37               	goto	u3857
  2521  033D  0000               	nop
  2522                           
  2523                           ;MobileAdv.c: 243: result=SIM300SendMsg("9819895913","MOTOR IS STARTED ...!",&ref);
  2524  033E  30D8               	movlw	low (STR_9| (0+32768))
  2525  033F  1283               	bcf	3,5	;RP0=0, select bank0
  2526  0340  1303               	bcf	3,6	;RP1=0, select bank0
  2527  0341  00D2               	movwf	SIM300SendMsg@num
  2528  0342  3088               	movlw	high (STR_9| (0+32768))
  2529  0343  00D3               	movwf	SIM300SendMsg@num+1
  2530  0344  3032               	movlw	low (STR_8| (0+32768))
  2531  0345  00D4               	movwf	SIM300SendMsg@msg
  2532  0346  3088               	movlw	high (STR_8| (0+32768))
  2533  0347  00D5               	movwf	SIM300SendMsg@msg+1
  2534  0348  306F               	movlw	main@ref& (0+255)
  2535  0349  00E6               	movwf	??_main
  2536  034A  0866               	movf	??_main,w
  2537  034B  00D6               	movwf	SIM300SendMsg@msg_ref
  2538  034C  120A  158A  25B6  120A  118A  	fcall	_SIM300SendMsg
  2539  0351  1283               	bcf	3,5	;RP0=0, select bank0
  2540  0352  1303               	bcf	3,6	;RP1=0, select bank0
  2541  0353  00E7               	movwf	??_main+1
  2542  0354  0867               	movf	??_main+1,w
  2543  0355  00E9               	movwf	main@result
  2544                           
  2545                           ;MobileAdv.c: 244: _delay(5000000);
  2546  0356  301A               	movlw	26
  2547  0357  00E8               	movwf	??_main+2
  2548  0358  305E               	movlw	94
  2549  0359  00E7               	movwf	??_main+1
  2550  035A  3086               	movlw	134
  2551  035B  00E6               	movwf	??_main
  2552  035C                     u3867:	
  2553  035C  0BE6               	decfsz	??_main,f
  2554  035D  2B5C               	goto	u3867
  2555  035E  0BE7               	decfsz	??_main+1,f
  2556  035F  2B5C               	goto	u3867
  2557  0360  0BE8               	decfsz	??_main+2,f
  2558  0361  2B5C               	goto	u3867
  2559  0362  0000               	nop
  2560                           
  2561                           ;MobileAdv.c: 247: }
  2562  0363  2A37               	goto	l3777
  2563  0364                     l3839:	
  2564                           
  2565                           ;MobileAdv.c: 248: else
  2566                           ;MobileAdv.c: 249: {
  2567                           ;MobileAdv.c: 250: stop();
  2568  0364  160A  118A  2486  120A  118A  	fcall	_stop
  2569                           
  2570                           ;MobileAdv.c: 251: uint8_t i = 3;
  2571  0369  3003               	movlw	3
  2572  036A  1283               	bcf	3,5	;RP0=0, select bank0
  2573  036B  1303               	bcf	3,6	;RP1=0, select bank0
  2574  036C  00E6               	movwf	??_main
  2575  036D  0866               	movf	??_main,w
  2576  036E  00ED               	movwf	main@i_172
  2577  036F                     l3847:	
  2578                           ;MobileAdv.c: 252: while(phone_number[i] != ';')
  2579                           
  2580  036F  086D               	movf	main@i_172,w
  2581  0370  3EA1               	addlw	_phone_number& (0+255)
  2582  0371  0084               	movwf	4
  2583  0372  1383               	bcf	3,7	;select IRP bank1
  2584  0373  0800               	movf	0,w
  2585  0374  3A3B               	xorlw	59
  2586  0375  1903               	btfsc	3,2
  2587  0376  2B89               	goto	l3849
  2588                           
  2589                           ;MobileAdv.c: 253: {
  2590                           ;MobileAdv.c: 254: MSG_number[i-3] = phone_number[i];
  2591  0377  086D               	movf	main@i_172,w
  2592  0378  3EA1               	addlw	_phone_number& (0+255)
  2593  0379  0084               	movwf	4
  2594  037A  1383               	bcf	3,7	;select IRP bank1
  2595  037B  0800               	movf	0,w
  2596  037C  00E6               	movwf	??_main
  2597  037D  086D               	movf	main@i_172,w
  2598  037E  3EFD               	addlw	253
  2599  037F  3ED6               	addlw	_MSG_number& (0+255)
  2600  0380  0084               	movwf	4
  2601  0381  0866               	movf	??_main,w
  2602  0382  1783               	bsf	3,7	;select IRP bank3
  2603  0383  0080               	movwf	0
  2604                           
  2605                           ;MobileAdv.c: 255: i++;
  2606  0384  3001               	movlw	1
  2607  0385  00E6               	movwf	??_main
  2608  0386  0866               	movf	??_main,w
  2609  0387  07ED               	addwf	main@i_172,f
  2610  0388  2B6F               	goto	l3847
  2611  0389                     l3849:	
  2612                           
  2613                           ;MobileAdv.c: 256: }
  2614                           ;MobileAdv.c: 257: MSG_number[i-3] = '\0';
  2615  0389  086D               	movf	main@i_172,w
  2616  038A  3EFD               	addlw	253
  2617  038B  3ED6               	addlw	_MSG_number& (0+255)
  2618  038C  0084               	movwf	4
  2619  038D  1783               	bsf	3,7	;select IRP bank3
  2620  038E  0180               	clrf	0
  2621                           
  2622                           ;MobileAdv.c: 259: result=SIM300SendMsg(MSG_number,"STARTER PROBLEM...!",&ref);
  2623  038F  30D6               	movlw	_MSG_number& (0+255)
  2624  0390  00D2               	movwf	SIM300SendMsg@num
  2625  0391  3001               	movlw	1
  2626  0392  00D3               	movwf	SIM300SendMsg@num+1
  2627  0393  305D               	movlw	low (STR_11| (0+32768))
  2628  0394  00D4               	movwf	SIM300SendMsg@msg
  2629  0395  3088               	movlw	high (STR_11| (0+32768))
  2630  0396  00D5               	movwf	SIM300SendMsg@msg+1
  2631  0397  306F               	movlw	main@ref& (0+255)
  2632  0398  00E6               	movwf	??_main
  2633  0399  0866               	movf	??_main,w
  2634  039A  00D6               	movwf	SIM300SendMsg@msg_ref
  2635  039B  120A  158A  25B6  120A  118A  	fcall	_SIM300SendMsg
  2636  03A0  1283               	bcf	3,5	;RP0=0, select bank0
  2637  03A1  1303               	bcf	3,6	;RP1=0, select bank0
  2638  03A2  00E7               	movwf	??_main+1
  2639  03A3  0867               	movf	??_main+1,w
  2640  03A4  00E9               	movwf	main@result
  2641                           
  2642                           ;MobileAdv.c: 260: _delay(1000000);
  2643  03A5  3006               	movlw	6
  2644  03A6  00E8               	movwf	??_main+2
  2645  03A7  3013               	movlw	19
  2646  03A8  00E7               	movwf	??_main+1
  2647  03A9  30B1               	movlw	177
  2648  03AA  00E6               	movwf	??_main
  2649  03AB                     u3877:	
  2650  03AB  0BE6               	decfsz	??_main,f
  2651  03AC  2BAB               	goto	u3877
  2652  03AD  0BE7               	decfsz	??_main+1,f
  2653  03AE  2BAB               	goto	u3877
  2654  03AF  0BE8               	decfsz	??_main+2,f
  2655  03B0  2BAB               	goto	u3877
  2656  03B1  2BB2               	nop2
  2657                           
  2658                           ;MobileAdv.c: 261: MOTOR_FLAG = 0;
  2659  03B2  1683               	bsf	3,5	;RP0=1, select bank1
  2660  03B3  1303               	bcf	3,6	;RP1=0, select bank1
  2661  03B4  01EB               	clrf	_MOTOR_FLAG^(0+128)
  2662                           
  2663                           ;MobileAdv.c: 262: LP_FLAG = 0;
  2664  03B5  01EA               	clrf	_LP_FLAG^(0+128)
  2665                           
  2666                           ;MobileAdv.c: 263: }
  2667                           ;MobileAdv.c: 264: }
  2668  03B6  2A37               	goto	l3777
  2669  03B7                     l3859:	
  2670                           
  2671                           ;MobileAdv.c: 266: else
  2672                           ;MobileAdv.c: 267: {
  2673                           ;MobileAdv.c: 269: _delay(35000000);
  2674  03B7  30B2               	movlw	178
  2675  03B8  1283               	bcf	3,5	;RP0=0, select bank0
  2676  03B9  1303               	bcf	3,6	;RP1=0, select bank0
  2677  03BA  00E8               	movwf	??_main+2
  2678  03BB  308F               	movlw	143
  2679  03BC  00E7               	movwf	??_main+1
  2680  03BD  30C3               	movlw	195
  2681  03BE  00E6               	movwf	??_main
  2682  03BF                     u3887:	
  2683  03BF  0BE6               	decfsz	??_main,f
  2684  03C0  2BBF               	goto	u3887
  2685  03C1  0BE7               	decfsz	??_main+1,f
  2686  03C2  2BBF               	goto	u3887
  2687  03C3  0BE8               	decfsz	??_main+2,f
  2688  03C4  2BBF               	goto	u3887
  2689                           
  2690                           ;MobileAdv.c: 271: SIM300Cmd("ATH");
  2691  03C5  3038               	movlw	low (STR_4| (0+32768))
  2692  03C6  1283               	bcf	3,5	;RP0=0, select bank0
  2693  03C7  1303               	bcf	3,6	;RP1=0, select bank0
  2694  03C8  00AD               	movwf	SIM300Cmd@cmd
  2695  03C9  3089               	movlw	high (STR_4| (0+32768))
  2696  03CA  00AE               	movwf	SIM300Cmd@cmd+1
  2697  03CB  120A  158A  23F2  120A  118A  	fcall	_SIM300Cmd
  2698                           
  2699                           ;MobileAdv.c: 272: _delay(1000000);
  2700  03D0  3006               	movlw	6
  2701  03D1  1283               	bcf	3,5	;RP0=0, select bank0
  2702  03D2  1303               	bcf	3,6	;RP1=0, select bank0
  2703  03D3  00E8               	movwf	??_main+2
  2704  03D4  3013               	movlw	19
  2705  03D5  00E7               	movwf	??_main+1
  2706  03D6  30B1               	movlw	177
  2707  03D7  00E6               	movwf	??_main
  2708  03D8                     u3897:	
  2709  03D8  0BE6               	decfsz	??_main,f
  2710  03D9  2BD8               	goto	u3897
  2711  03DA  0BE7               	decfsz	??_main+1,f
  2712  03DB  2BD8               	goto	u3897
  2713  03DC  0BE8               	decfsz	??_main+2,f
  2714  03DD  2BD8               	goto	u3897
  2715  03DE  2BDF               	nop2
  2716                           
  2717                           ;MobileAdv.c: 273: }
  2718                           ;MobileAdv.c: 274: continue;
  2719  03DF  2A37               	goto	l3777
  2720  03E0                     l3865:	
  2721                           
  2722                           ;MobileAdv.c: 275: }
  2723                           ;MobileAdv.c: 278: if( MOTOR_FLAG == 1 )
  2724  03E0  1683               	bsf	3,5	;RP0=1, select bank1
  2725  03E1  1303               	bcf	3,6	;RP1=0, select bank1
  2726  03E2  086B               	movf	_MOTOR_FLAG^(0+128),w
  2727  03E3  3A01               	xorlw	1
  2728  03E4  1D03               	skipz
  2729  03E5  2A37               	goto	l3777
  2730                           
  2731                           ;MobileAdv.c: 279: {
  2732                           ;MobileAdv.c: 280: _delay(6000000);
  2733  03E6  301F               	movlw	31
  2734  03E7  1283               	bcf	3,5	;RP0=0, select bank0
  2735  03E8  1303               	bcf	3,6	;RP1=0, select bank0
  2736  03E9  00E8               	movwf	??_main+2
  2737  03EA  3071               	movlw	113
  2738  03EB  00E7               	movwf	??_main+1
  2739  03EC  303B               	movlw	59
  2740  03ED  00E6               	movwf	??_main
  2741  03EE                     u3907:	
  2742  03EE  0BE6               	decfsz	??_main,f
  2743  03EF  2BEE               	goto	u3907
  2744  03F0  0BE7               	decfsz	??_main+1,f
  2745  03F1  2BEE               	goto	u3907
  2746  03F2  0BE8               	decfsz	??_main+2,f
  2747  03F3  2BEE               	goto	u3907
  2748  03F4  0000               	nop
  2749                           
  2750                           ;MobileAdv.c: 283: SIM300Cmd("ATH");
  2751  03F5  3038               	movlw	low (STR_4| (0+32768))
  2752  03F6  1283               	bcf	3,5	;RP0=0, select bank0
  2753  03F7  1303               	bcf	3,6	;RP1=0, select bank0
  2754  03F8  00AD               	movwf	SIM300Cmd@cmd
  2755  03F9  3089               	movlw	high (STR_4| (0+32768))
  2756  03FA  00AE               	movwf	SIM300Cmd@cmd+1
  2757  03FB  120A  158A  23F2  120A  118A  	fcall	_SIM300Cmd
  2758                           
  2759                           ;MobileAdv.c: 284: _delay(1000000);
  2760  0400  3006               	movlw	6
  2761  0401  1283               	bcf	3,5	;RP0=0, select bank0
  2762  0402  1303               	bcf	3,6	;RP1=0, select bank0
  2763  0403  00E8               	movwf	??_main+2
  2764  0404  3013               	movlw	19
  2765  0405  00E7               	movwf	??_main+1
  2766  0406  30B1               	movlw	177
  2767  0407  00E6               	movwf	??_main
  2768  0408                     u3917:	
  2769  0408  0BE6               	decfsz	??_main,f
  2770  0409  2C08               	goto	u3917
  2771  040A  0BE7               	decfsz	??_main+1,f
  2772  040B  2C08               	goto	u3917
  2773  040C  0BE8               	decfsz	??_main+2,f
  2774  040D  2C08               	goto	u3917
  2775  040E  2C0F               	nop2
  2776                           
  2777                           ;MobileAdv.c: 286: stop();
  2778  040F  160A  118A  2486  120A  118A  	fcall	_stop
  2779                           
  2780                           ;MobileAdv.c: 287: MOTOR_FLAG = 0;
  2781  0414  1683               	bsf	3,5	;RP0=1, select bank1
  2782  0415  1303               	bcf	3,6	;RP1=0, select bank1
  2783  0416  01EB               	clrf	_MOTOR_FLAG^(0+128)
  2784                           
  2785                           ;MobileAdv.c: 288: LP_FLAG = 0;
  2786  0417  01EA               	clrf	_LP_FLAG^(0+128)
  2787                           
  2788                           ;MobileAdv.c: 289: REQUIRED_RING_COUNT = 3;
  2789  0418  3003               	movlw	3
  2790  0419  1283               	bcf	3,5	;RP0=0, select bank0
  2791  041A  1303               	bcf	3,6	;RP1=0, select bank0
  2792  041B  00E6               	movwf	??_main
  2793  041C  0866               	movf	??_main,w
  2794  041D  1683               	bsf	3,5	;RP0=1, select bank1
  2795  041E  1303               	bcf	3,6	;RP1=0, select bank1
  2796  041F  00A0               	movwf	_REQUIRED_RING_COUNT^(0+128)
  2797                           
  2798                           ;MobileAdv.c: 292: _delay(10000000);
  2799  0420  3033               	movlw	51
  2800  0421  1283               	bcf	3,5	;RP0=0, select bank0
  2801  0422  1303               	bcf	3,6	;RP1=0, select bank0
  2802  0423  00E8               	movwf	??_main+2
  2803  0424  30BC               	movlw	188
  2804  0425  00E7               	movwf	??_main+1
  2805  0426  3010               	movlw	16
  2806  0427  00E6               	movwf	??_main
  2807  0428                     u3927:	
  2808  0428  0BE6               	decfsz	??_main,f
  2809  0429  2C28               	goto	u3927
  2810  042A  0BE7               	decfsz	??_main+1,f
  2811  042B  2C28               	goto	u3927
  2812  042C  0BE8               	decfsz	??_main+2,f
  2813  042D  2C28               	goto	u3927
  2814                           
  2815                           ;MobileAdv.c: 295: SIM300Cmd(phone_number);
  2816  042E  30A1               	movlw	_phone_number& (0+255)
  2817  042F  1283               	bcf	3,5	;RP0=0, select bank0
  2818  0430  1303               	bcf	3,6	;RP1=0, select bank0
  2819  0431  00AD               	movwf	SIM300Cmd@cmd
  2820  0432  3000               	movlw	0
  2821  0433  00AE               	movwf	SIM300Cmd@cmd+1
  2822  0434  120A  158A  23F2  120A  118A  	fcall	_SIM300Cmd
  2823                           
  2824                           ;MobileAdv.c: 296: _delay(30000000);
  2825  0439  3099               	movlw	153
  2826  043A  1283               	bcf	3,5	;RP0=0, select bank0
  2827  043B  1303               	bcf	3,6	;RP1=0, select bank0
  2828  043C  00E8               	movwf	??_main+2
  2829  043D  3032               	movlw	50
  2830  043E  00E7               	movwf	??_main+1
  2831  043F  3038               	movlw	56
  2832  0440  00E6               	movwf	??_main
  2833  0441                     u3937:	
  2834  0441  0BE6               	decfsz	??_main,f
  2835  0442  2C41               	goto	u3937
  2836  0443  0BE7               	decfsz	??_main+1,f
  2837  0444  2C41               	goto	u3937
  2838  0445  0BE8               	decfsz	??_main+2,f
  2839  0446  2C41               	goto	u3937
  2840  0447  2C48               	nop2
  2841                           
  2842                           ;MobileAdv.c: 297: SIM300Cmd("ATH");
  2843  0448  3038               	movlw	low (STR_4| (0+32768))
  2844  0449  1283               	bcf	3,5	;RP0=0, select bank0
  2845  044A  1303               	bcf	3,6	;RP1=0, select bank0
  2846  044B  00AD               	movwf	SIM300Cmd@cmd
  2847  044C  3089               	movlw	high (STR_4| (0+32768))
  2848  044D  00AE               	movwf	SIM300Cmd@cmd+1
  2849  044E  120A  158A  23F2  120A  118A  	fcall	_SIM300Cmd
  2850                           
  2851                           ;MobileAdv.c: 298: _delay(1000000);
  2852  0453  3006               	movlw	6
  2853  0454  1283               	bcf	3,5	;RP0=0, select bank0
  2854  0455  1303               	bcf	3,6	;RP1=0, select bank0
  2855  0456  00E8               	movwf	??_main+2
  2856  0457  3013               	movlw	19
  2857  0458  00E7               	movwf	??_main+1
  2858  0459  30B1               	movlw	177
  2859  045A  00E6               	movwf	??_main
  2860  045B                     u3947:	
  2861  045B  0BE6               	decfsz	??_main,f
  2862  045C  2C5B               	goto	u3947
  2863  045D  0BE7               	decfsz	??_main+1,f
  2864  045E  2C5B               	goto	u3947
  2865  045F  0BE8               	decfsz	??_main+2,f
  2866  0460  2C5B               	goto	u3947
  2867  0461  2C62               	nop2
  2868                           
  2869                           ;MobileAdv.c: 300: eeprom_write(0x01,0);
  2870  0462  1283               	bcf	3,5	;RP0=0, select bank0
  2871  0463  1303               	bcf	3,6	;RP1=0, select bank0
  2872  0464  01A0               	clrf	eeprom_write@value
  2873  0465  3001               	movlw	1
  2874  0466  160A  118A  262F  120A  118A  	fcall	_eeprom_write
  2875                           
  2876                           ;MobileAdv.c: 303: char i = 3;
  2877  046B  3003               	movlw	3
  2878  046C  1283               	bcf	3,5	;RP0=0, select bank0
  2879  046D  1303               	bcf	3,6	;RP1=0, select bank0
  2880  046E  00E6               	movwf	??_main
  2881  046F  0866               	movf	??_main,w
  2882  0470  00EE               	movwf	main@i_177
  2883  0471                     l3899:	
  2884                           ;MobileAdv.c: 304: while(phone_number[i] != ';')
  2885                           
  2886  0471  086E               	movf	main@i_177,w
  2887  0472  3EA1               	addlw	_phone_number& (0+255)
  2888  0473  0084               	movwf	4
  2889  0474  1383               	bcf	3,7	;select IRP bank1
  2890  0475  0800               	movf	0,w
  2891  0476  3A3B               	xorlw	59
  2892  0477  1903               	btfsc	3,2
  2893  0478  2C8E               	goto	l3901
  2894                           
  2895                           ;MobileAdv.c: 305: {
  2896                           ;MobileAdv.c: 306: eeprom_write(i,phone_number[i]);
  2897  0479  086E               	movf	main@i_177,w
  2898  047A  3EA1               	addlw	_phone_number& (0+255)
  2899  047B  0084               	movwf	4
  2900  047C  1383               	bcf	3,7	;select IRP bank1
  2901  047D  0800               	movf	0,w
  2902  047E  00E6               	movwf	??_main
  2903  047F  0866               	movf	??_main,w
  2904  0480  00A0               	movwf	eeprom_write@value
  2905  0481  086E               	movf	main@i_177,w
  2906  0482  160A  118A  262F  120A  118A  	fcall	_eeprom_write
  2907                           
  2908                           ;MobileAdv.c: 307: i++;
  2909  0487  3001               	movlw	1
  2910  0488  1283               	bcf	3,5	;RP0=0, select bank0
  2911  0489  1303               	bcf	3,6	;RP1=0, select bank0
  2912  048A  00E6               	movwf	??_main
  2913  048B  0866               	movf	??_main,w
  2914  048C  07EE               	addwf	main@i_177,f
  2915  048D  2C71               	goto	l3899
  2916  048E                     l3901:	
  2917                           
  2918                           ;MobileAdv.c: 308: }
  2919                           ;MobileAdv.c: 309: eeprom_write(i,';');
  2920  048E  303B               	movlw	59
  2921  048F  00E6               	movwf	??_main
  2922  0490  0866               	movf	??_main,w
  2923  0491  00A0               	movwf	eeprom_write@value
  2924  0492  086E               	movf	main@i_177,w
  2925  0493  160A  118A  262F  120A  118A  	fcall	_eeprom_write
  2926                           
  2927                           ;MobileAdv.c: 313: result=SIM300SendMsg("9403585436","MOTOR IS STOPPED ...!",&ref);
  2928  0498  30E3               	movlw	low (STR_7| (0+32768))
  2929  0499  1283               	bcf	3,5	;RP0=0, select bank0
  2930  049A  1303               	bcf	3,6	;RP1=0, select bank0
  2931  049B  00D2               	movwf	SIM300SendMsg@num
  2932  049C  3088               	movlw	high (STR_7| (0+32768))
  2933  049D  00D3               	movwf	SIM300SendMsg@num+1
  2934  049E  301C               	movlw	low (STR_16| (0+32768))
  2935  049F  00D4               	movwf	SIM300SendMsg@msg
  2936  04A0  3088               	movlw	high (STR_16| (0+32768))
  2937  04A1  00D5               	movwf	SIM300SendMsg@msg+1
  2938  04A2  306F               	movlw	main@ref& (0+255)
  2939  04A3  00E6               	movwf	??_main
  2940  04A4  0866               	movf	??_main,w
  2941  04A5  00D6               	movwf	SIM300SendMsg@msg_ref
  2942  04A6  120A  158A  25B6  120A  118A  	fcall	_SIM300SendMsg
  2943  04AB  1283               	bcf	3,5	;RP0=0, select bank0
  2944  04AC  1303               	bcf	3,6	;RP1=0, select bank0
  2945  04AD  00E7               	movwf	??_main+1
  2946  04AE  0867               	movf	??_main+1,w
  2947  04AF  00E9               	movwf	main@result
  2948                           
  2949                           ;MobileAdv.c: 314: _delay(5000000);
  2950  04B0  301A               	movlw	26
  2951  04B1  00E8               	movwf	??_main+2
  2952  04B2  305E               	movlw	94
  2953  04B3  00E7               	movwf	??_main+1
  2954  04B4  3086               	movlw	134
  2955  04B5  00E6               	movwf	??_main
  2956  04B6                     u3957:	
  2957  04B6  0BE6               	decfsz	??_main,f
  2958  04B7  2CB6               	goto	u3957
  2959  04B8  0BE7               	decfsz	??_main+1,f
  2960  04B9  2CB6               	goto	u3957
  2961  04BA  0BE8               	decfsz	??_main+2,f
  2962  04BB  2CB6               	goto	u3957
  2963  04BC  0000               	nop
  2964                           
  2965                           ;MobileAdv.c: 315: result=SIM300SendMsg("9819895913","MOTOR IS STOPPED ...!",&ref);
  2966  04BD  30D8               	movlw	low (STR_9| (0+32768))
  2967  04BE  1283               	bcf	3,5	;RP0=0, select bank0
  2968  04BF  1303               	bcf	3,6	;RP1=0, select bank0
  2969  04C0  00D2               	movwf	SIM300SendMsg@num
  2970  04C1  3088               	movlw	high (STR_9| (0+32768))
  2971  04C2  00D3               	movwf	SIM300SendMsg@num+1
  2972  04C3  301C               	movlw	low (STR_16| (0+32768))
  2973  04C4  00D4               	movwf	SIM300SendMsg@msg
  2974  04C5  3088               	movlw	high (STR_16| (0+32768))
  2975  04C6  00D5               	movwf	SIM300SendMsg@msg+1
  2976  04C7  306F               	movlw	main@ref& (0+255)
  2977  04C8  00E6               	movwf	??_main
  2978  04C9  0866               	movf	??_main,w
  2979  04CA  00D6               	movwf	SIM300SendMsg@msg_ref
  2980  04CB  120A  158A  25B6  120A  118A  	fcall	_SIM300SendMsg
  2981  04D0  1283               	bcf	3,5	;RP0=0, select bank0
  2982  04D1  1303               	bcf	3,6	;RP1=0, select bank0
  2983  04D2  00E7               	movwf	??_main+1
  2984  04D3  0867               	movf	??_main+1,w
  2985  04D4  00E9               	movwf	main@result
  2986                           
  2987                           ;MobileAdv.c: 316: _delay(5000000);
  2988  04D5  301A               	movlw	26
  2989  04D6  00E8               	movwf	??_main+2
  2990  04D7  305E               	movlw	94
  2991  04D8  00E7               	movwf	??_main+1
  2992  04D9  3086               	movlw	134
  2993  04DA  00E6               	movwf	??_main
  2994  04DB                     u3967:	
  2995  04DB  0BE6               	decfsz	??_main,f
  2996  04DC  2CDB               	goto	u3967
  2997  04DD  0BE7               	decfsz	??_main+1,f
  2998  04DE  2CDB               	goto	u3967
  2999  04DF  0BE8               	decfsz	??_main+2,f
  3000  04E0  2CDB               	goto	u3967
  3001  04E1  0000               	nop
  3002                           
  3003                           ;MobileAdv.c: 319: continue;
  3004  04E2  2A37               	goto	l3777
  3005  04E3                     __end_of_main:	
  3006                           
  3007                           	psect	text1
  3008  1486                     __ptext1:	
  3009 ;; *************** function _stop *****************
  3010 ;; Defined at:
  3011 ;;		line 527 in file "E:\Study Material\XC8 PROJECTS\Aurangabad\MobileAdv.c"
  3012 ;; Parameters:    Size  Location     Type
  3013 ;;		None
  3014 ;; Auto vars:     Size  Location     Type
  3015 ;;		None
  3016 ;; Return value:  Size  Location     Type
  3017 ;;		None               void
  3018 ;; Registers used:
  3019 ;;		wreg
  3020 ;; Tracked objects:
  3021 ;;		On entry : 0/0
  3022 ;;		On exit  : 0/0
  3023 ;;		Unchanged: 0/0
  3024 ;; Data sizes:     COMMON   BANK0   BANK1   BANK3   BANK2
  3025 ;;      Params:         0       0       0       0       0
  3026 ;;      Locals:         0       0       0       0       0
  3027 ;;      Temps:          0       3       0       0       0
  3028 ;;      Totals:         0       3       0       0       0
  3029 ;;Total ram usage:        3 bytes
  3030 ;; Hardware stack levels used:    1
  3031 ;; Hardware stack levels required when called:    2
  3032 ;; This function calls:
  3033 ;;		Nothing
  3034 ;; This function is called by:
  3035 ;;		_main
  3036 ;; This function uses a non-reentrant model
  3037 ;;
  3038                           
  3039                           
  3040                           ;psect for function _stop
  3041  1486                     _stop:	
  3042                           
  3043                           ;MobileAdv.c: 530: RC4 = 1;
  3044                           
  3045                           ;incstack = 0
  3046                           ; Regs used in _stop: [wreg]
  3047  1486  1283               	bcf	3,5	;RP0=0, select bank0
  3048  1487  1303               	bcf	3,6	;RP1=0, select bank0
  3049  1488  1607               	bsf	7,4	;volatile
  3050                           
  3051                           ;MobileAdv.c: 531: _delay(6000000);
  3052  1489  301F               	movlw	31
  3053  148A  00A2               	movwf	??_stop+2
  3054  148B  3071               	movlw	113
  3055  148C  00A1               	movwf	??_stop+1
  3056  148D  303B               	movlw	59
  3057  148E  00A0               	movwf	??_stop
  3058  148F                     u3977:	
  3059  148F  0BA0               	decfsz	??_stop,f
  3060  1490  2C8F               	goto	u3977
  3061  1491  0BA1               	decfsz	??_stop+1,f
  3062  1492  2C8F               	goto	u3977
  3063  1493  0BA2               	decfsz	??_stop+2,f
  3064  1494  2C8F               	goto	u3977
  3065  1495  0000               	nop
  3066                           
  3067                           ;MobileAdv.c: 532: RC4 = 0;
  3068  1496  1283               	bcf	3,5	;RP0=0, select bank0
  3069  1497  1303               	bcf	3,6	;RP1=0, select bank0
  3070  1498  1207               	bcf	7,4	;volatile
  3071                           
  3072                           ;MobileAdv.c: 533: RC5 = 0;
  3073  1499  1287               	bcf	7,5	;volatile
  3074                           
  3075                           ;MobileAdv.c: 534: _delay(1000000);
  3076  149A  3006               	movlw	6
  3077  149B  00A2               	movwf	??_stop+2
  3078  149C  3013               	movlw	19
  3079  149D  00A1               	movwf	??_stop+1
  3080  149E  30B1               	movlw	177
  3081  149F  00A0               	movwf	??_stop
  3082  14A0                     u3987:	
  3083  14A0  0BA0               	decfsz	??_stop,f
  3084  14A1  2CA0               	goto	u3987
  3085  14A2  0BA1               	decfsz	??_stop+1,f
  3086  14A3  2CA0               	goto	u3987
  3087  14A4  0BA2               	decfsz	??_stop+2,f
  3088  14A5  2CA0               	goto	u3987
  3089  14A6  2CA7               	nop2
  3090  14A7  0008               	return
  3091  14A8                     __end_of_stop:	
  3092                           ;MobileAdv.c: 535: return;
  3093                           
  3094                           
  3095                           	psect	text2
  3096  1464                     __ptext2:	
  3097 ;; *************** function _start *****************
  3098 ;; Defined at:
  3099 ;;		line 515 in file "E:\Study Material\XC8 PROJECTS\Aurangabad\MobileAdv.c"
  3100 ;; Parameters:    Size  Location     Type
  3101 ;;		None
  3102 ;; Auto vars:     Size  Location     Type
  3103 ;;		None
  3104 ;; Return value:  Size  Location     Type
  3105 ;;		None               void
  3106 ;; Registers used:
  3107 ;;		wreg
  3108 ;; Tracked objects:
  3109 ;;		On entry : 0/0
  3110 ;;		On exit  : 0/0
  3111 ;;		Unchanged: 0/0
  3112 ;; Data sizes:     COMMON   BANK0   BANK1   BANK3   BANK2
  3113 ;;      Params:         0       0       0       0       0
  3114 ;;      Locals:         0       0       0       0       0
  3115 ;;      Temps:          0       3       0       0       0
  3116 ;;      Totals:         0       3       0       0       0
  3117 ;;Total ram usage:        3 bytes
  3118 ;; Hardware stack levels used:    1
  3119 ;; Hardware stack levels required when called:    2
  3120 ;; This function calls:
  3121 ;;		Nothing
  3122 ;; This function is called by:
  3123 ;;		_main
  3124 ;; This function uses a non-reentrant model
  3125 ;;
  3126                           
  3127                           
  3128                           ;psect for function _start
  3129  1464                     _start:	
  3130                           
  3131                           ;MobileAdv.c: 518: RC3 = 1;
  3132                           
  3133                           ;incstack = 0
  3134                           ; Regs used in _start: [wreg]
  3135  1464  1283               	bcf	3,5	;RP0=0, select bank0
  3136  1465  1303               	bcf	3,6	;RP1=0, select bank0
  3137  1466  1587               	bsf	7,3	;volatile
  3138                           
  3139                           ;MobileAdv.c: 519: _delay(5000000);
  3140  1467  301A               	movlw	26
  3141  1468  00A2               	movwf	??_start+2
  3142  1469  305E               	movlw	94
  3143  146A  00A1               	movwf	??_start+1
  3144  146B  3086               	movlw	134
  3145  146C  00A0               	movwf	??_start
  3146  146D                     u3997:	
  3147  146D  0BA0               	decfsz	??_start,f
  3148  146E  2C6D               	goto	u3997
  3149  146F  0BA1               	decfsz	??_start+1,f
  3150  1470  2C6D               	goto	u3997
  3151  1471  0BA2               	decfsz	??_start+2,f
  3152  1472  2C6D               	goto	u3997
  3153  1473  0000               	nop
  3154                           
  3155                           ;MobileAdv.c: 520: RC3 = 0;
  3156  1474  1283               	bcf	3,5	;RP0=0, select bank0
  3157  1475  1303               	bcf	3,6	;RP1=0, select bank0
  3158  1476  1187               	bcf	7,3	;volatile
  3159                           
  3160                           ;MobileAdv.c: 521: RC5 = 1;
  3161  1477  1687               	bsf	7,5	;volatile
  3162                           
  3163                           ;MobileAdv.c: 522: _delay(1000000);
  3164  1478  3006               	movlw	6
  3165  1479  00A2               	movwf	??_start+2
  3166  147A  3013               	movlw	19
  3167  147B  00A1               	movwf	??_start+1
  3168  147C  30B1               	movlw	177
  3169  147D  00A0               	movwf	??_start
  3170  147E                     u4007:	
  3171  147E  0BA0               	decfsz	??_start,f
  3172  147F  2C7E               	goto	u4007
  3173  1480  0BA1               	decfsz	??_start+1,f
  3174  1481  2C7E               	goto	u4007
  3175  1482  0BA2               	decfsz	??_start+2,f
  3176  1483  2C7E               	goto	u4007
  3177  1484  2C85               	nop2
  3178  1485  0008               	return
  3179  1486                     __end_of_start:	
  3180                           ;MobileAdv.c: 523: return;
  3181                           
  3182                           
  3183                           	psect	text3
  3184  162F                     __ptext3:	
  3185 ;; *************** function _eeprom_write *****************
  3186 ;; Defined at:
  3187 ;;		line 6 in file "C:\Program Files (x86)\Microchip\xc8\v1.32\sources\pic\eewrite.c"
  3188 ;; Parameters:    Size  Location     Type
  3189 ;;  addr            1    wreg     unsigned char 
  3190 ;;  value           1    0[BANK0 ] unsigned char 
  3191 ;; Auto vars:     Size  Location     Type
  3192 ;;  addr            1    2[BANK0 ] unsigned char 
  3193 ;; Return value:  Size  Location     Type
  3194 ;;		None               void
  3195 ;; Registers used:
  3196 ;;		wreg, status,2, status,0
  3197 ;; Tracked objects:
  3198 ;;		On entry : 0/0
  3199 ;;		On exit  : 0/0
  3200 ;;		Unchanged: 0/0
  3201 ;; Data sizes:     COMMON   BANK0   BANK1   BANK3   BANK2
  3202 ;;      Params:         0       1       0       0       0
  3203 ;;      Locals:         0       1       0       0       0
  3204 ;;      Temps:          0       1       0       0       0
  3205 ;;      Totals:         0       3       0       0       0
  3206 ;;Total ram usage:        3 bytes
  3207 ;; Hardware stack levels used:    1
  3208 ;; Hardware stack levels required when called:    2
  3209 ;; This function calls:
  3210 ;;		Nothing
  3211 ;; This function is called by:
  3212 ;;		_main
  3213 ;; This function uses a non-reentrant model
  3214 ;;
  3215                           
  3216                           
  3217                           ;psect for function _eeprom_write
  3218  162F                     _eeprom_write:	
  3219                           
  3220                           ;incstack = 0
  3221                           ; Regs used in _eeprom_write: [wreg+status,2+status,0]
  3222                           ;eeprom_write@addr stored from wreg
  3223  162F  1283               	bcf	3,5	;RP0=0, select bank0
  3224  1630  1303               	bcf	3,6	;RP1=0, select bank0
  3225  1631  00A2               	movwf	eeprom_write@addr
  3226  1632                     l525:	
  3227  1632  1683               	bsf	3,5	;RP0=1, select bank3
  3228  1633  1703               	bsf	3,6	;RP1=1, select bank3
  3229  1634  188C               	btfsc	12,1	;volsfr
  3230  1635  2E32               	goto	l525
  3231  1636  1283               	bcf	3,5	;RP0=0, select bank0
  3232  1637  1303               	bcf	3,6	;RP1=0, select bank0
  3233  1638  0822               	movf	eeprom_write@addr,w
  3234  1639  1283               	bcf	3,5	;RP0=0, select bank2
  3235  163A  1703               	bsf	3,6	;RP1=1, select bank2
  3236  163B  008D               	movwf	13	;volatile
  3237  163C  1283               	bcf	3,5	;RP0=0, select bank0
  3238  163D  1303               	bcf	3,6	;RP1=0, select bank0
  3239  163E  0820               	movf	eeprom_write@value,w
  3240  163F  1283               	bcf	3,5	;RP0=0, select bank2
  3241  1640  1703               	bsf	3,6	;RP1=1, select bank2
  3242  1641  008C               	movwf	12	;volatile
  3243  1642  303F               	movlw	63
  3244  1643  1283               	bcf	3,5	;RP0=0, select bank0
  3245  1644  1303               	bcf	3,6	;RP1=0, select bank0
  3246  1645  00A1               	movwf	??_eeprom_write
  3247  1646  0821               	movf	??_eeprom_write,w
  3248  1647  1683               	bsf	3,5	;RP0=1, select bank3
  3249  1648  1703               	bsf	3,6	;RP1=1, select bank3
  3250  1649  058C               	andwf	12,f	;volsfr
  3251  164A  1283               	bcf	3,5	;RP0=0, select bank0
  3252  164B  1303               	bcf	3,6	;RP1=0, select bank0
  3253  164C  1003               	bcf	3,0	;volatile
  3254  164D  1B8B               	btfsc	11,7	;volatile
  3255  164E  1403               	bsf	3,0	;volatile
  3256  164F  138B               	bcf	11,7	;volatile
  3257  1650  1683               	bsf	3,5	;RP0=1, select bank3
  3258  1651  1703               	bsf	3,6	;RP1=1, select bank3
  3259  1652  150C               	bsf	12,2	;volsfr
  3260  1653  3055               	movlw	85
  3261  1654  008D               	movwf	13	;volsfr
  3262  1655  30AA               	movlw	170
  3263  1656  008D               	movwf	13	;volsfr
  3264  1657  148C               	bsf	12,1	;volsfr
  3265  1658  110C               	bcf	12,2	;volsfr
  3266  1659  1283               	bcf	3,5	;RP0=0, select bank0
  3267  165A  1303               	bcf	3,6	;RP1=0, select bank0
  3268  165B  1C03               	btfss	3,0	;volatile
  3269  165C  0008               	return
  3270  165D  178B               	bsf	11,7	;volatile
  3271  165E  0008               	return
  3272  165F                     __end_of_eeprom_write:	
  3273                           
  3274                           	psect	text4
  3275  04E3                     __ptext4:	
  3276 ;; *************** function _SMSCommunication *****************
  3277 ;; Defined at:
  3278 ;;		line 390 in file "E:\Study Material\XC8 PROJECTS\Aurangabad\MobileAdv.c"
  3279 ;; Parameters:    Size  Location     Type
  3280 ;;		None
  3281 ;; Auto vars:     Size  Location     Type
  3282 ;;  ref             1   63[BANK0 ] unsigned char 
  3283 ;;  ref             1   62[BANK0 ] unsigned char 
  3284 ;;  ref             1   64[BANK0 ] unsigned char 
  3285 ;;  ref             1   65[BANK0 ] unsigned char 
  3286 ;;  len             1   69[BANK0 ] unsigned char 
  3287 ;;  c               1   68[BANK0 ] unsigned char 
  3288 ;;  result          1   67[BANK0 ] unsigned char 
  3289 ;;  i               1   66[BANK0 ] unsigned char 
  3290 ;; Return value:  Size  Location     Type
  3291 ;;		None               void
  3292 ;; Registers used:
  3293 ;;		wreg, fsr0l, fsr0h, status,2, status,0, btemp+1, pclath, cstack
  3294 ;; Tracked objects:
  3295 ;;		On entry : 0/0
  3296 ;;		On exit  : 0/0
  3297 ;;		Unchanged: 0/0
  3298 ;; Data sizes:     COMMON   BANK0   BANK1   BANK3   BANK2
  3299 ;;      Params:         0       0       0       0       0
  3300 ;;      Locals:         0       8       0       0       0
  3301 ;;      Temps:          0       3       0       0       0
  3302 ;;      Totals:         0      11       0       0       0
  3303 ;;Total ram usage:       11 bytes
  3304 ;; Hardware stack levels used:    1
  3305 ;; Hardware stack levels required when called:    7
  3306 ;; This function calls:
  3307 ;;		_SIM300SendMsg
  3308 ;;		_SIM300WaitForValidMsg
  3309 ;;		_USARTFlushBuffer
  3310 ;;		_eeprom_read
  3311 ;;		_phase_check
  3312 ;;		_strcat
  3313 ;;		_strcpy
  3314 ;;		_strlen
  3315 ;; This function is called by:
  3316 ;;		_main
  3317 ;; This function uses a non-reentrant model
  3318 ;;
  3319                           
  3320                           
  3321                           ;psect for function _SMSCommunication
  3322  04E3                     _SMSCommunication:	
  3323                           
  3324                           ;MobileAdv.c: 392: uint8_t result;
  3325                           ;MobileAdv.c: 393: char len, i, c;
  3326                           ;MobileAdv.c: 394: result = SIM300WaitForValidMsg();
  3327                           
  3328                           ;incstack = 0
  3329                           ; Regs used in _SMSCommunication: [wreg-fsr0h+status,2+status,0+btemp+1+pclath+cstack]
  3330  04E3  120A  158A  2335  120A  118A  	fcall	_SIM300WaitForValidMsg
  3331  04E8  1283               	bcf	3,5	;RP0=0, select bank0
  3332  04E9  1303               	bcf	3,6	;RP1=0, select bank0
  3333  04EA  00DB               	movwf	??_SMSCommunication
  3334  04EB  085B               	movf	??_SMSCommunication,w
  3335  04EC  00E3               	movwf	SMSCommunication@result
  3336                           
  3337                           ;MobileAdv.c: 395: if(result == 1)
  3338  04ED  0863               	movf	SMSCommunication@result,w
  3339  04EE  3A01               	xorlw	1
  3340  04EF  1D03               	skipz
  3341  04F0  2F44               	goto	l3549
  3342                           
  3343                           ;MobileAdv.c: 396: {
  3344                           ;MobileAdv.c: 397: if(MOTOR_FLAG == 1)
  3345  04F1  1683               	bsf	3,5	;RP0=1, select bank1
  3346  04F2  1303               	bcf	3,6	;RP1=0, select bank1
  3347  04F3  086B               	movf	_MOTOR_FLAG^(0+128),w
  3348  04F4  3A01               	xorlw	1
  3349  04F5  1D03               	skipz
  3350  04F6  2E75               	goto	l3511
  3351                           
  3352                           ;MobileAdv.c: 398: {
  3353                           ;MobileAdv.c: 399: if(LP_FLAG == 1)
  3354  04F7  086A               	movf	_LP_FLAG^(0+128),w
  3355  04F8  3A01               	xorlw	1
  3356  04F9  1D03               	skipz
  3357  04FA  2D98               	goto	l3455
  3358                           
  3359                           ;MobileAdv.c: 400: {
  3360                           ;MobileAdv.c: 401: strcpy(phone_number,"");
  3361  04FB  308F               	movlw	low ((STR_32+14)| (0+32768))
  3362  04FC  1283               	bcf	3,5	;RP0=0, select bank0
  3363  04FD  1303               	bcf	3,6	;RP1=0, select bank0
  3364  04FE  00A0               	movwf	strcpy@from
  3365  04FF  3088               	movlw	high ((STR_32+14)| (0+32768))
  3366  0500  00A1               	movwf	strcpy@from+1
  3367  0501  30A1               	movlw	_phone_number& (0+255)
  3368  0502  160A  118A  2442  120A  118A  	fcall	_strcpy
  3369                           
  3370                           ;MobileAdv.c: 402: strcpy(phone_number,"MOTOR ON BY: ");
  3371  0507  3090               	movlw	low (STR_21| (0+32768))
  3372  0508  1283               	bcf	3,5	;RP0=0, select bank0
  3373  0509  1303               	bcf	3,6	;RP1=0, select bank0
  3374  050A  00A0               	movwf	strcpy@from
  3375  050B  3088               	movlw	high (STR_21| (0+32768))
  3376  050C  00A1               	movwf	strcpy@from+1
  3377  050D  30A1               	movlw	_phone_number& (0+255)
  3378  050E  160A  118A  2442  120A  118A  	fcall	_strcpy
  3379                           
  3380                           ;MobileAdv.c: 403: len = strlen(phone_number);
  3381  0513  30A1               	movlw	_phone_number& (0+255)
  3382  0514  1283               	bcf	3,5	;RP0=0, select bank0
  3383  0515  1303               	bcf	3,6	;RP1=0, select bank0
  3384  0516  00A0               	movwf	strlen@s
  3385  0517  3000               	movlw	0
  3386  0518  00A1               	movwf	strlen@s+1
  3387  0519  160A  118A  2582  120A  118A  	fcall	_strlen
  3388  051E  1283               	bcf	3,5	;RP0=0, select bank0
  3389  051F  1303               	bcf	3,6	;RP1=0, select bank0
  3390  0520  0820               	movf	?_strlen,w
  3391  0521  00DB               	movwf	??_SMSCommunication
  3392  0522  085B               	movf	??_SMSCommunication,w
  3393  0523  00E5               	movwf	SMSCommunication@len
  3394                           
  3395                           ;MobileAdv.c: 404: i = 3;
  3396  0524  3003               	movlw	3
  3397  0525  00DB               	movwf	??_SMSCommunication
  3398  0526  085B               	movf	??_SMSCommunication,w
  3399  0527  00E2               	movwf	SMSCommunication@i
  3400                           
  3401                           ;MobileAdv.c: 405: c = '+';
  3402  0528  302B               	movlw	43
  3403  0529  00DB               	movwf	??_SMSCommunication
  3404  052A  085B               	movf	??_SMSCommunication,w
  3405  052B  00E4               	movwf	SMSCommunication@c
  3406  052C                     l3439:	
  3407                           ;MobileAdv.c: 406: while(c != ';')
  3408                           
  3409  052C  0864               	movf	SMSCommunication@c,w
  3410  052D  3A3B               	xorlw	59
  3411  052E  1903               	btfsc	3,2
  3412  052F  2D4C               	goto	l3441
  3413                           
  3414                           ;MobileAdv.c: 407: {
  3415                           ;MobileAdv.c: 408: c = (char)eeprom_read(i);
  3416  0530  0862               	movf	SMSCommunication@i,w
  3417  0531  160A  118A  2514  120A  118A  	fcall	_eeprom_read
  3418  0536  1283               	bcf	3,5	;RP0=0, select bank0
  3419  0537  1303               	bcf	3,6	;RP1=0, select bank0
  3420  0538  00DB               	movwf	??_SMSCommunication
  3421  0539  085B               	movf	??_SMSCommunication,w
  3422  053A  00E4               	movwf	SMSCommunication@c
  3423                           
  3424                           ;MobileAdv.c: 409: phone_number[len] = c;
  3425  053B  0864               	movf	SMSCommunication@c,w
  3426  053C  00DB               	movwf	??_SMSCommunication
  3427  053D  0865               	movf	SMSCommunication@len,w
  3428  053E  3EA1               	addlw	_phone_number& (0+255)
  3429  053F  0084               	movwf	4
  3430  0540  085B               	movf	??_SMSCommunication,w
  3431  0541  1383               	bcf	3,7	;select IRP bank1
  3432  0542  0080               	movwf	0
  3433                           
  3434                           ;MobileAdv.c: 410: i++;
  3435  0543  3001               	movlw	1
  3436  0544  00DB               	movwf	??_SMSCommunication
  3437  0545  085B               	movf	??_SMSCommunication,w
  3438  0546  07E2               	addwf	SMSCommunication@i,f
  3439                           
  3440                           ;MobileAdv.c: 411: len++;
  3441  0547  3001               	movlw	1
  3442  0548  00DB               	movwf	??_SMSCommunication
  3443  0549  085B               	movf	??_SMSCommunication,w
  3444  054A  07E5               	addwf	SMSCommunication@len,f
  3445  054B  2D2C               	goto	l3439
  3446  054C                     l3441:	
  3447                           
  3448                           ;MobileAdv.c: 412: }
  3449                           ;MobileAdv.c: 413: phone_number[len-1] = '\0';
  3450  054C  0865               	movf	SMSCommunication@len,w
  3451  054D  3EFF               	addlw	255
  3452  054E  3EA1               	addlw	_phone_number& (0+255)
  3453  054F  0084               	movwf	4
  3454  0550  1383               	bcf	3,7	;select IRP bank1
  3455  0551  0180               	clrf	0
  3456                           
  3457                           ;MobileAdv.c: 414: strcat(phone_number,"\nPOWER OK!");
  3458  0552  30CD               	movlw	low (STR_22| (0+32768))
  3459  0553  00A0               	movwf	strcat@from
  3460  0554  3088               	movlw	high (STR_22| (0+32768))
  3461  0555  00A1               	movwf	strcat@from+1
  3462  0556  30A1               	movlw	_phone_number& (0+255)
  3463  0557  160A  118A  25D4  120A  118A  	fcall	_strcat
  3464                           
  3465                           ;MobileAdv.c: 415: uint8_t ref;
  3466                           ;MobileAdv.c: 416: result=SIM300SendMsg(MSG_number,phone_number,&ref);
  3467  055C  30D6               	movlw	_MSG_number& (0+255)
  3468  055D  1283               	bcf	3,5	;RP0=0, select bank0
  3469  055E  1303               	bcf	3,6	;RP1=0, select bank0
  3470  055F  00D2               	movwf	SIM300SendMsg@num
  3471  0560  3001               	movlw	1
  3472  0561  00D3               	movwf	SIM300SendMsg@num+1
  3473  0562  30A1               	movlw	_phone_number& (0+255)
  3474  0563  00D4               	movwf	SIM300SendMsg@msg
  3475  0564  3000               	movlw	0
  3476  0565  00D5               	movwf	SIM300SendMsg@msg+1
  3477  0566  305E               	movlw	SMSCommunication@ref& (0+255)
  3478  0567  00DB               	movwf	??_SMSCommunication
  3479  0568  085B               	movf	??_SMSCommunication,w
  3480  0569  00D6               	movwf	SIM300SendMsg@msg_ref
  3481  056A  120A  158A  25B6  120A  118A  	fcall	_SIM300SendMsg
  3482  056F  1283               	bcf	3,5	;RP0=0, select bank0
  3483  0570  1303               	bcf	3,6	;RP1=0, select bank0
  3484  0571  00DC               	movwf	??_SMSCommunication+1
  3485  0572  085C               	movf	??_SMSCommunication+1,w
  3486  0573  00E3               	movwf	SMSCommunication@result
  3487                           
  3488                           ;MobileAdv.c: 417: _delay(1000000);
  3489  0574  3006               	movlw	6
  3490  0575  00DD               	movwf	??_SMSCommunication+2
  3491  0576  3013               	movlw	19
  3492  0577  00DC               	movwf	??_SMSCommunication+1
  3493  0578  30B1               	movlw	177
  3494  0579  00DB               	movwf	??_SMSCommunication
  3495  057A                     u4017:	
  3496  057A  0BDB               	decfsz	??_SMSCommunication,f
  3497  057B  2D7A               	goto	u4017
  3498  057C  0BDC               	decfsz	??_SMSCommunication+1,f
  3499  057D  2D7A               	goto	u4017
  3500  057E  0BDD               	decfsz	??_SMSCommunication+2,f
  3501  057F  2D7A               	goto	u4017
  3502  0580  2D81               	nop2
  3503                           
  3504                           ;MobileAdv.c: 418: strcpy(phone_number,"");
  3505  0581  308F               	movlw	low ((STR_32+14)| (0+32768))
  3506  0582  1283               	bcf	3,5	;RP0=0, select bank0
  3507  0583  1303               	bcf	3,6	;RP1=0, select bank0
  3508  0584  00A0               	movwf	strcpy@from
  3509  0585  3088               	movlw	high ((STR_32+14)| (0+32768))
  3510  0586  00A1               	movwf	strcpy@from+1
  3511  0587  30A1               	movlw	_phone_number& (0+255)
  3512  0588  160A  118A  2442  120A  118A  	fcall	_strcpy
  3513                           
  3514                           ;MobileAdv.c: 419: strcpy(phone_number,"ATD");
  3515  058D  3034               	movlw	low (STR_24| (0+32768))
  3516  058E  1283               	bcf	3,5	;RP0=0, select bank0
  3517  058F  1303               	bcf	3,6	;RP1=0, select bank0
  3518  0590  00A0               	movwf	strcpy@from
  3519  0591  3089               	movlw	high (STR_24| (0+32768))
  3520  0592  00A1               	movwf	strcpy@from+1
  3521  0593  30A1               	movlw	_phone_number& (0+255)
  3522  0594  160A  118A  2442   	fcall	_strcpy
  3523                           
  3524                           ;MobileAdv.c: 420: return;
  3525  0597  0008               	return
  3526  0598                     l3455:	
  3527                           
  3528                           ;MobileAdv.c: 421: }
  3529                           ;MobileAdv.c: 422: if(LP_FLAG == 0)
  3530  0598  1683               	bsf	3,5	;RP0=1, select bank1
  3531  0599  1303               	bcf	3,6	;RP1=0, select bank1
  3532  059A  08EA               	movf	_LP_FLAG^(0+128),f
  3533  059B  1D03               	skipz
  3534  059C  2E75               	goto	l3511
  3535                           
  3536                           ;MobileAdv.c: 423: {
  3537                           ;MobileAdv.c: 424: strcpy(phone_number,"");
  3538  059D  308F               	movlw	low ((STR_32+14)| (0+32768))
  3539  059E  1283               	bcf	3,5	;RP0=0, select bank0
  3540  059F  1303               	bcf	3,6	;RP1=0, select bank0
  3541  05A0  00A0               	movwf	strcpy@from
  3542  05A1  3088               	movlw	high ((STR_32+14)| (0+32768))
  3543  05A2  00A1               	movwf	strcpy@from+1
  3544  05A3  30A1               	movlw	_phone_number& (0+255)
  3545  05A4  160A  118A  2442  120A  118A  	fcall	_strcpy
  3546                           
  3547                           ;MobileAdv.c: 425: strcpy(phone_number,"POWER FAIL ON PHASE ");
  3548  05A9  3048               	movlw	low (STR_26| (0+32768))
  3549  05AA  1283               	bcf	3,5	;RP0=0, select bank0
  3550  05AB  1303               	bcf	3,6	;RP1=0, select bank0
  3551  05AC  00A0               	movwf	strcpy@from
  3552  05AD  3088               	movlw	high (STR_26| (0+32768))
  3553  05AE  00A1               	movwf	strcpy@from+1
  3554  05AF  30A1               	movlw	_phone_number& (0+255)
  3555  05B0  160A  118A  2442  120A  118A  	fcall	_strcpy
  3556                           
  3557                           ;MobileAdv.c: 426: if(RC0 == 0)
  3558  05B5  1283               	bcf	3,5	;RP0=0, select bank0
  3559  05B6  1303               	bcf	3,6	;RP1=0, select bank0
  3560  05B7  1807               	btfsc	7,0	;volatile
  3561  05B8  2DE3               	goto	l3473
  3562                           
  3563                           ;MobileAdv.c: 427: {
  3564                           ;MobileAdv.c: 428: len = strlen(phone_number);
  3565  05B9  30A1               	movlw	_phone_number& (0+255)
  3566  05BA  00A0               	movwf	strlen@s
  3567  05BB  3000               	movlw	0
  3568  05BC  00A1               	movwf	strlen@s+1
  3569  05BD  160A  118A  2582  120A  118A  	fcall	_strlen
  3570  05C2  1283               	bcf	3,5	;RP0=0, select bank0
  3571  05C3  1303               	bcf	3,6	;RP1=0, select bank0
  3572  05C4  0820               	movf	?_strlen,w
  3573  05C5  00DB               	movwf	??_SMSCommunication
  3574  05C6  085B               	movf	??_SMSCommunication,w
  3575  05C7  00E5               	movwf	SMSCommunication@len
  3576                           
  3577                           ;MobileAdv.c: 429: phone_number[len] = '-';
  3578  05C8  302D               	movlw	45
  3579  05C9  00DB               	movwf	??_SMSCommunication
  3580  05CA  0865               	movf	SMSCommunication@len,w
  3581  05CB  3EA1               	addlw	_phone_number& (0+255)
  3582  05CC  0084               	movwf	4
  3583  05CD  085B               	movf	??_SMSCommunication,w
  3584  05CE  1383               	bcf	3,7	;select IRP bank1
  3585  05CF  0080               	movwf	0
  3586                           
  3587                           ;MobileAdv.c: 430: len++;
  3588  05D0  3001               	movlw	1
  3589  05D1  00DB               	movwf	??_SMSCommunication
  3590  05D2  085B               	movf	??_SMSCommunication,w
  3591  05D3  07E5               	addwf	SMSCommunication@len,f
  3592                           
  3593                           ;MobileAdv.c: 431: phone_number[len] = '1';
  3594  05D4  3031               	movlw	49
  3595  05D5  00DB               	movwf	??_SMSCommunication
  3596  05D6  0865               	movf	SMSCommunication@len,w
  3597  05D7  3EA1               	addlw	_phone_number& (0+255)
  3598  05D8  0084               	movwf	4
  3599  05D9  085B               	movf	??_SMSCommunication,w
  3600  05DA  0080               	movwf	0
  3601                           
  3602                           ;MobileAdv.c: 432: len++;
  3603  05DB  3001               	movlw	1
  3604  05DC  00DB               	movwf	??_SMSCommunication
  3605  05DD  085B               	movf	??_SMSCommunication,w
  3606  05DE  07E5               	addwf	SMSCommunication@len,f
  3607                           
  3608                           ;MobileAdv.c: 433: phone_number[len] = '\0';
  3609  05DF  0865               	movf	SMSCommunication@len,w
  3610  05E0  3EA1               	addlw	_phone_number& (0+255)
  3611  05E1  0084               	movwf	4
  3612  05E2  0180               	clrf	0
  3613  05E3                     l3473:	
  3614                           
  3615                           ;MobileAdv.c: 434: }
  3616                           ;MobileAdv.c: 435: if(RC1 == 0)
  3617  05E3  1887               	btfsc	7,1	;volatile
  3618  05E4  2E0F               	goto	l3487
  3619                           
  3620                           ;MobileAdv.c: 436: {
  3621                           ;MobileAdv.c: 437: len = strlen(phone_number);
  3622  05E5  30A1               	movlw	_phone_number& (0+255)
  3623  05E6  00A0               	movwf	strlen@s
  3624  05E7  3000               	movlw	0
  3625  05E8  00A1               	movwf	strlen@s+1
  3626  05E9  160A  118A  2582  120A  118A  	fcall	_strlen
  3627  05EE  1283               	bcf	3,5	;RP0=0, select bank0
  3628  05EF  1303               	bcf	3,6	;RP1=0, select bank0
  3629  05F0  0820               	movf	?_strlen,w
  3630  05F1  00DB               	movwf	??_SMSCommunication
  3631  05F2  085B               	movf	??_SMSCommunication,w
  3632  05F3  00E5               	movwf	SMSCommunication@len
  3633                           
  3634                           ;MobileAdv.c: 438: phone_number[len] = '-';
  3635  05F4  302D               	movlw	45
  3636  05F5  00DB               	movwf	??_SMSCommunication
  3637  05F6  0865               	movf	SMSCommunication@len,w
  3638  05F7  3EA1               	addlw	_phone_number& (0+255)
  3639  05F8  0084               	movwf	4
  3640  05F9  085B               	movf	??_SMSCommunication,w
  3641  05FA  1383               	bcf	3,7	;select IRP bank1
  3642  05FB  0080               	movwf	0
  3643                           
  3644                           ;MobileAdv.c: 439: len++;
  3645  05FC  3001               	movlw	1
  3646  05FD  00DB               	movwf	??_SMSCommunication
  3647  05FE  085B               	movf	??_SMSCommunication,w
  3648  05FF  07E5               	addwf	SMSCommunication@len,f
  3649                           
  3650                           ;MobileAdv.c: 440: phone_number[len] = '2';
  3651  0600  3032               	movlw	50
  3652  0601  00DB               	movwf	??_SMSCommunication
  3653  0602  0865               	movf	SMSCommunication@len,w
  3654  0603  3EA1               	addlw	_phone_number& (0+255)
  3655  0604  0084               	movwf	4
  3656  0605  085B               	movf	??_SMSCommunication,w
  3657  0606  0080               	movwf	0
  3658                           
  3659                           ;MobileAdv.c: 441: len++;
  3660  0607  3001               	movlw	1
  3661  0608  00DB               	movwf	??_SMSCommunication
  3662  0609  085B               	movf	??_SMSCommunication,w
  3663  060A  07E5               	addwf	SMSCommunication@len,f
  3664                           
  3665                           ;MobileAdv.c: 442: phone_number[len] = '\0';
  3666  060B  0865               	movf	SMSCommunication@len,w
  3667  060C  3EA1               	addlw	_phone_number& (0+255)
  3668  060D  0084               	movwf	4
  3669  060E  0180               	clrf	0
  3670  060F                     l3487:	
  3671                           
  3672                           ;MobileAdv.c: 443: }
  3673                           ;MobileAdv.c: 444: if(RC2 == 0)
  3674  060F  1907               	btfsc	7,2	;volatile
  3675  0610  2E3B               	goto	l3501
  3676                           
  3677                           ;MobileAdv.c: 445: {
  3678                           ;MobileAdv.c: 446: len = strlen(phone_number);
  3679  0611  30A1               	movlw	_phone_number& (0+255)
  3680  0612  00A0               	movwf	strlen@s
  3681  0613  3000               	movlw	0
  3682  0614  00A1               	movwf	strlen@s+1
  3683  0615  160A  118A  2582  120A  118A  	fcall	_strlen
  3684  061A  1283               	bcf	3,5	;RP0=0, select bank0
  3685  061B  1303               	bcf	3,6	;RP1=0, select bank0
  3686  061C  0820               	movf	?_strlen,w
  3687  061D  00DB               	movwf	??_SMSCommunication
  3688  061E  085B               	movf	??_SMSCommunication,w
  3689  061F  00E5               	movwf	SMSCommunication@len
  3690                           
  3691                           ;MobileAdv.c: 447: phone_number[len] = '-';
  3692  0620  302D               	movlw	45
  3693  0621  00DB               	movwf	??_SMSCommunication
  3694  0622  0865               	movf	SMSCommunication@len,w
  3695  0623  3EA1               	addlw	_phone_number& (0+255)
  3696  0624  0084               	movwf	4
  3697  0625  085B               	movf	??_SMSCommunication,w
  3698  0626  1383               	bcf	3,7	;select IRP bank1
  3699  0627  0080               	movwf	0
  3700                           
  3701                           ;MobileAdv.c: 448: len++;
  3702  0628  3001               	movlw	1
  3703  0629  00DB               	movwf	??_SMSCommunication
  3704  062A  085B               	movf	??_SMSCommunication,w
  3705  062B  07E5               	addwf	SMSCommunication@len,f
  3706                           
  3707                           ;MobileAdv.c: 449: phone_number[len] = '3';
  3708  062C  3033               	movlw	51
  3709  062D  00DB               	movwf	??_SMSCommunication
  3710  062E  0865               	movf	SMSCommunication@len,w
  3711  062F  3EA1               	addlw	_phone_number& (0+255)
  3712  0630  0084               	movwf	4
  3713  0631  085B               	movf	??_SMSCommunication,w
  3714  0632  0080               	movwf	0
  3715                           
  3716                           ;MobileAdv.c: 450: len++;
  3717  0633  3001               	movlw	1
  3718  0634  00DB               	movwf	??_SMSCommunication
  3719  0635  085B               	movf	??_SMSCommunication,w
  3720  0636  07E5               	addwf	SMSCommunication@len,f
  3721                           
  3722                           ;MobileAdv.c: 451: phone_number[len] = '\0';
  3723  0637  0865               	movf	SMSCommunication@len,w
  3724  0638  3EA1               	addlw	_phone_number& (0+255)
  3725  0639  0084               	movwf	4
  3726  063A  0180               	clrf	0
  3727  063B                     l3501:	
  3728                           
  3729                           ;MobileAdv.c: 452: }
  3730                           ;MobileAdv.c: 453: uint8_t ref;
  3731                           ;MobileAdv.c: 454: result=SIM300SendMsg(MSG_number,phone_number,&ref);
  3732  063B  30D6               	movlw	_MSG_number& (0+255)
  3733  063C  00D2               	movwf	SIM300SendMsg@num
  3734  063D  3001               	movlw	1
  3735  063E  00D3               	movwf	SIM300SendMsg@num+1
  3736  063F  30A1               	movlw	_phone_number& (0+255)
  3737  0640  00D4               	movwf	SIM300SendMsg@msg
  3738  0641  3000               	movlw	0
  3739  0642  00D5               	movwf	SIM300SendMsg@msg+1
  3740  0643  305F               	movlw	SMSCommunication@ref_201& (0+255)
  3741  0644  00DB               	movwf	??_SMSCommunication
  3742  0645  085B               	movf	??_SMSCommunication,w
  3743  0646  00D6               	movwf	SIM300SendMsg@msg_ref
  3744  0647  120A  158A  25B6  120A  118A  	fcall	_SIM300SendMsg
  3745  064C  1283               	bcf	3,5	;RP0=0, select bank0
  3746  064D  1303               	bcf	3,6	;RP1=0, select bank0
  3747  064E  00DC               	movwf	??_SMSCommunication+1
  3748  064F  085C               	movf	??_SMSCommunication+1,w
  3749  0650  00E3               	movwf	SMSCommunication@result
  3750                           
  3751                           ;MobileAdv.c: 455: _delay(1000000);
  3752  0651  3006               	movlw	6
  3753  0652  00DD               	movwf	??_SMSCommunication+2
  3754  0653  3013               	movlw	19
  3755  0654  00DC               	movwf	??_SMSCommunication+1
  3756  0655  30B1               	movlw	177
  3757  0656  00DB               	movwf	??_SMSCommunication
  3758  0657                     u4027:	
  3759  0657  0BDB               	decfsz	??_SMSCommunication,f
  3760  0658  2E57               	goto	u4027
  3761  0659  0BDC               	decfsz	??_SMSCommunication+1,f
  3762  065A  2E57               	goto	u4027
  3763  065B  0BDD               	decfsz	??_SMSCommunication+2,f
  3764  065C  2E57               	goto	u4027
  3765  065D  2E5E               	nop2
  3766                           
  3767                           ;MobileAdv.c: 456: strcpy(phone_number,"");
  3768  065E  308F               	movlw	low ((STR_32+14)| (0+32768))
  3769  065F  1283               	bcf	3,5	;RP0=0, select bank0
  3770  0660  1303               	bcf	3,6	;RP1=0, select bank0
  3771  0661  00A0               	movwf	strcpy@from
  3772  0662  3088               	movlw	high ((STR_32+14)| (0+32768))
  3773  0663  00A1               	movwf	strcpy@from+1
  3774  0664  30A1               	movlw	_phone_number& (0+255)
  3775  0665  160A  118A  2442  120A  118A  	fcall	_strcpy
  3776                           
  3777                           ;MobileAdv.c: 457: strcpy(phone_number,"ATD");
  3778  066A  3034               	movlw	low (STR_24| (0+32768))
  3779  066B  1283               	bcf	3,5	;RP0=0, select bank0
  3780  066C  1303               	bcf	3,6	;RP1=0, select bank0
  3781  066D  00A0               	movwf	strcpy@from
  3782  066E  3089               	movlw	high (STR_24| (0+32768))
  3783  066F  00A1               	movwf	strcpy@from+1
  3784  0670  30A1               	movlw	_phone_number& (0+255)
  3785  0671  160A  118A  2442   	fcall	_strcpy
  3786                           
  3787                           ;MobileAdv.c: 458: return;
  3788  0674  0008               	return
  3789  0675                     l3511:	
  3790                           
  3791                           ;MobileAdv.c: 459: }
  3792                           ;MobileAdv.c: 460: }
  3793                           ;MobileAdv.c: 461: if(MOTOR_FLAG == 0)
  3794  0675  1683               	bsf	3,5	;RP0=1, select bank1
  3795  0676  1303               	bcf	3,6	;RP1=0, select bank1
  3796  0677  08EB               	movf	_MOTOR_FLAG^(0+128),f
  3797  0678  1D03               	skipz
  3798  0679  2F44               	goto	l3549
  3799                           
  3800                           ;MobileAdv.c: 462: {
  3801                           ;MobileAdv.c: 463: if(Dry_Run_Timer > 6)
  3802  067A  3007               	movlw	7
  3803  067B  0269               	subwf	_Dry_Run_Timer^(0+128),w
  3804  067C  1C03               	skipc
  3805  067D  2E97               	goto	l3517
  3806                           
  3807                           ;MobileAdv.c: 464: {
  3808                           ;MobileAdv.c: 466: strcpy(phone_number,"");
  3809  067E  308F               	movlw	low ((STR_32+14)| (0+32768))
  3810  067F  1283               	bcf	3,5	;RP0=0, select bank0
  3811  0680  1303               	bcf	3,6	;RP1=0, select bank0
  3812  0681  00A0               	movwf	strcpy@from
  3813  0682  3088               	movlw	high ((STR_32+14)| (0+32768))
  3814  0683  00A1               	movwf	strcpy@from+1
  3815  0684  30A1               	movlw	_phone_number& (0+255)
  3816  0685  160A  118A  2442  120A  118A  	fcall	_strcpy
  3817                           
  3818                           ;MobileAdv.c: 467: strcpy(phone_number,"DRY RUN.");
  3819  068A  300C               	movlw	low (STR_30| (0+32768))
  3820  068B  1283               	bcf	3,5	;RP0=0, select bank0
  3821  068C  1303               	bcf	3,6	;RP1=0, select bank0
  3822  068D  00A0               	movwf	strcpy@from
  3823  068E  3089               	movlw	high (STR_30| (0+32768))
  3824  068F  00A1               	movwf	strcpy@from+1
  3825  0690  30A1               	movlw	_phone_number& (0+255)
  3826  0691  160A  118A  2442  120A  118A  	fcall	_strcpy
  3827                           
  3828                           ;MobileAdv.c: 468: }
  3829  0696  2EEE               	goto	l3535
  3830  0697                     l3517:	
  3831                           
  3832                           ;MobileAdv.c: 469: else
  3833                           ;MobileAdv.c: 470: {
  3834                           ;MobileAdv.c: 471: strcpy(phone_number,"");
  3835  0697  308F               	movlw	low ((STR_32+14)| (0+32768))
  3836  0698  1283               	bcf	3,5	;RP0=0, select bank0
  3837  0699  1303               	bcf	3,6	;RP1=0, select bank0
  3838  069A  00A0               	movwf	strcpy@from
  3839  069B  3088               	movlw	high ((STR_32+14)| (0+32768))
  3840  069C  00A1               	movwf	strcpy@from+1
  3841  069D  30A1               	movlw	_phone_number& (0+255)
  3842  069E  160A  118A  2442  120A  118A  	fcall	_strcpy
  3843                           
  3844                           ;MobileAdv.c: 472: strcpy(phone_number,"MOTOR OFF BY: ");
  3845  06A3  3081               	movlw	low (STR_32| (0+32768))
  3846  06A4  1283               	bcf	3,5	;RP0=0, select bank0
  3847  06A5  1303               	bcf	3,6	;RP1=0, select bank0
  3848  06A6  00A0               	movwf	strcpy@from
  3849  06A7  3088               	movlw	high (STR_32| (0+32768))
  3850  06A8  00A1               	movwf	strcpy@from+1
  3851  06A9  30A1               	movlw	_phone_number& (0+255)
  3852  06AA  160A  118A  2442  120A  118A  	fcall	_strcpy
  3853                           
  3854                           ;MobileAdv.c: 473: len = strlen(phone_number);
  3855  06AF  30A1               	movlw	_phone_number& (0+255)
  3856  06B0  1283               	bcf	3,5	;RP0=0, select bank0
  3857  06B1  1303               	bcf	3,6	;RP1=0, select bank0
  3858  06B2  00A0               	movwf	strlen@s
  3859  06B3  3000               	movlw	0
  3860  06B4  00A1               	movwf	strlen@s+1
  3861  06B5  160A  118A  2582  120A  118A  	fcall	_strlen
  3862  06BA  1283               	bcf	3,5	;RP0=0, select bank0
  3863  06BB  1303               	bcf	3,6	;RP1=0, select bank0
  3864  06BC  0820               	movf	?_strlen,w
  3865  06BD  00DB               	movwf	??_SMSCommunication
  3866  06BE  085B               	movf	??_SMSCommunication,w
  3867  06BF  00E5               	movwf	SMSCommunication@len
  3868                           
  3869                           ;MobileAdv.c: 474: i = 3;
  3870  06C0  3003               	movlw	3
  3871  06C1  00DB               	movwf	??_SMSCommunication
  3872  06C2  085B               	movf	??_SMSCommunication,w
  3873  06C3  00E2               	movwf	SMSCommunication@i
  3874                           
  3875                           ;MobileAdv.c: 475: c = '+';
  3876  06C4  302B               	movlw	43
  3877  06C5  00DB               	movwf	??_SMSCommunication
  3878  06C6  085B               	movf	??_SMSCommunication,w
  3879  06C7  00E4               	movwf	SMSCommunication@c
  3880  06C8                     l3531:	
  3881                           ;MobileAdv.c: 476: while(c != ';')
  3882                           
  3883  06C8  0864               	movf	SMSCommunication@c,w
  3884  06C9  3A3B               	xorlw	59
  3885  06CA  1903               	btfsc	3,2
  3886  06CB  2EE8               	goto	l3533
  3887                           
  3888                           ;MobileAdv.c: 477: {
  3889                           ;MobileAdv.c: 478: c = (char)eeprom_read(i);
  3890  06CC  0862               	movf	SMSCommunication@i,w
  3891  06CD  160A  118A  2514  120A  118A  	fcall	_eeprom_read
  3892  06D2  1283               	bcf	3,5	;RP0=0, select bank0
  3893  06D3  1303               	bcf	3,6	;RP1=0, select bank0
  3894  06D4  00DB               	movwf	??_SMSCommunication
  3895  06D5  085B               	movf	??_SMSCommunication,w
  3896  06D6  00E4               	movwf	SMSCommunication@c
  3897                           
  3898                           ;MobileAdv.c: 479: phone_number[len] = c;
  3899  06D7  0864               	movf	SMSCommunication@c,w
  3900  06D8  00DB               	movwf	??_SMSCommunication
  3901  06D9  0865               	movf	SMSCommunication@len,w
  3902  06DA  3EA1               	addlw	_phone_number& (0+255)
  3903  06DB  0084               	movwf	4
  3904  06DC  085B               	movf	??_SMSCommunication,w
  3905  06DD  1383               	bcf	3,7	;select IRP bank1
  3906  06DE  0080               	movwf	0
  3907                           
  3908                           ;MobileAdv.c: 480: i++;
  3909  06DF  3001               	movlw	1
  3910  06E0  00DB               	movwf	??_SMSCommunication
  3911  06E1  085B               	movf	??_SMSCommunication,w
  3912  06E2  07E2               	addwf	SMSCommunication@i,f
  3913                           
  3914                           ;MobileAdv.c: 481: len++;
  3915  06E3  3001               	movlw	1
  3916  06E4  00DB               	movwf	??_SMSCommunication
  3917  06E5  085B               	movf	??_SMSCommunication,w
  3918  06E6  07E5               	addwf	SMSCommunication@len,f
  3919  06E7  2EC8               	goto	l3531
  3920  06E8                     l3533:	
  3921                           
  3922                           ;MobileAdv.c: 482: }
  3923                           ;MobileAdv.c: 483: phone_number[len-1] = '\0';
  3924  06E8  0865               	movf	SMSCommunication@len,w
  3925  06E9  3EFF               	addlw	255
  3926  06EA  3EA1               	addlw	_phone_number& (0+255)
  3927  06EB  0084               	movwf	4
  3928  06EC  1383               	bcf	3,7	;select IRP bank1
  3929  06ED  0180               	clrf	0
  3930  06EE                     l3535:	
  3931                           
  3932                           ;MobileAdv.c: 484: }
  3933                           ;MobileAdv.c: 486: if(phase_check() == 1)
  3934  06EE  160A  118A  23DD  120A  118A  	fcall	_phase_check
  3935  06F3  3A01               	xorlw	1
  3936  06F4  1D03               	skipz
  3937  06F5  2EFC               	goto	l3539
  3938                           
  3939                           ;MobileAdv.c: 487: {
  3940                           ;MobileAdv.c: 488: strcat(phone_number,"\nPOWER OK!");
  3941  06F6  30CD               	movlw	low (STR_22| (0+32768))
  3942  06F7  1283               	bcf	3,5	;RP0=0, select bank0
  3943  06F8  1303               	bcf	3,6	;RP1=0, select bank0
  3944  06F9  00A0               	movwf	strcat@from
  3945  06FA  3088               	movlw	high (STR_22| (0+32768))
  3946  06FB  2F01               	goto	L1
  3947  06FC                     l3539:	
  3948                           ;MobileAdv.c: 489: }
  3949                           
  3950                           
  3951                           ;MobileAdv.c: 490: else
  3952                           ;MobileAdv.c: 491: {
  3953                           ;MobileAdv.c: 492: strcat(phone_number,"\nPOWER FAIL!");
  3954  06FC  309E               	movlw	low (STR_34| (0+32768))
  3955  06FD  1283               	bcf	3,5	;RP0=0, select bank0
  3956  06FE  1303               	bcf	3,6	;RP1=0, select bank0
  3957  06FF  00A0               	movwf	strcat@from
  3958  0700  3088               	movlw	high (STR_34| (0+32768))
  3959  0701                     L1:	
  3960  0701  00A1               	movwf	strcat@from+1
  3961  0702  30A1               	movlw	_phone_number& (0+255)
  3962  0703  160A  118A  25D4  120A  118A  	fcall	_strcat
  3963                           
  3964                           ;MobileAdv.c: 493: }
  3965                           ;MobileAdv.c: 495: uint8_t ref;
  3966                           ;MobileAdv.c: 496: result=SIM300SendMsg(MSG_number,phone_number,&ref);
  3967  0708  30D6               	movlw	_MSG_number& (0+255)
  3968  0709  1283               	bcf	3,5	;RP0=0, select bank0
  3969  070A  1303               	bcf	3,6	;RP1=0, select bank0
  3970  070B  00D2               	movwf	SIM300SendMsg@num
  3971  070C  3001               	movlw	1
  3972  070D  00D3               	movwf	SIM300SendMsg@num+1
  3973  070E  30A1               	movlw	_phone_number& (0+255)
  3974  070F  00D4               	movwf	SIM300SendMsg@msg
  3975  0710  3000               	movlw	0
  3976  0711  00D5               	movwf	SIM300SendMsg@msg+1
  3977  0712  3060               	movlw	SMSCommunication@ref_210& (0+255)
  3978  0713  00DB               	movwf	??_SMSCommunication
  3979  0714  085B               	movf	??_SMSCommunication,w
  3980  0715  00D6               	movwf	SIM300SendMsg@msg_ref
  3981  0716  120A  158A  25B6  120A  118A  	fcall	_SIM300SendMsg
  3982  071B  1283               	bcf	3,5	;RP0=0, select bank0
  3983  071C  1303               	bcf	3,6	;RP1=0, select bank0
  3984  071D  00DC               	movwf	??_SMSCommunication+1
  3985  071E  085C               	movf	??_SMSCommunication+1,w
  3986  071F  00E3               	movwf	SMSCommunication@result
  3987                           
  3988                           ;MobileAdv.c: 497: _delay(1000000);
  3989  0720  3006               	movlw	6
  3990  0721  00DD               	movwf	??_SMSCommunication+2
  3991  0722  3013               	movlw	19
  3992  0723  00DC               	movwf	??_SMSCommunication+1
  3993  0724  30B1               	movlw	177
  3994  0725  00DB               	movwf	??_SMSCommunication
  3995  0726                     u4037:	
  3996  0726  0BDB               	decfsz	??_SMSCommunication,f
  3997  0727  2F26               	goto	u4037
  3998  0728  0BDC               	decfsz	??_SMSCommunication+1,f
  3999  0729  2F26               	goto	u4037
  4000  072A  0BDD               	decfsz	??_SMSCommunication+2,f
  4001  072B  2F26               	goto	u4037
  4002  072C  2F2D               	nop2
  4003                           
  4004                           ;MobileAdv.c: 498: strcpy(phone_number,"");
  4005  072D  308F               	movlw	low ((STR_32+14)| (0+32768))
  4006  072E  1283               	bcf	3,5	;RP0=0, select bank0
  4007  072F  1303               	bcf	3,6	;RP1=0, select bank0
  4008  0730  00A0               	movwf	strcpy@from
  4009  0731  3088               	movlw	high ((STR_32+14)| (0+32768))
  4010  0732  00A1               	movwf	strcpy@from+1
  4011  0733  30A1               	movlw	_phone_number& (0+255)
  4012  0734  160A  118A  2442  120A  118A  	fcall	_strcpy
  4013                           
  4014                           ;MobileAdv.c: 499: strcpy(phone_number,"ATD");
  4015  0739  3034               	movlw	low (STR_24| (0+32768))
  4016  073A  1283               	bcf	3,5	;RP0=0, select bank0
  4017  073B  1303               	bcf	3,6	;RP1=0, select bank0
  4018  073C  00A0               	movwf	strcpy@from
  4019  073D  3089               	movlw	high (STR_24| (0+32768))
  4020  073E  00A1               	movwf	strcpy@from+1
  4021  073F  30A1               	movlw	_phone_number& (0+255)
  4022  0740  160A  118A  2442   	fcall	_strcpy
  4023                           
  4024                           ;MobileAdv.c: 500: return;
  4025  0743  0008               	return
  4026  0744                     l3549:	
  4027                           
  4028                           ;MobileAdv.c: 501: }
  4029                           ;MobileAdv.c: 502: }
  4030                           ;MobileAdv.c: 503: if(result == 201)
  4031  0744  1283               	bcf	3,5	;RP0=0, select bank0
  4032  0745  1303               	bcf	3,6	;RP1=0, select bank0
  4033  0746  0863               	movf	SMSCommunication@result,w
  4034  0747  3AC9               	xorlw	201
  4035  0748  1D03               	skipz
  4036  0749  2F6E               	goto	l3557
  4037                           
  4038                           ;MobileAdv.c: 504: {
  4039                           ;MobileAdv.c: 505: uint8_t ref;
  4040                           ;MobileAdv.c: 506: result=SIM300SendMsg(MSG_number,"Invalid Keyword",&ref);
  4041  074A  30D6               	movlw	_MSG_number& (0+255)
  4042  074B  00D2               	movwf	SIM300SendMsg@num
  4043  074C  3001               	movlw	1
  4044  074D  00D3               	movwf	SIM300SendMsg@num+1
  4045  074E  3071               	movlw	low (STR_37| (0+32768))
  4046  074F  00D4               	movwf	SIM300SendMsg@msg
  4047  0750  3088               	movlw	high (STR_37| (0+32768))
  4048  0751  00D5               	movwf	SIM300SendMsg@msg+1
  4049  0752  3061               	movlw	SMSCommunication@ref_213& (0+255)
  4050  0753  00DB               	movwf	??_SMSCommunication
  4051  0754  085B               	movf	??_SMSCommunication,w
  4052  0755  00D6               	movwf	SIM300SendMsg@msg_ref
  4053  0756  120A  158A  25B6  120A  118A  	fcall	_SIM300SendMsg
  4054  075B  1283               	bcf	3,5	;RP0=0, select bank0
  4055  075C  1303               	bcf	3,6	;RP1=0, select bank0
  4056  075D  00DC               	movwf	??_SMSCommunication+1
  4057  075E  085C               	movf	??_SMSCommunication+1,w
  4058  075F  00E3               	movwf	SMSCommunication@result
  4059                           
  4060                           ;MobileAdv.c: 507: _delay(1000000);
  4061  0760  3006               	movlw	6
  4062  0761  00DD               	movwf	??_SMSCommunication+2
  4063  0762  3013               	movlw	19
  4064  0763  00DC               	movwf	??_SMSCommunication+1
  4065  0764  30B1               	movlw	177
  4066  0765  00DB               	movwf	??_SMSCommunication
  4067  0766                     u4047:	
  4068  0766  0BDB               	decfsz	??_SMSCommunication,f
  4069  0767  2F66               	goto	u4047
  4070  0768  0BDC               	decfsz	??_SMSCommunication+1,f
  4071  0769  2F66               	goto	u4047
  4072  076A  0BDD               	decfsz	??_SMSCommunication+2,f
  4073  076B  2F66               	goto	u4047
  4074  076C  2F6D               	nop2
  4075                           
  4076                           ;MobileAdv.c: 508: return;
  4077  076D  0008               	return
  4078  076E                     l3557:	
  4079                           
  4080                           ;MobileAdv.c: 509: }
  4081                           ;MobileAdv.c: 511: USARTFlushBuffer();
  4082  076E  160A  118A  23E8   	fcall	_USARTFlushBuffer
  4083  0771  0008               	return
  4084  0772                     __end_of_SMSCommunication:	
  4085                           ;MobileAdv.c: 512: return;
  4086                           
  4087                           
  4088                           	psect	text5
  4089  1442                     __ptext5:	
  4090 ;; *************** function _strcpy *****************
  4091 ;; Defined at:
  4092 ;;		line 8 in file "C:\Program Files (x86)\Microchip\xc8\v1.32\sources\common\strcpy.c"
  4093 ;; Parameters:    Size  Location     Type
  4094 ;;  to              1    wreg     PTR unsigned char 
  4095 ;;		 -> phone_number(40), 
  4096 ;;  from            2    0[BANK0 ] PTR const unsigned char 
  4097 ;;		 -> STR_36(4), STR_35(1), STR_32(15), STR_31(1), 
  4098 ;;		 -> STR_30(9), STR_29(1), STR_28(4), STR_27(1), 
  4099 ;;		 -> STR_26(21), STR_25(1), STR_24(4), STR_23(1), 
  4100 ;;		 -> STR_21(14), STR_20(1), 
  4101 ;; Auto vars:     Size  Location     Type
  4102 ;;  to              1    4[BANK0 ] PTR unsigned char 
  4103 ;;		 -> phone_number(40), 
  4104 ;;  cp              1    3[BANK0 ] PTR unsigned char 
  4105 ;;		 -> phone_number(40), 
  4106 ;; Return value:  Size  Location     Type
  4107 ;;                  1    wreg      PTR unsigned char 
  4108 ;; Registers used:
  4109 ;;		wreg, fsr0l, fsr0h, status,2, status,0, btemp+1, pclath
  4110 ;; Tracked objects:
  4111 ;;		On entry : 0/0
  4112 ;;		On exit  : 0/0
  4113 ;;		Unchanged: 0/0
  4114 ;; Data sizes:     COMMON   BANK0   BANK1   BANK3   BANK2
  4115 ;;      Params:         0       2       0       0       0
  4116 ;;      Locals:         0       2       0       0       0
  4117 ;;      Temps:          0       1       0       0       0
  4118 ;;      Totals:         0       5       0       0       0
  4119 ;;Total ram usage:        5 bytes
  4120 ;; Hardware stack levels used:    1
  4121 ;; Hardware stack levels required when called:    2
  4122 ;; This function calls:
  4123 ;;		Nothing
  4124 ;; This function is called by:
  4125 ;;		_SMSCommunication
  4126 ;; This function uses a non-reentrant model
  4127 ;;
  4128                           
  4129                           
  4130                           ;psect for function _strcpy
  4131  1442                     _strcpy:	
  4132                           
  4133                           ;incstack = 0
  4134                           ; Regs used in _strcpy: [wreg-fsr0h+status,2+status,0+btemp+1+pclath]
  4135                           ;strcpy@to stored from wreg
  4136  1442  1283               	bcf	3,5	;RP0=0, select bank0
  4137  1443  1303               	bcf	3,6	;RP1=0, select bank0
  4138  1444  00A4               	movwf	strcpy@to
  4139  1445  0824               	movf	strcpy@to,w
  4140  1446  00A2               	movwf	??_strcpy
  4141  1447  0822               	movf	??_strcpy,w
  4142  1448  00A3               	movwf	strcpy@cp
  4143  1449                     l3247:	
  4144  1449  0821               	movf	strcpy@from+1,w
  4145  144A  00FF               	movwf	127
  4146  144B  0820               	movf	strcpy@from,w
  4147  144C  0084               	movwf	4
  4148  144D  120A  158A  2000  160A  118A  	fcall	stringtab
  4149  1452  00A2               	movwf	??_strcpy
  4150  1453  0823               	movf	strcpy@cp,w
  4151  1454  0084               	movwf	4
  4152  1455  0822               	movf	??_strcpy,w
  4153  1456  1383               	bcf	3,7	;select IRP bank0
  4154  1457  0080               	movwf	0
  4155  1458  0880               	movf	0,f
  4156  1459  1903               	btfsc	3,2
  4157  145A  0008               	return
  4158  145B  3001               	movlw	1
  4159  145C  00A2               	movwf	??_strcpy
  4160  145D  0822               	movf	??_strcpy,w
  4161  145E  07A3               	addwf	strcpy@cp,f
  4162  145F  3001               	movlw	1
  4163  1460  07A0               	addwf	strcpy@from,f
  4164  1461  1803               	skipnc
  4165  1462  0AA1               	incf	strcpy@from+1,f
  4166  1463  2C49               	goto	l3247
  4167  1464                     __end_of_strcpy:	
  4168                           ;	Return value of _strcpy is never used
  4169                           
  4170                           
  4171                           	psect	text6
  4172  15D4                     __ptext6:	
  4173 ;; *************** function _strcat *****************
  4174 ;; Defined at:
  4175 ;;		line 8 in file "C:\Program Files (x86)\Microchip\xc8\v1.32\sources\common\strcat.c"
  4176 ;; Parameters:    Size  Location     Type
  4177 ;;  to              1    wreg     PTR unsigned char 
  4178 ;;		 -> phone_number(40), 
  4179 ;;  from            2    0[BANK0 ] PTR const unsigned char 
  4180 ;;		 -> STR_34(13), STR_33(11), STR_22(11), 
  4181 ;; Auto vars:     Size  Location     Type
  4182 ;;  to              1    3[BANK0 ] PTR unsigned char 
  4183 ;;		 -> phone_number(40), 
  4184 ;;  cp              1    4[BANK0 ] PTR unsigned char 
  4185 ;;		 -> phone_number(40), 
  4186 ;; Return value:  Size  Location     Type
  4187 ;;                  1    wreg      PTR unsigned char 
  4188 ;; Registers used:
  4189 ;;		wreg, fsr0l, fsr0h, status,2, status,0, btemp+1, pclath
  4190 ;; Tracked objects:
  4191 ;;		On entry : 0/0
  4192 ;;		On exit  : 0/0
  4193 ;;		Unchanged: 0/0
  4194 ;; Data sizes:     COMMON   BANK0   BANK1   BANK3   BANK2
  4195 ;;      Params:         0       2       0       0       0
  4196 ;;      Locals:         0       2       0       0       0
  4197 ;;      Temps:          0       1       0       0       0
  4198 ;;      Totals:         0       5       0       0       0
  4199 ;;Total ram usage:        5 bytes
  4200 ;; Hardware stack levels used:    1
  4201 ;; Hardware stack levels required when called:    2
  4202 ;; This function calls:
  4203 ;;		Nothing
  4204 ;; This function is called by:
  4205 ;;		_SMSCommunication
  4206 ;; This function uses a non-reentrant model
  4207 ;;
  4208                           
  4209                           
  4210                           ;psect for function _strcat
  4211  15D4                     _strcat:	
  4212                           
  4213                           ;incstack = 0
  4214                           ; Regs used in _strcat: [wreg-fsr0h+status,2+status,0+btemp+1+pclath]
  4215                           ;strcat@to stored from wreg
  4216  15D4  1283               	bcf	3,5	;RP0=0, select bank0
  4217  15D5  1303               	bcf	3,6	;RP1=0, select bank0
  4218  15D6  00A3               	movwf	strcat@to
  4219  15D7  0823               	movf	strcat@to,w
  4220  15D8  00A2               	movwf	??_strcat
  4221  15D9  0822               	movf	??_strcat,w
  4222  15DA  00A4               	movwf	strcat@cp
  4223  15DB                     l3253:	
  4224  15DB  0824               	movf	strcat@cp,w
  4225  15DC  0084               	movwf	4
  4226  15DD  1383               	bcf	3,7	;select IRP bank0
  4227  15DE  0880               	movf	0,f
  4228  15DF  1903               	btfsc	3,2
  4229  15E0  2DEE               	goto	l3259
  4230  15E1  3001               	movlw	1
  4231  15E2  00A2               	movwf	??_strcat
  4232  15E3  0822               	movf	??_strcat,w
  4233  15E4  07A4               	addwf	strcat@cp,f
  4234  15E5  2DDB               	goto	l3253
  4235  15E6                     l3255:	
  4236  15E6  3001               	movlw	1
  4237  15E7  00A2               	movwf	??_strcat
  4238  15E8  0822               	movf	??_strcat,w
  4239  15E9  07A4               	addwf	strcat@cp,f
  4240  15EA  3001               	movlw	1
  4241  15EB  07A0               	addwf	strcat@from,f
  4242  15EC  1803               	skipnc
  4243  15ED  0AA1               	incf	strcat@from+1,f
  4244  15EE                     l3259:	
  4245  15EE  0821               	movf	strcat@from+1,w
  4246  15EF  00FF               	movwf	127
  4247  15F0  0820               	movf	strcat@from,w
  4248  15F1  0084               	movwf	4
  4249  15F2  120A  158A  2000  160A  118A  	fcall	stringtab
  4250  15F7  00A2               	movwf	??_strcat
  4251  15F8  0824               	movf	strcat@cp,w
  4252  15F9  0084               	movwf	4
  4253  15FA  0822               	movf	??_strcat,w
  4254  15FB  1383               	bcf	3,7	;select IRP bank0
  4255  15FC  0080               	movwf	0
  4256  15FD  0880               	movf	0,f
  4257  15FE  1903               	btfsc	3,2
  4258                           
  4259                           ;	Return value of _strcat is never used
  4260  15FF  0008               	return
  4261  1600  2DE6               	goto	l3255
  4262  1601                     __end_of_strcat:	
  4263                           
  4264                           	psect	text7
  4265  13DD                     __ptext7:	
  4266 ;; *************** function _phase_check *****************
  4267 ;; Defined at:
  4268 ;;		line 539 in file "E:\Study Material\XC8 PROJECTS\Aurangabad\MobileAdv.c"
  4269 ;; Parameters:    Size  Location     Type
  4270 ;;		None
  4271 ;; Auto vars:     Size  Location     Type
  4272 ;;		None
  4273 ;; Return value:  Size  Location     Type
  4274 ;;                  1    wreg      unsigned char 
  4275 ;; Registers used:
  4276 ;;		wreg
  4277 ;; Tracked objects:
  4278 ;;		On entry : 0/0
  4279 ;;		On exit  : 0/0
  4280 ;;		Unchanged: 0/0
  4281 ;; Data sizes:     COMMON   BANK0   BANK1   BANK3   BANK2
  4282 ;;      Params:         0       0       0       0       0
  4283 ;;      Locals:         0       0       0       0       0
  4284 ;;      Temps:          0       0       0       0       0
  4285 ;;      Totals:         0       0       0       0       0
  4286 ;;Total ram usage:        0 bytes
  4287 ;; Hardware stack levels used:    1
  4288 ;; Hardware stack levels required when called:    2
  4289 ;; This function calls:
  4290 ;;		Nothing
  4291 ;; This function is called by:
  4292 ;;		_main
  4293 ;;		_SMSCommunication
  4294 ;; This function uses a non-reentrant model
  4295 ;;
  4296                           
  4297                           
  4298                           ;psect for function _phase_check
  4299  13DD                     _phase_check:	
  4300                           
  4301                           ;MobileAdv.c: 542: if( RC0 == 1 && RC1 == 1 && RC2 == 1 )
  4302                           
  4303                           ;incstack = 0
  4304                           ; Regs used in _phase_check: [wreg]
  4305  13DD  1283               	bcf	3,5	;RP0=0, select bank0
  4306  13DE  1303               	bcf	3,6	;RP1=0, select bank0
  4307  13DF  1807               	btfsc	7,0	;volatile
  4308  13E0  1C87               	btfss	7,1	;volatile
  4309  13E1  2BE6               	goto	l3107
  4310  13E2  1D07               	btfss	7,2	;volatile
  4311  13E3  2BE6               	goto	l3107
  4312                           
  4313                           ;MobileAdv.c: 543: {
  4314                           ;MobileAdv.c: 545: return 1;
  4315  13E4  3001               	movlw	1
  4316                           
  4317                           ;MobileAdv.c: 546: }
  4318  13E5  0008               	return
  4319  13E6                     l3107:	
  4320                           
  4321                           ;MobileAdv.c: 547: else
  4322                           ;MobileAdv.c: 548: {
  4323                           ;MobileAdv.c: 550: return 0;
  4324  13E6  3000               	movlw	0
  4325  13E7  0008               	return
  4326  13E8                     __end_of_phase_check:	
  4327                           
  4328                           	psect	text8
  4329  1514                     __ptext8:	
  4330 ;; *************** function _eeprom_read *****************
  4331 ;; Defined at:
  4332 ;;		line 6 in file "C:\Program Files (x86)\Microchip\xc8\v1.32\sources\pic\eeread.c"
  4333 ;; Parameters:    Size  Location     Type
  4334 ;;  addr            1    wreg     unsigned char 
  4335 ;; Auto vars:     Size  Location     Type
  4336 ;;  addr            1    1[BANK0 ] unsigned char 
  4337 ;; Return value:  Size  Location     Type
  4338 ;;                  1    wreg      unsigned char 
  4339 ;; Registers used:
  4340 ;;		wreg, status,2, status,0
  4341 ;; Tracked objects:
  4342 ;;		On entry : 0/0
  4343 ;;		On exit  : 0/0
  4344 ;;		Unchanged: 0/0
  4345 ;; Data sizes:     COMMON   BANK0   BANK1   BANK3   BANK2
  4346 ;;      Params:         0       0       0       0       0
  4347 ;;      Locals:         0       1       0       0       0
  4348 ;;      Temps:          0       1       0       0       0
  4349 ;;      Totals:         0       2       0       0       0
  4350 ;;Total ram usage:        2 bytes
  4351 ;; Hardware stack levels used:    1
  4352 ;; Hardware stack levels required when called:    2
  4353 ;; This function calls:
  4354 ;;		Nothing
  4355 ;; This function is called by:
  4356 ;;		_main
  4357 ;;		_SMSCommunication
  4358 ;; This function uses a non-reentrant model
  4359 ;;
  4360                           
  4361                           
  4362                           ;psect for function _eeprom_read
  4363  1514                     _eeprom_read:	
  4364                           
  4365                           ;incstack = 0
  4366                           ; Regs used in _eeprom_read: [wreg+status,2+status,0]
  4367                           ;eeprom_read@addr stored from wreg
  4368  1514  1283               	bcf	3,5	;RP0=0, select bank0
  4369  1515  1303               	bcf	3,6	;RP1=0, select bank0
  4370  1516  00A1               	movwf	eeprom_read@addr
  4371  1517  2D1A               	goto	l503
  4372  1518                     u2521:	
  4373  1518  1283               	bcf	3,5	;RP0=0, select bank0
  4374  1519  1303               	bcf	3,6	;RP1=0, select bank0
  4375  151A                     l503:	
  4376  151A  0064               	clrwdt	;# 
  4377  151B  1683               	bsf	3,5	;RP0=1, select bank3
  4378  151C  1703               	bsf	3,6	;RP1=1, select bank3
  4379  151D  188C               	btfsc	12,1	;volsfr
  4380  151E  2D18               	goto	u2521
  4381  151F  1283               	bcf	3,5	;RP0=0, select bank0
  4382  1520  1303               	bcf	3,6	;RP1=0, select bank0
  4383  1521  0821               	movf	eeprom_read@addr,w
  4384  1522  1283               	bcf	3,5	;RP0=0, select bank2
  4385  1523  1703               	bsf	3,6	;RP1=1, select bank2
  4386  1524  008D               	movwf	13	;volatile
  4387  1525  303F               	movlw	63
  4388  1526  1283               	bcf	3,5	;RP0=0, select bank0
  4389  1527  1303               	bcf	3,6	;RP1=0, select bank0
  4390  1528  00A0               	movwf	??_eeprom_read
  4391  1529  0820               	movf	??_eeprom_read,w
  4392  152A  1683               	bsf	3,5	;RP0=1, select bank3
  4393  152B  1703               	bsf	3,6	;RP1=1, select bank3
  4394  152C  058C               	andwf	12,f	;volsfr
  4395  152D  140C               	bsf	12,0	;volsfr
  4396  152E  1003               	clrc
  4397  152F  180C               	btfsc	12,0	;volsfr
  4398  1530  1403               	setc
  4399  1531  3000               	movlw	0
  4400  1532  1803               	skipnc
  4401  1533  3001               	movlw	1
  4402  1534  1283               	bcf	3,5	;RP0=0, select bank2
  4403  1535  1703               	bsf	3,6	;RP1=1, select bank2
  4404  1536  080C               	movf	12,w	;volatile
  4405  1537  0008               	return
  4406  1538                     __end_of_eeprom_read:	
  4407                           
  4408                           	psect	text9
  4409  0B35                     __ptext9:	
  4410 ;; *************** function _SIM300WaitForValidMsg *****************
  4411 ;; Defined at:
  4412 ;;		line 261 in file "E:\Study Material\XC8 PROJECTS\Aurangabad\sim300.c"
  4413 ;; Parameters:    Size  Location     Type
  4414 ;;		None
  4415 ;; Auto vars:     Size  Location     Type
  4416 ;;  id              1   56[BANK0 ] unsigned char 
  4417 ;;  response        1   55[BANK0 ] unsigned char 
  4418 ;; Return value:  Size  Location     Type
  4419 ;;                  1    wreg      char 
  4420 ;; Registers used:
  4421 ;;		wreg, fsr0l, fsr0h, status,2, status,0, btemp+1, pclath, cstack
  4422 ;; Tracked objects:
  4423 ;;		On entry : 0/0
  4424 ;;		On exit  : 0/0
  4425 ;;		Unchanged: 0/0
  4426 ;; Data sizes:     COMMON   BANK0   BANK1   BANK3   BANK2
  4427 ;;      Params:         0       0       0       0       0
  4428 ;;      Locals:         0       2       0       0       0
  4429 ;;      Temps:          0       3       0       0       0
  4430 ;;      Totals:         0       5       0       0       0
  4431 ;;Total ram usage:        5 bytes
  4432 ;; Hardware stack levels used:    1
  4433 ;; Hardware stack levels required when called:    6
  4434 ;; This function calls:
  4435 ;;		_SIM300DeleteMsg
  4436 ;;		_SIM300ReadValidMsg
  4437 ;;		_USARTFlushBuffer
  4438 ;;		_strnicmp
  4439 ;; This function is called by:
  4440 ;;		_SMSCommunication
  4441 ;; This function uses a non-reentrant model
  4442 ;;
  4443                           
  4444                           
  4445                           ;psect for function _SIM300WaitForValidMsg
  4446  0B35                     _SIM300WaitForValidMsg:	
  4447                           
  4448                           ;sim300.c: 264: uint8_t id = 1;
  4449                           
  4450                           ;incstack = 0
  4451                           ; Regs used in _SIM300WaitForValidMsg: [wreg-fsr0h+status,2+status,0+btemp+1+pclath+csta
      +                          ck]
  4452  0B35  1283               	bcf	3,5	;RP0=0, select bank0
  4453  0B36  1303               	bcf	3,6	;RP1=0, select bank0
  4454  0B37  01D8               	clrf	SIM300WaitForValidMsg@id
  4455  0B38  0AD8               	incf	SIM300WaitForValidMsg@id,f
  4456                           
  4457                           ;sim300.c: 265: uint8_t response;
  4458                           ;sim300.c: 268: if(strnicmp(sim300_buffer+2,"+CMTI:",6)==0)
  4459  0B39  301C               	movlw	low (STR_42| (0+32768))
  4460  0B3A  00A2               	movwf	strnicmp@s2
  4461  0B3B  3089               	movlw	high (STR_42| (0+32768))
  4462  0B3C  00A3               	movwf	strnicmp@s2+1
  4463  0B3D  3006               	movlw	6
  4464  0B3E  00A4               	movwf	strnicmp@len
  4465  0B3F  3000               	movlw	0
  4466  0B40  00A5               	movwf	strnicmp@len+1
  4467  0B41  3092               	movlw	(_sim300_buffer+2)& (0+255)
  4468  0B42  160A  118A  27B2  120A  158A  	fcall	_strnicmp
  4469  0B47  1283               	bcf	3,5	;RP0=0, select bank0
  4470  0B48  1303               	bcf	3,6	;RP1=0, select bank0
  4471  0B49  0823               	movf	?_strnicmp+1,w
  4472  0B4A  0422               	iorwf	?_strnicmp,w
  4473  0B4B  1D03               	skipz
  4474  0B4C  2B91               	goto	l3237
  4475                           
  4476                           ;sim300.c: 269: {
  4477                           ;sim300.c: 271: _delay((unsigned long)((1000)*(4000000/4000.0)));
  4478  0B4D  3006               	movlw	6
  4479  0B4E  00D6               	movwf	??_SIM300WaitForValidMsg+2
  4480  0B4F  3013               	movlw	19
  4481  0B50  00D5               	movwf	??_SIM300WaitForValidMsg+1
  4482  0B51  30B1               	movlw	177
  4483  0B52  00D4               	movwf	??_SIM300WaitForValidMsg
  4484  0B53                     u4057:	
  4485  0B53  0BD4               	decfsz	??_SIM300WaitForValidMsg,f
  4486  0B54  2B53               	goto	u4057
  4487  0B55  0BD5               	decfsz	??_SIM300WaitForValidMsg+1,f
  4488  0B56  2B53               	goto	u4057
  4489  0B57  0BD6               	decfsz	??_SIM300WaitForValidMsg+2,f
  4490  0B58  2B53               	goto	u4057
  4491  0B59  2B5A               	nop2
  4492                           
  4493                           ;sim300.c: 272: response = SIM300ReadValidMsg(id);
  4494  0B5A  1283               	bcf	3,5	;RP0=0, select bank0
  4495  0B5B  1303               	bcf	3,6	;RP1=0, select bank0
  4496  0B5C  0858               	movf	SIM300WaitForValidMsg@id,w
  4497  0B5D  120A  158A  250C  120A  158A  	fcall	_SIM300ReadValidMsg
  4498  0B62  1283               	bcf	3,5	;RP0=0, select bank0
  4499  0B63  1303               	bcf	3,6	;RP1=0, select bank0
  4500  0B64  00D4               	movwf	??_SIM300WaitForValidMsg
  4501  0B65  0854               	movf	??_SIM300WaitForValidMsg,w
  4502  0B66  00D7               	movwf	SIM300WaitForValidMsg@response
  4503                           
  4504                           ;sim300.c: 273: if(response == 1)
  4505  0B67  0857               	movf	SIM300WaitForValidMsg@response,w
  4506  0B68  3A01               	xorlw	1
  4507  0B69  1D03               	skipz
  4508  0B6A  2B7B               	goto	l3219
  4509                           
  4510                           ;sim300.c: 274: {
  4511                           ;sim300.c: 276: response = SIM300DeleteMsg(id);
  4512  0B6B  0858               	movf	SIM300WaitForValidMsg@id,w
  4513  0B6C  120A  158A  2393  120A  158A  	fcall	_SIM300DeleteMsg
  4514  0B71  1283               	bcf	3,5	;RP0=0, select bank0
  4515  0B72  1303               	bcf	3,6	;RP1=0, select bank0
  4516  0B73  00D4               	movwf	??_SIM300WaitForValidMsg
  4517  0B74  0854               	movf	??_SIM300WaitForValidMsg,w
  4518  0B75  00D7               	movwf	SIM300WaitForValidMsg@response
  4519                           
  4520                           ;sim300.c: 278: USARTFlushBuffer();
  4521  0B76  160A  118A  23E8   	fcall	_USARTFlushBuffer
  4522                           
  4523                           ;sim300.c: 279: return 1;
  4524  0B79  3001               	movlw	1
  4525  0B7A  0008               	return
  4526  0B7B                     l3219:	
  4527                           
  4528                           ;sim300.c: 280: }
  4529                           ;sim300.c: 281: if(response == 201)
  4530  0B7B  1283               	bcf	3,5	;RP0=0, select bank0
  4531  0B7C  1303               	bcf	3,6	;RP1=0, select bank0
  4532  0B7D  0857               	movf	SIM300WaitForValidMsg@response,w
  4533  0B7E  3AC9               	xorlw	201
  4534  0B7F  1D03               	skipz
  4535  0B80  2B91               	goto	l3237
  4536                           
  4537                           ;sim300.c: 282: {
  4538                           ;sim300.c: 284: response = SIM300DeleteMsg(id);
  4539  0B81  0858               	movf	SIM300WaitForValidMsg@id,w
  4540  0B82  120A  158A  2393  120A  158A  	fcall	_SIM300DeleteMsg
  4541  0B87  1283               	bcf	3,5	;RP0=0, select bank0
  4542  0B88  1303               	bcf	3,6	;RP1=0, select bank0
  4543  0B89  00D4               	movwf	??_SIM300WaitForValidMsg
  4544  0B8A  0854               	movf	??_SIM300WaitForValidMsg,w
  4545  0B8B  00D7               	movwf	SIM300WaitForValidMsg@response
  4546                           
  4547                           ;sim300.c: 286: USARTFlushBuffer();
  4548  0B8C  160A  118A  23E8   	fcall	_USARTFlushBuffer
  4549                           
  4550                           ;sim300.c: 287: return 201;
  4551  0B8F  30C9               	movlw	-55
  4552  0B90  0008               	return
  4553  0B91                     l3237:	
  4554                           ;sim300.c: 295: return -2;
  4555                           
  4556                           ;sim300.c: 294: USARTFlushBuffer();
  4557                           
  4558                           ;sim300.c: 290: {
  4559                           ;sim300.c: 292: response = SIM300DeleteMsg(id);
  4560                           
  4561                           ;sim300.c: 288: }
  4562                           ;sim300.c: 289: if(response == -2)
  4563                           
  4564                           
  4565                           ;sim300.c: 296: }
  4566                           ;sim300.c: 297: }
  4567                           ;sim300.c: 299: return -2;
  4568  0B91  30FE               	movlw	-2
  4569  0B92  0008               	return
  4570  0B93                     __end_of_SIM300WaitForValidMsg:	
  4571                           
  4572                           	psect	text10
  4573  0D0C                     __ptext10:	
  4574 ;; *************** function _SIM300ReadValidMsg *****************
  4575 ;; Defined at:
  4576 ;;		line 304 in file "E:\Study Material\XC8 PROJECTS\Aurangabad\sim300.c"
  4577 ;; Parameters:    Size  Location     Type
  4578 ;;  i               1    wreg     unsigned char 
  4579 ;; Auto vars:     Size  Location     Type
  4580 ;;  i               1   48[BANK0 ] unsigned char 
  4581 ;;  i               1   50[BANK0 ] unsigned char 
  4582 ;;  start           1   49[BANK0 ] PTR unsigned char 
  4583 ;;		 -> NULL(0), sim300_buffer(70), 
  4584 ;;  cmd            16   32[BANK0 ] unsigned char [16]
  4585 ;;  len             1   51[BANK0 ] unsigned char 
  4586 ;; Return value:  Size  Location     Type
  4587 ;;                  1    wreg      char 
  4588 ;; Registers used:
  4589 ;;		wreg, fsr0l, fsr0h, status,2, status,0, btemp+1, pclath, cstack
  4590 ;; Tracked objects:
  4591 ;;		On entry : 0/0
  4592 ;;		On exit  : 0/0
  4593 ;;		Unchanged: 0/0
  4594 ;; Data sizes:     COMMON   BANK0   BANK1   BANK3   BANK2
  4595 ;;      Params:         0       0       0       0       0
  4596 ;;      Locals:         0      20       0       0       0
  4597 ;;      Temps:          0       2       0       0       0
  4598 ;;      Totals:         0      22       0       0       0
  4599 ;;Total ram usage:       22 bytes
  4600 ;; Hardware stack levels used:    1
  4601 ;; Hardware stack levels required when called:    5
  4602 ;; This function calls:
  4603 ;;		_SIM300Cmd
  4604 ;;		_SIM300WaitForResponse
  4605 ;;		_USARTFlushBuffer
  4606 ;;		_sprintf
  4607 ;;		_strichr
  4608 ;;		_strrichr
  4609 ;;		_strstr
  4610 ;; This function is called by:
  4611 ;;		_SIM300WaitForValidMsg
  4612 ;; This function uses a non-reentrant model
  4613 ;;
  4614                           
  4615                           
  4616                           ;psect for function _SIM300ReadValidMsg
  4617  0D0C                     _SIM300ReadValidMsg:	
  4618                           
  4619                           ;incstack = 0
  4620                           ; Regs used in _SIM300ReadValidMsg: [wreg-fsr0h+status,2+status,0+btemp+1+pclath+cstack]
  4621                           ;SIM300ReadValidMsg@i stored from wreg
  4622  0D0C  1283               	bcf	3,5	;RP0=0, select bank0
  4623  0D0D  1303               	bcf	3,6	;RP1=0, select bank0
  4624  0D0E  00D0               	movwf	SIM300ReadValidMsg@i
  4625                           
  4626                           ;sim300.c: 307: USARTFlushBuffer();
  4627  0D0F  160A  118A  23E8  120A  158A  	fcall	_USARTFlushBuffer
  4628                           
  4629                           ;sim300.c: 310: char cmd[16];
  4630                           ;sim300.c: 313: sprintf(cmd,"AT+CMGR=%d",i);
  4631  0D14  30C2               	movlw	low (STR_43| (0+32768))
  4632  0D15  1283               	bcf	3,5	;RP0=0, select bank0
  4633  0D16  1303               	bcf	3,6	;RP1=0, select bank0
  4634  0D17  00AE               	movwf	sprintf@f
  4635  0D18  3088               	movlw	high (STR_43| (0+32768))
  4636  0D19  00AF               	movwf	sprintf@f+1
  4637  0D1A  0850               	movf	SIM300ReadValidMsg@i,w
  4638  0D1B  00BE               	movwf	??_SIM300ReadValidMsg
  4639  0D1C  01BF               	clrf	??_SIM300ReadValidMsg+1
  4640  0D1D  083E               	movf	??_SIM300ReadValidMsg,w
  4641  0D1E  00B0               	movwf	?_sprintf+2
  4642  0D1F  083F               	movf	??_SIM300ReadValidMsg+1,w
  4643  0D20  00B1               	movwf	?_sprintf+3
  4644  0D21  3040               	movlw	SIM300ReadValidMsg@cmd& (0+255)
  4645  0D22  120A  158A  26D5  120A  158A  	fcall	_sprintf
  4646                           
  4647                           ;sim300.c: 316: SIM300Cmd(cmd);
  4648  0D27  3040               	movlw	SIM300ReadValidMsg@cmd& (0+255)
  4649  0D28  1283               	bcf	3,5	;RP0=0, select bank0
  4650  0D29  1303               	bcf	3,6	;RP1=0, select bank0
  4651  0D2A  00AD               	movwf	SIM300Cmd@cmd
  4652  0D2B  3000               	movlw	0
  4653  0D2C  00AE               	movwf	SIM300Cmd@cmd+1
  4654  0D2D  120A  158A  23F2  120A  158A  	fcall	_SIM300Cmd
  4655                           
  4656                           ;sim300.c: 318: uint8_t len=SIM300WaitForResponse(2000);
  4657  0D32  30D0               	movlw	208
  4658  0D33  1283               	bcf	3,5	;RP0=0, select bank0
  4659  0D34  1303               	bcf	3,6	;RP1=0, select bank0
  4660  0D35  00A2               	movwf	SIM300WaitForResponse@timeout
  4661  0D36  3007               	movlw	7
  4662  0D37  00A3               	movwf	SIM300WaitForResponse@timeout+1
  4663  0D38  120A  158A  21CD  120A  158A  	fcall	_SIM300WaitForResponse
  4664  0D3D  1283               	bcf	3,5	;RP0=0, select bank0
  4665  0D3E  1303               	bcf	3,6	;RP1=0, select bank0
  4666  0D3F  00BE               	movwf	??_SIM300ReadValidMsg
  4667  0D40  083E               	movf	??_SIM300ReadValidMsg,w
  4668  0D41  00D3               	movwf	SIM300ReadValidMsg@len
  4669                           
  4670                           ;sim300.c: 320: if(len==0)
  4671  0D42  08D3               	movf	SIM300ReadValidMsg@len,f
  4672  0D43  1D03               	skipz
  4673  0D44  2D47               	goto	l3013
  4674                           
  4675                           ;sim300.c: 321: return -3;
  4676  0D45  30FD               	movlw	-3
  4677  0D46  0008               	return
  4678  0D47                     l3013:	
  4679                           
  4680                           ;sim300.c: 323: sim300_buffer[len-1]='\0';
  4681  0D47  0853               	movf	SIM300ReadValidMsg@len,w
  4682  0D48  3EFF               	addlw	255
  4683  0D49  3E90               	addlw	_sim300_buffer& (0+255)
  4684  0D4A  0084               	movwf	4
  4685  0D4B  1783               	bsf	3,7	;select IRP bank3
  4686  0D4C  0180               	clrf	0
  4687                           
  4688                           ;sim300.c: 339: if(strrichr(sim300_buffer,'X') != (0))
  4689  0D4D  3058               	movlw	88
  4690  0D4E  00A2               	movwf	strrichr@chr
  4691  0D4F  3000               	movlw	0
  4692  0D50  00A3               	movwf	strrichr@chr+1
  4693  0D51  3090               	movlw	_sim300_buffer& (0+255)
  4694  0D52  120A  158A  2144  120A  158A  	fcall	_strrichr
  4695  0D57  3A00               	xorlw	0
  4696  0D58  1903               	skipnz
  4697  0D59  2DB4               	goto	l3053
  4698                           
  4699                           ;sim300.c: 340: {
  4700                           ;sim300.c: 342: char *start;
  4701                           ;sim300.c: 343: start = strichr(sim300_buffer+10,'+');
  4702  0D5A  302B               	movlw	43
  4703  0D5B  1283               	bcf	3,5	;RP0=0, select bank0
  4704  0D5C  1303               	bcf	3,6	;RP1=0, select bank0
  4705  0D5D  00A2               	movwf	strichr@chr
  4706  0D5E  3000               	movlw	0
  4707  0D5F  00A3               	movwf	strichr@chr+1
  4708  0D60  309A               	movlw	(_sim300_buffer+10)& (0+255)
  4709  0D61  160A  118A  2601  120A  158A  	fcall	_strichr
  4710  0D66  1283               	bcf	3,5	;RP0=0, select bank0
  4711  0D67  1303               	bcf	3,6	;RP1=0, select bank0
  4712  0D68  00BE               	movwf	??_SIM300ReadValidMsg
  4713  0D69  083E               	movf	??_SIM300ReadValidMsg,w
  4714  0D6A  00D1               	movwf	SIM300ReadValidMsg@start
  4715                           
  4716                           ;sim300.c: 344: char i = 0;
  4717  0D6B  01D2               	clrf	SIM300ReadValidMsg@i_328
  4718  0D6C                     l3027:	
  4719                           ;sim300.c: 345: while(*start != '"')
  4720                           
  4721  0D6C  0851               	movf	SIM300ReadValidMsg@start,w
  4722  0D6D  0084               	movwf	4
  4723  0D6E  1783               	bsf	3,7	;select IRP bank2
  4724  0D6F  0800               	movf	0,w
  4725  0D70  3A22               	xorlw	34
  4726  0D71  1903               	btfsc	3,2
  4727  0D72  2D86               	goto	l3029
  4728                           
  4729                           ;sim300.c: 346: {
  4730                           ;sim300.c: 347: MSG_number[i] = *start;
  4731  0D73  0851               	movf	SIM300ReadValidMsg@start,w
  4732  0D74  0084               	movwf	4
  4733  0D75  1783               	bsf	3,7	;select IRP bank2
  4734  0D76  0800               	movf	0,w
  4735  0D77  00BE               	movwf	??_SIM300ReadValidMsg
  4736  0D78  0852               	movf	SIM300ReadValidMsg@i_328,w
  4737  0D79  3ED6               	addlw	_MSG_number& (0+255)
  4738  0D7A  0084               	movwf	4
  4739  0D7B  083E               	movf	??_SIM300ReadValidMsg,w
  4740  0D7C  0080               	movwf	0
  4741                           
  4742                           ;sim300.c: 348: start++;
  4743  0D7D  3001               	movlw	1
  4744  0D7E  00BE               	movwf	??_SIM300ReadValidMsg
  4745  0D7F  083E               	movf	??_SIM300ReadValidMsg,w
  4746  0D80  07D1               	addwf	SIM300ReadValidMsg@start,f
  4747                           
  4748                           ;sim300.c: 349: i++;
  4749  0D81  3001               	movlw	1
  4750  0D82  00BE               	movwf	??_SIM300ReadValidMsg
  4751  0D83  083E               	movf	??_SIM300ReadValidMsg,w
  4752  0D84  07D2               	addwf	SIM300ReadValidMsg@i_328,f
  4753  0D85  2D6C               	goto	l3027
  4754  0D86                     l3029:	
  4755                           
  4756                           ;sim300.c: 350: }
  4757                           ;sim300.c: 351: MSG_number[i] = '\0';
  4758  0D86  0852               	movf	SIM300ReadValidMsg@i_328,w
  4759  0D87  3ED6               	addlw	_MSG_number& (0+255)
  4760  0D88  0084               	movwf	4
  4761  0D89  0180               	clrf	0
  4762                           
  4763                           ;sim300.c: 353: len=SIM300WaitForResponse(1000);
  4764  0D8A  30E8               	movlw	232
  4765  0D8B  00A2               	movwf	SIM300WaitForResponse@timeout
  4766  0D8C  3003               	movlw	3
  4767  0D8D  00A3               	movwf	SIM300WaitForResponse@timeout+1
  4768  0D8E  120A  158A  21CD  120A  158A  	fcall	_SIM300WaitForResponse
  4769  0D93  1283               	bcf	3,5	;RP0=0, select bank0
  4770  0D94  1303               	bcf	3,6	;RP1=0, select bank0
  4771  0D95  00BE               	movwf	??_SIM300ReadValidMsg
  4772  0D96  083E               	movf	??_SIM300ReadValidMsg,w
  4773  0D97  00D3               	movwf	SIM300ReadValidMsg@len
  4774                           
  4775                           ;sim300.c: 355: if(len==0)
  4776  0D98  08D3               	movf	SIM300ReadValidMsg@len,f
  4777  0D99  1D03               	skipz
  4778  0D9A  2D9D               	goto	l3039
  4779                           
  4780                           ;sim300.c: 356: return -3;
  4781  0D9B  30FD               	movlw	-3
  4782  0D9C  0008               	return
  4783  0D9D                     l3039:	
  4784                           
  4785                           ;sim300.c: 358: sim300_buffer[len-1]='\0';
  4786  0D9D  0853               	movf	SIM300ReadValidMsg@len,w
  4787  0D9E  3EFF               	addlw	255
  4788  0D9F  3E90               	addlw	_sim300_buffer& (0+255)
  4789  0DA0  0084               	movwf	4
  4790  0DA1  1783               	bsf	3,7	;select IRP bank3
  4791  0DA2  0180               	clrf	0
  4792                           
  4793                           ;sim300.c: 360: if(strstr(sim300_buffer,"EGL")!= (0))
  4794  0DA3  3030               	movlw	low (STR_44| (0+32768))
  4795  0DA4  00AD               	movwf	strstr@s2
  4796  0DA5  3089               	movlw	high (STR_44| (0+32768))
  4797  0DA6  00AE               	movwf	strstr@s2+1
  4798  0DA7  3090               	movlw	_sim300_buffer& (0+255)
  4799  0DA8  120A  158A  217C  120A  158A  	fcall	_strstr
  4800  0DAD  3A00               	xorlw	0
  4801  0DAE  1903               	skipnz
  4802  0DAF  2DB2               	goto	l3049
  4803                           
  4804                           ;sim300.c: 361: {
  4805                           ;sim300.c: 362: return 1;
  4806  0DB0  3001               	movlw	1
  4807                           
  4808                           ;sim300.c: 363: }
  4809  0DB1  0008               	return
  4810  0DB2                     l3049:	
  4811                           
  4812                           ;sim300.c: 364: else
  4813                           ;sim300.c: 365: {
  4814                           ;sim300.c: 366: return 201;
  4815  0DB2  30C9               	movlw	-55
  4816                           
  4817                           ;sim300.c: 367: }
  4818                           ;sim300.c: 368: }
  4819  0DB3  0008               	return
  4820  0DB4                     l3053:	
  4821                           
  4822                           ;sim300.c: 369: else
  4823                           ;sim300.c: 370: {
  4824                           ;sim300.c: 372: return -2;
  4825  0DB4  30FE               	movlw	-2
  4826  0DB5  0008               	return
  4827  0DB6                     __end_of_SIM300ReadValidMsg:	
  4828                           
  4829                           	psect	text11
  4830  097C                     __ptext11:	
  4831 ;; *************** function _strstr *****************
  4832 ;; Defined at:
  4833 ;;		line 4 in file "C:\Program Files (x86)\Microchip\xc8\v1.32\sources\common\strstr.c"
  4834 ;; Parameters:    Size  Location     Type
  4835 ;;  s1              1    wreg     PTR const unsigned char 
  4836 ;;		 -> NULL(0), sim300_buffer(70), 
  4837 ;;  s2              2   13[BANK0 ] PTR const unsigned char 
  4838 ;;		 -> STR_44(4), 
  4839 ;; Auto vars:     Size  Location     Type
  4840 ;;  s1              1   18[BANK0 ] PTR const unsigned char 
  4841 ;;		 -> NULL(0), sim300_buffer(70), 
  4842 ;; Return value:  Size  Location     Type
  4843 ;;                  1    wreg      PTR unsigned char 
  4844 ;; Registers used:
  4845 ;;		wreg, fsr0l, fsr0h, status,2, status,0, btemp+1, pclath, cstack
  4846 ;; Tracked objects:
  4847 ;;		On entry : 0/0
  4848 ;;		On exit  : 0/0
  4849 ;;		Unchanged: 0/0
  4850 ;; Data sizes:     COMMON   BANK0   BANK1   BANK3   BANK2
  4851 ;;      Params:         0       2       0       0       0
  4852 ;;      Locals:         0       1       0       0       0
  4853 ;;      Temps:          0       3       0       0       0
  4854 ;;      Totals:         0       6       0       0       0
  4855 ;;Total ram usage:        6 bytes
  4856 ;; Hardware stack levels used:    1
  4857 ;; Hardware stack levels required when called:    3
  4858 ;; This function calls:
  4859 ;;		_strchr
  4860 ;;		_strlen
  4861 ;;		_strncmp
  4862 ;; This function is called by:
  4863 ;;		_SIM300ReadValidMsg
  4864 ;; This function uses a non-reentrant model
  4865 ;;
  4866                           
  4867                           
  4868                           ;psect for function _strstr
  4869  097C                     _strstr:	
  4870                           
  4871                           ;incstack = 0
  4872                           ; Regs used in _strstr: [wreg-fsr0h+status,2+status,0+btemp+1+pclath+cstack]
  4873                           ;strstr@s1 stored from wreg
  4874  097C  1283               	bcf	3,5	;RP0=0, select bank0
  4875  097D  1303               	bcf	3,6	;RP1=0, select bank0
  4876  097E  00B2               	movwf	strstr@s1
  4877  097F                     l2951:	
  4878  097F  0832               	movf	strstr@s1,w
  4879  0980  1903               	btfsc	3,2
  4880  0981  29CB               	goto	l2955
  4881  0982  0832               	movf	strstr@s1,w
  4882  0983  0084               	movwf	4
  4883  0984  1783               	bsf	3,7	;select IRP bank2
  4884  0985  0880               	movf	0,f
  4885  0986  1903               	btfsc	3,2
  4886  0987  29CB               	goto	l2955
  4887  0988  082E               	movf	strstr@s2+1,w
  4888  0989  01A7               	clrf	strncmp@s2+1
  4889  098A  07A7               	addwf	strncmp@s2+1,f
  4890  098B  082D               	movf	strstr@s2,w
  4891  098C  01A6               	clrf	strncmp@s2
  4892  098D  07A6               	addwf	strncmp@s2,f
  4893  098E  082E               	movf	strstr@s2+1,w
  4894  098F  01A1               	clrf	strlen@s+1
  4895  0990  07A1               	addwf	strlen@s+1,f
  4896  0991  082D               	movf	strstr@s2,w
  4897  0992  01A0               	clrf	strlen@s
  4898  0993  07A0               	addwf	strlen@s,f
  4899  0994  160A  118A  2582  120A  158A  	fcall	_strlen
  4900  0999  1283               	bcf	3,5	;RP0=0, select bank0
  4901  099A  1303               	bcf	3,6	;RP1=0, select bank0
  4902  099B  0821               	movf	?_strlen+1,w
  4903  099C  01A9               	clrf	strncmp@len+1
  4904  099D  07A9               	addwf	strncmp@len+1,f
  4905  099E  0820               	movf	?_strlen,w
  4906  099F  01A8               	clrf	strncmp@len
  4907  09A0  07A8               	addwf	strncmp@len,f
  4908  09A1  0832               	movf	strstr@s1,w
  4909  09A2  160A  118A  2765  120A  158A  	fcall	_strncmp
  4910  09A7  1283               	bcf	3,5	;RP0=0, select bank0
  4911  09A8  1303               	bcf	3,6	;RP1=0, select bank0
  4912  09A9  0827               	movf	?_strncmp+1,w
  4913  09AA  0426               	iorwf	?_strncmp,w
  4914  09AB  1D03               	skipz
  4915  09AC  29AF               	goto	l2949
  4916  09AD  0832               	movf	strstr@s1,w
  4917  09AE  0008               	return
  4918  09AF                     l2949:	
  4919  09AF  082E               	movf	strstr@s2+1,w
  4920  09B0  00FF               	movwf	127
  4921  09B1  082D               	movf	strstr@s2,w
  4922  09B2  0084               	movwf	4
  4923  09B3  120A  158A  2000  120A  158A  	fcall	stringtab
  4924  09B8  00AF               	movwf	??_strstr
  4925  09B9  01B0               	clrf	??_strstr+1
  4926  09BA  082F               	movf	??_strstr,w
  4927  09BB  00A0               	movwf	strchr@chr
  4928  09BC  0830               	movf	??_strstr+1,w
  4929  09BD  00A1               	movwf	strchr@chr+1
  4930  09BE  0832               	movf	strstr@s1,w
  4931  09BF  3E01               	addlw	1
  4932  09C0  120A  118A  27E7  120A  158A  	fcall	_strchr
  4933  09C5  1283               	bcf	3,5	;RP0=0, select bank0
  4934  09C6  1303               	bcf	3,6	;RP1=0, select bank0
  4935  09C7  00B1               	movwf	??_strstr+2
  4936  09C8  0831               	movf	??_strstr+2,w
  4937  09C9  00B2               	movwf	strstr@s1
  4938  09CA  297F               	goto	l2951
  4939  09CB                     l2955:	
  4940  09CB  3000               	movlw	0
  4941  09CC  0008               	return
  4942  09CD                     __end_of_strstr:	
  4943                           
  4944                           	psect	text12
  4945  1765                     __ptext12:	
  4946 ;; *************** function _strncmp *****************
  4947 ;; Defined at:
  4948 ;;		line 4 in file "C:\Program Files (x86)\Microchip\xc8\v1.32\sources\common\strncmp.c"
  4949 ;; Parameters:    Size  Location     Type
  4950 ;;  s1              1    wreg     PTR const unsigned char 
  4951 ;;		 -> NULL(0), sim300_buffer(70), 
  4952 ;;  s2              2    6[BANK0 ] PTR const unsigned char 
  4953 ;;		 -> STR_44(4), 
  4954 ;;  len             2    8[BANK0 ] unsigned int 
  4955 ;; Auto vars:     Size  Location     Type
  4956 ;;  s1              1   12[BANK0 ] PTR const unsigned char 
  4957 ;;		 -> NULL(0), sim300_buffer(70), 
  4958 ;; Return value:  Size  Location     Type
  4959 ;;                  2    6[BANK0 ] int 
  4960 ;; Registers used:
  4961 ;;		wreg, fsr0l, fsr0h, status,2, status,0, btemp+1, pclath
  4962 ;; Tracked objects:
  4963 ;;		On entry : 0/0
  4964 ;;		On exit  : 0/0
  4965 ;;		Unchanged: 0/0
  4966 ;; Data sizes:     COMMON   BANK0   BANK1   BANK3   BANK2
  4967 ;;      Params:         0       4       0       0       0
  4968 ;;      Locals:         0       1       0       0       0
  4969 ;;      Temps:          0       2       0       0       0
  4970 ;;      Totals:         0       7       0       0       0
  4971 ;;Total ram usage:        7 bytes
  4972 ;; Hardware stack levels used:    1
  4973 ;; Hardware stack levels required when called:    2
  4974 ;; This function calls:
  4975 ;;		Nothing
  4976 ;; This function is called by:
  4977 ;;		_strstr
  4978 ;; This function uses a non-reentrant model
  4979 ;;
  4980                           
  4981                           
  4982                           ;psect for function _strncmp
  4983  1765                     _strncmp:	
  4984                           
  4985                           ;incstack = 0
  4986                           ; Regs used in _strncmp: [wreg-fsr0h+status,2+status,0+btemp+1+pclath]
  4987                           ;strncmp@s1 stored from wreg
  4988  1765  1283               	bcf	3,5	;RP0=0, select bank0
  4989  1766  1303               	bcf	3,6	;RP1=0, select bank0
  4990  1767  00AC               	movwf	strncmp@s1
  4991  1768                     l2737:	
  4992  1768  3001               	movlw	1
  4993  1769  02A8               	subwf	strncmp@len,f
  4994  176A  3000               	movlw	0
  4995  176B  1C03               	skipc
  4996  176C  03A9               	decf	strncmp@len+1,f
  4997  176D  02A9               	subwf	strncmp@len+1,f
  4998  176E  30FF               	movlw	255
  4999  176F  0629               	xorwf	strncmp@len+1,w
  5000  1770  1D03               	skipz
  5001  1771  2F74               	goto	u2065
  5002  1772  30FF               	movlw	255
  5003  1773  0628               	xorwf	strncmp@len,w
  5004  1774                     u2065:	
  5005  1774  1903               	btfsc	3,2
  5006  1775  2FAF               	goto	l2739
  5007  1776  082C               	movf	strncmp@s1,w
  5008  1777  0084               	movwf	4
  5009  1778  1783               	bsf	3,7	;select IRP bank2
  5010  1779  0880               	movf	0,f
  5011  177A  1903               	skipnz
  5012  177B  2F8D               	goto	l2729
  5013  177C  0827               	movf	strncmp@s2+1,w
  5014  177D  00FF               	movwf	127
  5015  177E  0826               	movf	strncmp@s2,w
  5016  177F  0084               	movwf	4
  5017  1780  120A  158A  2000  160A  118A  	fcall	stringtab
  5018  1785  00AA               	movwf	??_strncmp
  5019  1786  082C               	movf	strncmp@s1,w
  5020  1787  0084               	movwf	4
  5021  1788  1783               	bsf	3,7	;select IRP bank2
  5022  1789  0800               	movf	0,w
  5023  178A  062A               	xorwf	??_strncmp,w
  5024  178B  1903               	skipnz
  5025  178C  2FA6               	goto	l2733
  5026  178D                     l2729:	
  5027  178D  0827               	movf	strncmp@s2+1,w
  5028  178E  00FF               	movwf	127
  5029  178F  0826               	movf	strncmp@s2,w
  5030  1790  0084               	movwf	4
  5031  1791  120A  158A  2000   	fcall	stringtab
  5032  1794  00AA               	movwf	??_strncmp
  5033  1795  01AB               	clrf	??_strncmp+1
  5034  1796  09AA               	comf	??_strncmp,f
  5035  1797  09AB               	comf	??_strncmp+1,f
  5036  1798  0AAA               	incf	??_strncmp,f
  5037  1799  1903               	skipnz
  5038  179A  0AAB               	incf	??_strncmp+1,f
  5039  179B  082C               	movf	strncmp@s1,w
  5040  179C  0084               	movwf	4
  5041  179D  1783               	bsf	3,7	;select IRP bank2
  5042  179E  0800               	movf	0,w
  5043  179F  072A               	addwf	??_strncmp,w
  5044  17A0  00A6               	movwf	?_strncmp
  5045  17A1  082B               	movf	??_strncmp+1,w
  5046  17A2  1803               	skipnc
  5047  17A3  0A2B               	incf	??_strncmp+1,w
  5048  17A4  00A7               	movwf	?_strncmp+1
  5049  17A5  0008               	return
  5050  17A6                     l2733:	
  5051  17A6  3001               	movlw	1
  5052  17A7  00AA               	movwf	??_strncmp
  5053  17A8  082A               	movf	??_strncmp,w
  5054  17A9  07AC               	addwf	strncmp@s1,f
  5055  17AA  3001               	movlw	1
  5056  17AB  07A6               	addwf	strncmp@s2,f
  5057  17AC  1803               	skipnc
  5058  17AD  0AA7               	incf	strncmp@s2+1,f
  5059  17AE  2F68               	goto	l2737
  5060  17AF                     l2739:	
  5061  17AF  01A6               	clrf	?_strncmp
  5062  17B0  01A7               	clrf	?_strncmp+1
  5063  17B1  0008               	return
  5064  17B2                     __end_of_strncmp:	
  5065                           
  5066                           	psect	text13
  5067  07E7                     __ptext13:	
  5068 ;; *************** function _strchr *****************
  5069 ;; Defined at:
  5070 ;;		line 4 in file "C:\Program Files (x86)\Microchip\xc8\v1.32\sources\common\strchr.c"
  5071 ;; Parameters:    Size  Location     Type
  5072 ;;  ptr             1    wreg     PTR const unsigned char 
  5073 ;;		 -> NULL(0), sim300_buffer(70), 
  5074 ;;  chr             2    0[BANK0 ] int 
  5075 ;; Auto vars:     Size  Location     Type
  5076 ;;  ptr             1    2[BANK0 ] PTR const unsigned char 
  5077 ;;		 -> NULL(0), sim300_buffer(70), 
  5078 ;; Return value:  Size  Location     Type
  5079 ;;                  1    wreg      PTR unsigned char 
  5080 ;; Registers used:
  5081 ;;		wreg, fsr0l, fsr0h, status,2, status,0
  5082 ;; Tracked objects:
  5083 ;;		On entry : 0/0
  5084 ;;		On exit  : 0/0
  5085 ;;		Unchanged: 0/0
  5086 ;; Data sizes:     COMMON   BANK0   BANK1   BANK3   BANK2
  5087 ;;      Params:         0       2       0       0       0
  5088 ;;      Locals:         0       1       0       0       0
  5089 ;;      Temps:          0       0       0       0       0
  5090 ;;      Totals:         0       3       0       0       0
  5091 ;;Total ram usage:        3 bytes
  5092 ;; Hardware stack levels used:    1
  5093 ;; Hardware stack levels required when called:    2
  5094 ;; This function calls:
  5095 ;;		Nothing
  5096 ;; This function is called by:
  5097 ;;		_strstr
  5098 ;; This function uses a non-reentrant model
  5099 ;;
  5100                           
  5101                           
  5102                           ;psect for function _strchr
  5103  07E7                     _strchr:	
  5104                           
  5105                           ;incstack = 0
  5106                           ; Regs used in _strchr: [wreg-fsr0h+status,2+status,0]
  5107                           ;strchr@ptr stored from wreg
  5108  07E7  1283               	bcf	3,5	;RP0=0, select bank0
  5109  07E8  1303               	bcf	3,6	;RP1=0, select bank0
  5110  07E9  00A2               	movwf	strchr@ptr
  5111  07EA                     l1061:	
  5112  07EA  0822               	movf	strchr@ptr,w
  5113  07EB  0084               	movwf	4
  5114  07EC  1783               	bsf	3,7	;select IRP bank2
  5115  07ED  0800               	movf	0,w
  5116  07EE  0620               	xorwf	strchr@chr,w
  5117  07EF  1D03               	skipz
  5118  07F0  2FF3               	goto	l2749
  5119  07F1  0822               	movf	strchr@ptr,w
  5120  07F2  0008               	return
  5121  07F3                     l2749:	
  5122  07F3  0822               	movf	strchr@ptr,w
  5123  07F4  0084               	movwf	4
  5124  07F5  3001               	movlw	1
  5125  07F6  07A2               	addwf	strchr@ptr,f
  5126  07F7  0880               	movf	0,f
  5127  07F8  1D03               	skipz
  5128  07F9  2FEA               	goto	l1061
  5129  07FA  3000               	movlw	0
  5130  07FB  0008               	return
  5131  07FC                     __end_of_strchr:	
  5132                           
  5133                           	psect	text14
  5134  0DB6                     __ptext14:	
  5135 ;; *************** function _SIM300SendMsg *****************
  5136 ;; Defined at:
  5137 ;;		line 375 in file "E:\Study Material\XC8 PROJECTS\Aurangabad\sim300.c"
  5138 ;; Parameters:    Size  Location     Type
  5139 ;;  num             2   50[BANK0 ] PTR const unsigned char 
  5140 ;;		 -> STR_17(11), STR_15(11), MSG_number(15), STR_9(11), 
  5141 ;;		 -> STR_7(11), 
  5142 ;;  msg             2   52[BANK0 ] PTR const unsigned char 
  5143 ;;		 -> STR_37(16), STR_18(22), STR_16(22), STR_11(20), 
  5144 ;;		 -> STR_10(22), STR_8(22), phone_number(40), 
  5145 ;;  msg_ref         1   54[BANK0 ] PTR unsigned char 
  5146 ;;		 -> SMSCommunication@ref_213(1), SMSCommunication@ref_210(1), SMSCommunication@ref_201(1), SMSCommunication@ref(1), 
  5147 ;;		 -> main@ref(1), 
  5148 ;; Auto vars:     Size  Location     Type
  5149 ;;  cmd            25    0[BANK1 ] unsigned char [25]
  5150 ;;  n               1   26[BANK1 ] unsigned char 
  5151 ;;  len             1   25[BANK1 ] unsigned char 
  5152 ;; Return value:  Size  Location     Type
  5153 ;;                  1    wreg      char 
  5154 ;; Registers used:
  5155 ;;		wreg, fsr0l, fsr0h, status,2, status,0, btemp+1, pclath, cstack
  5156 ;; Tracked objects:
  5157 ;;		On entry : 0/0
  5158 ;;		On exit  : 0/0
  5159 ;;		Unchanged: 0/0
  5160 ;; Data sizes:     COMMON   BANK0   BANK1   BANK3   BANK2
  5161 ;;      Params:         0       5       0       0       0
  5162 ;;      Locals:         0       0      27       0       0
  5163 ;;      Temps:          0       4       0       0       0
  5164 ;;      Totals:         0       9      27       0       0
  5165 ;;Total ram usage:       36 bytes
  5166 ;; Hardware stack levels used:    1
  5167 ;; Hardware stack levels required when called:    6
  5168 ;; This function calls:
  5169 ;;		_SIM300Cmd
  5170 ;;		_SIM300DeleteMsg
  5171 ;;		_SIM300WaitForResponse
  5172 ;;		_USARTDataAvailable
  5173 ;;		_USARTFlushBuffer
  5174 ;;		_USARTReadBuffer
  5175 ;;		_USARTWriteChar
  5176 ;;		_USARTWriteString
  5177 ;;		_atoi
  5178 ;;		_sprintf
  5179 ;;		_strlen
  5180 ;;		_strnicmp
  5181 ;; This function is called by:
  5182 ;;		_main
  5183 ;;		_SMSCommunication
  5184 ;; This function uses a non-reentrant model
  5185 ;;
  5186                           
  5187                           
  5188                           ;psect for function _SIM300SendMsg
  5189  0DB6                     _SIM300SendMsg:	
  5190                           
  5191                           ;sim300.c: 377: USARTFlushBuffer();
  5192                           
  5193                           ;incstack = 0
  5194                           ; Regs used in _SIM300SendMsg: [wreg-fsr0h+status,2+status,0+btemp+1+pclath+cstack]
  5195  0DB6  160A  118A  23E8  120A  158A  	fcall	_USARTFlushBuffer
  5196                           
  5197                           ;sim300.c: 379: char cmd[25];
  5198                           ;sim300.c: 381: sprintf(cmd,"AT+CMGS= %s",num);
  5199  0DBB  30AB               	movlw	low (STR_45| (0+32768))
  5200  0DBC  1283               	bcf	3,5	;RP0=0, select bank0
  5201  0DBD  1303               	bcf	3,6	;RP1=0, select bank0
  5202  0DBE  00AE               	movwf	sprintf@f
  5203  0DBF  3088               	movlw	high (STR_45| (0+32768))
  5204  0DC0  00AF               	movwf	sprintf@f+1
  5205  0DC1  0853               	movf	SIM300SendMsg@num+1,w
  5206  0DC2  01B1               	clrf	?_sprintf+3
  5207  0DC3  07B1               	addwf	?_sprintf+3,f
  5208  0DC4  0852               	movf	SIM300SendMsg@num,w
  5209  0DC5  01B0               	clrf	?_sprintf+2
  5210  0DC6  07B0               	addwf	?_sprintf+2,f
  5211  0DC7  30C9               	movlw	SIM300SendMsg@cmd& (0+255)
  5212  0DC8  120A  158A  26D5  120A  158A  	fcall	_sprintf
  5213                           
  5214                           ;sim300.c: 383: cmd[8]=0x22;
  5215  0DCD  3022               	movlw	34
  5216  0DCE  1283               	bcf	3,5	;RP0=0, select bank0
  5217  0DCF  1303               	bcf	3,6	;RP1=0, select bank0
  5218  0DD0  00D7               	movwf	??_SIM300SendMsg
  5219  0DD1  0857               	movf	??_SIM300SendMsg,w
  5220  0DD2  1683               	bsf	3,5	;RP0=1, select bank1
  5221  0DD3  1303               	bcf	3,6	;RP1=0, select bank1
  5222  0DD4  00D1               	movwf	(SIM300SendMsg@cmd^(0+128)+8)
  5223                           
  5224                           ;sim300.c: 385: uint8_t n=strlen(cmd);
  5225  0DD5  30C9               	movlw	SIM300SendMsg@cmd& (0+255)
  5226  0DD6  1283               	bcf	3,5	;RP0=0, select bank0
  5227  0DD7  1303               	bcf	3,6	;RP1=0, select bank0
  5228  0DD8  00A0               	movwf	strlen@s
  5229  0DD9  3000               	movlw	0
  5230  0DDA  00A1               	movwf	strlen@s+1
  5231  0DDB  160A  118A  2582  120A  158A  	fcall	_strlen
  5232  0DE0  1283               	bcf	3,5	;RP0=0, select bank0
  5233  0DE1  1303               	bcf	3,6	;RP1=0, select bank0
  5234  0DE2  0820               	movf	?_strlen,w
  5235  0DE3  00D7               	movwf	??_SIM300SendMsg
  5236  0DE4  0857               	movf	??_SIM300SendMsg,w
  5237  0DE5  1683               	bsf	3,5	;RP0=1, select bank1
  5238  0DE6  1303               	bcf	3,6	;RP1=0, select bank1
  5239  0DE7  00E3               	movwf	SIM300SendMsg@n^(0+128)
  5240                           
  5241                           ;sim300.c: 387: cmd[n]=0x22;
  5242  0DE8  3022               	movlw	34
  5243  0DE9  1283               	bcf	3,5	;RP0=0, select bank0
  5244  0DEA  1303               	bcf	3,6	;RP1=0, select bank0
  5245  0DEB  00D7               	movwf	??_SIM300SendMsg
  5246  0DEC  1683               	bsf	3,5	;RP0=1, select bank1
  5247  0DED  1303               	bcf	3,6	;RP1=0, select bank1
  5248  0DEE  0863               	movf	SIM300SendMsg@n^(0+128),w
  5249  0DEF  3EC9               	addlw	SIM300SendMsg@cmd& (0+255)
  5250  0DF0  0084               	movwf	4
  5251  0DF1  1283               	bcf	3,5	;RP0=0, select bank0
  5252  0DF2  1303               	bcf	3,6	;RP1=0, select bank0
  5253  0DF3  0857               	movf	??_SIM300SendMsg,w
  5254  0DF4  1383               	bcf	3,7	;select IRP bank1
  5255  0DF5  0080               	movwf	0
  5256                           
  5257                           ;sim300.c: 388: cmd[n+1]='\0';
  5258  0DF6  1683               	bsf	3,5	;RP0=1, select bank1
  5259  0DF7  1303               	bcf	3,6	;RP1=0, select bank1
  5260  0DF8  0863               	movf	SIM300SendMsg@n^(0+128),w
  5261  0DF9  3E01               	addlw	1
  5262  0DFA  3EC9               	addlw	SIM300SendMsg@cmd& (0+255)
  5263  0DFB  0084               	movwf	4
  5264  0DFC  0180               	clrf	0
  5265                           
  5266                           ;sim300.c: 391: SIM300Cmd(cmd);
  5267  0DFD  30C9               	movlw	SIM300SendMsg@cmd& (0+255)
  5268  0DFE  1283               	bcf	3,5	;RP0=0, select bank0
  5269  0DFF  1303               	bcf	3,6	;RP1=0, select bank0
  5270  0E00  00AD               	movwf	SIM300Cmd@cmd
  5271  0E01  3000               	movlw	0
  5272  0E02  00AE               	movwf	SIM300Cmd@cmd+1
  5273  0E03  120A  158A  23F2  120A  158A  	fcall	_SIM300Cmd
  5274                           
  5275                           ;sim300.c: 393: _delay((unsigned long)((100)*(4000000/4000.0)));
  5276  0E08  3082               	movlw	130
  5277  0E09  1283               	bcf	3,5	;RP0=0, select bank0
  5278  0E0A  1303               	bcf	3,6	;RP1=0, select bank0
  5279  0E0B  00D8               	movwf	??_SIM300SendMsg+1
  5280  0E0C  30DD               	movlw	221
  5281  0E0D  00D7               	movwf	??_SIM300SendMsg
  5282  0E0E                     u4067:	
  5283  0E0E  0BD7               	decfsz	??_SIM300SendMsg,f
  5284  0E0F  2E0E               	goto	u4067
  5285  0E10  0BD8               	decfsz	??_SIM300SendMsg+1,f
  5286  0E11  2E0E               	goto	u4067
  5287  0E12  2E13               	nop2
  5288                           
  5289                           ;sim300.c: 395: USARTWriteString(msg);
  5290  0E13  1283               	bcf	3,5	;RP0=0, select bank0
  5291  0E14  1303               	bcf	3,6	;RP1=0, select bank0
  5292  0E15  0855               	movf	SIM300SendMsg@msg+1,w
  5293  0E16  01A2               	clrf	USARTWriteString@str+1
  5294  0E17  07A2               	addwf	USARTWriteString@str+1,f
  5295  0E18  0854               	movf	SIM300SendMsg@msg,w
  5296  0E19  01A1               	clrf	USARTWriteString@str
  5297  0E1A  07A1               	addwf	USARTWriteString@str,f
  5298  0E1B  160A  118A  2538  120A  158A  	fcall	_USARTWriteString
  5299                           
  5300                           ;sim300.c: 397: USARTWriteChar(0x1A);
  5301  0E20  301A               	movlw	26
  5302  0E21  160A  118A  23CD  120A  158A  	fcall	_USARTWriteChar
  5303  0E26                     l3131:	
  5304                           ;sim300.c: 399: while( USARTDataAvailable()<(strlen(msg)+5) );
  5305                           
  5306  0E26  1283               	bcf	3,5	;RP0=0, select bank0
  5307  0E27  1303               	bcf	3,6	;RP1=0, select bank0
  5308  0E28  0855               	movf	SIM300SendMsg@msg+1,w
  5309  0E29  01A1               	clrf	strlen@s+1
  5310  0E2A  07A1               	addwf	strlen@s+1,f
  5311  0E2B  0854               	movf	SIM300SendMsg@msg,w
  5312  0E2C  01A0               	clrf	strlen@s
  5313  0E2D  07A0               	addwf	strlen@s,f
  5314  0E2E  160A  118A  2582  120A  158A  	fcall	_strlen
  5315  0E33  1283               	bcf	3,5	;RP0=0, select bank0
  5316  0E34  1303               	bcf	3,6	;RP1=0, select bank0
  5317  0E35  0820               	movf	?_strlen,w
  5318  0E36  3E05               	addlw	5
  5319  0E37  00D7               	movwf	??_SIM300SendMsg
  5320  0E38  0821               	movf	?_strlen+1,w
  5321  0E39  1803               	skipnc
  5322  0E3A  3E01               	addlw	1
  5323  0E3B  3E00               	addlw	0
  5324  0E3C  00D8               	movwf	??_SIM300SendMsg+1
  5325  0E3D  160A  118A  24A8  120A  158A  	fcall	_USARTDataAvailable
  5326  0E42  1283               	bcf	3,5	;RP0=0, select bank0
  5327  0E43  1303               	bcf	3,6	;RP1=0, select bank0
  5328  0E44  00D9               	movwf	??_SIM300SendMsg+2
  5329  0E45  01DA               	clrf	??_SIM300SendMsg+3
  5330  0E46  0858               	movf	??_SIM300SendMsg+1,w
  5331  0E47  025A               	subwf	??_SIM300SendMsg+3,w
  5332  0E48  1D03               	skipz
  5333  0E49  2E4C               	goto	u2565
  5334  0E4A  0857               	movf	??_SIM300SendMsg,w
  5335  0E4B  0259               	subwf	??_SIM300SendMsg+2,w
  5336  0E4C                     u2565:	
  5337  0E4C  1C03               	skipc
  5338  0E4D  2E26               	goto	l3131
  5339                           
  5340                           ;sim300.c: 402: USARTReadBuffer(sim300_buffer,strlen(msg)+5);
  5341  0E4E  0855               	movf	SIM300SendMsg@msg+1,w
  5342  0E4F  01A1               	clrf	strlen@s+1
  5343  0E50  07A1               	addwf	strlen@s+1,f
  5344  0E51  0854               	movf	SIM300SendMsg@msg,w
  5345  0E52  01A0               	clrf	strlen@s
  5346  0E53  07A0               	addwf	strlen@s,f
  5347  0E54  160A  118A  2582  120A  158A  	fcall	_strlen
  5348  0E59  1283               	bcf	3,5	;RP0=0, select bank0
  5349  0E5A  1303               	bcf	3,6	;RP1=0, select bank0
  5350  0E5B  0820               	movf	?_strlen,w
  5351  0E5C  3E05               	addlw	5
  5352  0E5D  00A6               	movwf	USARTReadBuffer@len
  5353  0E5E  0821               	movf	?_strlen+1,w
  5354  0E5F  1803               	skipnc
  5355  0E60  3E01               	addlw	1
  5356  0E61  3E00               	addlw	0
  5357  0E62  00A7               	movwf	USARTReadBuffer@len+1
  5358  0E63  3090               	movlw	_sim300_buffer& (0+255)
  5359  0E64  160A  118A  24F0  120A  158A  	fcall	_USARTReadBuffer
  5360                           
  5361                           ;sim300.c: 404: uint8_t len=SIM300WaitForResponse(6000);
  5362  0E69  3070               	movlw	112
  5363  0E6A  1283               	bcf	3,5	;RP0=0, select bank0
  5364  0E6B  1303               	bcf	3,6	;RP1=0, select bank0
  5365  0E6C  00A2               	movwf	SIM300WaitForResponse@timeout
  5366  0E6D  3017               	movlw	23
  5367  0E6E  00A3               	movwf	SIM300WaitForResponse@timeout+1
  5368  0E6F  120A  158A  21CD  120A  158A  	fcall	_SIM300WaitForResponse
  5369  0E74  1283               	bcf	3,5	;RP0=0, select bank0
  5370  0E75  1303               	bcf	3,6	;RP1=0, select bank0
  5371  0E76  00D7               	movwf	??_SIM300SendMsg
  5372  0E77  0857               	movf	??_SIM300SendMsg,w
  5373  0E78  1683               	bsf	3,5	;RP0=1, select bank1
  5374  0E79  1303               	bcf	3,6	;RP1=0, select bank1
  5375  0E7A  00E2               	movwf	SIM300SendMsg@len^(0+128)
  5376                           
  5377                           ;sim300.c: 406: if(len==0)
  5378  0E7B  08E2               	movf	SIM300SendMsg@len^(0+128),f
  5379  0E7C  1D03               	skipz
  5380  0E7D  2E80               	goto	l3143
  5381                           
  5382                           ;sim300.c: 407: return -3;
  5383  0E7E  30FD               	movlw	-3
  5384  0E7F  0008               	return
  5385  0E80                     l3143:	
  5386                           
  5387                           ;sim300.c: 409: sim300_buffer[len-1]='\0';
  5388  0E80  0862               	movf	SIM300SendMsg@len^(0+128),w
  5389  0E81  3EFF               	addlw	255
  5390  0E82  3E90               	addlw	_sim300_buffer& (0+255)
  5391  0E83  0084               	movwf	4
  5392  0E84  1783               	bsf	3,7	;select IRP bank3
  5393  0E85  0180               	clrf	0
  5394                           
  5395                           ;sim300.c: 410: n = 1;
  5396  0E86  01E3               	clrf	SIM300SendMsg@n^(0+128)
  5397  0E87  0AE3               	incf	SIM300SendMsg@n^(0+128),f
  5398                           
  5399                           ;sim300.c: 412: if(strnicmp(sim300_buffer+2,"CMGS:",5)==0)
  5400  0E88  302A               	movlw	low (STR_46| (0+32768))
  5401  0E89  1283               	bcf	3,5	;RP0=0, select bank0
  5402  0E8A  1303               	bcf	3,6	;RP1=0, select bank0
  5403  0E8B  00A2               	movwf	strnicmp@s2
  5404  0E8C  3089               	movlw	high (STR_46| (0+32768))
  5405  0E8D  00A3               	movwf	strnicmp@s2+1
  5406  0E8E  3005               	movlw	5
  5407  0E8F  00A4               	movwf	strnicmp@len
  5408  0E90  3000               	movlw	0
  5409  0E91  00A5               	movwf	strnicmp@len+1
  5410  0E92  3092               	movlw	(_sim300_buffer+2)& (0+255)
  5411  0E93  160A  118A  27B2  120A  158A  	fcall	_strnicmp
  5412  0E98  1283               	bcf	3,5	;RP0=0, select bank0
  5413  0E99  1303               	bcf	3,6	;RP1=0, select bank0
  5414  0E9A  0823               	movf	?_strnicmp+1,w
  5415  0E9B  0422               	iorwf	?_strnicmp,w
  5416  0E9C  1D03               	skipz
  5417  0E9D  2EC1               	goto	l3161
  5418                           
  5419                           ;sim300.c: 413: {
  5420                           ;sim300.c: 415: *msg_ref=atoi(sim300_buffer+8);
  5421  0E9E  3098               	movlw	(_sim300_buffer+8)& (0+255)
  5422  0E9F  120A  118A  2772  120A  158A  	fcall	_atoi
  5423  0EA4  1283               	bcf	3,5	;RP0=0, select bank0
  5424  0EA5  1303               	bcf	3,6	;RP1=0, select bank0
  5425  0EA6  0826               	movf	?_atoi,w
  5426  0EA7  00D7               	movwf	??_SIM300SendMsg
  5427  0EA8  0856               	movf	SIM300SendMsg@msg_ref,w
  5428  0EA9  0084               	movwf	4
  5429  0EAA  0857               	movf	??_SIM300SendMsg,w
  5430  0EAB  1383               	bcf	3,7	;select IRP bank0
  5431  0EAC  0080               	movwf	0
  5432                           
  5433                           ;sim300.c: 417: len = SIM300DeleteMsg(n);
  5434  0EAD  1683               	bsf	3,5	;RP0=1, select bank1
  5435  0EAE  1303               	bcf	3,6	;RP1=0, select bank1
  5436  0EAF  0863               	movf	SIM300SendMsg@n^(0+128),w
  5437  0EB0  120A  158A  2393  120A  158A  	fcall	_SIM300DeleteMsg
  5438  0EB5  1283               	bcf	3,5	;RP0=0, select bank0
  5439  0EB6  1303               	bcf	3,6	;RP1=0, select bank0
  5440  0EB7  00D7               	movwf	??_SIM300SendMsg
  5441  0EB8  0857               	movf	??_SIM300SendMsg,w
  5442  0EB9  1683               	bsf	3,5	;RP0=1, select bank1
  5443  0EBA  1303               	bcf	3,6	;RP1=0, select bank1
  5444  0EBB  00E2               	movwf	SIM300SendMsg@len^(0+128)
  5445                           
  5446                           ;sim300.c: 419: USARTFlushBuffer();
  5447  0EBC  160A  118A  23E8   	fcall	_USARTFlushBuffer
  5448                           
  5449                           ;sim300.c: 421: return 1;
  5450  0EBF  3001               	movlw	1
  5451                           
  5452                           ;sim300.c: 422: }
  5453  0EC0  0008               	return
  5454  0EC1                     l3161:	
  5455                           
  5456                           ;sim300.c: 423: else
  5457                           ;sim300.c: 424: {
  5458                           ;sim300.c: 425: len = SIM300DeleteMsg(n);
  5459  0EC1  1683               	bsf	3,5	;RP0=1, select bank1
  5460  0EC2  1303               	bcf	3,6	;RP1=0, select bank1
  5461  0EC3  0863               	movf	SIM300SendMsg@n^(0+128),w
  5462  0EC4  120A  158A  2393  120A  158A  	fcall	_SIM300DeleteMsg
  5463  0EC9  1283               	bcf	3,5	;RP0=0, select bank0
  5464  0ECA  1303               	bcf	3,6	;RP1=0, select bank0
  5465  0ECB  00D7               	movwf	??_SIM300SendMsg
  5466  0ECC  0857               	movf	??_SIM300SendMsg,w
  5467  0ECD  1683               	bsf	3,5	;RP0=1, select bank1
  5468  0ECE  1303               	bcf	3,6	;RP1=0, select bank1
  5469  0ECF  00E2               	movwf	SIM300SendMsg@len^(0+128)
  5470                           
  5471                           ;sim300.c: 426: USARTFlushBuffer();
  5472  0ED0  160A  118A  23E8   	fcall	_USARTFlushBuffer
  5473                           
  5474                           ;sim300.c: 427: return -2;
  5475  0ED3  30FE               	movlw	-2
  5476  0ED4  0008               	return
  5477  0ED5                     __end_of_SIM300SendMsg:	
  5478                           
  5479                           	psect	text15
  5480  0772                     __ptext15:	
  5481 ;; *************** function _atoi *****************
  5482 ;; Defined at:
  5483 ;;		line 5 in file "C:\Program Files (x86)\Microchip\xc8\v1.32\sources\common\atoi.c"
  5484 ;; Parameters:    Size  Location     Type
  5485 ;;  s               1    wreg     PTR const unsigned char 
  5486 ;;		 -> sim300_buffer(70), 
  5487 ;; Auto vars:     Size  Location     Type
  5488 ;;  s               1   13[BANK0 ] PTR const unsigned char 
  5489 ;;		 -> sim300_buffer(70), 
  5490 ;;  a               2   11[BANK0 ] int 
  5491 ;;  sign            1   10[BANK0 ] unsigned char 
  5492 ;; Return value:  Size  Location     Type
  5493 ;;                  2    6[BANK0 ] int 
  5494 ;; Registers used:
  5495 ;;		wreg, fsr0l, fsr0h, status,2, status,0, pclath, cstack
  5496 ;; Tracked objects:
  5497 ;;		On entry : 0/0
  5498 ;;		On exit  : 0/0
  5499 ;;		Unchanged: 0/0
  5500 ;; Data sizes:     COMMON   BANK0   BANK1   BANK3   BANK2
  5501 ;;      Params:         0       2       0       0       0
  5502 ;;      Locals:         0       4       0       0       0
  5503 ;;      Temps:          0       2       0       0       0
  5504 ;;      Totals:         0       8       0       0       0
  5505 ;;Total ram usage:        8 bytes
  5506 ;; Hardware stack levels used:    1
  5507 ;; Hardware stack levels required when called:    3
  5508 ;; This function calls:
  5509 ;;		___wmul
  5510 ;;		_isdigit
  5511 ;; This function is called by:
  5512 ;;		_SIM300SendMsg
  5513 ;; This function uses a non-reentrant model
  5514 ;;
  5515                           
  5516                           
  5517                           ;psect for function _atoi
  5518  0772                     _atoi:	
  5519                           
  5520                           ;incstack = 0
  5521                           ; Regs used in _atoi: [wreg-fsr0h+status,2+status,0+pclath+cstack]
  5522                           ;atoi@s stored from wreg
  5523  0772  1283               	bcf	3,5	;RP0=0, select bank0
  5524  0773  1303               	bcf	3,6	;RP1=0, select bank0
  5525  0774  00AD               	movwf	atoi@s
  5526  0775                     l3061:	
  5527  0775  082D               	movf	atoi@s,w
  5528  0776  0084               	movwf	4
  5529  0777  1783               	bsf	3,7	;select IRP bank2
  5530  0778  0800               	movf	0,w
  5531  0779  3A20               	xorlw	32
  5532  077A  1D03               	btfss	3,2
  5533  077B  2F81               	goto	l3063
  5534  077C                     l3059:	
  5535  077C  3001               	movlw	1
  5536  077D  00A8               	movwf	??_atoi
  5537  077E  0828               	movf	??_atoi,w
  5538  077F  07AD               	addwf	atoi@s,f
  5539  0780  2F75               	goto	l3061
  5540  0781                     l3063:	
  5541  0781  082D               	movf	atoi@s,w
  5542  0782  0084               	movwf	4
  5543  0783  0800               	movf	0,w
  5544  0784  3A09               	xorlw	9
  5545  0785  1903               	skipnz
  5546  0786  2F7C               	goto	l3059
  5547  0787  01AB               	clrf	atoi@a
  5548  0788  01AC               	clrf	atoi@a+1
  5549  0789  01AA               	clrf	atoi@sign
  5550  078A  082D               	movf	atoi@s,w
  5551  078B  0084               	movwf	4
  5552  078C  0800               	movf	0,w
  5553  078D  3A2D               	xorlw	45
  5554  078E  1D03               	skipz
  5555  078F  2F95               	goto	l3071
  5556  0790  3001               	movlw	1
  5557  0791  00A8               	movwf	??_atoi
  5558  0792  0828               	movf	??_atoi,w
  5559  0793  07AA               	addwf	atoi@sign,f
  5560  0794  2F9B               	goto	l3077
  5561  0795                     l3071:	
  5562  0795  082D               	movf	atoi@s,w
  5563  0796  0084               	movwf	4
  5564  0797  0800               	movf	0,w
  5565  0798  3A2B               	xorlw	43
  5566  0799  1D03               	skipz
  5567  079A  2F9F               	goto	l3079
  5568  079B                     l3077:	
  5569  079B  3001               	movlw	1
  5570  079C  00A8               	movwf	??_atoi
  5571  079D  0828               	movf	??_atoi,w
  5572  079E  07AD               	addwf	atoi@s,f
  5573  079F                     l3079:	
  5574  079F  082D               	movf	atoi@s,w
  5575  07A0  0084               	movwf	4
  5576  07A1  0800               	movf	0,w
  5577  07A2  160A  118A  23F6  120A  118A  	fcall	_isdigit
  5578  07A7  1C03               	btfss	3,0
  5579  07A8  2FCF               	goto	l3081
  5580  07A9  1283               	bcf	3,5	;RP0=0, select bank0
  5581  07AA  1303               	bcf	3,6	;RP1=0, select bank0
  5582  07AB  082C               	movf	atoi@a+1,w
  5583  07AC  01A1               	clrf	___wmul@multiplier+1
  5584  07AD  07A1               	addwf	___wmul@multiplier+1,f
  5585  07AE  082B               	movf	atoi@a,w
  5586  07AF  01A0               	clrf	___wmul@multiplier
  5587  07B0  07A0               	addwf	___wmul@multiplier,f
  5588  07B1  300A               	movlw	10
  5589  07B2  00A2               	movwf	___wmul@multiplicand
  5590  07B3  3000               	movlw	0
  5591  07B4  00A3               	movwf	___wmul@multiplicand+1
  5592  07B5  160A  118A  255D  120A  118A  	fcall	___wmul
  5593  07BA  1283               	bcf	3,5	;RP0=0, select bank0
  5594  07BB  1303               	bcf	3,6	;RP1=0, select bank0
  5595  07BC  082D               	movf	atoi@s,w
  5596  07BD  0084               	movwf	4
  5597  07BE  1783               	bsf	3,7	;select IRP bank2
  5598  07BF  0800               	movf	0,w
  5599  07C0  0720               	addwf	?___wmul,w
  5600  07C1  00A8               	movwf	??_atoi
  5601  07C2  0821               	movf	?___wmul+1,w
  5602  07C3  1803               	skipnc
  5603  07C4  0A21               	incf	?___wmul+1,w
  5604  07C5  00A9               	movwf	??_atoi+1
  5605  07C6  0828               	movf	??_atoi,w
  5606  07C7  3ED0               	addlw	208
  5607  07C8  00AB               	movwf	atoi@a
  5608  07C9  0829               	movf	??_atoi+1,w
  5609  07CA  1803               	skipnc
  5610  07CB  3E01               	addlw	1
  5611  07CC  3EFF               	addlw	255
  5612  07CD  00AC               	movwf	atoi@a+1
  5613  07CE  2F9B               	goto	l3077
  5614  07CF                     l3081:	
  5615  07CF  1283               	bcf	3,5	;RP0=0, select bank0
  5616  07D0  1303               	bcf	3,6	;RP1=0, select bank0
  5617  07D1  082A               	movf	atoi@sign,w
  5618  07D2  1903               	btfsc	3,2
  5619  07D3  2FE0               	goto	l3087
  5620  07D4  092B               	comf	atoi@a,w
  5621  07D5  00A8               	movwf	??_atoi
  5622  07D6  092C               	comf	atoi@a+1,w
  5623  07D7  00A9               	movwf	??_atoi+1
  5624  07D8  0AA8               	incf	??_atoi,f
  5625  07D9  1903               	skipnz
  5626  07DA  0AA9               	incf	??_atoi+1,f
  5627  07DB  0828               	movf	??_atoi,w
  5628  07DC  00A6               	movwf	?_atoi
  5629  07DD  0829               	movf	??_atoi+1,w
  5630  07DE  00A7               	movwf	?_atoi+1
  5631  07DF  0008               	return
  5632  07E0                     l3087:	
  5633  07E0  082C               	movf	atoi@a+1,w
  5634  07E1  01A7               	clrf	?_atoi+1
  5635  07E2  07A7               	addwf	?_atoi+1,f
  5636  07E3  082B               	movf	atoi@a,w
  5637  07E4  01A6               	clrf	?_atoi
  5638  07E5  07A6               	addwf	?_atoi,f
  5639  07E6  0008               	return
  5640  07E7                     __end_of_atoi:	
  5641                           
  5642                           	psect	text16
  5643  13F6                     __ptext16:	
  5644 ;; *************** function _isdigit *****************
  5645 ;; Defined at:
  5646 ;;		line 8 in file "C:\Program Files (x86)\Microchip\xc8\v1.32\sources\common\isdigit.c"
  5647 ;; Parameters:    Size  Location     Type
  5648 ;;  c               1    wreg     unsigned char 
  5649 ;; Auto vars:     Size  Location     Type
  5650 ;;  c               1    1[BANK0 ] unsigned char 
  5651 ;; Return value:  Size  Location     Type
  5652 ;;		None               void
  5653 ;; Registers used:
  5654 ;;		wreg, status,2, status,0
  5655 ;; Tracked objects:
  5656 ;;		On entry : 0/0
  5657 ;;		On exit  : 0/0
  5658 ;;		Unchanged: 0/0
  5659 ;; Data sizes:     COMMON   BANK0   BANK1   BANK3   BANK2
  5660 ;;      Params:         0       0       0       0       0
  5661 ;;      Locals:         0       2       0       0       0
  5662 ;;      Temps:          0       0       0       0       0
  5663 ;;      Totals:         0       2       0       0       0
  5664 ;;Total ram usage:        2 bytes
  5665 ;; Hardware stack levels used:    1
  5666 ;; Hardware stack levels required when called:    2
  5667 ;; This function calls:
  5668 ;;		Nothing
  5669 ;; This function is called by:
  5670 ;;		_atoi
  5671 ;; This function uses a non-reentrant model
  5672 ;;
  5673                           
  5674                           
  5675                           ;psect for function _isdigit
  5676  13F6                     _isdigit:	
  5677                           
  5678                           ;incstack = 0
  5679                           ; Regs used in _isdigit: [wreg+status,2+status,0]
  5680                           ;isdigit@c stored from wreg
  5681  13F6  1283               	bcf	3,5	;RP0=0, select bank0
  5682  13F7  1303               	bcf	3,6	;RP1=0, select bank0
  5683  13F8  00A1               	movwf	isdigit@c
  5684  13F9  01A0               	clrf	_isdigit$742
  5685  13FA  303A               	movlw	58
  5686  13FB  0221               	subwf	isdigit@c,w
  5687  13FC  1803               	skipnc
  5688  13FD  2C04               	goto	l2967
  5689  13FE  3030               	movlw	48
  5690  13FF  0221               	subwf	isdigit@c,w
  5691  1400  1C03               	skipc
  5692  1401  2C04               	goto	l2967
  5693  1402  01A0               	clrf	_isdigit$742
  5694  1403  0AA0               	incf	_isdigit$742,f
  5695  1404                     l2967:	
  5696  1404  0C20               	rrf	_isdigit$742,w
  5697  1405  0008               	return
  5698  1406                     __end_of_isdigit:	
  5699                           
  5700                           	psect	text17
  5701  0B93                     __ptext17:	
  5702 ;; *************** function _SIM300DeleteMsg *****************
  5703 ;; Defined at:
  5704 ;;		line 227 in file "E:\Study Material\XC8 PROJECTS\Aurangabad\sim300.c"
  5705 ;; Parameters:    Size  Location     Type
  5706 ;;  i               1    wreg     unsigned char 
  5707 ;; Auto vars:     Size  Location     Type
  5708 ;;  i               1   48[BANK0 ] unsigned char 
  5709 ;;  cmd            16   32[BANK0 ] unsigned char [16]
  5710 ;;  len             1   49[BANK0 ] unsigned char 
  5711 ;; Return value:  Size  Location     Type
  5712 ;;                  1    wreg      char 
  5713 ;; Registers used:
  5714 ;;		wreg, fsr0l, fsr0h, status,2, status,0, btemp+1, pclath, cstack
  5715 ;; Tracked objects:
  5716 ;;		On entry : 0/0
  5717 ;;		On exit  : 0/0
  5718 ;;		Unchanged: 0/0
  5719 ;; Data sizes:     COMMON   BANK0   BANK1   BANK3   BANK2
  5720 ;;      Params:         0       0       0       0       0
  5721 ;;      Locals:         0      18       0       0       0
  5722 ;;      Temps:          0       2       0       0       0
  5723 ;;      Totals:         0      20       0       0       0
  5724 ;;Total ram usage:       20 bytes
  5725 ;; Hardware stack levels used:    1
  5726 ;; Hardware stack levels required when called:    5
  5727 ;; This function calls:
  5728 ;;		_SIM300Cmd
  5729 ;;		_SIM300WaitForResponse
  5730 ;;		_USARTFlushBuffer
  5731 ;;		_sprintf
  5732 ;;		_strnicmp
  5733 ;; This function is called by:
  5734 ;;		_SIM300WaitForValidMsg
  5735 ;;		_SIM300SendMsg
  5736 ;; This function uses a non-reentrant model
  5737 ;;
  5738                           
  5739                           
  5740                           ;psect for function _SIM300DeleteMsg
  5741  0B93                     _SIM300DeleteMsg:	
  5742                           
  5743                           ;incstack = 0
  5744                           ; Regs used in _SIM300DeleteMsg: [wreg-fsr0h+status,2+status,0+btemp+1+pclath+cstack]
  5745                           ;SIM300DeleteMsg@i stored from wreg
  5746  0B93  1283               	bcf	3,5	;RP0=0, select bank0
  5747  0B94  1303               	bcf	3,6	;RP1=0, select bank0
  5748  0B95  00D0               	movwf	SIM300DeleteMsg@i
  5749                           
  5750                           ;sim300.c: 229: USARTFlushBuffer();
  5751  0B96  160A  118A  23E8  120A  158A  	fcall	_USARTFlushBuffer
  5752                           
  5753                           ;sim300.c: 232: char cmd[16];
  5754                           ;sim300.c: 235: sprintf(cmd,"AT+CMGD=%d",i);
  5755  0B9B  30B7               	movlw	low (STR_40| (0+32768))
  5756  0B9C  1283               	bcf	3,5	;RP0=0, select bank0
  5757  0B9D  1303               	bcf	3,6	;RP1=0, select bank0
  5758  0B9E  00AE               	movwf	sprintf@f
  5759  0B9F  3088               	movlw	high (STR_40| (0+32768))
  5760  0BA0  00AF               	movwf	sprintf@f+1
  5761  0BA1  0850               	movf	SIM300DeleteMsg@i,w
  5762  0BA2  00BE               	movwf	??_SIM300DeleteMsg
  5763  0BA3  01BF               	clrf	??_SIM300DeleteMsg+1
  5764  0BA4  083E               	movf	??_SIM300DeleteMsg,w
  5765  0BA5  00B0               	movwf	?_sprintf+2
  5766  0BA6  083F               	movf	??_SIM300DeleteMsg+1,w
  5767  0BA7  00B1               	movwf	?_sprintf+3
  5768  0BA8  3040               	movlw	SIM300DeleteMsg@cmd& (0+255)
  5769  0BA9  120A  158A  26D5  120A  158A  	fcall	_sprintf
  5770                           
  5771                           ;sim300.c: 238: SIM300Cmd(cmd);
  5772  0BAE  3040               	movlw	SIM300DeleteMsg@cmd& (0+255)
  5773  0BAF  1283               	bcf	3,5	;RP0=0, select bank0
  5774  0BB0  1303               	bcf	3,6	;RP1=0, select bank0
  5775  0BB1  00AD               	movwf	SIM300Cmd@cmd
  5776  0BB2  3000               	movlw	0
  5777  0BB3  00AE               	movwf	SIM300Cmd@cmd+1
  5778  0BB4  120A  158A  23F2  120A  158A  	fcall	_SIM300Cmd
  5779                           
  5780                           ;sim300.c: 240: uint8_t len=SIM300WaitForResponse(1000);
  5781  0BB9  30E8               	movlw	232
  5782  0BBA  1283               	bcf	3,5	;RP0=0, select bank0
  5783  0BBB  1303               	bcf	3,6	;RP1=0, select bank0
  5784  0BBC  00A2               	movwf	SIM300WaitForResponse@timeout
  5785  0BBD  3003               	movlw	3
  5786  0BBE  00A3               	movwf	SIM300WaitForResponse@timeout+1
  5787  0BBF  120A  158A  21CD  120A  158A  	fcall	_SIM300WaitForResponse
  5788  0BC4  1283               	bcf	3,5	;RP0=0, select bank0
  5789  0BC5  1303               	bcf	3,6	;RP1=0, select bank0
  5790  0BC6  00BE               	movwf	??_SIM300DeleteMsg
  5791  0BC7  083E               	movf	??_SIM300DeleteMsg,w
  5792  0BC8  00D1               	movwf	SIM300DeleteMsg@len
  5793                           
  5794                           ;sim300.c: 242: if(len==0)
  5795  0BC9  08D1               	movf	SIM300DeleteMsg@len,f
  5796  0BCA  1D03               	skipz
  5797  0BCB  2BCE               	goto	l2983
  5798                           
  5799                           ;sim300.c: 243: return -3;
  5800  0BCC  30FD               	movlw	-3
  5801  0BCD  0008               	return
  5802  0BCE                     l2983:	
  5803                           
  5804                           ;sim300.c: 245: sim300_buffer[len-1]='\0';
  5805  0BCE  0851               	movf	SIM300DeleteMsg@len,w
  5806  0BCF  3EFF               	addlw	255
  5807  0BD0  3E90               	addlw	_sim300_buffer& (0+255)
  5808  0BD1  0084               	movwf	4
  5809  0BD2  1783               	bsf	3,7	;select IRP bank3
  5810  0BD3  0180               	clrf	0
  5811                           
  5812                           ;sim300.c: 248: if(strnicmp(sim300_buffer+2,"OK",2)==0)
  5813  0BD4  303C               	movlw	low (STR_39| (0+32768))
  5814  0BD5  00A2               	movwf	strnicmp@s2
  5815  0BD6  3089               	movlw	high (STR_39| (0+32768))
  5816  0BD7  00A3               	movwf	strnicmp@s2+1
  5817  0BD8  3002               	movlw	2
  5818  0BD9  00A4               	movwf	strnicmp@len
  5819  0BDA  3000               	movlw	0
  5820  0BDB  00A5               	movwf	strnicmp@len+1
  5821  0BDC  3092               	movlw	(_sim300_buffer+2)& (0+255)
  5822  0BDD  160A  118A  27B2  120A  158A  	fcall	_strnicmp
  5823  0BE2  1283               	bcf	3,5	;RP0=0, select bank0
  5824  0BE3  1303               	bcf	3,6	;RP1=0, select bank0
  5825  0BE4  0823               	movf	?_strnicmp+1,w
  5826  0BE5  0422               	iorwf	?_strnicmp,w
  5827  0BE6  1D03               	skipz
  5828  0BE7  2BED               	goto	l2995
  5829                           
  5830                           ;sim300.c: 249: {
  5831                           ;sim300.c: 250: USARTFlushBuffer();
  5832  0BE8  160A  118A  23E8   	fcall	_USARTFlushBuffer
  5833                           
  5834                           ;sim300.c: 251: return 1;
  5835  0BEB  3001               	movlw	1
  5836                           
  5837                           ;sim300.c: 252: }
  5838  0BEC  0008               	return
  5839  0BED                     l2995:	
  5840                           
  5841                           ;sim300.c: 253: else
  5842                           ;sim300.c: 254: {
  5843                           ;sim300.c: 255: USARTFlushBuffer();
  5844  0BED  160A  118A  23E8   	fcall	_USARTFlushBuffer
  5845                           
  5846                           ;sim300.c: 256: return -2;
  5847  0BF0  30FE               	movlw	-2
  5848  0BF1  0008               	return
  5849  0BF2                     __end_of_SIM300DeleteMsg:	
  5850                           
  5851                           	psect	text18
  5852  0ED5                     __ptext18:	
  5853 ;; *************** function _sprintf *****************
  5854 ;; Defined at:
  5855 ;;		line 492 in file "C:\Program Files (x86)\Microchip\xc8\v1.32\sources\common\doprnt.c"
  5856 ;; Parameters:    Size  Location     Type
  5857 ;;  sp              1    wreg     PTR unsigned char 
  5858 ;;		 -> SIM300SendMsg@cmd(25), SIM300ReadValidMsg@cmd(16), SIM300DeleteMsg@cmd(16), 
  5859 ;;  f               2   14[BANK0 ] PTR const unsigned char 
  5860 ;;		 -> STR_45(12), STR_43(11), STR_40(11), 
  5861 ;; Auto vars:     Size  Location     Type
  5862 ;;  sp              1   24[BANK0 ] PTR unsigned char 
  5863 ;;		 -> SIM300SendMsg@cmd(25), SIM300ReadValidMsg@cmd(16), SIM300DeleteMsg@cmd(16), 
  5864 ;;  _val            4   25[BANK0 ] struct .
  5865 ;;  c               1   29[BANK0 ] char 
  5866 ;;  ap              1   23[BANK0 ] PTR void [1]
  5867 ;;		 -> ?_sprintf(2), 
  5868 ;;  prec            1   22[BANK0 ] char 
  5869 ;;  flag            1   21[BANK0 ] unsigned char 
  5870 ;; Return value:  Size  Location     Type
  5871 ;;                  2   14[BANK0 ] int 
  5872 ;; Registers used:
  5873 ;;		wreg, fsr0l, fsr0h, status,2, status,0, btemp+1, pclath, cstack
  5874 ;; Tracked objects:
  5875 ;;		On entry : 0/0
  5876 ;;		On exit  : 0/0
  5877 ;;		Unchanged: 0/0
  5878 ;; Data sizes:     COMMON   BANK0   BANK1   BANK3   BANK2
  5879 ;;      Params:         0       4       0       0       0
  5880 ;;      Locals:         0       9       0       0       0
  5881 ;;      Temps:          0       3       0       0       0
  5882 ;;      Totals:         0      16       0       0       0
  5883 ;;Total ram usage:       16 bytes
  5884 ;; Hardware stack levels used:    1
  5885 ;; Hardware stack levels required when called:    3
  5886 ;; This function calls:
  5887 ;;		___lwdiv
  5888 ;;		___lwmod
  5889 ;; This function is called by:
  5890 ;;		_SIM300DeleteMsg
  5891 ;;		_SIM300ReadValidMsg
  5892 ;;		_SIM300SendMsg
  5893 ;; This function uses a non-reentrant model
  5894 ;;
  5895                           
  5896                           
  5897                           ;psect for function _sprintf
  5898  0ED5                     _sprintf:	
  5899                           
  5900                           ;incstack = 0
  5901                           ; Regs used in _sprintf: [wreg-fsr0h+status,2+status,0+btemp+1+pclath+cstack]
  5902                           ;sprintf@sp stored from wreg
  5903  0ED5  1283               	bcf	3,5	;RP0=0, select bank0
  5904  0ED6  1303               	bcf	3,6	;RP1=0, select bank0
  5905  0ED7  00B8               	movwf	sprintf@sp
  5906                           
  5907                           ;doprnt.c: 494: va_list ap;
  5908                           ;doprnt.c: 499: signed char c;
  5909                           ;doprnt.c: 506: signed char prec;
  5910                           ;doprnt.c: 508: unsigned char flag;
  5911                           ;doprnt.c: 527: union {
  5912                           ;doprnt.c: 528: unsigned int _val;
  5913                           ;doprnt.c: 529: struct {
  5914                           ;doprnt.c: 530: const char * _cp;
  5915                           ;doprnt.c: 531: unsigned _len;
  5916                           ;doprnt.c: 532: } _str;
  5917                           ;doprnt.c: 533: } _val;
  5918                           ;doprnt.c: 542: *ap = __va_start();
  5919  0ED8  3030               	movlw	(?_sprintf+2)& (0+255)
  5920  0ED9  00B2               	movwf	??_sprintf
  5921  0EDA  0832               	movf	??_sprintf,w
  5922  0EDB  00B7               	movwf	sprintf@ap
  5923  0EDC                     l2935:	
  5924                           ;doprnt.c: 545: while(c = *f++) {
  5925                           
  5926  0EDC  082F               	movf	sprintf@f+1,w
  5927  0EDD  00B3               	movwf	??_sprintf+1
  5928  0EDE  082E               	movf	sprintf@f,w
  5929  0EDF  00B2               	movwf	??_sprintf
  5930  0EE0  0AAE               	incf	sprintf@f,f
  5931  0EE1  1903               	skipnz
  5932  0EE2  0AAF               	incf	sprintf@f+1,f
  5933  0EE3  0833               	movf	??_sprintf+1,w
  5934  0EE4  00FF               	movwf	127
  5935  0EE5  0832               	movf	??_sprintf,w
  5936  0EE6  0084               	movwf	4
  5937  0EE7  120A  158A  2000  120A  158A  	fcall	stringtab
  5938  0EEC  00B4               	movwf	??_sprintf+2
  5939  0EED  0834               	movf	??_sprintf+2,w
  5940  0EEE  00BD               	movwf	sprintf@c
  5941  0EEF  08BD               	movf	sprintf@c,f
  5942  0EF0  1903               	btfsc	3,2
  5943  0EF1  2FFB               	goto	l2937
  5944                           
  5945                           ;doprnt.c: 547: if(c != '%')
  5946  0EF2  083D               	movf	sprintf@c,w
  5947  0EF3  3A25               	xorlw	37
  5948  0EF4  1903               	skipnz
  5949  0EF5  2F02               	goto	l2875
  5950                           
  5951                           ;doprnt.c: 549: {
  5952                           ;doprnt.c: 550: ((*sp++ = (c)));
  5953  0EF6  083D               	movf	sprintf@c,w
  5954  0EF7  00B2               	movwf	??_sprintf
  5955  0EF8  0838               	movf	sprintf@sp,w
  5956  0EF9  0084               	movwf	4
  5957  0EFA  0832               	movf	??_sprintf,w
  5958  0EFB  1383               	bcf	3,7	;select IRP bank0
  5959  0EFC  0080               	movwf	0
  5960  0EFD  3001               	movlw	1
  5961  0EFE  00B2               	movwf	??_sprintf
  5962  0EFF  0832               	movf	??_sprintf,w
  5963  0F00  07B8               	addwf	sprintf@sp,f
  5964                           
  5965                           ;doprnt.c: 551: continue;
  5966  0F01  2EDC               	goto	l2935
  5967  0F02                     l2875:	
  5968                           
  5969                           ;doprnt.c: 552: }
  5970                           ;doprnt.c: 557: flag = 0;
  5971  0F02  01B5               	clrf	sprintf@flag
  5972                           
  5973                           ;doprnt.c: 644: switch(c = *f++) {
  5974  0F03  2F3C               	goto	l2895
  5975  0F04                     l2877:	
  5976                           ;doprnt.c: 737: case 's':
  5977                           
  5978                           ;doprnt.c: 707: case 'i':
  5979                           ;doprnt.c: 708: break;
  5980                           
  5981                           ;doprnt.c: 706: case 'd':
  5982                           
  5983                           ;doprnt.c: 647: goto alldone;
  5984                           
  5985                           ;doprnt.c: 646: case 0:
  5986                           
  5987                           
  5988                           ;doprnt.c: 743: _val._str._cp = (*(const char * *)__va_arg((*(const char * **)ap), (cons
      +                          t char *)0));
  5989  0F04  0837               	movf	sprintf@ap,w
  5990  0F05  0084               	movwf	4
  5991  0F06  1383               	bcf	3,7	;select IRP bank0
  5992  0F07  0800               	movf	0,w
  5993  0F08  00B9               	movwf	sprintf@_val
  5994  0F09  0A84               	incf	4,f
  5995  0F0A  0800               	movf	0,w
  5996  0F0B  00BA               	movwf	sprintf@_val+1
  5997  0F0C  3002               	movlw	2
  5998  0F0D  00B2               	movwf	??_sprintf
  5999  0F0E  0832               	movf	??_sprintf,w
  6000  0F0F  07B7               	addwf	sprintf@ap,f
  6001                           
  6002                           ;doprnt.c: 749: if(!_val._str._cp)
  6003  0F10  083A               	movf	sprintf@_val+1,w
  6004  0F11  0439               	iorwf	sprintf@_val,w
  6005  0F12  1D03               	skipz
  6006  0F13  2F18               	goto	l2891
  6007                           
  6008                           ;doprnt.c: 750: _val._str._cp = "(null)";
  6009  0F14  3015               	movlw	low (STR_47| (0+32768))
  6010  0F15  00B9               	movwf	sprintf@_val
  6011  0F16  3089               	movlw	high (STR_47| (0+32768))
  6012  0F17  00BA               	movwf	sprintf@_val+1
  6013  0F18                     l2891:	
  6014                           ;doprnt.c: 786: while(*_val._str._cp)
  6015                           
  6016  0F18  083A               	movf	sprintf@_val+1,w
  6017  0F19  00FF               	movwf	127
  6018  0F1A  0839               	movf	sprintf@_val,w
  6019  0F1B  0084               	movwf	4
  6020  0F1C  120A  158A  2000  120A  158A  	fcall	stringtab
  6021  0F21  3800               	iorlw	0
  6022  0F22  1903               	btfsc	3,2
  6023  0F23  2EDC               	goto	l2935
  6024                           
  6025                           ;doprnt.c: 787: ((*sp++ = (*_val._str._cp++)));
  6026  0F24  083A               	movf	sprintf@_val+1,w
  6027  0F25  00FF               	movwf	127
  6028  0F26  0839               	movf	sprintf@_val,w
  6029  0F27  0084               	movwf	4
  6030  0F28  120A  158A  2000  120A  158A  	fcall	stringtab
  6031  0F2D  00B2               	movwf	??_sprintf
  6032  0F2E  0838               	movf	sprintf@sp,w
  6033  0F2F  0084               	movwf	4
  6034  0F30  0832               	movf	??_sprintf,w
  6035  0F31  1383               	bcf	3,7	;select IRP bank0
  6036  0F32  0080               	movwf	0
  6037  0F33  3001               	movlw	1
  6038  0F34  07B9               	addwf	sprintf@_val,f
  6039  0F35  1803               	skipnc
  6040  0F36  0ABA               	incf	sprintf@_val+1,f
  6041  0F37  3001               	movlw	1
  6042  0F38  00B2               	movwf	??_sprintf
  6043  0F39  0832               	movf	??_sprintf,w
  6044  0F3A  07B8               	addwf	sprintf@sp,f
  6045  0F3B  2F18               	goto	l2891
  6046  0F3C                     l2895:	
  6047                           ;doprnt.c: 831: }
  6048                           
  6049                           ;doprnt.c: 822: continue;
  6050                           
  6051                           ;doprnt.c: 811: default:
  6052                           
  6053                           ;doprnt.c: 788: continue;
  6054                           
  6055  0F3C  082F               	movf	sprintf@f+1,w
  6056  0F3D  00B3               	movwf	??_sprintf+1
  6057  0F3E  082E               	movf	sprintf@f,w
  6058  0F3F  00B2               	movwf	??_sprintf
  6059  0F40  0AAE               	incf	sprintf@f,f
  6060  0F41  1903               	skipnz
  6061  0F42  0AAF               	incf	sprintf@f+1,f
  6062  0F43  0833               	movf	??_sprintf+1,w
  6063  0F44  00FF               	movwf	127
  6064  0F45  0832               	movf	??_sprintf,w
  6065  0F46  0084               	movwf	4
  6066  0F47  120A  158A  2000  120A  158A  	fcall	stringtab
  6067  0F4C  00BD               	movwf	sprintf@c
  6068                           
  6069                           ; Switch size 1, requested type "space"
  6070                           ; Number of cases is 4, Range of values is 0 to 115
  6071                           ; switch strategies available:
  6072                           ; Name         Instructions Cycles
  6073                           ; simple_byte           13     7 (average)
  6074                           ; jumptable            260     6 (fixed)
  6075                           ;	Chosen strategy is simple_byte
  6076  0F4D  3A00               	xorlw	0	; case 0
  6077  0F4E  1903               	skipnz
  6078  0F4F  2FFB               	goto	l2937
  6079  0F50  3A64               	xorlw	100	; case 100
  6080  0F51  1903               	skipnz
  6081  0F52  2F5A               	goto	l2897
  6082  0F53  3A0D               	xorlw	13	; case 105
  6083  0F54  1903               	skipnz
  6084  0F55  2F5A               	goto	l2897
  6085  0F56  3A1A               	xorlw	26	; case 115
  6086  0F57  1903               	skipnz
  6087  0F58  2F04               	goto	l2877
  6088  0F59  2EDC               	goto	l2935
  6089  0F5A                     l2897:	
  6090                           
  6091                           ;doprnt.c: 1262: {
  6092                           ;doprnt.c: 1268: _val._val = (int)(*(int *)__va_arg((*(int **)ap), (int)0));
  6093  0F5A  0837               	movf	sprintf@ap,w
  6094  0F5B  0084               	movwf	4
  6095  0F5C  1383               	bcf	3,7	;select IRP bank0
  6096  0F5D  0800               	movf	0,w
  6097  0F5E  00B9               	movwf	sprintf@_val
  6098  0F5F  0A84               	incf	4,f
  6099  0F60  0800               	movf	0,w
  6100  0F61  00BA               	movwf	sprintf@_val+1
  6101  0F62  3002               	movlw	2
  6102  0F63  00B2               	movwf	??_sprintf
  6103  0F64  0832               	movf	??_sprintf,w
  6104  0F65  07B7               	addwf	sprintf@ap,f
  6105                           
  6106                           ;doprnt.c: 1270: if((int)_val._val < 0) {
  6107  0F66  1FBA               	btfss	sprintf@_val+1,7
  6108  0F67  2F71               	goto	l2907
  6109                           
  6110                           ;doprnt.c: 1271: flag |= 0x03;
  6111  0F68  3003               	movlw	3
  6112  0F69  00B2               	movwf	??_sprintf
  6113  0F6A  0832               	movf	??_sprintf,w
  6114  0F6B  04B5               	iorwf	sprintf@flag,f
  6115                           
  6116                           ;doprnt.c: 1272: _val._val = -_val._val;
  6117  0F6C  09B9               	comf	sprintf@_val,f
  6118  0F6D  09BA               	comf	sprintf@_val+1,f
  6119  0F6E  0AB9               	incf	sprintf@_val,f
  6120  0F6F  1903               	skipnz
  6121  0F70  0ABA               	incf	sprintf@_val+1,f
  6122  0F71                     l2907:	
  6123                           
  6124                           ;doprnt.c: 1273: }
  6125                           ;doprnt.c: 1275: }
  6126                           ;doprnt.c: 1314: for(c = 1 ; c != sizeof dpowers/sizeof dpowers[0] ; c++)
  6127  0F71  01BD               	clrf	sprintf@c
  6128  0F72  0ABD               	incf	sprintf@c,f
  6129  0F73  083D               	movf	sprintf@c,w
  6130  0F74  3A05               	xorlw	5
  6131  0F75  1903               	btfsc	3,2
  6132  0F76  2F9C               	goto	l2919
  6133  0F77                     l2911:	
  6134                           
  6135                           ;doprnt.c: 1315: if(_val._val < dpowers[c])
  6136  0F77  083D               	movf	sprintf@c,w
  6137  0F78  00B2               	movwf	??_sprintf
  6138  0F79  0732               	addwf	??_sprintf,w
  6139  0F7A  3E12               	addlw	low (_dpowers| (0+32768))
  6140  0F7B  0084               	movwf	4
  6141  0F7C  3088               	movlw	high (_dpowers| (0+32768))
  6142  0F7D  1803               	skipnc
  6143  0F7E  3E01               	addlw	1
  6144  0F7F  00FF               	movwf	127
  6145  0F80  120A  158A  2000  120A  158A  	fcall	stringtab
  6146  0F85  00B3               	movwf	??_sprintf+1
  6147  0F86  120A  158A  2000  120A  158A  	fcall	stringtab
  6148  0F8B  00B4               	movwf	??_sprintf+2
  6149  0F8C  0834               	movf	??_sprintf+2,w
  6150  0F8D  023A               	subwf	sprintf@_val+1,w
  6151  0F8E  1D03               	skipz
  6152  0F8F  2F92               	goto	u2295
  6153  0F90  0833               	movf	??_sprintf+1,w
  6154  0F91  0239               	subwf	sprintf@_val,w
  6155  0F92                     u2295:	
  6156  0F92  1C03               	btfss	3,0
  6157  0F93  2F9C               	goto	l2919
  6158                           
  6159                           ;doprnt.c: 1316: break;
  6160  0F94  3001               	movlw	1
  6161  0F95  00B2               	movwf	??_sprintf
  6162  0F96  0832               	movf	??_sprintf,w
  6163  0F97  07BD               	addwf	sprintf@c,f
  6164  0F98  083D               	movf	sprintf@c,w
  6165  0F99  3A05               	xorlw	5
  6166  0F9A  1D03               	skipz
  6167  0F9B  2F77               	goto	l2911
  6168  0F9C                     l2919:	
  6169                           
  6170                           ;doprnt.c: 1431: {
  6171                           ;doprnt.c: 1447: if(flag & 0x03)
  6172  0F9C  0835               	movf	sprintf@flag,w
  6173  0F9D  3903               	andlw	3
  6174  0F9E  1903               	btfsc	3,2
  6175  0F9F  2FAB               	goto	l2925
  6176                           
  6177                           ;doprnt.c: 1448: ((*sp++ = ('-')));
  6178  0FA0  302D               	movlw	45
  6179  0FA1  00B2               	movwf	??_sprintf
  6180  0FA2  0838               	movf	sprintf@sp,w
  6181  0FA3  0084               	movwf	4
  6182  0FA4  0832               	movf	??_sprintf,w
  6183  0FA5  1383               	bcf	3,7	;select IRP bank0
  6184  0FA6  0080               	movwf	0
  6185  0FA7  3001               	movlw	1
  6186  0FA8  00B2               	movwf	??_sprintf
  6187  0FA9  0832               	movf	??_sprintf,w
  6188  0FAA  07B8               	addwf	sprintf@sp,f
  6189  0FAB                     l2925:	
  6190                           
  6191                           ;doprnt.c: 1478: }
  6192                           ;doprnt.c: 1481: prec = c;
  6193  0FAB  083D               	movf	sprintf@c,w
  6194  0FAC  00B2               	movwf	??_sprintf
  6195  0FAD  0832               	movf	??_sprintf,w
  6196  0FAE  00B6               	movwf	sprintf@prec
  6197  0FAF                     l2933:	
  6198                           ;doprnt.c: 1483: while(prec--) {
  6199                           
  6200  0FAF  30FF               	movlw	-1
  6201  0FB0  00B2               	movwf	??_sprintf
  6202  0FB1  0832               	movf	??_sprintf,w
  6203  0FB2  07B6               	addwf	sprintf@prec,f
  6204  0FB3  0836               	movf	sprintf@prec,w
  6205  0FB4  3AFF               	xorlw	-1
  6206  0FB5  1903               	btfsc	3,2
  6207  0FB6  2EDC               	goto	l2935
  6208                           
  6209                           ;doprnt.c: 1487: {
  6210                           ;doprnt.c: 1498: c = (_val._val / dpowers[prec]) % 10 + '0';
  6211  0FB7  300A               	movlw	10
  6212  0FB8  00A8               	movwf	___lwmod@divisor
  6213  0FB9  3000               	movlw	0
  6214  0FBA  00A9               	movwf	___lwmod@divisor+1
  6215  0FBB  0836               	movf	sprintf@prec,w
  6216  0FBC  00B2               	movwf	??_sprintf
  6217  0FBD  0732               	addwf	??_sprintf,w
  6218  0FBE  3E12               	addlw	low (_dpowers| (0+32768))
  6219  0FBF  0084               	movwf	4
  6220  0FC0  3088               	movlw	high (_dpowers| (0+32768))
  6221  0FC1  1803               	skipnc
  6222  0FC2  3E01               	addlw	1
  6223  0FC3  00FF               	movwf	127
  6224  0FC4  120A  158A  2000  120A  158A  	fcall	stringtab
  6225  0FC9  00A0               	movwf	___lwdiv@divisor
  6226  0FCA  120A  158A  2000  120A  158A  	fcall	stringtab
  6227  0FCF  00A1               	movwf	___lwdiv@divisor+1
  6228  0FD0  083A               	movf	sprintf@_val+1,w
  6229  0FD1  01A3               	clrf	___lwdiv@dividend+1
  6230  0FD2  07A3               	addwf	___lwdiv@dividend+1,f
  6231  0FD3  0839               	movf	sprintf@_val,w
  6232  0FD4  01A2               	clrf	___lwdiv@dividend
  6233  0FD5  07A2               	addwf	___lwdiv@dividend,f
  6234  0FD6  160A  118A  2695  120A  158A  	fcall	___lwdiv
  6235  0FDB  1283               	bcf	3,5	;RP0=0, select bank0
  6236  0FDC  1303               	bcf	3,6	;RP1=0, select bank0
  6237  0FDD  0821               	movf	?___lwdiv+1,w
  6238  0FDE  01AB               	clrf	___lwmod@dividend+1
  6239  0FDF  07AB               	addwf	___lwmod@dividend+1,f
  6240  0FE0  0820               	movf	?___lwdiv,w
  6241  0FE1  01AA               	clrf	___lwmod@dividend
  6242  0FE2  07AA               	addwf	___lwmod@dividend,f
  6243  0FE3  160A  118A  265F  120A  158A  	fcall	___lwmod
  6244  0FE8  1283               	bcf	3,5	;RP0=0, select bank0
  6245  0FE9  1303               	bcf	3,6	;RP1=0, select bank0
  6246  0FEA  0828               	movf	?___lwmod,w
  6247  0FEB  3E30               	addlw	48
  6248  0FEC  00B3               	movwf	??_sprintf+1
  6249  0FED  0833               	movf	??_sprintf+1,w
  6250  0FEE  00BD               	movwf	sprintf@c
  6251                           
  6252                           ;doprnt.c: 1532: }
  6253                           ;doprnt.c: 1533: ((*sp++ = (c)));
  6254  0FEF  083D               	movf	sprintf@c,w
  6255  0FF0  00B2               	movwf	??_sprintf
  6256  0FF1  0838               	movf	sprintf@sp,w
  6257  0FF2  0084               	movwf	4
  6258  0FF3  0832               	movf	??_sprintf,w
  6259  0FF4  1383               	bcf	3,7	;select IRP bank0
  6260  0FF5  0080               	movwf	0
  6261  0FF6  3001               	movlw	1
  6262  0FF7  00B2               	movwf	??_sprintf
  6263  0FF8  0832               	movf	??_sprintf,w
  6264  0FF9  07B8               	addwf	sprintf@sp,f
  6265  0FFA  2FAF               	goto	l2933
  6266  0FFB                     l2937:	
  6267                           ;doprnt.c: 1534: }
  6268                           ;doprnt.c: 1542: }
  6269                           ;doprnt.c: 1544: alldone:
  6270                           
  6271                           
  6272                           ;doprnt.c: 1547: *sp = 0;
  6273  0FFB  0838               	movf	sprintf@sp,w
  6274  0FFC  0084               	movwf	4
  6275  0FFD  1383               	bcf	3,7	;select IRP bank0
  6276  0FFE  0180               	clrf	0
  6277  0FFF  0008               	return
  6278  1000                     __end_of_sprintf:	
  6279                           ;doprnt.c: 1549: return 0;
  6280                           ;	Return value of _sprintf is never used
  6281                           
  6282                           
  6283                           	psect	text19
  6284  165F                     __ptext19:	
  6285 ;; *************** function ___lwmod *****************
  6286 ;; Defined at:
  6287 ;;		line 6 in file "C:\Program Files (x86)\Microchip\xc8\v1.32\sources\common\lwmod.c"
  6288 ;; Parameters:    Size  Location     Type
  6289 ;;  divisor         2    8[BANK0 ] unsigned int 
  6290 ;;  dividend        2   10[BANK0 ] unsigned int 
  6291 ;; Auto vars:     Size  Location     Type
  6292 ;;  counter         1   13[BANK0 ] unsigned char 
  6293 ;; Return value:  Size  Location     Type
  6294 ;;                  2    8[BANK0 ] unsigned int 
  6295 ;; Registers used:
  6296 ;;		wreg, status,2, status,0
  6297 ;; Tracked objects:
  6298 ;;		On entry : 0/0
  6299 ;;		On exit  : 0/0
  6300 ;;		Unchanged: 0/0
  6301 ;; Data sizes:     COMMON   BANK0   BANK1   BANK3   BANK2
  6302 ;;      Params:         0       4       0       0       0
  6303 ;;      Locals:         0       1       0       0       0
  6304 ;;      Temps:          0       1       0       0       0
  6305 ;;      Totals:         0       6       0       0       0
  6306 ;;Total ram usage:        6 bytes
  6307 ;; Hardware stack levels used:    1
  6308 ;; Hardware stack levels required when called:    2
  6309 ;; This function calls:
  6310 ;;		Nothing
  6311 ;; This function is called by:
  6312 ;;		_sprintf
  6313 ;; This function uses a non-reentrant model
  6314 ;;
  6315                           
  6316                           
  6317                           ;psect for function ___lwmod
  6318  165F                     ___lwmod:	
  6319                           
  6320                           ;incstack = 0
  6321                           ; Regs used in ___lwmod: [wreg+status,2+status,0]
  6322  165F  1283               	bcf	3,5	;RP0=0, select bank0
  6323  1660  1303               	bcf	3,6	;RP1=0, select bank0
  6324  1661  0829               	movf	___lwmod@divisor+1,w
  6325  1662  0428               	iorwf	___lwmod@divisor,w
  6326  1663  1903               	skipnz
  6327  1664  2E8E               	goto	l2709
  6328  1665  01AD               	clrf	___lwmod@counter
  6329  1666  0AAD               	incf	___lwmod@counter,f
  6330  1667                     l2699:	
  6331  1667  1BA9               	btfsc	___lwmod@divisor+1,7
  6332  1668  2E75               	goto	l2701
  6333  1669  3001               	movlw	1
  6334  166A                     u1975:	
  6335  166A  1003               	clrc
  6336  166B  0DA8               	rlf	___lwmod@divisor,f
  6337  166C  0DA9               	rlf	___lwmod@divisor+1,f
  6338  166D  3EFF               	addlw	-1
  6339  166E  1D03               	skipz
  6340  166F  2E6A               	goto	u1975
  6341  1670  3001               	movlw	1
  6342  1671  00AC               	movwf	??___lwmod
  6343  1672  082C               	movf	??___lwmod,w
  6344  1673  07AD               	addwf	___lwmod@counter,f
  6345  1674  2E67               	goto	l2699
  6346  1675                     l2701:	
  6347  1675  0829               	movf	___lwmod@divisor+1,w
  6348  1676  022B               	subwf	___lwmod@dividend+1,w
  6349  1677  1D03               	skipz
  6350  1678  2E7B               	goto	u1995
  6351  1679  0828               	movf	___lwmod@divisor,w
  6352  167A  022A               	subwf	___lwmod@dividend,w
  6353  167B                     u1995:	
  6354  167B  1C03               	skipc
  6355  167C  2E83               	goto	l2705
  6356  167D  0828               	movf	___lwmod@divisor,w
  6357  167E  02AA               	subwf	___lwmod@dividend,f
  6358  167F  0829               	movf	___lwmod@divisor+1,w
  6359  1680  1C03               	skipc
  6360  1681  03AB               	decf	___lwmod@dividend+1,f
  6361  1682  02AB               	subwf	___lwmod@dividend+1,f
  6362  1683                     l2705:	
  6363  1683  3001               	movlw	1
  6364  1684                     u2005:	
  6365  1684  1003               	clrc
  6366  1685  0CA9               	rrf	___lwmod@divisor+1,f
  6367  1686  0CA8               	rrf	___lwmod@divisor,f
  6368  1687  3EFF               	addlw	-1
  6369  1688  1D03               	skipz
  6370  1689  2E84               	goto	u2005
  6371  168A  3001               	movlw	1
  6372  168B  02AD               	subwf	___lwmod@counter,f
  6373  168C  1D03               	btfss	3,2
  6374  168D  2E75               	goto	l2701
  6375  168E                     l2709:	
  6376  168E  082B               	movf	___lwmod@dividend+1,w
  6377  168F  01A9               	clrf	?___lwmod+1
  6378  1690  07A9               	addwf	?___lwmod+1,f
  6379  1691  082A               	movf	___lwmod@dividend,w
  6380  1692  01A8               	clrf	?___lwmod
  6381  1693  07A8               	addwf	?___lwmod,f
  6382  1694  0008               	return
  6383  1695                     __end_of___lwmod:	
  6384                           
  6385                           	psect	text20
  6386  1695                     __ptext20:	
  6387 ;; *************** function ___lwdiv *****************
  6388 ;; Defined at:
  6389 ;;		line 6 in file "C:\Program Files (x86)\Microchip\xc8\v1.32\sources\common\lwdiv.c"
  6390 ;; Parameters:    Size  Location     Type
  6391 ;;  divisor         2    0[BANK0 ] unsigned int 
  6392 ;;  dividend        2    2[BANK0 ] unsigned int 
  6393 ;; Auto vars:     Size  Location     Type
  6394 ;;  quotient        2    5[BANK0 ] unsigned int 
  6395 ;;  counter         1    7[BANK0 ] unsigned char 
  6396 ;; Return value:  Size  Location     Type
  6397 ;;                  2    0[BANK0 ] unsigned int 
  6398 ;; Registers used:
  6399 ;;		wreg, status,2, status,0
  6400 ;; Tracked objects:
  6401 ;;		On entry : 0/0
  6402 ;;		On exit  : 0/0
  6403 ;;		Unchanged: 0/0
  6404 ;; Data sizes:     COMMON   BANK0   BANK1   BANK3   BANK2
  6405 ;;      Params:         0       4       0       0       0
  6406 ;;      Locals:         0       3       0       0       0
  6407 ;;      Temps:          0       1       0       0       0
  6408 ;;      Totals:         0       8       0       0       0
  6409 ;;Total ram usage:        8 bytes
  6410 ;; Hardware stack levels used:    1
  6411 ;; Hardware stack levels required when called:    2
  6412 ;; This function calls:
  6413 ;;		Nothing
  6414 ;; This function is called by:
  6415 ;;		_sprintf
  6416 ;; This function uses a non-reentrant model
  6417 ;;
  6418                           
  6419                           
  6420                           ;psect for function ___lwdiv
  6421  1695                     ___lwdiv:	
  6422                           
  6423                           ;incstack = 0
  6424                           ; Regs used in ___lwdiv: [wreg+status,2+status,0]
  6425  1695  1283               	bcf	3,5	;RP0=0, select bank0
  6426  1696  1303               	bcf	3,6	;RP1=0, select bank0
  6427  1697  01A5               	clrf	___lwdiv@quotient
  6428  1698  01A6               	clrf	___lwdiv@quotient+1
  6429  1699  0821               	movf	___lwdiv@divisor+1,w
  6430  169A  0420               	iorwf	___lwdiv@divisor,w
  6431  169B  1903               	skipnz
  6432  169C  2ECE               	goto	l2687
  6433  169D  01A7               	clrf	___lwdiv@counter
  6434  169E  0AA7               	incf	___lwdiv@counter,f
  6435  169F                     l2675:	
  6436  169F  1BA1               	btfsc	___lwdiv@divisor+1,7
  6437  16A0  2EAD               	goto	l2677
  6438  16A1  3001               	movlw	1
  6439  16A2                     u1905:	
  6440  16A2  1003               	clrc
  6441  16A3  0DA0               	rlf	___lwdiv@divisor,f
  6442  16A4  0DA1               	rlf	___lwdiv@divisor+1,f
  6443  16A5  3EFF               	addlw	-1
  6444  16A6  1D03               	skipz
  6445  16A7  2EA2               	goto	u1905
  6446  16A8  3001               	movlw	1
  6447  16A9  00A4               	movwf	??___lwdiv
  6448  16AA  0824               	movf	??___lwdiv,w
  6449  16AB  07A7               	addwf	___lwdiv@counter,f
  6450  16AC  2E9F               	goto	l2675
  6451  16AD                     l2677:	
  6452  16AD  3001               	movlw	1
  6453  16AE                     u1925:	
  6454  16AE  1003               	clrc
  6455  16AF  0DA5               	rlf	___lwdiv@quotient,f
  6456  16B0  0DA6               	rlf	___lwdiv@quotient+1,f
  6457  16B1  3EFF               	addlw	-1
  6458  16B2  1D03               	skipz
  6459  16B3  2EAE               	goto	u1925
  6460  16B4  0821               	movf	___lwdiv@divisor+1,w
  6461  16B5  0223               	subwf	___lwdiv@dividend+1,w
  6462  16B6  1D03               	skipz
  6463  16B7  2EBA               	goto	u1935
  6464  16B8  0820               	movf	___lwdiv@divisor,w
  6465  16B9  0222               	subwf	___lwdiv@dividend,w
  6466  16BA                     u1935:	
  6467  16BA  1C03               	skipc
  6468  16BB  2EC3               	goto	l2683
  6469  16BC  0820               	movf	___lwdiv@divisor,w
  6470  16BD  02A2               	subwf	___lwdiv@dividend,f
  6471  16BE  0821               	movf	___lwdiv@divisor+1,w
  6472  16BF  1C03               	skipc
  6473  16C0  03A3               	decf	___lwdiv@dividend+1,f
  6474  16C1  02A3               	subwf	___lwdiv@dividend+1,f
  6475  16C2  1425               	bsf	___lwdiv@quotient,0
  6476  16C3                     l2683:	
  6477  16C3  3001               	movlw	1
  6478  16C4                     u1945:	
  6479  16C4  1003               	clrc
  6480  16C5  0CA1               	rrf	___lwdiv@divisor+1,f
  6481  16C6  0CA0               	rrf	___lwdiv@divisor,f
  6482  16C7  3EFF               	addlw	-1
  6483  16C8  1D03               	skipz
  6484  16C9  2EC4               	goto	u1945
  6485  16CA  3001               	movlw	1
  6486  16CB  02A7               	subwf	___lwdiv@counter,f
  6487  16CC  1D03               	btfss	3,2
  6488  16CD  2EAD               	goto	l2677
  6489  16CE                     l2687:	
  6490  16CE  0826               	movf	___lwdiv@quotient+1,w
  6491  16CF  01A1               	clrf	?___lwdiv+1
  6492  16D0  07A1               	addwf	?___lwdiv+1,f
  6493  16D1  0825               	movf	___lwdiv@quotient,w
  6494  16D2  01A0               	clrf	?___lwdiv
  6495  16D3  07A0               	addwf	?___lwdiv,f
  6496  16D4  0008               	return
  6497  16D5                     __end_of___lwdiv:	
  6498                           
  6499                           	psect	text21
  6500  09CD                     __ptext21:	
  6501 ;; *************** function _SIM300WaitForResponse *****************
  6502 ;; Defined at:
  6503 ;;		line 154 in file "E:\Study Material\XC8 PROJECTS\Aurangabad\sim300.c"
  6504 ;; Parameters:    Size  Location     Type
  6505 ;;  timeout         2    2[BANK0 ] unsigned int 
  6506 ;; Auto vars:     Size  Location     Type
  6507 ;;  n               2    5[BANK0 ] unsigned int 
  6508 ;;  i               1    7[BANK0 ] unsigned char 
  6509 ;; Return value:  Size  Location     Type
  6510 ;;                  1    wreg      char 
  6511 ;; Registers used:
  6512 ;;		wreg, fsr0l, fsr0h, status,2, status,0, pclath, cstack
  6513 ;; Tracked objects:
  6514 ;;		On entry : 0/0
  6515 ;;		On exit  : 0/0
  6516 ;;		Unchanged: 0/0
  6517 ;; Data sizes:     COMMON   BANK0   BANK1   BANK3   BANK2
  6518 ;;      Params:         0       2       0       0       0
  6519 ;;      Locals:         0       3       0       0       0
  6520 ;;      Temps:          0       1       0       0       0
  6521 ;;      Totals:         0       6       0       0       0
  6522 ;;Total ram usage:        6 bytes
  6523 ;; Hardware stack levels used:    1
  6524 ;; Hardware stack levels required when called:    4
  6525 ;; This function calls:
  6526 ;;		_USARTDataAvailable
  6527 ;;		_USARTFlushBuffer
  6528 ;;		_USARTReadData
  6529 ;; This function is called by:
  6530 ;;		_SIM300DeleteMsg
  6531 ;;		_SIM300ReadValidMsg
  6532 ;;		_SIM300SendMsg
  6533 ;; This function uses a non-reentrant model
  6534 ;;
  6535                           
  6536                           
  6537                           ;psect for function _SIM300WaitForResponse
  6538  09CD                     _SIM300WaitForResponse:	
  6539                           
  6540                           ;sim300.c: 156: uint8_t i=0;
  6541                           
  6542                           ;incstack = 0
  6543                           ; Regs used in _SIM300WaitForResponse: [wreg-fsr0h+status,2+status,0+pclath+cstack]
  6544  09CD  1283               	bcf	3,5	;RP0=0, select bank0
  6545  09CE  1303               	bcf	3,6	;RP1=0, select bank0
  6546  09CF  01A7               	clrf	SIM300WaitForResponse@i
  6547                           
  6548                           ;sim300.c: 157: uint16_t n=0;
  6549  09D0  01A5               	clrf	SIM300WaitForResponse@n
  6550  09D1  01A6               	clrf	SIM300WaitForResponse@n+1
  6551                           
  6552                           ;sim300.c: 160: {
  6553                           ;sim300.c: 162: while (USARTDataAvailable()==0 && n<timeout)
  6554                           
  6555                           ;sim300.c: 159: while(1)
  6556  09D2  29E0               	goto	l2839
  6557  09D3                     l2837:	
  6558                           
  6559                           ;sim300.c: 163: {
  6560                           ;sim300.c: 164: n++;
  6561  09D3  3001               	movlw	1
  6562  09D4  07A5               	addwf	SIM300WaitForResponse@n,f
  6563  09D5  1803               	skipnc
  6564  09D6  0AA6               	incf	SIM300WaitForResponse@n+1,f
  6565  09D7  3000               	movlw	0
  6566  09D8  07A6               	addwf	SIM300WaitForResponse@n+1,f
  6567                           
  6568                           ;sim300.c: 165: _delay((unsigned long)((1)*(4000000/4000.0)));
  6569  09D9  30F9               	movlw	249
  6570  09DA  00A4               	movwf	??_SIM300WaitForResponse
  6571  09DB                     u4077:	
  6572  09DB  0000               	nop
  6573  09DC  0BA4               	decfsz	??_SIM300WaitForResponse,f
  6574  09DD  29DB               	goto	u4077
  6575  09DE  29DF               	nop2	;nop
  6576  09DF  0000               	nop
  6577  09E0                     l2839:	
  6578  09E0  160A  118A  24A8  120A  158A  	fcall	_USARTDataAvailable
  6579  09E5  3800               	iorlw	0
  6580  09E6  1D03               	skipz
  6581  09E7  29F2               	goto	l2843
  6582  09E8  1283               	bcf	3,5	;RP0=0, select bank0
  6583  09E9  1303               	bcf	3,6	;RP1=0, select bank0
  6584  09EA  0823               	movf	SIM300WaitForResponse@timeout+1,w
  6585  09EB  0226               	subwf	SIM300WaitForResponse@n+1,w
  6586  09EC  1D03               	skipz
  6587  09ED  29F0               	goto	u2205
  6588  09EE  0822               	movf	SIM300WaitForResponse@timeout,w
  6589  09EF  0225               	subwf	SIM300WaitForResponse@n,w
  6590  09F0                     u2205:	
  6591  09F0  1C03               	skipc
  6592  09F1  29D3               	goto	l2837
  6593  09F2                     l2843:	
  6594                           
  6595                           ;sim300.c: 167: }
  6596                           ;sim300.c: 169: if(n==timeout)
  6597  09F2  1283               	bcf	3,5	;RP0=0, select bank0
  6598  09F3  1303               	bcf	3,6	;RP1=0, select bank0
  6599  09F4  0823               	movf	SIM300WaitForResponse@timeout+1,w
  6600  09F5  0626               	xorwf	SIM300WaitForResponse@n+1,w
  6601  09F6  1D03               	skipz
  6602  09F7  29FA               	goto	u2215
  6603  09F8  0822               	movf	SIM300WaitForResponse@timeout,w
  6604  09F9  0625               	xorwf	SIM300WaitForResponse@n,w
  6605  09FA                     u2215:	
  6606  09FA  1D03               	skipz
  6607  09FB  29FE               	goto	l2851
  6608                           
  6609                           ;sim300.c: 170: {
  6610                           ;sim300.c: 172: return 0;
  6611  09FC  3000               	movlw	0
  6612  09FD  0008               	return
  6613  09FE                     l2851:	
  6614                           ;sim300.c: 173: }
  6615                           
  6616                           
  6617                           ;sim300.c: 174: else
  6618                           ;sim300.c: 175: {
  6619                           ;sim300.c: 177: sim300_buffer[i]=USARTReadData();
  6620  09FE  160A  118A  24CC  120A  158A  	fcall	_USARTReadData
  6621  0A03  1283               	bcf	3,5	;RP0=0, select bank0
  6622  0A04  1303               	bcf	3,6	;RP1=0, select bank0
  6623  0A05  00A4               	movwf	??_SIM300WaitForResponse
  6624  0A06  0827               	movf	SIM300WaitForResponse@i,w
  6625  0A07  3E90               	addlw	_sim300_buffer& (0+255)
  6626  0A08  0084               	movwf	4
  6627  0A09  0824               	movf	??_SIM300WaitForResponse,w
  6628  0A0A  1783               	bsf	3,7	;select IRP bank3
  6629  0A0B  0080               	movwf	0
  6630                           
  6631                           ;sim300.c: 179: if(sim300_buffer[i]==0x0D && i!=0)
  6632  0A0C  0827               	movf	SIM300WaitForResponse@i,w
  6633  0A0D  3E90               	addlw	_sim300_buffer& (0+255)
  6634  0A0E  0084               	movwf	4
  6635  0A0F  0800               	movf	0,w
  6636  0A10  3A0D               	xorlw	13
  6637  0A11  1D03               	skipz
  6638  0A12  2A1E               	goto	l2865
  6639  0A13  0827               	movf	SIM300WaitForResponse@i,w
  6640  0A14  1903               	btfsc	3,2
  6641  0A15  2A1E               	goto	l2865
  6642                           
  6643                           ;sim300.c: 180: {
  6644                           ;sim300.c: 181: USARTFlushBuffer();
  6645  0A16  160A  118A  23E8   	fcall	_USARTFlushBuffer
  6646                           
  6647                           ;sim300.c: 182: return i+1;
  6648  0A19  1283               	bcf	3,5	;RP0=0, select bank0
  6649  0A1A  1303               	bcf	3,6	;RP1=0, select bank0
  6650  0A1B  0827               	movf	SIM300WaitForResponse@i,w
  6651  0A1C  3E01               	addlw	1
  6652  0A1D  0008               	return
  6653  0A1E                     l2865:	
  6654                           ;sim300.c: 183: }
  6655                           
  6656                           
  6657                           ;sim300.c: 184: else
  6658                           ;sim300.c: 185: i++;
  6659  0A1E  3001               	movlw	1
  6660  0A1F  00A4               	movwf	??_SIM300WaitForResponse
  6661  0A20  0824               	movf	??_SIM300WaitForResponse,w
  6662  0A21  07A7               	addwf	SIM300WaitForResponse@i,f
  6663  0A22  29E0               	goto	l2839
  6664  0A23                     __end_of_SIM300WaitForResponse:	
  6665                           
  6666                           	psect	text22
  6667  0C64                     __ptext22:	
  6668 ;; *************** function _SIM300WaitForValidCall *****************
  6669 ;; Defined at:
  6670 ;;		line 323 in file "E:\Study Material\XC8 PROJECTS\Aurangabad\MobileAdv.c"
  6671 ;; Parameters:    Size  Location     Type
  6672 ;;		None
  6673 ;; Auto vars:     Size  Location     Type
  6674 ;;  i               1   13[BANK0 ] unsigned char 
  6675 ;;  start           1   12[BANK0 ] PTR unsigned char 
  6676 ;;		 -> NULL(0), sim300_buffer(70), 
  6677 ;;  len             1   11[BANK0 ] unsigned char 
  6678 ;; Return value:  Size  Location     Type
  6679 ;;                  1    wreg      char 
  6680 ;; Registers used:
  6681 ;;		wreg, fsr0l, fsr0h, status,2, status,0, btemp+1, pclath, cstack
  6682 ;; Tracked objects:
  6683 ;;		On entry : 0/0
  6684 ;;		On exit  : 0/0
  6685 ;;		Unchanged: 0/0
  6686 ;; Data sizes:     COMMON   BANK0   BANK1   BANK3   BANK2
  6687 ;;      Params:         0       0       0       0       0
  6688 ;;      Locals:         0       3       0       0       0
  6689 ;;      Temps:          0       1       0       0       0
  6690 ;;      Totals:         0       4       0       0       0
  6691 ;;Total ram usage:        4 bytes
  6692 ;; Hardware stack levels used:    1
  6693 ;; Hardware stack levels required when called:    5
  6694 ;; This function calls:
  6695 ;;		_SIM300RingResponse
  6696 ;;		_USARTFlushBuffer
  6697 ;;		_strichr
  6698 ;;		_strnicmp
  6699 ;;		_strrichr
  6700 ;; This function is called by:
  6701 ;;		_main
  6702 ;; This function uses a non-reentrant model
  6703 ;;
  6704                           
  6705                           
  6706                           ;psect for function _SIM300WaitForValidCall
  6707  0C64                     _SIM300WaitForValidCall:	
  6708                           
  6709                           ;MobileAdv.c: 328: uint8_t len=SIM300RingResponse(15000);
  6710                           
  6711                           ;incstack = 0
  6712                           ; Regs used in _SIM300WaitForValidCall: [wreg-fsr0h+status,2+status,0+btemp+1+pclath+cst
      +                          ack]
  6713  0C64  3098               	movlw	152
  6714  0C65  1283               	bcf	3,5	;RP0=0, select bank0
  6715  0C66  1303               	bcf	3,6	;RP1=0, select bank0
  6716  0C67  00A2               	movwf	SIM300RingResponse@timeout
  6717  0C68  303A               	movlw	58
  6718  0C69  00A3               	movwf	SIM300RingResponse@timeout+1
  6719  0C6A  120A  158A  2223  120A  158A  	fcall	_SIM300RingResponse
  6720  0C6F  1283               	bcf	3,5	;RP0=0, select bank0
  6721  0C70  1303               	bcf	3,6	;RP1=0, select bank0
  6722  0C71  00AA               	movwf	??_SIM300WaitForValidCall
  6723  0C72  082A               	movf	??_SIM300WaitForValidCall,w
  6724  0C73  00AB               	movwf	SIM300WaitForValidCall@len
  6725                           
  6726                           ;MobileAdv.c: 329: if(len==0)
  6727  0C74  08AB               	movf	SIM300WaitForValidCall@len,f
  6728  0C75  1D03               	skipz
  6729  0C76  2C79               	goto	l3569
  6730                           
  6731                           ;MobileAdv.c: 330: return -3;
  6732  0C77  30FD               	movlw	-3
  6733  0C78  0008               	return
  6734  0C79                     l3569:	
  6735                           
  6736                           ;MobileAdv.c: 332: sim300_buffer[len-1]='\0';
  6737  0C79  082B               	movf	SIM300WaitForValidCall@len,w
  6738  0C7A  3EFF               	addlw	255
  6739  0C7B  3E90               	addlw	_sim300_buffer& (0+255)
  6740  0C7C  0084               	movwf	4
  6741  0C7D  1783               	bsf	3,7	;select IRP bank3
  6742  0C7E  0180               	clrf	0
  6743                           
  6744                           ;MobileAdv.c: 335: if(strnicmp(sim300_buffer+10,"+CLIP:",6)==0)
  6745  0C7F  3023               	movlw	low (STR_19| (0+32768))
  6746  0C80  00A2               	movwf	strnicmp@s2
  6747  0C81  3089               	movlw	high (STR_19| (0+32768))
  6748  0C82  00A3               	movwf	strnicmp@s2+1
  6749  0C83  3006               	movlw	6
  6750  0C84  00A4               	movwf	strnicmp@len
  6751  0C85  3000               	movlw	0
  6752  0C86  00A5               	movwf	strnicmp@len+1
  6753  0C87  309A               	movlw	(_sim300_buffer+10)& (0+255)
  6754  0C88  160A  118A  27B2  120A  158A  	fcall	_strnicmp
  6755  0C8D  1283               	bcf	3,5	;RP0=0, select bank0
  6756  0C8E  1303               	bcf	3,6	;RP1=0, select bank0
  6757  0C8F  0823               	movf	?_strnicmp+1,w
  6758  0C90  0422               	iorwf	?_strnicmp,w
  6759  0C91  1D03               	skipz
  6760  0C92  2D0A               	goto	l3625
  6761                           
  6762                           ;MobileAdv.c: 336: {
  6763                           ;MobileAdv.c: 339: if(strrichr(sim300_buffer,'X') != (0))
  6764  0C93  3058               	movlw	88
  6765  0C94  00A2               	movwf	strrichr@chr
  6766  0C95  3000               	movlw	0
  6767  0C96  00A3               	movwf	strrichr@chr+1
  6768  0C97  3090               	movlw	_sim300_buffer& (0+255)
  6769  0C98  120A  158A  2144  120A  158A  	fcall	_strrichr
  6770  0C9D  3A00               	xorlw	0
  6771  0C9E  1903               	skipnz
  6772  0C9F  2D01               	goto	l166
  6773                           
  6774                           ;MobileAdv.c: 340: {
  6775                           ;MobileAdv.c: 341: if(RING_COUNT == REQUIRED_RING_COUNT)
  6776  0CA0  1683               	bsf	3,5	;RP0=1, select bank1
  6777  0CA1  1303               	bcf	3,6	;RP1=0, select bank1
  6778  0CA2  086C               	movf	_RING_COUNT^(0+128),w
  6779  0CA3  0620               	xorwf	_REQUIRED_RING_COUNT^(0+128),w
  6780  0CA4  1D03               	skipz
  6781  0CA5  2CF3               	goto	l3609
  6782                           
  6783                           ;MobileAdv.c: 342: {
  6784                           ;MobileAdv.c: 344: char *start;
  6785                           ;MobileAdv.c: 345: start = strichr(sim300_buffer+10,'"');
  6786  0CA6  3022               	movlw	34
  6787  0CA7  1283               	bcf	3,5	;RP0=0, select bank0
  6788  0CA8  1303               	bcf	3,6	;RP1=0, select bank0
  6789  0CA9  00A2               	movwf	strichr@chr
  6790  0CAA  3000               	movlw	0
  6791  0CAB  00A3               	movwf	strichr@chr+1
  6792  0CAC  309A               	movlw	(_sim300_buffer+10)& (0+255)
  6793  0CAD  160A  118A  2601  120A  158A  	fcall	_strichr
  6794  0CB2  1283               	bcf	3,5	;RP0=0, select bank0
  6795  0CB3  1303               	bcf	3,6	;RP1=0, select bank0
  6796  0CB4  00AA               	movwf	??_SIM300WaitForValidCall
  6797  0CB5  082A               	movf	??_SIM300WaitForValidCall,w
  6798  0CB6  00AC               	movwf	SIM300WaitForValidCall@start
  6799                           
  6800                           ;MobileAdv.c: 346: start++;
  6801  0CB7  3001               	movlw	1
  6802  0CB8  00AA               	movwf	??_SIM300WaitForValidCall
  6803  0CB9  082A               	movf	??_SIM300WaitForValidCall,w
  6804  0CBA  07AC               	addwf	SIM300WaitForValidCall@start,f
  6805                           
  6806                           ;MobileAdv.c: 347: char i = 3;
  6807  0CBB  3003               	movlw	3
  6808  0CBC  00AA               	movwf	??_SIM300WaitForValidCall
  6809  0CBD  082A               	movf	??_SIM300WaitForValidCall,w
  6810  0CBE  00AD               	movwf	SIM300WaitForValidCall@i
  6811  0CBF                     l3589:	
  6812                           ;MobileAdv.c: 348: while(*start != '"')
  6813                           
  6814  0CBF  082C               	movf	SIM300WaitForValidCall@start,w
  6815  0CC0  0084               	movwf	4
  6816  0CC1  1783               	bsf	3,7	;select IRP bank2
  6817  0CC2  0800               	movf	0,w
  6818  0CC3  3A22               	xorlw	34
  6819  0CC4  1903               	btfsc	3,2
  6820  0CC5  2CDA               	goto	l3591
  6821                           
  6822                           ;MobileAdv.c: 349: {
  6823                           ;MobileAdv.c: 350: phone_number[i] = *start;
  6824  0CC6  082C               	movf	SIM300WaitForValidCall@start,w
  6825  0CC7  0084               	movwf	4
  6826  0CC8  1783               	bsf	3,7	;select IRP bank2
  6827  0CC9  0800               	movf	0,w
  6828  0CCA  00AA               	movwf	??_SIM300WaitForValidCall
  6829  0CCB  082D               	movf	SIM300WaitForValidCall@i,w
  6830  0CCC  3EA1               	addlw	_phone_number& (0+255)
  6831  0CCD  0084               	movwf	4
  6832  0CCE  082A               	movf	??_SIM300WaitForValidCall,w
  6833  0CCF  1383               	bcf	3,7	;select IRP bank1
  6834  0CD0  0080               	movwf	0
  6835                           
  6836                           ;MobileAdv.c: 351: start++;
  6837  0CD1  3001               	movlw	1
  6838  0CD2  00AA               	movwf	??_SIM300WaitForValidCall
  6839  0CD3  082A               	movf	??_SIM300WaitForValidCall,w
  6840  0CD4  07AC               	addwf	SIM300WaitForValidCall@start,f
  6841                           
  6842                           ;MobileAdv.c: 352: i++;
  6843  0CD5  3001               	movlw	1
  6844  0CD6  00AA               	movwf	??_SIM300WaitForValidCall
  6845  0CD7  082A               	movf	??_SIM300WaitForValidCall,w
  6846  0CD8  07AD               	addwf	SIM300WaitForValidCall@i,f
  6847  0CD9  2CBF               	goto	l3589
  6848  0CDA                     l3591:	
  6849                           
  6850                           ;MobileAdv.c: 353: }
  6851                           ;MobileAdv.c: 354: phone_number[i] = ';';
  6852  0CDA  303B               	movlw	59
  6853  0CDB  00AA               	movwf	??_SIM300WaitForValidCall
  6854  0CDC  082D               	movf	SIM300WaitForValidCall@i,w
  6855  0CDD  3EA1               	addlw	_phone_number& (0+255)
  6856  0CDE  0084               	movwf	4
  6857  0CDF  082A               	movf	??_SIM300WaitForValidCall,w
  6858  0CE0  1383               	bcf	3,7	;select IRP bank1
  6859  0CE1  0080               	movwf	0
  6860                           
  6861                           ;MobileAdv.c: 355: i++;
  6862  0CE2  3001               	movlw	1
  6863  0CE3  00AA               	movwf	??_SIM300WaitForValidCall
  6864  0CE4  082A               	movf	??_SIM300WaitForValidCall,w
  6865  0CE5  07AD               	addwf	SIM300WaitForValidCall@i,f
  6866                           
  6867                           ;MobileAdv.c: 356: phone_number[i] = '\0';
  6868  0CE6  082D               	movf	SIM300WaitForValidCall@i,w
  6869  0CE7  3EA1               	addlw	_phone_number& (0+255)
  6870  0CE8  0084               	movwf	4
  6871  0CE9  0180               	clrf	0
  6872                           
  6873                           ;MobileAdv.c: 357: RING_COUNT = 0;
  6874  0CEA  1683               	bsf	3,5	;RP0=1, select bank1
  6875  0CEB  1303               	bcf	3,6	;RP1=0, select bank1
  6876  0CEC  01EC               	clrf	_RING_COUNT^(0+128)
  6877                           
  6878                           ;MobileAdv.c: 358: Timer = 0;
  6879  0CED  01ED               	clrf	_Timer^(0+128)
  6880                           
  6881                           ;MobileAdv.c: 360: USARTFlushBuffer();
  6882  0CEE  160A  118A  23E8   	fcall	_USARTFlushBuffer
  6883                           
  6884                           ;MobileAdv.c: 361: return 1;
  6885  0CF1  3001               	movlw	1
  6886                           
  6887                           ;MobileAdv.c: 362: }
  6888  0CF2  0008               	return
  6889  0CF3                     l3609:	
  6890                           
  6891                           ;MobileAdv.c: 363: else
  6892                           ;MobileAdv.c: 364: {
  6893                           ;MobileAdv.c: 365: RING_COUNT++;
  6894  0CF3  3001               	movlw	1
  6895  0CF4  1283               	bcf	3,5	;RP0=0, select bank0
  6896  0CF5  1303               	bcf	3,6	;RP1=0, select bank0
  6897  0CF6  00AA               	movwf	??_SIM300WaitForValidCall
  6898  0CF7  082A               	movf	??_SIM300WaitForValidCall,w
  6899  0CF8  1683               	bsf	3,5	;RP0=1, select bank1
  6900  0CF9  1303               	bcf	3,6	;RP1=0, select bank1
  6901  0CFA  07EC               	addwf	_RING_COUNT^(0+128),f
  6902                           
  6903                           ;MobileAdv.c: 366: Timer = 0;
  6904  0CFB  01ED               	clrf	_Timer^(0+128)
  6905                           
  6906                           ;MobileAdv.c: 368: USARTFlushBuffer();
  6907  0CFC  160A  118A  23E8   	fcall	_USARTFlushBuffer
  6908                           
  6909                           ;MobileAdv.c: 369: return -2;
  6910  0CFF  30FE               	movlw	-2
  6911                           
  6912                           ;MobileAdv.c: 370: }
  6913                           ;MobileAdv.c: 371: }
  6914  0D00  0008               	return
  6915  0D01                     l166:	
  6916                           
  6917                           ;MobileAdv.c: 372: else
  6918                           ;MobileAdv.c: 373: {
  6919                           ;MobileAdv.c: 374: WRONG_NUMBER = 1;
  6920  0D01  1683               	bsf	3,5	;RP0=1, select bank1
  6921  0D02  1303               	bcf	3,6	;RP1=0, select bank1
  6922  0D03  01EE               	clrf	_WRONG_NUMBER^(0+128)
  6923  0D04  0AEE               	incf	_WRONG_NUMBER^(0+128),f
  6924                           
  6925                           ;MobileAdv.c: 376: USARTFlushBuffer();
  6926  0D05  160A  118A  23E8   	fcall	_USARTFlushBuffer
  6927                           
  6928                           ;MobileAdv.c: 377: return -2;
  6929  0D08  30FE               	movlw	-2
  6930                           
  6931                           ;MobileAdv.c: 378: }
  6932                           ;MobileAdv.c: 379: }
  6933  0D09  0008               	return
  6934  0D0A                     l3625:	
  6935                           
  6936                           ;MobileAdv.c: 381: else
  6937                           ;MobileAdv.c: 382: {
  6938                           ;MobileAdv.c: 385: return -2;
  6939  0D0A  30FE               	movlw	-2
  6940  0D0B  0008               	return
  6941  0D0C                     __end_of_SIM300WaitForValidCall:	
  6942                           
  6943                           	psect	text23
  6944  0944                     __ptext23:	
  6945 ;; *************** function _strrichr *****************
  6946 ;; Defined at:
  6947 ;;		line 5 in file "C:\Program Files (x86)\Microchip\xc8\v1.32\sources\common\strrichr.c"
  6948 ;; Parameters:    Size  Location     Type
  6949 ;;  ptr             1    wreg     PTR const unsigned char 
  6950 ;;		 -> sim300_buffer(70), 
  6951 ;;  chr             2    2[BANK0 ] int 
  6952 ;; Auto vars:     Size  Location     Type
  6953 ;;  ptr             1    7[BANK0 ] PTR const unsigned char 
  6954 ;;		 -> sim300_buffer(70), 
  6955 ;;  cp              1    6[BANK0 ] PTR const unsigned char 
  6956 ;;		 -> sim300_buffer(70), 
  6957 ;; Return value:  Size  Location     Type
  6958 ;;                  1    wreg      PTR unsigned char 
  6959 ;; Registers used:
  6960 ;;		wreg, fsr0l, fsr0h, status,2, status,0, pclath, cstack
  6961 ;; Tracked objects:
  6962 ;;		On entry : 0/0
  6963 ;;		On exit  : 0/0
  6964 ;;		Unchanged: 0/0
  6965 ;; Data sizes:     COMMON   BANK0   BANK1   BANK3   BANK2
  6966 ;;      Params:         0       2       0       0       0
  6967 ;;      Locals:         0       2       0       0       0
  6968 ;;      Temps:          0       2       0       0       0
  6969 ;;      Totals:         0       6       0       0       0
  6970 ;;Total ram usage:        6 bytes
  6971 ;; Hardware stack levels used:    1
  6972 ;; Hardware stack levels required when called:    3
  6973 ;; This function calls:
  6974 ;;		_toupper
  6975 ;; This function is called by:
  6976 ;;		_SIM300WaitForValidCall
  6977 ;;		_SIM300ReadValidMsg
  6978 ;; This function uses a non-reentrant model
  6979 ;;
  6980                           
  6981                           
  6982                           ;psect for function _strrichr
  6983  0944                     _strrichr:	
  6984                           
  6985                           ;incstack = 0
  6986                           ; Regs used in _strrichr: [wreg-fsr0h+status,2+status,0+pclath+cstack]
  6987                           ;strrichr@ptr stored from wreg
  6988  0944  1283               	bcf	3,5	;RP0=0, select bank0
  6989  0945  1303               	bcf	3,6	;RP1=0, select bank0
  6990  0946  00A7               	movwf	strrichr@ptr
  6991  0947  0827               	movf	strrichr@ptr,w
  6992  0948  00A4               	movwf	??_strrichr
  6993  0949  0824               	movf	??_strrichr,w
  6994  094A  00A6               	movwf	strrichr@cp
  6995  094B                     l2801:	
  6996  094B  0827               	movf	strrichr@ptr,w
  6997  094C  0084               	movwf	4
  6998  094D  1783               	bsf	3,7	;select IRP bank2
  6999  094E  0880               	movf	0,f
  7000  094F  1903               	btfsc	3,2
  7001  0950  2956               	goto	l2803
  7002  0951  3001               	movlw	1
  7003  0952  00A4               	movwf	??_strrichr
  7004  0953  0824               	movf	??_strrichr,w
  7005  0954  07A7               	addwf	strrichr@ptr,f
  7006  0955  294B               	goto	l2801
  7007  0956                     l2803:	
  7008  0956  0822               	movf	strrichr@chr,w
  7009  0957  160A  118A  2406  120A  158A  	fcall	_toupper
  7010  095C  1283               	bcf	3,5	;RP0=0, select bank0
  7011  095D  1303               	bcf	3,6	;RP1=0, select bank0
  7012  095E  00A4               	movwf	??_strrichr
  7013  095F  01A5               	clrf	??_strrichr+1
  7014  0960  0824               	movf	??_strrichr,w
  7015  0961  00A2               	movwf	strrichr@chr
  7016  0962  0825               	movf	??_strrichr+1,w
  7017  0963  00A3               	movwf	strrichr@chr+1
  7018  0964                     l2813:	
  7019  0964  0827               	movf	strrichr@ptr,w
  7020  0965  0626               	xorwf	strrichr@cp,w
  7021  0966  1903               	btfsc	3,2
  7022  0967  297A               	goto	l2815
  7023  0968  3001               	movlw	1
  7024  0969  02A7               	subwf	strrichr@ptr,f
  7025  096A  0827               	movf	strrichr@ptr,w
  7026  096B  0084               	movwf	4
  7027  096C  1783               	bsf	3,7	;select IRP bank2
  7028  096D  0800               	movf	0,w
  7029  096E  160A  118A  2406  120A  158A  	fcall	_toupper
  7030  0973  1283               	bcf	3,5	;RP0=0, select bank0
  7031  0974  1303               	bcf	3,6	;RP1=0, select bank0
  7032  0975  0622               	xorwf	strrichr@chr,w
  7033  0976  1D03               	skipz
  7034  0977  2964               	goto	l2813
  7035  0978  0827               	movf	strrichr@ptr,w
  7036  0979  0008               	return
  7037  097A                     l2815:	
  7038  097A  3000               	movlw	0
  7039  097B  0008               	return
  7040  097C                     __end_of_strrichr:	
  7041                           
  7042                           	psect	text24
  7043  17B2                     __ptext24:	
  7044 ;; *************** function _strnicmp *****************
  7045 ;; Defined at:
  7046 ;;		line 5 in file "C:\Program Files (x86)\Microchip\xc8\v1.32\sources\common\strnicmp.c"
  7047 ;; Parameters:    Size  Location     Type
  7048 ;;  s1              1    wreg     PTR const unsigned char 
  7049 ;;		 -> sim300_buffer(70), 
  7050 ;;  s2              2    2[BANK0 ] PTR const unsigned char 
  7051 ;;		 -> STR_46(6), STR_42(7), STR_41(3), STR_19(7), 
  7052 ;;  len             2    4[BANK0 ] unsigned int 
  7053 ;; Auto vars:     Size  Location     Type
  7054 ;;  s1              1    9[BANK0 ] PTR const unsigned char 
  7055 ;;		 -> sim300_buffer(70), 
  7056 ;;  r               1    8[BANK0 ] char 
  7057 ;; Return value:  Size  Location     Type
  7058 ;;                  2    2[BANK0 ] int 
  7059 ;; Registers used:
  7060 ;;		wreg, fsr0l, fsr0h, status,2, status,0, btemp+1, pclath, cstack
  7061 ;; Tracked objects:
  7062 ;;		On entry : 0/0
  7063 ;;		On exit  : 0/0
  7064 ;;		Unchanged: 0/0
  7065 ;; Data sizes:     COMMON   BANK0   BANK1   BANK3   BANK2
  7066 ;;      Params:         0       4       0       0       0
  7067 ;;      Locals:         0       2       0       0       0
  7068 ;;      Temps:          0       2       0       0       0
  7069 ;;      Totals:         0       8       0       0       0
  7070 ;;Total ram usage:        8 bytes
  7071 ;; Hardware stack levels used:    1
  7072 ;; Hardware stack levels required when called:    3
  7073 ;; This function calls:
  7074 ;;		_toupper
  7075 ;; This function is called by:
  7076 ;;		_SIM300WaitForValidCall
  7077 ;;		_SIM300DeleteMsg
  7078 ;;		_SIM300WaitForValidMsg
  7079 ;;		_SIM300SendMsg
  7080 ;; This function uses a non-reentrant model
  7081 ;;
  7082                           
  7083                           
  7084                           ;psect for function _strnicmp
  7085  17B2                     _strnicmp:	
  7086                           
  7087                           ;incstack = 0
  7088                           ; Regs used in _strnicmp: [wreg-fsr0h+status,2+status,0+btemp+1+pclath+cstack]
  7089                           ;strnicmp@s1 stored from wreg
  7090  17B2  1283               	bcf	3,5	;RP0=0, select bank0
  7091  17B3  1303               	bcf	3,6	;RP1=0, select bank0
  7092  17B4  00A9               	movwf	strnicmp@s1
  7093  17B5                     l2791:	
  7094  17B5  3001               	movlw	1
  7095  17B6  02A4               	subwf	strnicmp@len,f
  7096  17B7  3000               	movlw	0
  7097  17B8  1C03               	skipc
  7098  17B9  03A5               	decf	strnicmp@len+1,f
  7099  17BA  02A5               	subwf	strnicmp@len+1,f
  7100  17BB  30FF               	movlw	255
  7101  17BC  0625               	xorwf	strnicmp@len+1,w
  7102  17BD  1D03               	skipz
  7103  17BE  2FC1               	goto	u2135
  7104  17BF  30FF               	movlw	255
  7105  17C0  0624               	xorwf	strnicmp@len,w
  7106  17C1                     u2135:	
  7107  17C1  1903               	btfsc	3,2
  7108  17C2  2FFD               	goto	l2793
  7109  17C3  0823               	movf	strnicmp@s2+1,w
  7110  17C4  00FF               	movwf	127
  7111  17C5  0822               	movf	strnicmp@s2,w
  7112  17C6  0084               	movwf	4
  7113  17C7  120A  158A  2000  160A  118A  	fcall	stringtab
  7114  17CC  160A  118A  2406  160A  118A  	fcall	_toupper
  7115  17D1  3AFF               	xorlw	255
  7116  17D2  3E01               	addlw	1
  7117  17D3  1283               	bcf	3,5	;RP0=0, select bank0
  7118  17D4  1303               	bcf	3,6	;RP1=0, select bank0
  7119  17D5  00A6               	movwf	??_strnicmp
  7120  17D6  0829               	movf	strnicmp@s1,w
  7121  17D7  0084               	movwf	4
  7122  17D8  1783               	bsf	3,7	;select IRP bank2
  7123  17D9  0800               	movf	0,w
  7124  17DA  160A  118A  2406  160A  118A  	fcall	_toupper
  7125  17DF  1283               	bcf	3,5	;RP0=0, select bank0
  7126  17E0  1303               	bcf	3,6	;RP1=0, select bank0
  7127  17E1  0726               	addwf	??_strnicmp,w
  7128  17E2  00A7               	movwf	??_strnicmp+1
  7129  17E3  0827               	movf	??_strnicmp+1,w
  7130  17E4  00A8               	movwf	strnicmp@r
  7131  17E5  08A8               	movf	strnicmp@r,f
  7132  17E6  1D03               	skipz
  7133  17E7  2FEE               	goto	l2783
  7134  17E8  0829               	movf	strnicmp@s1,w
  7135  17E9  0084               	movwf	4
  7136  17EA  1783               	bsf	3,7	;select IRP bank2
  7137  17EB  0880               	movf	0,f
  7138  17EC  1D03               	skipz
  7139  17ED  2FF4               	goto	l2787
  7140  17EE                     l2783:	
  7141  17EE  0828               	movf	strnicmp@r,w
  7142  17EF  00A2               	movwf	?_strnicmp
  7143  17F0  01A3               	clrf	?_strnicmp+1
  7144  17F1  1BA2               	btfsc	?_strnicmp,7
  7145  17F2  03A3               	decf	?_strnicmp+1,f
  7146  17F3  0008               	return
  7147  17F4                     l2787:	
  7148  17F4  3001               	movlw	1
  7149  17F5  00A6               	movwf	??_strnicmp
  7150  17F6  0826               	movf	??_strnicmp,w
  7151  17F7  07A9               	addwf	strnicmp@s1,f
  7152  17F8  3001               	movlw	1
  7153  17F9  07A2               	addwf	strnicmp@s2,f
  7154  17FA  1803               	skipnc
  7155  17FB  0AA3               	incf	strnicmp@s2+1,f
  7156  17FC  2FB5               	goto	l2791
  7157  17FD                     l2793:	
  7158  17FD  01A2               	clrf	?_strnicmp
  7159  17FE  01A3               	clrf	?_strnicmp+1
  7160  17FF  0008               	return
  7161  1800                     __end_of_strnicmp:	
  7162                           
  7163                           	psect	text25
  7164  1601                     __ptext25:	
  7165 ;; *************** function _strichr *****************
  7166 ;; Defined at:
  7167 ;;		line 5 in file "C:\Program Files (x86)\Microchip\xc8\v1.32\sources\common\strichr.c"
  7168 ;; Parameters:    Size  Location     Type
  7169 ;;  ptr             1    wreg     PTR const unsigned char 
  7170 ;;		 -> sim300_buffer(70), 
  7171 ;;  chr             2    2[BANK0 ] int 
  7172 ;; Auto vars:     Size  Location     Type
  7173 ;;  ptr             1    6[BANK0 ] PTR const unsigned char 
  7174 ;;		 -> sim300_buffer(70), 
  7175 ;; Return value:  Size  Location     Type
  7176 ;;                  1    wreg      PTR unsigned char 
  7177 ;; Registers used:
  7178 ;;		wreg, fsr0l, fsr0h, status,2, status,0, pclath, cstack
  7179 ;; Tracked objects:
  7180 ;;		On entry : 0/0
  7181 ;;		On exit  : 0/0
  7182 ;;		Unchanged: 0/0
  7183 ;; Data sizes:     COMMON   BANK0   BANK1   BANK3   BANK2
  7184 ;;      Params:         0       2       0       0       0
  7185 ;;      Locals:         0       1       0       0       0
  7186 ;;      Temps:          0       2       0       0       0
  7187 ;;      Totals:         0       5       0       0       0
  7188 ;;Total ram usage:        5 bytes
  7189 ;; Hardware stack levels used:    1
  7190 ;; Hardware stack levels required when called:    3
  7191 ;; This function calls:
  7192 ;;		_toupper
  7193 ;; This function is called by:
  7194 ;;		_SIM300WaitForValidCall
  7195 ;;		_SIM300ReadValidMsg
  7196 ;; This function uses a non-reentrant model
  7197 ;;
  7198                           
  7199                           
  7200                           ;psect for function _strichr
  7201  1601                     _strichr:	
  7202                           
  7203                           ;incstack = 0
  7204                           ; Regs used in _strichr: [wreg-fsr0h+status,2+status,0+pclath+cstack]
  7205                           ;strichr@ptr stored from wreg
  7206  1601  1283               	bcf	3,5	;RP0=0, select bank0
  7207  1602  1303               	bcf	3,6	;RP1=0, select bank0
  7208  1603  00A6               	movwf	strichr@ptr
  7209  1604  0822               	movf	strichr@chr,w
  7210  1605  160A  118A  2406  160A  118A  	fcall	_toupper
  7211  160A  1283               	bcf	3,5	;RP0=0, select bank0
  7212  160B  1303               	bcf	3,6	;RP1=0, select bank0
  7213  160C  00A4               	movwf	??_strichr
  7214  160D  01A5               	clrf	??_strichr+1
  7215  160E  0824               	movf	??_strichr,w
  7216  160F  00A2               	movwf	strichr@chr
  7217  1610  0825               	movf	??_strichr+1,w
  7218  1611  00A3               	movwf	strichr@chr+1
  7219  1612                     l2829:	
  7220  1612  0826               	movf	strichr@ptr,w
  7221  1613  0084               	movwf	4
  7222  1614  1783               	bsf	3,7	;select IRP bank2
  7223  1615  0880               	movf	0,f
  7224  1616  1903               	btfsc	3,2
  7225  1617  2E2D               	goto	l2831
  7226  1618  0826               	movf	strichr@ptr,w
  7227  1619  0084               	movwf	4
  7228  161A  1783               	bsf	3,7	;select IRP bank2
  7229  161B  0800               	movf	0,w
  7230  161C  160A  118A  2406  160A  118A  	fcall	_toupper
  7231  1621  1283               	bcf	3,5	;RP0=0, select bank0
  7232  1622  1303               	bcf	3,6	;RP1=0, select bank0
  7233  1623  0622               	xorwf	strichr@chr,w
  7234  1624  1D03               	skipz
  7235  1625  2E28               	goto	l2827
  7236  1626  0826               	movf	strichr@ptr,w
  7237  1627  0008               	return
  7238  1628                     l2827:	
  7239  1628  3001               	movlw	1
  7240  1629  00A4               	movwf	??_strichr
  7241  162A  0824               	movf	??_strichr,w
  7242  162B  07A6               	addwf	strichr@ptr,f
  7243  162C  2E12               	goto	l2829
  7244  162D                     l2831:	
  7245  162D  3000               	movlw	0
  7246  162E  0008               	return
  7247  162F                     __end_of_strichr:	
  7248                           
  7249                           	psect	text26
  7250  1406                     __ptext26:	
  7251 ;; *************** function _toupper *****************
  7252 ;; Defined at:
  7253 ;;		line 5 in file "C:\Program Files (x86)\Microchip\xc8\v1.32\sources\common\toupper.c"
  7254 ;; Parameters:    Size  Location     Type
  7255 ;;  c               1    wreg     unsigned char 
  7256 ;; Auto vars:     Size  Location     Type
  7257 ;;  c               1    1[BANK0 ] unsigned char 
  7258 ;; Return value:  Size  Location     Type
  7259 ;;                  1    wreg      unsigned char 
  7260 ;; Registers used:
  7261 ;;		wreg, status,2, status,0
  7262 ;; Tracked objects:
  7263 ;;		On entry : 0/0
  7264 ;;		On exit  : 0/0
  7265 ;;		Unchanged: 0/0
  7266 ;; Data sizes:     COMMON   BANK0   BANK1   BANK3   BANK2
  7267 ;;      Params:         0       0       0       0       0
  7268 ;;      Locals:         0       1       0       0       0
  7269 ;;      Temps:          0       1       0       0       0
  7270 ;;      Totals:         0       2       0       0       0
  7271 ;;Total ram usage:        2 bytes
  7272 ;; Hardware stack levels used:    1
  7273 ;; Hardware stack levels required when called:    2
  7274 ;; This function calls:
  7275 ;;		Nothing
  7276 ;; This function is called by:
  7277 ;;		_strichr
  7278 ;;		_strnicmp
  7279 ;;		_strrichr
  7280 ;; This function uses a non-reentrant model
  7281 ;;
  7282                           
  7283                           
  7284                           ;psect for function _toupper
  7285  1406                     _toupper:	
  7286                           
  7287                           ;incstack = 0
  7288                           ; Regs used in _toupper: [wreg+status,2+status,0]
  7289                           ;toupper@c stored from wreg
  7290  1406  1283               	bcf	3,5	;RP0=0, select bank0
  7291  1407  1303               	bcf	3,6	;RP1=0, select bank0
  7292  1408  00A1               	movwf	toupper@c
  7293  1409  307B               	movlw	123
  7294  140A  0221               	subwf	toupper@c,w
  7295  140B  1803               	skipnc
  7296  140C  2C15               	goto	l2719
  7297  140D  3061               	movlw	97
  7298  140E  0221               	subwf	toupper@c,w
  7299  140F  1C03               	skipc
  7300  1410  2C15               	goto	l2719
  7301  1411  30DF               	movlw	223
  7302  1412  00A0               	movwf	??_toupper
  7303  1413  0820               	movf	??_toupper,w
  7304  1414  05A1               	andwf	toupper@c,f
  7305  1415                     l2719:	
  7306  1415  0821               	movf	toupper@c,w
  7307  1416  0008               	return
  7308  1417                     __end_of_toupper:	
  7309                           
  7310                           	psect	text27
  7311  0A23                     __ptext27:	
  7312 ;; *************** function _SIM300RingResponse *****************
  7313 ;; Defined at:
  7314 ;;		line 190 in file "E:\Study Material\XC8 PROJECTS\Aurangabad\sim300.c"
  7315 ;; Parameters:    Size  Location     Type
  7316 ;;  timeout         2    2[BANK0 ] unsigned int 
  7317 ;; Auto vars:     Size  Location     Type
  7318 ;;  n               2    5[BANK0 ] unsigned int 
  7319 ;;  i               1    7[BANK0 ] char 
  7320 ;; Return value:  Size  Location     Type
  7321 ;;                  1    wreg      char 
  7322 ;; Registers used:
  7323 ;;		wreg, fsr0l, fsr0h, status,2, status,0, pclath, cstack
  7324 ;; Tracked objects:
  7325 ;;		On entry : 0/0
  7326 ;;		On exit  : 0/0
  7327 ;;		Unchanged: 0/0
  7328 ;; Data sizes:     COMMON   BANK0   BANK1   BANK3   BANK2
  7329 ;;      Params:         0       2       0       0       0
  7330 ;;      Locals:         0       3       0       0       0
  7331 ;;      Temps:          0       1       0       0       0
  7332 ;;      Totals:         0       6       0       0       0
  7333 ;;Total ram usage:        6 bytes
  7334 ;; Hardware stack levels used:    1
  7335 ;; Hardware stack levels required when called:    4
  7336 ;; This function calls:
  7337 ;;		_USARTDataAvailable
  7338 ;;		_USARTFlushBuffer
  7339 ;;		_USARTReadData
  7340 ;; This function is called by:
  7341 ;;		_SIM300WaitForValidCall
  7342 ;; This function uses a non-reentrant model
  7343 ;;
  7344                           
  7345                           
  7346                           ;psect for function _SIM300RingResponse
  7347  0A23                     _SIM300RingResponse:	
  7348                           
  7349                           ;sim300.c: 192: int8_t i=0;
  7350                           
  7351                           ;incstack = 0
  7352                           ; Regs used in _SIM300RingResponse: [wreg-fsr0h+status,2+status,0+pclath+cstack]
  7353  0A23  1283               	bcf	3,5	;RP0=0, select bank0
  7354  0A24  1303               	bcf	3,6	;RP1=0, select bank0
  7355  0A25  01A7               	clrf	SIM300RingResponse@i
  7356                           
  7357                           ;sim300.c: 193: uint16_t n=0;
  7358  0A26  01A5               	clrf	SIM300RingResponse@n
  7359  0A27  01A6               	clrf	SIM300RingResponse@n+1
  7360                           
  7361                           ;sim300.c: 196: {
  7362                           ;sim300.c: 198: while (USARTDataAvailable()==0 && n<timeout)
  7363                           
  7364                           ;sim300.c: 195: while(1)
  7365  0A28  2A36               	goto	l3173
  7366  0A29                     l3171:	
  7367                           
  7368                           ;sim300.c: 199: {
  7369                           ;sim300.c: 200: n++;
  7370  0A29  3001               	movlw	1
  7371  0A2A  07A5               	addwf	SIM300RingResponse@n,f
  7372  0A2B  1803               	skipnc
  7373  0A2C  0AA6               	incf	SIM300RingResponse@n+1,f
  7374  0A2D  3000               	movlw	0
  7375  0A2E  07A6               	addwf	SIM300RingResponse@n+1,f
  7376                           
  7377                           ;sim300.c: 201: _delay((unsigned long)((1)*(4000000/4000.0)));
  7378  0A2F  30F9               	movlw	249
  7379  0A30  00A4               	movwf	??_SIM300RingResponse
  7380  0A31                     u4087:	
  7381  0A31  0000               	nop
  7382  0A32  0BA4               	decfsz	??_SIM300RingResponse,f
  7383  0A33  2A31               	goto	u4087
  7384  0A34  2A35               	nop2	;nop
  7385  0A35  0000               	nop
  7386  0A36                     l3173:	
  7387  0A36  160A  118A  24A8  120A  158A  	fcall	_USARTDataAvailable
  7388  0A3B  3800               	iorlw	0
  7389  0A3C  1D03               	skipz
  7390  0A3D  2A48               	goto	l3177
  7391  0A3E  1283               	bcf	3,5	;RP0=0, select bank0
  7392  0A3F  1303               	bcf	3,6	;RP1=0, select bank0
  7393  0A40  0823               	movf	SIM300RingResponse@timeout+1,w
  7394  0A41  0226               	subwf	SIM300RingResponse@n+1,w
  7395  0A42  1D03               	skipz
  7396  0A43  2A46               	goto	u2605
  7397  0A44  0822               	movf	SIM300RingResponse@timeout,w
  7398  0A45  0225               	subwf	SIM300RingResponse@n,w
  7399  0A46                     u2605:	
  7400  0A46  1C03               	skipc
  7401  0A47  2A29               	goto	l3171
  7402  0A48                     l3177:	
  7403                           
  7404                           ;sim300.c: 203: }
  7405                           ;sim300.c: 205: if(n==timeout)
  7406  0A48  1283               	bcf	3,5	;RP0=0, select bank0
  7407  0A49  1303               	bcf	3,6	;RP1=0, select bank0
  7408  0A4A  0823               	movf	SIM300RingResponse@timeout+1,w
  7409  0A4B  0626               	xorwf	SIM300RingResponse@n+1,w
  7410  0A4C  1D03               	skipz
  7411  0A4D  2A50               	goto	u2615
  7412  0A4E  0822               	movf	SIM300RingResponse@timeout,w
  7413  0A4F  0625               	xorwf	SIM300RingResponse@n,w
  7414  0A50                     u2615:	
  7415  0A50  1D03               	skipz
  7416  0A51  2A54               	goto	l3185
  7417                           
  7418                           ;sim300.c: 206: {
  7419                           ;sim300.c: 208: return 0;
  7420  0A52  3000               	movlw	0
  7421  0A53  0008               	return
  7422  0A54                     l3185:	
  7423                           ;sim300.c: 209: }
  7424                           
  7425                           
  7426                           ;sim300.c: 210: else
  7427                           ;sim300.c: 211: {
  7428                           ;sim300.c: 213: sim300_buffer[i]=USARTReadData();
  7429  0A54  160A  118A  24CC  120A  158A  	fcall	_USARTReadData
  7430  0A59  1283               	bcf	3,5	;RP0=0, select bank0
  7431  0A5A  1303               	bcf	3,6	;RP1=0, select bank0
  7432  0A5B  00A4               	movwf	??_SIM300RingResponse
  7433  0A5C  0827               	movf	SIM300RingResponse@i,w
  7434  0A5D  3E90               	addlw	_sim300_buffer& (0+255)
  7435  0A5E  0084               	movwf	4
  7436  0A5F  0824               	movf	??_SIM300RingResponse,w
  7437  0A60  1783               	bsf	3,7	;select IRP bank3
  7438  0A61  0080               	movwf	0
  7439                           
  7440                           ;sim300.c: 215: if(sim300_buffer[i]==0x0D && i>20)
  7441  0A62  0827               	movf	SIM300RingResponse@i,w
  7442  0A63  3E90               	addlw	_sim300_buffer& (0+255)
  7443  0A64  0084               	movwf	4
  7444  0A65  0800               	movf	0,w
  7445  0A66  3A0D               	xorlw	13
  7446  0A67  1D03               	skipz
  7447  0A68  2A76               	goto	l3199
  7448  0A69  0827               	movf	SIM300RingResponse@i,w
  7449  0A6A  3A80               	xorlw	128
  7450  0A6B  3E6B               	addlw	-149
  7451  0A6C  1C03               	skipc
  7452  0A6D  2A76               	goto	l3199
  7453                           
  7454                           ;sim300.c: 216: {
  7455                           ;sim300.c: 217: USARTFlushBuffer();
  7456  0A6E  160A  118A  23E8   	fcall	_USARTFlushBuffer
  7457                           
  7458                           ;sim300.c: 218: return i+1;
  7459  0A71  1283               	bcf	3,5	;RP0=0, select bank0
  7460  0A72  1303               	bcf	3,6	;RP1=0, select bank0
  7461  0A73  0827               	movf	SIM300RingResponse@i,w
  7462  0A74  3E01               	addlw	1
  7463  0A75  0008               	return
  7464  0A76                     l3199:	
  7465                           ;sim300.c: 219: }
  7466                           
  7467                           
  7468                           ;sim300.c: 220: else
  7469                           ;sim300.c: 221: i++;
  7470  0A76  3001               	movlw	1
  7471  0A77  00A4               	movwf	??_SIM300RingResponse
  7472  0A78  0824               	movf	??_SIM300RingResponse,w
  7473  0A79  07A7               	addwf	SIM300RingResponse@i,f
  7474  0A7A  2A36               	goto	l3173
  7475  0A7B                     __end_of_SIM300RingResponse:	
  7476                           
  7477                           	psect	text28
  7478  13E8                     __ptext28:	
  7479 ;; *************** function _USARTFlushBuffer *****************
  7480 ;; Defined at:
  7481 ;;		line 233 in file "E:\Study Material\XC8 PROJECTS\Aurangabad\usart_pic16.c"
  7482 ;; Parameters:    Size  Location     Type
  7483 ;;		None
  7484 ;; Auto vars:     Size  Location     Type
  7485 ;;		None
  7486 ;; Return value:  Size  Location     Type
  7487 ;;                  2   42[COMMON] int 
  7488 ;; Registers used:
  7489 ;;		wreg, fsr0l, fsr0h, status,2, status,0, pclath, cstack
  7490 ;; Tracked objects:
  7491 ;;		On entry : 0/0
  7492 ;;		On exit  : 0/0
  7493 ;;		Unchanged: 0/0
  7494 ;; Data sizes:     COMMON   BANK0   BANK1   BANK3   BANK2
  7495 ;;      Params:         0       0       0       0       0
  7496 ;;      Locals:         0       0       0       0       0
  7497 ;;      Temps:          0       0       0       0       0
  7498 ;;      Totals:         0       0       0       0       0
  7499 ;;Total ram usage:        0 bytes
  7500 ;; Hardware stack levels used:    1
  7501 ;; Hardware stack levels required when called:    3
  7502 ;; This function calls:
  7503 ;;		_USARTDataAvailable
  7504 ;;		_USARTReadData
  7505 ;; This function is called by:
  7506 ;;		_main
  7507 ;;		_SIM300WaitForValidCall
  7508 ;;		_SMSCommunication
  7509 ;;		_SIM300WaitForResponse
  7510 ;;		_SIM300RingResponse
  7511 ;;		_SIM300DeleteMsg
  7512 ;;		_SIM300WaitForValidMsg
  7513 ;;		_SIM300ReadValidMsg
  7514 ;;		_SIM300SendMsg
  7515 ;; This function uses a non-reentrant model
  7516 ;;
  7517                           
  7518                           
  7519                           ;psect for function _USARTFlushBuffer
  7520  13E8                     _USARTFlushBuffer:	
  7521  13E8                     l2627:	
  7522                           ;usart_pic16.c: 235: while(USARTDataAvailable()>0)
  7523                           
  7524                           ;incstack = 0
  7525                           ; Regs used in _USARTFlushBuffer: [wreg-fsr0h+status,2+status,0+pclath+cstack]
  7526                           
  7527  13E8  160A  118A  24A8  160A  118A  	fcall	_USARTDataAvailable
  7528  13ED  3800               	iorlw	0
  7529  13EE  1903               	btfsc	3,2
  7530  13EF  0008               	return
  7531                           
  7532                           ;usart_pic16.c: 236: {
  7533                           ;usart_pic16.c: 237: USARTReadData();
  7534  13F0  160A  118A  24CC  160A  118A  	fcall	_USARTReadData
  7535  13F5  2BE8               	goto	l2627
  7536  13F6                     __end_of_USARTFlushBuffer:	
  7537                           
  7538                           	psect	text29
  7539  0A7B                     __ptext29:	
  7540 ;; *************** function _SIM300Init *****************
  7541 ;; Defined at:
  7542 ;;		line 59 in file "E:\Study Material\XC8 PROJECTS\Aurangabad\sim300.c"
  7543 ;; Parameters:    Size  Location     Type
  7544 ;;		None
  7545 ;; Auto vars:     Size  Location     Type
  7546 ;;  i               2   22[BANK0 ] unsigned int 
  7547 ;; Return value:  Size  Location     Type
  7548 ;;                  1    wreg      char 
  7549 ;; Registers used:
  7550 ;;		wreg, fsr0l, fsr0h, status,2, status,0, btemp+1, pclath, cstack
  7551 ;; Tracked objects:
  7552 ;;		On entry : 0/0
  7553 ;;		On exit  : 0/0
  7554 ;;		Unchanged: 0/0
  7555 ;; Data sizes:     COMMON   BANK0   BANK1   BANK3   BANK2
  7556 ;;      Params:         0       0       0       0       0
  7557 ;;      Locals:         0       2       0       0       0
  7558 ;;      Temps:          0       2       0       0       0
  7559 ;;      Totals:         0       4       0       0       0
  7560 ;;Total ram usage:        4 bytes
  7561 ;; Hardware stack levels used:    1
  7562 ;; Hardware stack levels required when called:    5
  7563 ;; This function calls:
  7564 ;;		_SIM300CheckResponse
  7565 ;;		_SIM300Cmd
  7566 ;;		_USARTDataAvailable
  7567 ;;		_USARTInit
  7568 ;;		_USARTReadBuffer
  7569 ;; This function is called by:
  7570 ;;		_main
  7571 ;; This function uses a non-reentrant model
  7572 ;;
  7573                           
  7574                           
  7575                           ;psect for function _SIM300Init
  7576  0A7B                     _SIM300Init:	
  7577                           
  7578                           ;sim300.c: 62: USARTInit(9600);
  7579                           
  7580                           ;incstack = 0
  7581                           ; Regs used in _SIM300Init: [wreg-fsr0h+status,2+status,0+btemp+1+pclath+cstack]
  7582  0A7B  3080               	movlw	128
  7583  0A7C  1283               	bcf	3,5	;RP0=0, select bank0
  7584  0A7D  1303               	bcf	3,6	;RP1=0, select bank0
  7585  0A7E  00A0               	movwf	USARTInit@baud_rate
  7586  0A7F  3025               	movlw	37
  7587  0A80  00A1               	movwf	USARTInit@baud_rate+1
  7588  0A81  160A  118A  271D  120A  158A  	fcall	_USARTInit
  7589                           
  7590                           ;sim300.c: 65: SIM300Cmd("AT");
  7591  0A86  303F               	movlw	low (STR_38| (0+32768))
  7592  0A87  1283               	bcf	3,5	;RP0=0, select bank0
  7593  0A88  1303               	bcf	3,6	;RP1=0, select bank0
  7594  0A89  00AD               	movwf	SIM300Cmd@cmd
  7595  0A8A  3089               	movlw	high (STR_38| (0+32768))
  7596  0A8B  00AE               	movwf	SIM300Cmd@cmd+1
  7597  0A8C  120A  158A  23F2  120A  158A  	fcall	_SIM300Cmd
  7598                           
  7599                           ;sim300.c: 68: uint16_t i=0;
  7600  0A91  1283               	bcf	3,5	;RP0=0, select bank0
  7601  0A92  1303               	bcf	3,6	;RP1=0, select bank0
  7602  0A93  01B6               	clrf	SIM300Init@i
  7603  0A94  01B7               	clrf	SIM300Init@i+1
  7604  0A95                     l3371:	
  7605                           ;sim300.c: 74: while(i<10)
  7606                           
  7607  0A95  3000               	movlw	0
  7608  0A96  1283               	bcf	3,5	;RP0=0, select bank0
  7609  0A97  1303               	bcf	3,6	;RP1=0, select bank0
  7610  0A98  0237               	subwf	SIM300Init@i+1,w
  7611  0A99  300A               	movlw	10
  7612  0A9A  1903               	skipnz
  7613  0A9B  0236               	subwf	SIM300Init@i,w
  7614  0A9C  1803               	btfsc	3,0
  7615  0A9D  2AD5               	goto	l3373
  7616                           
  7617                           ;sim300.c: 75: {
  7618                           ;sim300.c: 76: if(USARTDataAvailable()<6)
  7619  0A9E  160A  118A  24A8  120A  158A  	fcall	_USARTDataAvailable
  7620  0AA3  1283               	bcf	3,5	;RP0=0, select bank0
  7621  0AA4  1303               	bcf	3,6	;RP1=0, select bank0
  7622  0AA5  00B4               	movwf	??_SIM300Init
  7623  0AA6  3006               	movlw	6
  7624  0AA7  0234               	subwf	??_SIM300Init,w
  7625  0AA8  1803               	skipnc
  7626  0AA9  2ABA               	goto	l3365
  7627                           
  7628                           ;sim300.c: 77: {
  7629                           ;sim300.c: 78: i++;
  7630  0AAA  3001               	movlw	1
  7631  0AAB  07B6               	addwf	SIM300Init@i,f
  7632  0AAC  1803               	skipnc
  7633  0AAD  0AB7               	incf	SIM300Init@i+1,f
  7634  0AAE  3000               	movlw	0
  7635  0AAF  07B7               	addwf	SIM300Init@i+1,f
  7636                           
  7637                           ;sim300.c: 79: _delay((unsigned long)((10)*(4000000/4000.0)));
  7638  0AB0  300D               	movlw	13
  7639  0AB1  00B5               	movwf	??_SIM300Init+1
  7640  0AB2  30FB               	movlw	251
  7641  0AB3  00B4               	movwf	??_SIM300Init
  7642  0AB4                     u4097:	
  7643  0AB4  0BB4               	decfsz	??_SIM300Init,f
  7644  0AB5  2AB4               	goto	u4097
  7645  0AB6  0BB5               	decfsz	??_SIM300Init+1,f
  7646  0AB7  2AB4               	goto	u4097
  7647  0AB8  2AB9               	nop2
  7648                           
  7649                           ;sim300.c: 81: }
  7650                           
  7651                           ;sim300.c: 80: continue;
  7652  0AB9  2A95               	goto	l3371
  7653  0ABA                     l3365:	
  7654                           
  7655                           ;sim300.c: 82: else
  7656                           ;sim300.c: 83: {
  7657                           ;sim300.c: 86: USARTReadBuffer(sim300_buffer,6);
  7658  0ABA  3006               	movlw	6
  7659  0ABB  1283               	bcf	3,5	;RP0=0, select bank0
  7660  0ABC  1303               	bcf	3,6	;RP1=0, select bank0
  7661  0ABD  00A6               	movwf	USARTReadBuffer@len
  7662  0ABE  3000               	movlw	0
  7663  0ABF  00A7               	movwf	USARTReadBuffer@len+1
  7664  0AC0  3090               	movlw	_sim300_buffer& (0+255)
  7665  0AC1  160A  118A  24F0  120A  158A  	fcall	_USARTReadBuffer
  7666                           
  7667                           ;sim300.c: 88: return SIM300CheckResponse(sim300_buffer,"OK",6);
  7668  0AC6  303C               	movlw	low (STR_39| (0+32768))
  7669  0AC7  1283               	bcf	3,5	;RP0=0, select bank0
  7670  0AC8  1303               	bcf	3,6	;RP1=0, select bank0
  7671  0AC9  00A0               	movwf	SIM300CheckResponse@check
  7672  0ACA  3089               	movlw	high (STR_39| (0+32768))
  7673  0ACB  00A1               	movwf	SIM300CheckResponse@check+1
  7674  0ACC  3006               	movlw	6
  7675  0ACD  00B4               	movwf	??_SIM300Init
  7676  0ACE  0834               	movf	??_SIM300Init,w
  7677  0ACF  00A2               	movwf	SIM300CheckResponse@len
  7678  0AD0  3090               	movlw	_sim300_buffer& (0+255)
  7679  0AD1  120A  158A  22D7   	fcall	_SIM300CheckResponse
  7680  0AD4  0008               	return
  7681  0AD5                     l3373:	
  7682                           
  7683                           ;sim300.c: 89: }
  7684                           ;sim300.c: 90: }
  7685                           ;sim300.c: 95: return -3;
  7686  0AD5  30FD               	movlw	-3
  7687  0AD6  0008               	return
  7688  0AD7                     __end_of_SIM300Init:	
  7689                           
  7690                           	psect	text30
  7691  171D                     __ptext30:	
  7692 ;; *************** function _USARTInit *****************
  7693 ;; Defined at:
  7694 ;;		line 31 in file "E:\Study Material\XC8 PROJECTS\Aurangabad\usart_pic16.c"
  7695 ;; Parameters:    Size  Location     Type
  7696 ;;  baud_rate       2    0[BANK0 ] unsigned int 
  7697 ;; Auto vars:     Size  Location     Type
  7698 ;;		None
  7699 ;; Return value:  Size  Location     Type
  7700 ;;		None               void
  7701 ;; Registers used:
  7702 ;;		wreg, fsr0l, fsr0h, status,2, status,0
  7703 ;; Tracked objects:
  7704 ;;		On entry : 0/0
  7705 ;;		On exit  : 0/0
  7706 ;;		Unchanged: 0/0
  7707 ;; Data sizes:     COMMON   BANK0   BANK1   BANK3   BANK2
  7708 ;;      Params:         0       2       0       0       0
  7709 ;;      Locals:         0       0       0       0       0
  7710 ;;      Temps:          0       1       0       0       0
  7711 ;;      Totals:         0       3       0       0       0
  7712 ;;Total ram usage:        3 bytes
  7713 ;; Hardware stack levels used:    1
  7714 ;; Hardware stack levels required when called:    2
  7715 ;; This function calls:
  7716 ;;		Nothing
  7717 ;; This function is called by:
  7718 ;;		_SIM300Init
  7719 ;; This function uses a non-reentrant model
  7720 ;;
  7721                           
  7722                           
  7723                           ;psect for function _USARTInit
  7724  171D                     _USARTInit:	
  7725                           
  7726                           ;usart_pic16.c: 34: UQFront=UQEnd=-1;
  7727                           
  7728                           ;incstack = 0
  7729                           ; Regs used in _USARTInit: [wreg-fsr0h+status,2+status,0]
  7730  171D  30FF               	movlw	-1
  7731  171E  00F9               	movwf	_UQEnd	;volatile
  7732  171F  1283               	bcf	3,5	;RP0=0, select bank0
  7733  1720  1303               	bcf	3,6	;RP1=0, select bank0
  7734  1721  00A2               	movwf	??_USARTInit
  7735  1722  0822               	movf	??_USARTInit,w
  7736  1723  00FA               	movwf	_UQFront	;volatile
  7737                           
  7738                           ;usart_pic16.c: 37: switch(baud_rate)
  7739  1724  2F30               	goto	l3273
  7740  1725                     l3263:	
  7741                           ;usart_pic16.c: 38: {
  7742                           ;usart_pic16.c: 39: case 9600:
  7743                           
  7744                           
  7745                           ;usart_pic16.c: 40: SPBRG=25;
  7746  1725  3019               	movlw	25
  7747  1726  2F2C               	goto	L4
  7748  1727                     l3265:	
  7749                           ;usart_pic16.c: 42: case 19200:
  7750                           
  7751                           ;usart_pic16.c: 41: break;
  7752                           
  7753                           
  7754                           ;usart_pic16.c: 43: SPBRG=12;
  7755  1727  300C               	movlw	12
  7756  1728  2F2C               	goto	L4
  7757  1729                     l3267:	
  7758                           ;usart_pic16.c: 45: case 28800:
  7759                           
  7760                           ;usart_pic16.c: 44: break;
  7761                           
  7762                           
  7763                           ;usart_pic16.c: 46: SPBRG=8;
  7764  1729  3008               	movlw	8
  7765  172A  2F2C               	goto	L4
  7766  172B                     l3269:	
  7767                           ;usart_pic16.c: 48: case 33600:
  7768                           
  7769                           ;usart_pic16.c: 47: break;
  7770                           
  7771                           
  7772                           ;usart_pic16.c: 49: SPBRG=6;
  7773  172B  3006               	movlw	6
  7774  172C                     L4:	
  7775  172C  1683               	bsf	3,5	;RP0=1, select bank1
  7776  172D  1303               	bcf	3,6	;RP1=0, select bank1
  7777  172E  0099               	movwf	25	;volatile
  7778                           
  7779                           ;usart_pic16.c: 51: }
  7780                           
  7781                           ;usart_pic16.c: 50: break;
  7782  172F  2F53               	goto	l376
  7783  1730                     l3273:	
  7784                           
  7785                           ; Switch on 2 bytes has been partitioned into a top level switch of size 1, and 4 sub-sw
      +                          itches
  7786                           ; Switch size 1, requested type "space"
  7787                           ; Number of cases is 4, Range of values is 37 to 131
  7788                           ; switch strategies available:
  7789                           ; Name         Instructions Cycles
  7790                           ; simple_byte           13     7 (average)
  7791                           ; jumptable            263     9 (fixed)
  7792                           ;	Chosen strategy is simple_byte
  7793  1730  1283               	bcf	3,5	;RP0=0, select bank0
  7794  1731  0821               	movf	USARTInit@baud_rate+1,w
  7795  1732  3A25               	xorlw	37	; case 37
  7796  1733  1903               	skipnz
  7797  1734  2F3F               	goto	l4129
  7798  1735  3A6E               	xorlw	110	; case 75
  7799  1736  1903               	skipnz
  7800  1737  2F44               	goto	l4131
  7801  1738  3A3B               	xorlw	59	; case 112
  7802  1739  1903               	skipnz
  7803  173A  2F49               	goto	l4133
  7804  173B  3AF3               	xorlw	243	; case 131
  7805  173C  1903               	skipnz
  7806  173D  2F4E               	goto	l4135
  7807  173E  2F53               	goto	l376
  7808  173F                     l4129:	
  7809                           
  7810                           ; Switch size 1, requested type "space"
  7811                           ; Number of cases is 1, Range of values is 128 to 128
  7812                           ; switch strategies available:
  7813                           ; Name         Instructions Cycles
  7814                           ; simple_byte            4     3 (average)
  7815                           ; direct_byte           14    11 (fixed)
  7816                           ; jumptable            263     9 (fixed)
  7817                           ;	Chosen strategy is simple_byte
  7818  173F  0820               	movf	USARTInit@baud_rate,w
  7819  1740  3A80               	xorlw	128	; case 128
  7820  1741  1903               	skipnz
  7821  1742  2F25               	goto	l3263
  7822  1743  2F53               	goto	l376
  7823  1744                     l4131:	
  7824                           
  7825                           ; Switch size 1, requested type "space"
  7826                           ; Number of cases is 1, Range of values is 0 to 0
  7827                           ; switch strategies available:
  7828                           ; Name         Instructions Cycles
  7829                           ; simple_byte            4     3 (average)
  7830                           ; direct_byte           11     8 (fixed)
  7831                           ; jumptable            260     6 (fixed)
  7832                           ;	Chosen strategy is simple_byte
  7833  1744  0820               	movf	USARTInit@baud_rate,w
  7834  1745  3A00               	xorlw	0	; case 0
  7835  1746  1903               	skipnz
  7836  1747  2F27               	goto	l3265
  7837  1748  2F53               	goto	l376
  7838  1749                     l4133:	
  7839                           
  7840                           ; Switch size 1, requested type "space"
  7841                           ; Number of cases is 1, Range of values is 128 to 128
  7842                           ; switch strategies available:
  7843                           ; Name         Instructions Cycles
  7844                           ; simple_byte            4     3 (average)
  7845                           ; direct_byte           14    11 (fixed)
  7846                           ; jumptable            263     9 (fixed)
  7847                           ;	Chosen strategy is simple_byte
  7848  1749  0820               	movf	USARTInit@baud_rate,w
  7849  174A  3A80               	xorlw	128	; case 128
  7850  174B  1903               	skipnz
  7851  174C  2F29               	goto	l3267
  7852  174D  2F53               	goto	l376
  7853  174E                     l4135:	
  7854                           
  7855                           ; Switch size 1, requested type "space"
  7856                           ; Number of cases is 1, Range of values is 64 to 64
  7857                           ; switch strategies available:
  7858                           ; Name         Instructions Cycles
  7859                           ; simple_byte            4     3 (average)
  7860                           ; direct_byte           14    11 (fixed)
  7861                           ; jumptable            263     9 (fixed)
  7862                           ;	Chosen strategy is simple_byte
  7863  174E  0820               	movf	USARTInit@baud_rate,w
  7864  174F  3A40               	xorlw	64	; case 64
  7865  1750  1903               	skipnz
  7866  1751  2F2B               	goto	l3269
  7867  1752  2F53               	goto	l376
  7868  1753                     l376:	
  7869                           
  7870                           ;usart_pic16.c: 53: TXSTAbits.TX9=0;
  7871  1753  1683               	bsf	3,5	;RP0=1, select bank1
  7872  1754  1303               	bcf	3,6	;RP1=0, select bank1
  7873  1755  1318               	bcf	24,6	;volatile
  7874                           
  7875                           ;usart_pic16.c: 54: TXSTAbits.TXEN=1;
  7876  1756  1698               	bsf	24,5	;volatile
  7877                           
  7878                           ;usart_pic16.c: 55: TXSTAbits.SYNC=0;
  7879  1757  1218               	bcf	24,4	;volatile
  7880                           
  7881                           ;usart_pic16.c: 56: TXSTAbits.BRGH=1;
  7882  1758  1518               	bsf	24,2	;volatile
  7883                           
  7884                           ;usart_pic16.c: 59: RCSTAbits.SPEN=1;
  7885  1759  1283               	bcf	3,5	;RP0=0, select bank0
  7886  175A  1303               	bcf	3,6	;RP1=0, select bank0
  7887  175B  1798               	bsf	24,7	;volatile
  7888                           
  7889                           ;usart_pic16.c: 60: RCSTAbits.RX9=0;
  7890  175C  1318               	bcf	24,6	;volatile
  7891                           
  7892                           ;usart_pic16.c: 61: RCSTAbits.CREN=1;
  7893  175D  1618               	bsf	24,4	;volatile
  7894                           
  7895                           ;usart_pic16.c: 62: RCSTAbits.ADDEN=0;
  7896  175E  1198               	bcf	24,3	;volatile
  7897                           
  7898                           ;usart_pic16.c: 65: RCIE=1;
  7899  175F  1683               	bsf	3,5	;RP0=1, select bank1
  7900  1760  1303               	bcf	3,6	;RP1=0, select bank1
  7901  1761  168C               	bsf	12,5	;volatile
  7902                           
  7903                           ;usart_pic16.c: 66: PEIE=1;
  7904  1762  170B               	bsf	11,6	;volatile
  7905                           
  7906                           ;usart_pic16.c: 69: (GIE = 1);
  7907  1763  178B               	bsf	11,7	;volatile
  7908  1764  0008               	return
  7909  1765                     __end_of_USARTInit:	
  7910                           
  7911                           	psect	text31
  7912  0BF2                     __ptext31:	
  7913 ;; *************** function _SIM300Cmd *****************
  7914 ;; Defined at:
  7915 ;;		line 98 in file "E:\Study Material\XC8 PROJECTS\Aurangabad\sim300.c"
  7916 ;; Parameters:    Size  Location     Type
  7917 ;;  cmd             2   13[BANK0 ] PTR const unsigned char 
  7918 ;;		 -> SIM300SendMsg@cmd(25), SIM300ReadValidMsg@cmd(16), SIM300DeleteMsg@cmd(16), STR_38(3), 
  7919 ;;		 -> STR_14(4), STR_13(4), STR_12(4), STR_6(4), 
  7920 ;;		 -> phone_number(40), STR_5(4), STR_4(4), STR_3(10), 
  7921 ;;		 -> STR_2(10), STR_1(10), 
  7922 ;; Auto vars:     Size  Location     Type
  7923 ;;  i               2   17[BANK0 ] unsigned int 
  7924 ;;  len             1   19[BANK0 ] unsigned char 
  7925 ;; Return value:  Size  Location     Type
  7926 ;;                  1    wreg      char 
  7927 ;; Registers used:
  7928 ;;		wreg, fsr0l, fsr0h, status,2, status,0, btemp+1, pclath, cstack
  7929 ;; Tracked objects:
  7930 ;;		On entry : 0/0
  7931 ;;		On exit  : 0/0
  7932 ;;		Unchanged: 0/0
  7933 ;; Data sizes:     COMMON   BANK0   BANK1   BANK3   BANK2
  7934 ;;      Params:         0       2       0       0       0
  7935 ;;      Locals:         0       3       0       0       0
  7936 ;;      Temps:          0       2       0       0       0
  7937 ;;      Totals:         0       7       0       0       0
  7938 ;;Total ram usage:        7 bytes
  7939 ;; Hardware stack levels used:    1
  7940 ;; Hardware stack levels required when called:    4
  7941 ;; This function calls:
  7942 ;;		_USARTDataAvailable
  7943 ;;		_USARTReadBuffer
  7944 ;;		_USARTWriteChar
  7945 ;;		_USARTWriteString
  7946 ;;		___wmul
  7947 ;;		_strlen
  7948 ;; This function is called by:
  7949 ;;		_main
  7950 ;;		_SIM300Init
  7951 ;;		_SIM300DeleteMsg
  7952 ;;		_SIM300ReadValidMsg
  7953 ;;		_SIM300SendMsg
  7954 ;; This function uses a non-reentrant model
  7955 ;;
  7956                           
  7957                           
  7958                           ;psect for function _SIM300Cmd
  7959  0BF2                     _SIM300Cmd:	
  7960                           
  7961                           ;sim300.c: 100: USARTWriteString(cmd);
  7962                           
  7963                           ;incstack = 0
  7964                           ; Regs used in _SIM300Cmd: [wreg-fsr0h+status,2+status,0+btemp+1+pclath+cstack]
  7965  0BF2  1283               	bcf	3,5	;RP0=0, select bank0
  7966  0BF3  1303               	bcf	3,6	;RP1=0, select bank0
  7967  0BF4  082E               	movf	SIM300Cmd@cmd+1,w
  7968  0BF5  01A2               	clrf	USARTWriteString@str+1
  7969  0BF6  07A2               	addwf	USARTWriteString@str+1,f
  7970  0BF7  082D               	movf	SIM300Cmd@cmd,w
  7971  0BF8  01A1               	clrf	USARTWriteString@str
  7972  0BF9  07A1               	addwf	USARTWriteString@str,f
  7973  0BFA  160A  118A  2538  120A  158A  	fcall	_USARTWriteString
  7974                           
  7975                           ;sim300.c: 101: USARTWriteChar(0x0D);
  7976  0BFF  300D               	movlw	13
  7977  0C00  160A  118A  23CD  120A  158A  	fcall	_USARTWriteChar
  7978                           
  7979                           ;sim300.c: 103: uint8_t len=strlen(cmd);
  7980  0C05  1283               	bcf	3,5	;RP0=0, select bank0
  7981  0C06  1303               	bcf	3,6	;RP1=0, select bank0
  7982  0C07  082E               	movf	SIM300Cmd@cmd+1,w
  7983  0C08  01A1               	clrf	strlen@s+1
  7984  0C09  07A1               	addwf	strlen@s+1,f
  7985  0C0A  082D               	movf	SIM300Cmd@cmd,w
  7986  0C0B  01A0               	clrf	strlen@s
  7987  0C0C  07A0               	addwf	strlen@s,f
  7988  0C0D  160A  118A  2582  120A  158A  	fcall	_strlen
  7989  0C12  1283               	bcf	3,5	;RP0=0, select bank0
  7990  0C13  1303               	bcf	3,6	;RP1=0, select bank0
  7991  0C14  0820               	movf	?_strlen,w
  7992  0C15  00AF               	movwf	??_SIM300Cmd
  7993  0C16  082F               	movf	??_SIM300Cmd,w
  7994  0C17  00B3               	movwf	SIM300Cmd@len
  7995                           
  7996                           ;sim300.c: 105: len++;
  7997  0C18  3001               	movlw	1
  7998  0C19  00AF               	movwf	??_SIM300Cmd
  7999  0C1A  082F               	movf	??_SIM300Cmd,w
  8000  0C1B  07B3               	addwf	SIM300Cmd@len,f
  8001                           
  8002                           ;sim300.c: 107: uint16_t i=0;
  8003  0C1C  01B1               	clrf	SIM300Cmd@i
  8004  0C1D  01B2               	clrf	SIM300Cmd@i+1
  8005  0C1E                     l2775:	
  8006                           ;sim300.c: 110: while(i<10*len)
  8007                           
  8008  0C1E  1283               	bcf	3,5	;RP0=0, select bank0
  8009  0C1F  1303               	bcf	3,6	;RP1=0, select bank0
  8010  0C20  0833               	movf	SIM300Cmd@len,w
  8011  0C21  00AF               	movwf	??_SIM300Cmd
  8012  0C22  01B0               	clrf	??_SIM300Cmd+1
  8013  0C23  082F               	movf	??_SIM300Cmd,w
  8014  0C24  00A0               	movwf	___wmul@multiplier
  8015  0C25  0830               	movf	??_SIM300Cmd+1,w
  8016  0C26  00A1               	movwf	___wmul@multiplier+1
  8017  0C27  300A               	movlw	10
  8018  0C28  00A2               	movwf	___wmul@multiplicand
  8019  0C29  3000               	movlw	0
  8020  0C2A  00A3               	movwf	___wmul@multiplicand+1
  8021  0C2B  160A  118A  255D  120A  158A  	fcall	___wmul
  8022  0C30  1283               	bcf	3,5	;RP0=0, select bank0
  8023  0C31  1303               	bcf	3,6	;RP1=0, select bank0
  8024  0C32  0821               	movf	?___wmul+1,w
  8025  0C33  0232               	subwf	SIM300Cmd@i+1,w
  8026  0C34  1D03               	skipz
  8027  0C35  2C38               	goto	u2105
  8028  0C36  0820               	movf	?___wmul,w
  8029  0C37  0231               	subwf	SIM300Cmd@i,w
  8030  0C38                     u2105:	
  8031  0C38  1803               	btfsc	3,0
  8032  0C39  0008               	return
  8033                           
  8034                           ;sim300.c: 111: {
  8035                           ;sim300.c: 112: if(USARTDataAvailable()<len)
  8036  0C3A  160A  118A  24A8  120A  158A  	fcall	_USARTDataAvailable
  8037  0C3F  1283               	bcf	3,5	;RP0=0, select bank0
  8038  0C40  1303               	bcf	3,6	;RP1=0, select bank0
  8039  0C41  00AF               	movwf	??_SIM300Cmd
  8040  0C42  0833               	movf	SIM300Cmd@len,w
  8041  0C43  022F               	subwf	??_SIM300Cmd,w
  8042  0C44  1803               	skipnc
  8043  0C45  2C56               	goto	l2771
  8044                           
  8045                           ;sim300.c: 113: {
  8046                           ;sim300.c: 114: i++;
  8047  0C46  3001               	movlw	1
  8048  0C47  07B1               	addwf	SIM300Cmd@i,f
  8049  0C48  1803               	skipnc
  8050  0C49  0AB2               	incf	SIM300Cmd@i+1,f
  8051  0C4A  3000               	movlw	0
  8052  0C4B  07B2               	addwf	SIM300Cmd@i+1,f
  8053                           
  8054                           ;sim300.c: 115: _delay((unsigned long)((10)*(4000000/4000.0)));
  8055  0C4C  300D               	movlw	13
  8056  0C4D  00B0               	movwf	??_SIM300Cmd+1
  8057  0C4E  30FB               	movlw	251
  8058  0C4F  00AF               	movwf	??_SIM300Cmd
  8059  0C50                     u4107:	
  8060  0C50  0BAF               	decfsz	??_SIM300Cmd,f
  8061  0C51  2C50               	goto	u4107
  8062  0C52  0BB0               	decfsz	??_SIM300Cmd+1,f
  8063  0C53  2C50               	goto	u4107
  8064  0C54  2C55               	nop2
  8065                           
  8066                           ;sim300.c: 117: }
  8067                           
  8068                           ;sim300.c: 116: continue;
  8069  0C55  2C1E               	goto	l2775
  8070  0C56                     l2771:	
  8071                           
  8072                           ;sim300.c: 118: else
  8073                           ;sim300.c: 119: {
  8074                           ;sim300.c: 122: USARTReadBuffer(sim300_buffer,len);
  8075  0C56  1283               	bcf	3,5	;RP0=0, select bank0
  8076  0C57  1303               	bcf	3,6	;RP1=0, select bank0
  8077  0C58  0833               	movf	SIM300Cmd@len,w
  8078  0C59  00AF               	movwf	??_SIM300Cmd
  8079  0C5A  01B0               	clrf	??_SIM300Cmd+1
  8080  0C5B  082F               	movf	??_SIM300Cmd,w
  8081  0C5C  00A6               	movwf	USARTReadBuffer@len
  8082  0C5D  0830               	movf	??_SIM300Cmd+1,w
  8083  0C5E  00A7               	movwf	USARTReadBuffer@len+1
  8084  0C5F  3090               	movlw	_sim300_buffer& (0+255)
  8085  0C60  160A  118A  24F0   	fcall	_USARTReadBuffer
  8086                           
  8087                           ;sim300.c: 124: return 1;
  8088                           ;	Return value of _SIM300Cmd is never used
  8089  0C63  0008               	return
  8090  0C64                     __end_of_SIM300Cmd:	
  8091                           ;sim300.c: 125: }
  8092                           ;sim300.c: 126: }
  8093                           ;sim300.c: 128: return -3;
  8094                           ;	Return value of _SIM300Cmd is never used
  8095                           
  8096                           
  8097                           	psect	text32
  8098  1582                     __ptext32:	
  8099 ;; *************** function _strlen *****************
  8100 ;; Defined at:
  8101 ;;		line 4 in file "C:\Program Files (x86)\Microchip\xc8\v1.32\sources\common\strlen.c"
  8102 ;; Parameters:    Size  Location     Type
  8103 ;;  s               2    0[BANK0 ] PTR const unsigned char 
  8104 ;;		 -> SIM300SendMsg@cmd(25), STR_44(4), SIM300ReadValidMsg@cmd(16), SIM300DeleteMsg@cmd(16), 
  8105 ;;		 -> STR_38(3), STR_37(16), STR_18(22), STR_16(22), 
  8106 ;;		 -> STR_14(4), STR_13(4), STR_12(4), STR_11(20), 
  8107 ;;		 -> STR_10(22), STR_8(22), STR_6(4), phone_number(40), 
  8108 ;;		 -> STR_5(4), STR_4(4), STR_3(10), STR_2(10), 
  8109 ;;		 -> STR_1(10), 
  8110 ;; Auto vars:     Size  Location     Type
  8111 ;;  cp              2    4[BANK0 ] PTR const unsigned char 
  8112 ;;		 -> SIM300SendMsg@cmd(25), STR_44(4), SIM300ReadValidMsg@cmd(16), SIM300DeleteMsg@cmd(16), 
  8113 ;;		 -> STR_38(3), STR_37(16), STR_18(22), STR_16(22), 
  8114 ;;		 -> STR_14(4), STR_13(4), STR_12(4), STR_11(20), 
  8115 ;;		 -> STR_10(22), STR_8(22), STR_6(4), phone_number(40), 
  8116 ;;		 -> STR_5(4), STR_4(4), STR_3(10), STR_2(10), 
  8117 ;;		 -> STR_1(10), 
  8118 ;; Return value:  Size  Location     Type
  8119 ;;                  2    0[BANK0 ] unsigned int 
  8120 ;; Registers used:
  8121 ;;		wreg, fsr0l, fsr0h, status,2, status,0, btemp+1, pclath
  8122 ;; Tracked objects:
  8123 ;;		On entry : 0/0
  8124 ;;		On exit  : 0/0
  8125 ;;		Unchanged: 0/0
  8126 ;; Data sizes:     COMMON   BANK0   BANK1   BANK3   BANK2
  8127 ;;      Params:         0       2       0       0       0
  8128 ;;      Locals:         0       2       0       0       0
  8129 ;;      Temps:          0       2       0       0       0
  8130 ;;      Totals:         0       6       0       0       0
  8131 ;;Total ram usage:        6 bytes
  8132 ;; Hardware stack levels used:    1
  8133 ;; Hardware stack levels required when called:    2
  8134 ;; This function calls:
  8135 ;;		Nothing
  8136 ;; This function is called by:
  8137 ;;		_SMSCommunication
  8138 ;;		_SIM300Cmd
  8139 ;;		_SIM300SendMsg
  8140 ;;		_strstr
  8141 ;; This function uses a non-reentrant model
  8142 ;;
  8143                           
  8144                           
  8145                           ;psect for function _strlen
  8146  1582                     _strlen:	
  8147                           
  8148                           ;incstack = 0
  8149                           ; Regs used in _strlen: [wreg-fsr0h+status,2+status,0+btemp+1+pclath]
  8150  1582  1283               	bcf	3,5	;RP0=0, select bank0
  8151  1583  1303               	bcf	3,6	;RP1=0, select bank0
  8152  1584  0821               	movf	strlen@s+1,w
  8153  1585  01A5               	clrf	strlen@cp+1
  8154  1586  07A5               	addwf	strlen@cp+1,f
  8155  1587  0820               	movf	strlen@s,w
  8156  1588  01A4               	clrf	strlen@cp
  8157  1589  07A4               	addwf	strlen@cp,f
  8158  158A                     l2631:	
  8159  158A  0825               	movf	strlen@cp+1,w
  8160  158B  00FF               	movwf	127
  8161  158C  0824               	movf	strlen@cp,w
  8162  158D  0084               	movwf	4
  8163  158E  120A  158A  2000  160A  118A  	fcall	stringtab
  8164  1593  3800               	iorlw	0
  8165  1594  1903               	btfsc	3,2
  8166  1595  2D9B               	goto	l2633
  8167  1596  3001               	movlw	1
  8168  1597  07A4               	addwf	strlen@cp,f
  8169  1598  1803               	skipnc
  8170  1599  0AA5               	incf	strlen@cp+1,f
  8171  159A  2D8A               	goto	l2631
  8172  159B                     l2633:	
  8173  159B  0920               	comf	strlen@s,w
  8174  159C  00A2               	movwf	??_strlen
  8175  159D  0921               	comf	strlen@s+1,w
  8176  159E  00A3               	movwf	??_strlen+1
  8177  159F  0AA2               	incf	??_strlen,f
  8178  15A0  1903               	skipnz
  8179  15A1  0AA3               	incf	??_strlen+1,f
  8180  15A2  0824               	movf	strlen@cp,w
  8181  15A3  0722               	addwf	??_strlen,w
  8182  15A4  00A0               	movwf	?_strlen
  8183  15A5  0825               	movf	strlen@cp+1,w
  8184  15A6  1803               	skipnc
  8185  15A7  0A25               	incf	strlen@cp+1,w
  8186  15A8  0723               	addwf	??_strlen+1,w
  8187  15A9  00A1               	movwf	?_strlen+1
  8188  15AA  0008               	return
  8189  15AB                     __end_of_strlen:	
  8190                           
  8191                           	psect	text33
  8192  155D                     __ptext33:	
  8193 ;; *************** function ___wmul *****************
  8194 ;; Defined at:
  8195 ;;		line 15 in file "C:\Program Files (x86)\Microchip\xc8\v1.32\sources\common\Umul16.c"
  8196 ;; Parameters:    Size  Location     Type
  8197 ;;  multiplier      2    0[BANK0 ] unsigned int 
  8198 ;;  multiplicand    2    2[BANK0 ] unsigned int 
  8199 ;; Auto vars:     Size  Location     Type
  8200 ;;  product         2    4[BANK0 ] unsigned int 
  8201 ;; Return value:  Size  Location     Type
  8202 ;;                  2    0[BANK0 ] unsigned int 
  8203 ;; Registers used:
  8204 ;;		wreg, status,2, status,0
  8205 ;; Tracked objects:
  8206 ;;		On entry : 0/0
  8207 ;;		On exit  : 0/0
  8208 ;;		Unchanged: 0/0
  8209 ;; Data sizes:     COMMON   BANK0   BANK1   BANK3   BANK2
  8210 ;;      Params:         0       4       0       0       0
  8211 ;;      Locals:         0       2       0       0       0
  8212 ;;      Temps:          0       0       0       0       0
  8213 ;;      Totals:         0       6       0       0       0
  8214 ;;Total ram usage:        6 bytes
  8215 ;; Hardware stack levels used:    1
  8216 ;; Hardware stack levels required when called:    2
  8217 ;; This function calls:
  8218 ;;		Nothing
  8219 ;; This function is called by:
  8220 ;;		_SIM300Cmd
  8221 ;;		_atoi
  8222 ;; This function uses a non-reentrant model
  8223 ;;
  8224                           
  8225                           
  8226                           ;psect for function ___wmul
  8227  155D                     ___wmul:	
  8228                           
  8229                           ;incstack = 0
  8230                           ; Regs used in ___wmul: [wreg+status,2+status,0]
  8231  155D  1283               	bcf	3,5	;RP0=0, select bank0
  8232  155E  1303               	bcf	3,6	;RP1=0, select bank0
  8233  155F  01A4               	clrf	___wmul@product
  8234  1560  01A5               	clrf	___wmul@product+1
  8235  1561                     l2655:	
  8236  1561  1C20               	btfss	___wmul@multiplier,0
  8237  1562  2D69               	goto	l615
  8238  1563  0822               	movf	___wmul@multiplicand,w
  8239  1564  07A4               	addwf	___wmul@product,f
  8240  1565  1803               	skipnc
  8241  1566  0AA5               	incf	___wmul@product+1,f
  8242  1567  0823               	movf	___wmul@multiplicand+1,w
  8243  1568  07A5               	addwf	___wmul@product+1,f
  8244  1569                     l615:	
  8245  1569  3001               	movlw	1
  8246  156A                     u1865:	
  8247  156A  1003               	clrc
  8248  156B  0DA2               	rlf	___wmul@multiplicand,f
  8249  156C  0DA3               	rlf	___wmul@multiplicand+1,f
  8250  156D  3EFF               	addlw	-1
  8251  156E  1D03               	skipz
  8252  156F  2D6A               	goto	u1865
  8253  1570  3001               	movlw	1
  8254  1571                     u1875:	
  8255  1571  1003               	clrc
  8256  1572  0CA1               	rrf	___wmul@multiplier+1,f
  8257  1573  0CA0               	rrf	___wmul@multiplier,f
  8258  1574  3EFF               	addlw	-1
  8259  1575  1D03               	skipz
  8260  1576  2D71               	goto	u1875
  8261  1577  0821               	movf	___wmul@multiplier+1,w
  8262  1578  0420               	iorwf	___wmul@multiplier,w
  8263  1579  1D03               	skipz
  8264  157A  2D61               	goto	l2655
  8265  157B  0825               	movf	___wmul@product+1,w
  8266  157C  01A1               	clrf	?___wmul+1
  8267  157D  07A1               	addwf	?___wmul+1,f
  8268  157E  0824               	movf	___wmul@product,w
  8269  157F  01A0               	clrf	?___wmul
  8270  1580  07A0               	addwf	?___wmul,f
  8271  1581  0008               	return
  8272  1582                     __end_of___wmul:	
  8273                           
  8274                           	psect	text34
  8275  1538                     __ptext34:	
  8276 ;; *************** function _USARTWriteString *****************
  8277 ;; Defined at:
  8278 ;;		line 80 in file "E:\Study Material\XC8 PROJECTS\Aurangabad\usart_pic16.c"
  8279 ;; Parameters:    Size  Location     Type
  8280 ;;  str             2    1[BANK0 ] PTR const unsigned char 
  8281 ;;		 -> SIM300SendMsg@cmd(25), SIM300ReadValidMsg@cmd(16), SIM300DeleteMsg@cmd(16), STR_38(3), 
  8282 ;;		 -> STR_37(16), STR_18(22), STR_16(22), STR_14(4), 
  8283 ;;		 -> STR_13(4), STR_12(4), STR_11(20), STR_10(22), 
  8284 ;;		 -> STR_8(22), STR_6(4), phone_number(40), STR_5(4), 
  8285 ;;		 -> STR_4(4), STR_3(10), STR_2(10), STR_1(10), 
  8286 ;; Auto vars:     Size  Location     Type
  8287 ;;		None
  8288 ;; Return value:  Size  Location     Type
  8289 ;;		None               void
  8290 ;; Registers used:
  8291 ;;		wreg, fsr0l, fsr0h, status,2, status,0, btemp+1, pclath, cstack
  8292 ;; Tracked objects:
  8293 ;;		On entry : 0/0
  8294 ;;		On exit  : 0/0
  8295 ;;		Unchanged: 0/0
  8296 ;; Data sizes:     COMMON   BANK0   BANK1   BANK3   BANK2
  8297 ;;      Params:         0       2       0       0       0
  8298 ;;      Locals:         0       0       0       0       0
  8299 ;;      Temps:          0       0       0       0       0
  8300 ;;      Totals:         0       2       0       0       0
  8301 ;;Total ram usage:        2 bytes
  8302 ;; Hardware stack levels used:    1
  8303 ;; Hardware stack levels required when called:    3
  8304 ;; This function calls:
  8305 ;;		_USARTWriteChar
  8306 ;; This function is called by:
  8307 ;;		_SIM300Cmd
  8308 ;;		_SIM300SendMsg
  8309 ;;		_USARTWriteLine
  8310 ;; This function uses a non-reentrant model
  8311 ;;
  8312                           
  8313                           
  8314                           ;psect for function _USARTWriteString
  8315  1538                     _USARTWriteString:	
  8316  1538                     l2651:	
  8317                           ;usart_pic16.c: 82: while(*str!='\0')
  8318                           
  8319                           ;incstack = 0
  8320 ;; using string table level
  8321                           ; Regs used in _USARTWriteString: [wreg-fsr0h+status,2+status,0+btemp+1+pclath+cstack]
  8322                           
  8323  1538  1283               	bcf	3,5	;RP0=0, select bank0
  8324  1539  1303               	bcf	3,6	;RP1=0, select bank0
  8325  153A  0822               	movf	USARTWriteString@str+1,w
  8326  153B  00FF               	movwf	127
  8327  153C  0821               	movf	USARTWriteString@str,w
  8328  153D  0084               	movwf	4
  8329  153E  120A  158A  2000  160A  118A  	fcall	stringtab
  8330  1543  3800               	iorlw	0
  8331  1544  1903               	btfsc	3,2
  8332  1545  0008               	return
  8333                           
  8334                           ;usart_pic16.c: 83: {
  8335                           ;usart_pic16.c: 84: USARTWriteChar(*str);
  8336  1546  1283               	bcf	3,5	;RP0=0, select bank0
  8337  1547  1303               	bcf	3,6	;RP1=0, select bank0
  8338  1548  0822               	movf	USARTWriteString@str+1,w
  8339  1549  00FF               	movwf	127
  8340  154A  0821               	movf	USARTWriteString@str,w
  8341  154B  0084               	movwf	4
  8342  154C  120A  158A  2000  160A  118A  	fcall	stringtab
  8343  1551  160A  118A  23CD  160A  118A  	fcall	_USARTWriteChar
  8344                           
  8345                           ;usart_pic16.c: 85: str++;
  8346  1556  3001               	movlw	1
  8347  1557  1283               	bcf	3,5	;RP0=0, select bank0
  8348  1558  1303               	bcf	3,6	;RP1=0, select bank0
  8349  1559  07A1               	addwf	USARTWriteString@str,f
  8350  155A  1803               	skipnc
  8351  155B  0AA2               	incf	USARTWriteString@str+1,f
  8352  155C  2D38               	goto	l2651
  8353  155D                     __end_of_USARTWriteString:	
  8354                           
  8355                           	psect	text35
  8356  13CD                     __ptext35:	
  8357 ;; *************** function _USARTWriteChar *****************
  8358 ;; Defined at:
  8359 ;;		line 73 in file "E:\Study Material\XC8 PROJECTS\Aurangabad\usart_pic16.c"
  8360 ;; Parameters:    Size  Location     Type
  8361 ;;  ch              1    wreg     unsigned char 
  8362 ;; Auto vars:     Size  Location     Type
  8363 ;;  ch              1    0[BANK0 ] unsigned char 
  8364 ;; Return value:  Size  Location     Type
  8365 ;;		None               void
  8366 ;; Registers used:
  8367 ;;		wreg
  8368 ;; Tracked objects:
  8369 ;;		On entry : 0/0
  8370 ;;		On exit  : 0/0
  8371 ;;		Unchanged: 0/0
  8372 ;; Data sizes:     COMMON   BANK0   BANK1   BANK3   BANK2
  8373 ;;      Params:         0       0       0       0       0
  8374 ;;      Locals:         0       1       0       0       0
  8375 ;;      Temps:          0       0       0       0       0
  8376 ;;      Totals:         0       1       0       0       0
  8377 ;;Total ram usage:        1 bytes
  8378 ;; Hardware stack levels used:    1
  8379 ;; Hardware stack levels required when called:    2
  8380 ;; This function calls:
  8381 ;;		Nothing
  8382 ;; This function is called by:
  8383 ;;		_SIM300Cmd
  8384 ;;		_SIM300SendMsg
  8385 ;;		_USARTWriteString
  8386 ;;		_USARTWriteLine
  8387 ;;		_USARTWriteInt
  8388 ;;		_USARTGotoNewLine
  8389 ;; This function uses a non-reentrant model
  8390 ;;
  8391                           
  8392                           
  8393                           ;psect for function _USARTWriteChar
  8394  13CD                     _USARTWriteChar:	
  8395                           
  8396                           ;incstack = 0
  8397                           ; Regs used in _USARTWriteChar: [wreg]
  8398                           ;USARTWriteChar@ch stored from wreg
  8399  13CD  1283               	bcf	3,5	;RP0=0, select bank0
  8400  13CE  1303               	bcf	3,6	;RP1=0, select bank0
  8401  13CF  00A0               	movwf	USARTWriteChar@ch
  8402  13D0                     l383:	
  8403                           ;usart_pic16.c: 75: while(!PIR1bits.TXIF);
  8404                           
  8405  13D0  1E0C               	btfss	12,4	;volatile
  8406  13D1  2BD0               	goto	l383
  8407                           
  8408                           ;usart_pic16.c: 76: TXREG=ch;
  8409  13D2  0820               	movf	USARTWriteChar@ch,w
  8410  13D3  0099               	movwf	25	;volatile
  8411  13D4  0008               	return
  8412  13D5                     __end_of_USARTWriteChar:	
  8413                           
  8414                           	psect	text36
  8415  14F0                     __ptext36:	
  8416 ;; *************** function _USARTReadBuffer *****************
  8417 ;; Defined at:
  8418 ;;		line 223 in file "E:\Study Material\XC8 PROJECTS\Aurangabad\usart_pic16.c"
  8419 ;; Parameters:    Size  Location     Type
  8420 ;;  buff            1    wreg     PTR unsigned char 
  8421 ;;		 -> sim300_buffer(70), 
  8422 ;;  len             2    6[BANK0 ] unsigned int 
  8423 ;; Auto vars:     Size  Location     Type
  8424 ;;  buff            1   10[BANK0 ] PTR unsigned char 
  8425 ;;		 -> sim300_buffer(70), 
  8426 ;;  i               2   11[BANK0 ] unsigned int 
  8427 ;; Return value:  Size  Location     Type
  8428 ;;		None               void
  8429 ;; Registers used:
  8430 ;;		wreg, fsr0l, fsr0h, status,2, status,0, pclath, cstack
  8431 ;; Tracked objects:
  8432 ;;		On entry : 0/0
  8433 ;;		On exit  : 0/0
  8434 ;;		Unchanged: 0/0
  8435 ;; Data sizes:     COMMON   BANK0   BANK1   BANK3   BANK2
  8436 ;;      Params:         0       2       0       0       0
  8437 ;;      Locals:         0       3       0       0       0
  8438 ;;      Temps:          0       2       0       0       0
  8439 ;;      Totals:         0       7       0       0       0
  8440 ;;Total ram usage:        7 bytes
  8441 ;; Hardware stack levels used:    1
  8442 ;; Hardware stack levels required when called:    3
  8443 ;; This function calls:
  8444 ;;		_USARTReadData
  8445 ;; This function is called by:
  8446 ;;		_SIM300Init
  8447 ;;		_SIM300Cmd
  8448 ;;		_SIM300SendMsg
  8449 ;; This function uses a non-reentrant model
  8450 ;;
  8451                           
  8452                           
  8453                           ;psect for function _USARTReadBuffer
  8454  14F0                     _USARTReadBuffer:	
  8455                           
  8456                           ;incstack = 0
  8457                           ; Regs used in _USARTReadBuffer: [wreg-fsr0h+status,2+status,0+pclath+cstack]
  8458                           ;USARTReadBuffer@buff stored from wreg
  8459  14F0  1283               	bcf	3,5	;RP0=0, select bank0
  8460  14F1  1303               	bcf	3,6	;RP1=0, select bank0
  8461  14F2  00AA               	movwf	USARTReadBuffer@buff
  8462                           
  8463                           ;usart_pic16.c: 225: uint16_t i;
  8464                           ;usart_pic16.c: 226: for(i=0;i<len;i++)
  8465  14F3  01AB               	clrf	USARTReadBuffer@i
  8466  14F4  01AC               	clrf	USARTReadBuffer@i+1
  8467  14F5                     l2643:	
  8468  14F5  0827               	movf	USARTReadBuffer@len+1,w
  8469  14F6  022C               	subwf	USARTReadBuffer@i+1,w
  8470  14F7  1D03               	skipz
  8471  14F8  2CFB               	goto	u1835
  8472  14F9  0826               	movf	USARTReadBuffer@len,w
  8473  14FA  022B               	subwf	USARTReadBuffer@i,w
  8474  14FB                     u1835:	
  8475  14FB  1803               	btfsc	3,0
  8476  14FC  0008               	return
  8477                           
  8478                           ;usart_pic16.c: 227: {
  8479                           ;usart_pic16.c: 228: buff[i]=USARTReadData();
  8480  14FD  160A  118A  24CC  160A  118A  	fcall	_USARTReadData
  8481  1502  1283               	bcf	3,5	;RP0=0, select bank0
  8482  1503  1303               	bcf	3,6	;RP1=0, select bank0
  8483  1504  00A8               	movwf	??_USARTReadBuffer
  8484  1505  082B               	movf	USARTReadBuffer@i,w
  8485  1506  072A               	addwf	USARTReadBuffer@buff,w
  8486  1507  00A9               	movwf	??_USARTReadBuffer+1
  8487  1508  0829               	movf	??_USARTReadBuffer+1,w
  8488  1509  0084               	movwf	4
  8489  150A  0828               	movf	??_USARTReadBuffer,w
  8490  150B  1783               	bsf	3,7	;select IRP bank2
  8491  150C  0080               	movwf	0
  8492  150D  3001               	movlw	1
  8493  150E  07AB               	addwf	USARTReadBuffer@i,f
  8494  150F  1803               	skipnc
  8495  1510  0AAC               	incf	USARTReadBuffer@i+1,f
  8496  1511  3000               	movlw	0
  8497  1512  07AC               	addwf	USARTReadBuffer@i+1,f
  8498  1513  2CF5               	goto	l2643
  8499  1514                     __end_of_USARTReadBuffer:	
  8500                           
  8501                           	psect	text37
  8502  14CC                     __ptext37:	
  8503 ;; *************** function _USARTReadData *****************
  8504 ;; Defined at:
  8505 ;;		line 131 in file "E:\Study Material\XC8 PROJECTS\Aurangabad\usart_pic16.c"
  8506 ;; Parameters:    Size  Location     Type
  8507 ;;		None
  8508 ;; Auto vars:     Size  Location     Type
  8509 ;;  data            1    1[BANK0 ] unsigned char 
  8510 ;; Return value:  Size  Location     Type
  8511 ;;                  1    wreg      unsigned char 
  8512 ;; Registers used:
  8513 ;;		wreg, fsr0l, fsr0h, status,2, status,0
  8514 ;; Tracked objects:
  8515 ;;		On entry : 0/0
  8516 ;;		On exit  : 0/0
  8517 ;;		Unchanged: 0/0
  8518 ;; Data sizes:     COMMON   BANK0   BANK1   BANK3   BANK2
  8519 ;;      Params:         0       0       0       0       0
  8520 ;;      Locals:         0       1       0       0       0
  8521 ;;      Temps:          0       1       0       0       0
  8522 ;;      Totals:         0       2       0       0       0
  8523 ;;Total ram usage:        2 bytes
  8524 ;; Hardware stack levels used:    1
  8525 ;; Hardware stack levels required when called:    2
  8526 ;; This function calls:
  8527 ;;		Nothing
  8528 ;; This function is called by:
  8529 ;;		_SIM300WaitForResponse
  8530 ;;		_SIM300RingResponse
  8531 ;;		_USARTReadBuffer
  8532 ;;		_USARTFlushBuffer
  8533 ;; This function uses a non-reentrant model
  8534 ;;
  8535                           
  8536                           
  8537                           ;psect for function _USARTReadData
  8538  14CC                     _USARTReadData:	
  8539                           
  8540                           ;usart_pic16.c: 133: char data;
  8541                           ;usart_pic16.c: 136: if(UQFront==-1)
  8542                           
  8543                           ;incstack = 0
  8544                           ; Regs used in _USARTReadData: [wreg-fsr0h+status,2+status,0]
  8545  14CC  087A               	movf	_UQFront,w	;volatile
  8546  14CD  3AFF               	xorlw	-1
  8547  14CE  1D03               	skipz
  8548  14CF  2CD2               	goto	l2607
  8549                           
  8550                           ;usart_pic16.c: 137: return 0;
  8551  14D0  3000               	movlw	0
  8552  14D1  0008               	return
  8553  14D2                     l2607:	
  8554                           
  8555                           ;usart_pic16.c: 139: data=URBuff[UQFront];
  8556  14D2  087A               	movf	_UQFront,w
  8557  14D3  3E10               	addlw	_URBuff& (0+255)
  8558  14D4  0084               	movwf	4
  8559  14D5  1783               	bsf	3,7	;select IRP bank2
  8560  14D6  0800               	movf	0,w
  8561  14D7  1283               	bcf	3,5	;RP0=0, select bank0
  8562  14D8  1303               	bcf	3,6	;RP1=0, select bank0
  8563  14D9  00A0               	movwf	??_USARTReadData
  8564  14DA  0820               	movf	??_USARTReadData,w
  8565  14DB  00A1               	movwf	USARTReadData@data
  8566                           
  8567                           ;usart_pic16.c: 141: if(UQFront==UQEnd)
  8568  14DC  087A               	movf	_UQFront,w	;volatile
  8569  14DD  0679               	xorwf	_UQEnd,w	;volatile
  8570  14DE  1D03               	skipz
  8571  14DF  2CE6               	goto	l2613
  8572                           
  8573                           ;usart_pic16.c: 142: {
  8574                           ;usart_pic16.c: 145: UQFront=UQEnd=-1;
  8575  14E0  30FF               	movlw	-1
  8576  14E1  00F9               	movwf	_UQEnd	;volatile
  8577  14E2  00A0               	movwf	??_USARTReadData
  8578  14E3  0820               	movf	??_USARTReadData,w
  8579  14E4  00FA               	movwf	_UQFront	;volatile
  8580                           
  8581                           ;usart_pic16.c: 146: }
  8582  14E5  2CEE               	goto	l2619
  8583  14E6                     l2613:	
  8584                           
  8585                           ;usart_pic16.c: 147: else
  8586                           ;usart_pic16.c: 148: {
  8587                           ;usart_pic16.c: 149: UQFront++;
  8588  14E6  3001               	movlw	1
  8589  14E7  00A0               	movwf	??_USARTReadData
  8590  14E8  0820               	movf	??_USARTReadData,w
  8591  14E9  07FA               	addwf	_UQFront,f	;volatile
  8592                           
  8593                           ;usart_pic16.c: 151: if(UQFront==64)
  8594  14EA  087A               	movf	_UQFront,w	;volatile
  8595  14EB  3A40               	xorlw	64
  8596  14EC  1903               	btfsc	3,2
  8597                           
  8598                           ;usart_pic16.c: 152: UQFront=0;
  8599  14ED  01FA               	clrf	_UQFront	;volatile
  8600  14EE                     l2619:	
  8601                           
  8602                           ;usart_pic16.c: 153: }
  8603                           ;usart_pic16.c: 155: return data;
  8604  14EE  0821               	movf	USARTReadData@data,w
  8605  14EF  0008               	return
  8606  14F0                     __end_of_USARTReadData:	
  8607                           
  8608                           	psect	text38
  8609  14A8                     __ptext38:	
  8610 ;; *************** function _USARTDataAvailable *****************
  8611 ;; Defined at:
  8612 ;;		line 159 in file "E:\Study Material\XC8 PROJECTS\Aurangabad\usart_pic16.c"
  8613 ;; Parameters:    Size  Location     Type
  8614 ;;		None
  8615 ;; Auto vars:     Size  Location     Type
  8616 ;;		None
  8617 ;; Return value:  Size  Location     Type
  8618 ;;                  1    wreg      unsigned char 
  8619 ;; Registers used:
  8620 ;;		wreg, status,2, status,0
  8621 ;; Tracked objects:
  8622 ;;		On entry : 0/0
  8623 ;;		On exit  : 0/0
  8624 ;;		Unchanged: 0/0
  8625 ;; Data sizes:     COMMON   BANK0   BANK1   BANK3   BANK2
  8626 ;;      Params:         0       0       0       0       0
  8627 ;;      Locals:         0       0       0       0       0
  8628 ;;      Temps:          0       1       0       0       0
  8629 ;;      Totals:         0       1       0       0       0
  8630 ;;Total ram usage:        1 bytes
  8631 ;; Hardware stack levels used:    1
  8632 ;; Hardware stack levels required when called:    2
  8633 ;; This function calls:
  8634 ;;		Nothing
  8635 ;; This function is called by:
  8636 ;;		_SIM300Init
  8637 ;;		_SIM300Cmd
  8638 ;;		_SIM300WaitForResponse
  8639 ;;		_SIM300RingResponse
  8640 ;;		_SIM300SendMsg
  8641 ;;		_USARTFlushBuffer
  8642 ;; This function uses a non-reentrant model
  8643 ;;
  8644                           
  8645                           
  8646                           ;psect for function _USARTDataAvailable
  8647  14A8                     _USARTDataAvailable:	
  8648                           
  8649                           ;usart_pic16.c: 161: if(UQFront==-1)
  8650                           
  8651                           ;incstack = 0
  8652                           ; Regs used in _USARTDataAvailable: [wreg+status,2+status,0]
  8653  14A8  087A               	movf	_UQFront,w	;volatile
  8654  14A9  3AFF               	xorlw	-1
  8655  14AA  1D03               	skipz
  8656  14AB  2CAE               	goto	l2577
  8657                           
  8658                           ;usart_pic16.c: 162: return 0;
  8659  14AC  3000               	movlw	0
  8660  14AD  0008               	return
  8661  14AE                     l2577:	
  8662                           
  8663                           ;usart_pic16.c: 163: if(UQFront<UQEnd)
  8664  14AE  087A               	movf	_UQFront,w	;volatile
  8665  14AF  3A80               	xorlw	128
  8666  14B0  1283               	bcf	3,5	;RP0=0, select bank0
  8667  14B1  1303               	bcf	3,6	;RP1=0, select bank0
  8668  14B2  00A0               	movwf	??_USARTDataAvailable
  8669  14B3  0879               	movf	_UQEnd,w	;volatile
  8670  14B4  3A80               	xorlw	128
  8671  14B5  02A0               	subwf	??_USARTDataAvailable,f
  8672  14B6  1803               	skipnc
  8673  14B7  2CBD               	goto	l2585
  8674                           
  8675                           ;usart_pic16.c: 164: return(UQEnd-UQFront+1);
  8676  14B8  037A               	decf	_UQFront,w	;volatile
  8677  14B9  3AFF               	xorlw	255
  8678  14BA  0779               	addwf	_UQEnd,w	;volatile
  8679  14BB  3E01               	addlw	1
  8680  14BC  0008               	return
  8681  14BD                     l2585:	
  8682                           
  8683                           ;usart_pic16.c: 165: else if(UQFront>UQEnd)
  8684  14BD  0879               	movf	_UQEnd,w	;volatile
  8685  14BE  3A80               	xorlw	128
  8686  14BF  00A0               	movwf	??_USARTDataAvailable
  8687  14C0  087A               	movf	_UQFront,w	;volatile
  8688  14C1  3A80               	xorlw	128
  8689  14C2  02A0               	subwf	??_USARTDataAvailable,f
  8690  14C3  1803               	skipnc
  8691  14C4  2CCA               	goto	l2593
  8692                           
  8693                           ;usart_pic16.c: 166: return (64-UQFront+UQEnd+1);
  8694  14C5  037A               	decf	_UQFront,w	;volatile
  8695  14C6  3AFF               	xorlw	255
  8696  14C7  0779               	addwf	_UQEnd,w	;volatile
  8697  14C8  3E41               	addlw	65
  8698  14C9  0008               	return
  8699  14CA                     l2593:	
  8700                           
  8701                           ;usart_pic16.c: 167: else
  8702                           ;usart_pic16.c: 168: return 1;
  8703  14CA  3001               	movlw	1
  8704  14CB  0008               	return
  8705  14CC                     __end_of_USARTDataAvailable:	
  8706                           
  8707                           	psect	text39
  8708  0AD7                     __ptext39:	
  8709 ;; *************** function _SIM300CheckResponse *****************
  8710 ;; Defined at:
  8711 ;;		line 131 in file "E:\Study Material\XC8 PROJECTS\Aurangabad\sim300.c"
  8712 ;; Parameters:    Size  Location     Type
  8713 ;;  response        1    wreg     PTR const unsigned char 
  8714 ;;		 -> sim300_buffer(70), 
  8715 ;;  check           2    0[BANK0 ] PTR const unsigned char 
  8716 ;;		 -> STR_39(3), 
  8717 ;;  len             1    2[BANK0 ] unsigned char 
  8718 ;; Auto vars:     Size  Location     Type
  8719 ;;  response        1   10[BANK0 ] PTR const unsigned char 
  8720 ;;		 -> sim300_buffer(70), 
  8721 ;;  i               1    9[BANK0 ] unsigned char 
  8722 ;; Return value:  Size  Location     Type
  8723 ;;                  1    wreg      char 
  8724 ;; Registers used:
  8725 ;;		wreg, fsr0l, fsr0h, status,2, status,0, btemp+1, pclath
  8726 ;; Tracked objects:
  8727 ;;		On entry : 0/0
  8728 ;;		On exit  : 0/0
  8729 ;;		Unchanged: 0/0
  8730 ;; Data sizes:     COMMON   BANK0   BANK1   BANK3   BANK2
  8731 ;;      Params:         0       3       0       0       0
  8732 ;;      Locals:         0       2       0       0       0
  8733 ;;      Temps:          0       6       0       0       0
  8734 ;;      Totals:         0      11       0       0       0
  8735 ;;Total ram usage:       11 bytes
  8736 ;; Hardware stack levels used:    1
  8737 ;; Hardware stack levels required when called:    2
  8738 ;; This function calls:
  8739 ;;		Nothing
  8740 ;; This function is called by:
  8741 ;;		_SIM300Init
  8742 ;; This function uses a non-reentrant model
  8743 ;;
  8744                           
  8745                           
  8746                           ;psect for function _SIM300CheckResponse
  8747  0AD7                     _SIM300CheckResponse:	
  8748                           
  8749                           ;incstack = 0
  8750                           ; Regs used in _SIM300CheckResponse: [wreg-fsr0h+status,2+status,0+btemp+1+pclath]
  8751                           ;SIM300CheckResponse@response stored from wreg
  8752  0AD7  1283               	bcf	3,5	;RP0=0, select bank0
  8753  0AD8  1303               	bcf	3,6	;RP1=0, select bank0
  8754  0AD9  00AA               	movwf	SIM300CheckResponse@response
  8755                           
  8756                           ;sim300.c: 133: len-=2;
  8757  0ADA  3002               	movlw	2
  8758  0ADB  02A2               	subwf	SIM300CheckResponse@len,f
  8759                           
  8760                           ;sim300.c: 136: if(response[0]!=0x0D | response[1]!=0x0A)
  8761  0ADC  082A               	movf	SIM300CheckResponse@response,w
  8762  0ADD  0084               	movwf	4
  8763  0ADE  1783               	bsf	3,7	;select IRP bank2
  8764  0ADF  0800               	movf	0,w
  8765  0AE0  3A0D               	xorlw	13
  8766  0AE1  1D03               	skipz
  8767  0AE2  2AE9               	goto	l3297
  8768  0AE3  0A2A               	incf	SIM300CheckResponse@response,w
  8769  0AE4  0084               	movwf	4
  8770  0AE5  0800               	movf	0,w
  8771  0AE6  3A0A               	xorlw	10
  8772  0AE7  1903               	skipnz
  8773  0AE8  2AEB               	goto	l3301
  8774  0AE9                     l3297:	
  8775                           
  8776                           ;sim300.c: 137: return -1;
  8777  0AE9  30FF               	movlw	-1
  8778  0AEA  0008               	return
  8779  0AEB                     l3301:	
  8780                           
  8781                           ;sim300.c: 140: if(response[len]!=0x0D | response[len+1]!=0x0A)
  8782  0AEB  0822               	movf	SIM300CheckResponse@len,w
  8783  0AEC  072A               	addwf	SIM300CheckResponse@response,w
  8784  0AED  00A3               	movwf	??_SIM300CheckResponse
  8785  0AEE  0823               	movf	??_SIM300CheckResponse,w
  8786  0AEF  0084               	movwf	4
  8787  0AF0  0800               	movf	0,w
  8788  0AF1  3A0D               	xorlw	13
  8789  0AF2  1D03               	skipz
  8790  0AF3  2AFE               	goto	l3305
  8791  0AF4  0822               	movf	SIM300CheckResponse@len,w
  8792  0AF5  3E01               	addlw	1
  8793  0AF6  072A               	addwf	SIM300CheckResponse@response,w
  8794  0AF7  00A3               	movwf	??_SIM300CheckResponse
  8795  0AF8  0823               	movf	??_SIM300CheckResponse,w
  8796  0AF9  0084               	movwf	4
  8797  0AFA  0800               	movf	0,w
  8798  0AFB  3A0A               	xorlw	10
  8799  0AFC  1903               	skipnz
  8800  0AFD  2B00               	goto	l3309
  8801  0AFE                     l3305:	
  8802                           
  8803                           ;sim300.c: 141: return -1;
  8804  0AFE  30FF               	movlw	-1
  8805  0AFF  0008               	return
  8806  0B00                     l3309:	
  8807                           
  8808                           ;sim300.c: 145: for(uint8_t i=2;i<len;i++)
  8809  0B00  3002               	movlw	2
  8810  0B01  00A3               	movwf	??_SIM300CheckResponse
  8811  0B02  0823               	movf	??_SIM300CheckResponse,w
  8812  0B03  00A9               	movwf	SIM300CheckResponse@i
  8813  0B04                     l3319:	
  8814  0B04  0822               	movf	SIM300CheckResponse@len,w
  8815  0B05  0229               	subwf	SIM300CheckResponse@i,w
  8816  0B06  1803               	btfsc	3,0
  8817  0B07  2B33               	goto	l3321
  8818                           
  8819                           ;sim300.c: 146: {
  8820                           ;sim300.c: 147: if(response[i]!=check[i-2])
  8821  0B08  30FE               	movlw	-2
  8822  0B09  0729               	addwf	SIM300CheckResponse@i,w
  8823  0B0A  00A3               	movwf	??_SIM300CheckResponse
  8824  0B0B  0823               	movf	??_SIM300CheckResponse,w
  8825  0B0C  0720               	addwf	SIM300CheckResponse@check,w
  8826  0B0D  00A5               	movwf	??_SIM300CheckResponse+2
  8827  0B0E  0821               	movf	SIM300CheckResponse@check+1,w
  8828  0B0F  00A4               	movwf	??_SIM300CheckResponse+1
  8829  0B10  1803               	skipnc
  8830  0B11  0AA4               	incf	??_SIM300CheckResponse+1,f
  8831  0B12  1BA3               	btfsc	??_SIM300CheckResponse,7
  8832  0B13  03A4               	decf	??_SIM300CheckResponse+1,f
  8833  0B14  1283               	bcf	3,5	;RP0=0, select bank0
  8834  0B15  1303               	bcf	3,6	;RP1=0, select bank0
  8835  0B16  0824               	movf	??_SIM300CheckResponse+1,w
  8836  0B17  00A6               	movwf	??_SIM300CheckResponse+3
  8837  0B18  0826               	movf	??_SIM300CheckResponse+3,w
  8838  0B19  00FF               	movwf	127
  8839  0B1A  0825               	movf	??_SIM300CheckResponse+2,w
  8840  0B1B  0084               	movwf	4
  8841  0B1C  120A  158A  2000  120A  158A  	fcall	stringtab
  8842  0B21  00A7               	movwf	??_SIM300CheckResponse+4
  8843  0B22  0829               	movf	SIM300CheckResponse@i,w
  8844  0B23  072A               	addwf	SIM300CheckResponse@response,w
  8845  0B24  00A8               	movwf	??_SIM300CheckResponse+5
  8846  0B25  0828               	movf	??_SIM300CheckResponse+5,w
  8847  0B26  0084               	movwf	4
  8848  0B27  1783               	bsf	3,7	;select IRP bank2
  8849  0B28  0800               	movf	0,w
  8850  0B29  0627               	xorwf	??_SIM300CheckResponse+4,w
  8851  0B2A  1903               	skipnz
  8852  0B2B  2B2E               	goto	l3317
  8853                           
  8854                           ;sim300.c: 148: return -2;
  8855  0B2C  30FE               	movlw	-2
  8856  0B2D  0008               	return
  8857  0B2E                     l3317:	
  8858  0B2E  3001               	movlw	1
  8859  0B2F  00A3               	movwf	??_SIM300CheckResponse
  8860  0B30  0823               	movf	??_SIM300CheckResponse,w
  8861  0B31  07A9               	addwf	SIM300CheckResponse@i,f
  8862  0B32  2B04               	goto	l3319
  8863  0B33                     l3321:	
  8864                           
  8865                           ;sim300.c: 149: }
  8866                           ;sim300.c: 151: return 1;
  8867  0B33  3001               	movlw	1
  8868  0B34  0008               	return
  8869  0B35                     __end_of_SIM300CheckResponse:	
  8870                           
  8871                           	psect	text40
  8872  1428                     __ptext40:	
  8873 ;; *************** function _ISR *****************
  8874 ;; Defined at:
  8875 ;;		line 6 in file "E:\Study Material\XC8 PROJECTS\Aurangabad\isr.c"
  8876 ;; Parameters:    Size  Location     Type
  8877 ;;		None
  8878 ;; Auto vars:     Size  Location     Type
  8879 ;;		None
  8880 ;; Return value:  Size  Location     Type
  8881 ;;		None               void
  8882 ;; Registers used:
  8883 ;;		wreg, fsr0l, fsr0h, status,2, status,0, pclath, cstack
  8884 ;; Tracked objects:
  8885 ;;		On entry : 0/0
  8886 ;;		On exit  : 0/0
  8887 ;;		Unchanged: 0/0
  8888 ;; Data sizes:     COMMON   BANK0   BANK1   BANK3   BANK2
  8889 ;;      Params:         0       0       0       0       0
  8890 ;;      Locals:         0       0       0       0       0
  8891 ;;      Temps:          4       0       0       0       0
  8892 ;;      Totals:         4       0       0       0       0
  8893 ;;Total ram usage:        4 bytes
  8894 ;; Hardware stack levels used:    1
  8895 ;; Hardware stack levels required when called:    1
  8896 ;; This function calls:
  8897 ;;		_USARTHandleRxInt
  8898 ;; This function is called by:
  8899 ;;		Interrupt level 1
  8900 ;; This function uses a non-reentrant model
  8901 ;;
  8902                           
  8903                           
  8904                           ;psect for function _ISR
  8905  1428                     _ISR:	
  8906                           
  8907                           ;isr.c: 8: if (RCIE && RCIF) {
  8908  1428  1683               	bsf	3,5	;RP0=1, select bank1
  8909  1429  1303               	bcf	3,6	;RP1=0, select bank1
  8910  142A  1E8C               	btfss	12,5	;volatile
  8911  142B  2C35               	goto	i1l16
  8912  142C  1283               	bcf	3,5	;RP0=0, select bank0
  8913  142D  1303               	bcf	3,6	;RP1=0, select bank0
  8914  142E  1E8C               	btfss	12,5	;volatile
  8915  142F  2C35               	goto	i1l16
  8916                           
  8917                           ;isr.c: 9: USARTHandleRxInt();
  8918  1430  160A  118A  26D5  160A  118A  	fcall	_USARTHandleRxInt
  8919  1435                     i1l16:	
  8920                           ;isr.c: 10: return;
  8921                           
  8922  1435  0878               	movf	??_ISR+3,w
  8923  1436  1283               	bcf	3,5	;RP0=0, select bank0
  8924  1437  1303               	bcf	3,6	;RP1=0, select bank0
  8925  1438  00FF               	movwf	127
  8926  1439  0877               	movf	??_ISR+2,w
  8927  143A  008A               	movwf	10
  8928  143B  0876               	movf	??_ISR+1,w
  8929  143C  0084               	movwf	4
  8930  143D  0E75               	swapf	??_ISR^(0+-128),w
  8931  143E  0083               	movwf	3
  8932  143F  0EFE               	swapf	126,f
  8933  1440  0E7E               	swapf	126,w
  8934  1441  0009               	retfie
  8935  1442                     __end_of_ISR:	
  8936                           
  8937                           	psect	intentry
  8938  0004                     __pintentry:	
  8939                           ;incstack = 0
  8940                           ; Regs used in _ISR: [wreg-fsr0h+status,2+status,0+pclath+cstack]
  8941                           
  8942  0004                     interrupt_function:	
  8943  007E                     saved_w	set	btemp
  8944  0004  00FE               	movwf	btemp
  8945  0005  0E03               	swapf	3,w
  8946  0006  00F5               	movwf	??_ISR
  8947  0007  0804               	movf	4,w
  8948  0008  00F6               	movwf	??_ISR+1
  8949  0009  080A               	movf	10,w
  8950  000A  00F7               	movwf	??_ISR+2
  8951  000B  1283               	bcf	3,5	;RP0=0, select bank0
  8952  000C  1303               	bcf	3,6	;RP1=0, select bank0
  8953  000D  087F               	movf	btemp+1,w
  8954  000E  00F8               	movwf	??_ISR+3
  8955  000F  160A  118A  2C28   	ljmp	_ISR
  8956                           
  8957                           	psect	text41
  8958  16D5                     __ptext41:	
  8959 ;; *************** function _USARTHandleRxInt *****************
  8960 ;; Defined at:
  8961 ;;		line 99 in file "E:\Study Material\XC8 PROJECTS\Aurangabad\usart_pic16.c"
  8962 ;; Parameters:    Size  Location     Type
  8963 ;;		None
  8964 ;; Auto vars:     Size  Location     Type
  8965 ;;  data            1    4[COMMON] unsigned char 
  8966 ;; Return value:  Size  Location     Type
  8967 ;;		None               void
  8968 ;; Registers used:
  8969 ;;		wreg, fsr0l, fsr0h, status,2, status,0
  8970 ;; Tracked objects:
  8971 ;;		On entry : 0/0
  8972 ;;		On exit  : 0/0
  8973 ;;		Unchanged: 0/0
  8974 ;; Data sizes:     COMMON   BANK0   BANK1   BANK3   BANK2
  8975 ;;      Params:         0       0       0       0       0
  8976 ;;      Locals:         1       0       0       0       0
  8977 ;;      Temps:          4       0       0       0       0
  8978 ;;      Totals:         5       0       0       0       0
  8979 ;;Total ram usage:        5 bytes
  8980 ;; Hardware stack levels used:    1
  8981 ;; This function calls:
  8982 ;;		Nothing
  8983 ;; This function is called by:
  8984 ;;		_ISR
  8985 ;; This function uses a non-reentrant model
  8986 ;;
  8987                           
  8988                           
  8989                           ;psect for function _USARTHandleRxInt
  8990  16D5                     _USARTHandleRxInt:	
  8991                           
  8992                           ;usart_pic16.c: 102: if(RB1==1)
  8993                           
  8994                           ;incstack = 0
  8995                           ; Regs used in _USARTHandleRxInt: [wreg-fsr0h+status,2+status,0]
  8996  16D5  1283               	bcf	3,5	;RP0=0, select bank0
  8997  16D6  1303               	bcf	3,6	;RP1=0, select bank0
  8998  16D7  1C86               	btfss	6,1	;volatile
  8999  16D8  2EDB               	goto	i1l398
  9000                           
  9001                           ;usart_pic16.c: 103: RB1=0;
  9002  16D9  1086               	bcf	6,1	;volatile
  9003  16DA  2EDC               	goto	i1l3329
  9004  16DB                     i1l398:	
  9005                           
  9006                           ;usart_pic16.c: 104: else
  9007                           ;usart_pic16.c: 105: RB1=1;
  9008  16DB  1486               	bsf	6,1	;volatile
  9009  16DC                     i1l3329:	
  9010                           
  9011                           ;usart_pic16.c: 108: char data=RCREG;
  9012  16DC  081A               	movf	26,w	;volatile
  9013  16DD  00F0               	movwf	??_USARTHandleRxInt
  9014  16DE  0870               	movf	??_USARTHandleRxInt,w
  9015  16DF  00F4               	movwf	USARTHandleRxInt@data
  9016                           
  9017                           ;usart_pic16.c: 111: if(((UQEnd==64-1) && UQFront==0) || ((UQEnd+1)==UQFront))
  9018  16E0  0879               	movf	_UQEnd,w	;volatile
  9019  16E1  3A3F               	xorlw	63
  9020  16E2  1903               	btfsc	3,2
  9021  16E3  087A               	movf	_UQFront,w	;volatile
  9022  16E4  1903               	btfsc	3,2
  9023  16E5  2EFD               	goto	i1l3335
  9024  16E6  087A               	movf	_UQFront,w	;volatile
  9025  16E7  00F0               	movwf	??_USARTHandleRxInt
  9026  16E8  01F1               	clrf	??_USARTHandleRxInt+1
  9027  16E9  1BF0               	btfsc	??_USARTHandleRxInt,7
  9028  16EA  03F1               	decf	??_USARTHandleRxInt+1,f
  9029  16EB  3001               	movlw	1
  9030  16EC  0779               	addwf	_UQEnd,w	;volatile
  9031  16ED  00F2               	movwf	??_USARTHandleRxInt+2
  9032  16EE  01F3               	clrf	??_USARTHandleRxInt+3
  9033  16EF  1803               	skipnc
  9034  16F0  0AF3               	incf	??_USARTHandleRxInt+3,f
  9035  16F1  1BF9               	btfsc	_UQEnd,7	;volatile
  9036  16F2  03F3               	decf	??_USARTHandleRxInt+3,f
  9037  16F3  0871               	movf	??_USARTHandleRxInt+1,w
  9038  16F4  0673               	xorwf	??_USARTHandleRxInt+3,w
  9039  16F5  1D03               	skipz
  9040  16F6  2EF9               	goto	u281_25
  9041  16F7  0870               	movf	??_USARTHandleRxInt,w
  9042  16F8  0672               	xorwf	??_USARTHandleRxInt+2,w
  9043  16F9                     u281_25:	
  9044  16F9  1D03               	skipz
  9045  16FA  2F05               	goto	i1l3341
  9046  16FB  1283               	bcf	3,5	;RP0=0, select bank0
  9047  16FC  1303               	bcf	3,6	;RP1=0, select bank0
  9048  16FD                     i1l3335:	
  9049                           
  9050                           ;usart_pic16.c: 112: {
  9051                           ;usart_pic16.c: 114: UQFront++;
  9052  16FD  3001               	movlw	1
  9053  16FE  00F0               	movwf	??_USARTHandleRxInt
  9054  16FF  0870               	movf	??_USARTHandleRxInt,w
  9055  1700  07FA               	addwf	_UQFront,f	;volatile
  9056                           
  9057                           ;usart_pic16.c: 115: if(UQFront==64)
  9058  1701  087A               	movf	_UQFront,w	;volatile
  9059  1702  3A40               	xorlw	64
  9060  1703  1903               	btfsc	3,2
  9061                           
  9062                           ;usart_pic16.c: 116: UQFront=0;
  9063  1704  01FA               	clrf	_UQFront	;volatile
  9064  1705                     i1l3341:	
  9065                           
  9066                           ;usart_pic16.c: 117: }
  9067                           ;usart_pic16.c: 119: if(UQEnd==64-1)
  9068  1705  0879               	movf	_UQEnd,w	;volatile
  9069  1706  3A3F               	xorlw	63
  9070  1707  1D03               	skipz
  9071  1708  2F0B               	goto	i1l3345
  9072                           
  9073                           ;usart_pic16.c: 120: UQEnd=0;
  9074  1709  01F9               	clrf	_UQEnd	;volatile
  9075  170A  2F0F               	goto	i1l3347
  9076  170B                     i1l3345:	
  9077                           
  9078                           ;usart_pic16.c: 121: else
  9079                           ;usart_pic16.c: 122: UQEnd++;
  9080  170B  3001               	movlw	1
  9081  170C  00F0               	movwf	??_USARTHandleRxInt
  9082  170D  0870               	movf	??_USARTHandleRxInt,w
  9083  170E  07F9               	addwf	_UQEnd,f	;volatile
  9084  170F                     i1l3347:	
  9085                           
  9086                           ;usart_pic16.c: 124: URBuff[UQEnd]=data;
  9087  170F  0874               	movf	USARTHandleRxInt@data,w
  9088  1710  00F0               	movwf	??_USARTHandleRxInt
  9089  1711  0879               	movf	_UQEnd,w
  9090  1712  3E10               	addlw	_URBuff& (0+255)
  9091  1713  0084               	movwf	4
  9092  1714  0870               	movf	??_USARTHandleRxInt,w
  9093  1715  1783               	bsf	3,7	;select IRP bank2
  9094  1716  0080               	movwf	0
  9095                           
  9096                           ;usart_pic16.c: 126: if(UQFront==-1)
  9097  1717  087A               	movf	_UQFront,w	;volatile
  9098  1718  3AFF               	xorlw	-1
  9099  1719  1D03               	skipz
  9100  171A  0008               	return
  9101                           
  9102                           ;usart_pic16.c: 127: UQFront=0;
  9103  171B  01FA               	clrf	_UQFront	;volatile
  9104  171C  0008               	return
  9105  171D                     __end_of_USARTHandleRxInt:	
  9106  007E                     btemp	set	126	;btemp
  9107  007E                     wtemp	set	126
  9108  007E                     wtemp0	set	126
  9109  0080                     wtemp1	set	128
  9110  0082                     wtemp2	set	130
  9111  0084                     wtemp3	set	132
  9112  0086                     wtemp4	set	134
  9113  0088                     wtemp5	set	136
  9114  007F                     wtemp6	set	127
  9115  007E                     ttemp	set	126
  9116  007E                     ttemp0	set	126
  9117  0081                     ttemp1	set	129
  9118  0084                     ttemp2	set	132
  9119  0087                     ttemp3	set	135
  9120  007F                     ttemp4	set	127
  9121  007E                     ltemp	set	126
  9122  007E                     ltemp0	set	126
  9123  0082                     ltemp1	set	130
  9124  0086                     ltemp2	set	134
  9125  0080                     ltemp3	set	128


Data Sizes:
    Strings     294
    Constant    10
    Data        41
    BSS         163
    Persistent  0
    Stack       0

Auto Spaces:
    Space          Size  Autos    Used
    COMMON           14      9      11
    BANK0            80     80      80
    BANK1            80     27      80
    BANK3            96      0      85
    BANK2            96      0      64

Pointer List with Targets:

    strncmp@s2	PTR const unsigned char  size(2) Largest target is 4
		 -> STR_44(CODE[4]), 

    strncmp@s1	PTR const unsigned char  size(1) Largest target is 70
		 -> NULL(NULL[0]), sim300_buffer(BANK3[70]), 

    strchr@ptr	PTR const unsigned char  size(1) Largest target is 70
		 -> NULL(NULL[0]), sim300_buffer(BANK3[70]), 

    sp__strchr	PTR unsigned char  size(1) Largest target is 70
		 -> NULL(NULL[0]), sim300_buffer(BANK3[70]), 

    strstr@s2	PTR const unsigned char  size(2) Largest target is 4
		 -> STR_44(CODE[4]), 

    strstr@s1	PTR const unsigned char  size(1) Largest target is 70
		 -> NULL(NULL[0]), sim300_buffer(BANK3[70]), 

    strrichr@ptr	PTR const unsigned char  size(1) Largest target is 70
		 -> sim300_buffer(BANK3[70]), 

    strrichr@cp	PTR const unsigned char  size(1) Largest target is 70
		 -> sim300_buffer(BANK3[70]), 

    strnicmp@s2	PTR const unsigned char  size(2) Largest target is 7
		 -> STR_46(CODE[6]), STR_42(CODE[7]), STR_41(CODE[3]), STR_19(CODE[7]), 

    strnicmp@s1	PTR const unsigned char  size(1) Largest target is 70
		 -> sim300_buffer(BANK3[70]), 

    strlen@s	PTR const unsigned char  size(2) Largest target is 40
		 -> SIM300SendMsg@cmd(BANK1[25]), STR_44(CODE[4]), SIM300ReadValidMsg@cmd(BANK0[16]), SIM300DeleteMsg@cmd(BANK0[16]), 
		 -> STR_38(CODE[3]), STR_37(CODE[16]), STR_18(CODE[22]), STR_16(CODE[22]), 
		 -> STR_14(CODE[4]), STR_13(CODE[4]), STR_12(CODE[4]), STR_11(CODE[20]), 
		 -> STR_10(CODE[22]), STR_8(CODE[22]), STR_6(CODE[4]), phone_number(BANK1[40]), 
		 -> STR_5(CODE[4]), STR_4(CODE[4]), STR_3(CODE[10]), STR_2(CODE[10]), 
		 -> STR_1(CODE[10]), 

    strlen@cp	PTR const unsigned char  size(2) Largest target is 40
		 -> SIM300SendMsg@cmd(BANK1[25]), STR_44(CODE[4]), SIM300ReadValidMsg@cmd(BANK0[16]), SIM300DeleteMsg@cmd(BANK0[16]), 
		 -> STR_38(CODE[3]), STR_37(CODE[16]), STR_18(CODE[22]), STR_16(CODE[22]), 
		 -> STR_14(CODE[4]), STR_13(CODE[4]), STR_12(CODE[4]), STR_11(CODE[20]), 
		 -> STR_10(CODE[22]), STR_8(CODE[22]), STR_6(CODE[4]), phone_number(BANK1[40]), 
		 -> STR_5(CODE[4]), STR_4(CODE[4]), STR_3(CODE[10]), STR_2(CODE[10]), 
		 -> STR_1(CODE[10]), 

    strichr@ptr	PTR const unsigned char  size(1) Largest target is 70
		 -> sim300_buffer(BANK3[70]), 

    strcpy@from	PTR const unsigned char  size(2) Largest target is 21
		 -> STR_36(CODE[4]), STR_35(CODE[1]), STR_32(CODE[15]), STR_31(CODE[1]), 
		 -> STR_30(CODE[9]), STR_29(CODE[1]), STR_28(CODE[4]), STR_27(CODE[1]), 
		 -> STR_26(CODE[21]), STR_25(CODE[1]), STR_24(CODE[4]), STR_23(CODE[1]), 
		 -> STR_21(CODE[14]), STR_20(CODE[1]), 

    strcpy@to	PTR unsigned char  size(1) Largest target is 40
		 -> phone_number(BANK1[40]), 

    strcpy@cp	PTR unsigned char  size(1) Largest target is 40
		 -> phone_number(BANK1[40]), 

    strcat@from	PTR const unsigned char  size(2) Largest target is 13
		 -> STR_34(CODE[13]), STR_33(CODE[11]), STR_22(CODE[11]), 

    strcat@to	PTR unsigned char  size(1) Largest target is 40
		 -> phone_number(BANK1[40]), 

    strcat@cp	PTR unsigned char  size(1) Largest target is 40
		 -> phone_number(BANK1[40]), 

    atoi@s	PTR const unsigned char  size(1) Largest target is 70
		 -> sim300_buffer(BANK3[70]), 

    sprintf@f	PTR const unsigned char  size(2) Largest target is 12
		 -> STR_45(CODE[12]), STR_43(CODE[11]), STR_40(CODE[11]), 

    sprintf@_val._cp	PTR const unsigned char  size(2) Largest target is 15
		 -> STR_47(CODE[7]), STR_17(CODE[11]), STR_15(CODE[11]), MSG_number(BANK3[15]), 
		 -> STR_9(CODE[11]), STR_7(CODE[11]), 

    sprintf@sp	PTR unsigned char  size(1) Largest target is 25
		 -> SIM300SendMsg@cmd(BANK1[25]), SIM300ReadValidMsg@cmd(BANK0[16]), SIM300DeleteMsg@cmd(BANK0[16]), 

    sprintf@ap	PTR void [1] size(1) Largest target is 2
		 -> ?_sprintf(BANK0[2]), 

    S515$_cp	PTR const unsigned char  size(2) Largest target is 15
		 -> STR_47(CODE[7]), STR_17(CODE[11]), STR_15(CODE[11]), MSG_number(BANK3[15]), 
		 -> STR_9(CODE[11]), STR_7(CODE[11]), 

    _val._str._cp	PTR const unsigned char  size(2) Largest target is 15
		 -> STR_47(CODE[7]), STR_17(CODE[11]), STR_15(CODE[11]), MSG_number(BANK3[15]), 
		 -> STR_9(CODE[11]), STR_7(CODE[11]), 

    USARTReadBuffer@buff	PTR unsigned char  size(1) Largest target is 70
		 -> sim300_buffer(BANK3[70]), 

    USARTWriteString@str	PTR const unsigned char  size(2) Largest target is 40
		 -> SIM300SendMsg@cmd(BANK1[25]), SIM300ReadValidMsg@cmd(BANK0[16]), SIM300DeleteMsg@cmd(BANK0[16]), STR_38(CODE[3]), 
		 -> STR_37(CODE[16]), STR_18(CODE[22]), STR_16(CODE[22]), STR_14(CODE[4]), 
		 -> STR_13(CODE[4]), STR_12(CODE[4]), STR_11(CODE[20]), STR_10(CODE[22]), 
		 -> STR_8(CODE[22]), STR_6(CODE[4]), phone_number(BANK1[40]), STR_5(CODE[4]), 
		 -> STR_4(CODE[4]), STR_3(CODE[10]), STR_2(CODE[10]), STR_1(CODE[10]), 

    SIM300SendMsg@msg_ref	PTR unsigned char  size(1) Largest target is 1
		 -> SMSCommunication@ref_213(BANK0[1]), SMSCommunication@ref_210(BANK0[1]), SMSCommunication@ref_201(BANK0[1]), SMSCommunication@ref(BANK0[1]), 
		 -> main@ref(BANK0[1]), 

    SIM300SendMsg@msg	PTR const unsigned char  size(2) Largest target is 40
		 -> STR_37(CODE[16]), STR_18(CODE[22]), STR_16(CODE[22]), STR_11(CODE[20]), 
		 -> STR_10(CODE[22]), STR_8(CODE[22]), phone_number(BANK1[40]), 

    SIM300SendMsg@num	PTR const unsigned char  size(2) Largest target is 15
		 -> STR_17(CODE[11]), STR_15(CODE[11]), MSG_number(BANK3[15]), STR_9(CODE[11]), 
		 -> STR_7(CODE[11]), 

    sp__strstr	PTR unsigned char  size(1) Largest target is 70
		 -> NULL(NULL[0]), sim300_buffer(BANK3[70]), 

    SIM300ReadValidMsg@start	PTR unsigned char  size(1) Largest target is 70
		 -> NULL(NULL[0]), sim300_buffer(BANK3[70]), 

    SIM300CheckResponse@check	PTR const unsigned char  size(2) Largest target is 3
		 -> STR_39(CODE[3]), 

    SIM300CheckResponse@response	PTR const unsigned char  size(1) Largest target is 70
		 -> sim300_buffer(BANK3[70]), 

    SIM300Cmd@cmd	PTR const unsigned char  size(2) Largest target is 40
		 -> SIM300SendMsg@cmd(BANK1[25]), SIM300ReadValidMsg@cmd(BANK0[16]), SIM300DeleteMsg@cmd(BANK0[16]), STR_38(CODE[3]), 
		 -> STR_14(CODE[4]), STR_13(CODE[4]), STR_12(CODE[4]), STR_6(CODE[4]), 
		 -> phone_number(BANK1[40]), STR_5(CODE[4]), STR_4(CODE[4]), STR_3(CODE[10]), 
		 -> STR_2(CODE[10]), STR_1(CODE[10]), 

    sp__strcat	PTR unsigned char  size(1) Largest target is 40
		 -> phone_number(BANK1[40]), 

    sp__strcpy	PTR unsigned char  size(1) Largest target is 40
		 -> phone_number(BANK1[40]), 

    sp__strichr	PTR unsigned char  size(1) Largest target is 70
		 -> NULL(NULL[0]), sim300_buffer(BANK3[70]), 

    SIM300WaitForValidCall@start	PTR unsigned char  size(1) Largest target is 70
		 -> NULL(NULL[0]), sim300_buffer(BANK3[70]), 

    sp__strrichr	PTR unsigned char  size(1) Largest target is 70
		 -> NULL(NULL[0]), sim300_buffer(BANK3[70]), 


Critical Paths under _main in COMMON

    None.

Critical Paths under _ISR in COMMON

    _ISR->_USARTHandleRxInt

Critical Paths under _main in BANK0

    _main->_SMSCommunication
    _SMSCommunication->_SIM300SendMsg
    _SIM300WaitForValidMsg->_SIM300ReadValidMsg
    _SIM300ReadValidMsg->_sprintf
    _strstr->_strncmp
    _strncmp->_strlen
    _SIM300SendMsg->_SIM300DeleteMsg
    _atoi->___wmul
    _SIM300DeleteMsg->_sprintf
    _sprintf->___lwmod
    ___lwmod->___lwdiv
    _SIM300WaitForResponse->_USARTReadData
    _SIM300WaitForValidCall->_strnicmp
    _strrichr->_toupper
    _strnicmp->_toupper
    _strichr->_toupper
    _SIM300RingResponse->_USARTReadData
    _USARTFlushBuffer->_USARTReadData
    _SIM300Init->_SIM300Cmd
    _SIM300Cmd->_USARTReadBuffer
    _USARTWriteString->_USARTWriteChar
    _USARTReadBuffer->_strlen

Critical Paths under _ISR in BANK0

    None.

Critical Paths under _main in BANK1

    _main->_SIM300SendMsg
    _SMSCommunication->_SIM300SendMsg

Critical Paths under _ISR in BANK1

    None.

Critical Paths under _main in BANK3

    None.

Critical Paths under _ISR in BANK3

    None.

Critical Paths under _main in BANK2

    None.

Critical Paths under _ISR in BANK2

    None.

Call Graph Tables:

 ---------------------------------------------------------------------------------
 (Depth) Function   	        Calls       Base Space   Used Autos Params    Refs
 ---------------------------------------------------------------------------------
 (0) _main                                                10    10      0   51598
                                             70 BANK0     10    10      0
                          _SIM300Cmd
                         _SIM300Init
                      _SIM300SendMsg
             _SIM300WaitForValidCall
                   _SMSCommunication
                   _USARTFlushBuffer
                        _eeprom_read
                       _eeprom_write
                        _phase_check
                              _start
                               _stop
 ---------------------------------------------------------------------------------
 (1) _stop                                                 3     3      0       0
                                              0 BANK0      3     3      0
 ---------------------------------------------------------------------------------
 (1) _start                                                3     3      0       0
                                              0 BANK0      3     3      0
 ---------------------------------------------------------------------------------
 (1) _eeprom_write                                         3     2      1     415
                                              0 BANK0      3     2      1
 ---------------------------------------------------------------------------------
 (1) _SMSCommunication                                    11    11      0   29162
                                             59 BANK0     11    11      0
                      _SIM300SendMsg
              _SIM300WaitForValidMsg
                   _USARTFlushBuffer
                        _eeprom_read
                        _phase_check
                             _strcat
                             _strcpy
                             _strlen
 ---------------------------------------------------------------------------------
 (2) _strcpy                                               5     3      2    1195
                                              0 BANK0      5     3      2
 ---------------------------------------------------------------------------------
 (2) _strcat                                               5     3      2     338
                                              0 BANK0      5     3      2
 ---------------------------------------------------------------------------------
 (1) _phase_check                                          0     0      0       0
 ---------------------------------------------------------------------------------
 (1) _eeprom_read                                          2     2      0      22
                                              0 BANK0      2     2      0
 ---------------------------------------------------------------------------------
 (2) _SIM300WaitForValidMsg                                5     5      0   12591
                                             52 BANK0      5     5      0
                    _SIM300DeleteMsg
                 _SIM300ReadValidMsg
                   _USARTFlushBuffer
                           _strnicmp
 ---------------------------------------------------------------------------------
 (3) _SIM300ReadValidMsg                                  22    22      0    6601
                                             30 BANK0     22    22      0
                          _SIM300Cmd
              _SIM300WaitForResponse
                   _USARTFlushBuffer
                            _sprintf
                            _strichr
                           _strrichr
                             _strstr
 ---------------------------------------------------------------------------------
 (4) _strstr                                               6     4      2    1312
                                             13 BANK0      6     4      2
                             _strchr
                             _strlen
                            _strncmp
 ---------------------------------------------------------------------------------
 (5) _strncmp                                              7     3      4     267
                                              6 BANK0      7     3      4
                             _strlen (ARG)
 ---------------------------------------------------------------------------------
 (5) _strchr                                               3     1      2     168
                                              0 BANK0      3     1      2
 ---------------------------------------------------------------------------------
 (2) _SIM300SendMsg                                       36    31      5   13789
                                             50 BANK0      9     4      5
                                              0 BANK1     27    27      0
                          _SIM300Cmd
                    _SIM300DeleteMsg
              _SIM300WaitForResponse
                 _USARTDataAvailable
                   _USARTFlushBuffer
                    _USARTReadBuffer
                     _USARTWriteChar
                   _USARTWriteString
                               _atoi
                            _sprintf
                             _strlen
                           _strnicmp
 ---------------------------------------------------------------------------------
 (3) _atoi                                                 8     6      2     627
                                              6 BANK0      8     6      2
                             ___wmul
                            _isdigit
 ---------------------------------------------------------------------------------
 (4) _isdigit                                              2     2      0      68
                                              0 BANK0      2     2      0
 ---------------------------------------------------------------------------------
 (3) _SIM300DeleteMsg                                     20    20      0    5118
                                             30 BANK0     20    20      0
                          _SIM300Cmd
              _SIM300WaitForResponse
                   _USARTFlushBuffer
                            _sprintf
                           _strnicmp
 ---------------------------------------------------------------------------------
 (4) _sprintf                                             16    12      4    1365
                                             14 BANK0     16    12      4
                            ___lwdiv
                            ___lwmod
 ---------------------------------------------------------------------------------
 (5) ___lwmod                                              6     2      4     265
                                              8 BANK0      6     2      4
                            ___lwdiv (ARG)
 ---------------------------------------------------------------------------------
 (5) ___lwdiv                                              8     4      4     268
                                              0 BANK0      8     4      4
 ---------------------------------------------------------------------------------
 (4) _SIM300WaitForResponse                                6     4      2     438
                                              2 BANK0      6     4      2
                 _USARTDataAvailable
                   _USARTFlushBuffer
                      _USARTReadData
 ---------------------------------------------------------------------------------
 (1) _SIM300WaitForValidCall                               4     4      0    1921
                                             10 BANK0      4     4      0
                 _SIM300RingResponse
                   _USARTFlushBuffer
                            _strichr
                           _strnicmp
                           _strrichr
 ---------------------------------------------------------------------------------
 (4) _strrichr                                             6     4      2     407
                                              2 BANK0      6     4      2
                            _toupper
 ---------------------------------------------------------------------------------
 (3) _strnicmp                                             8     4      4     712
                                              2 BANK0      8     4      4
                            _toupper
 ---------------------------------------------------------------------------------
 (4) _strichr                                              5     3      2     339
                                              2 BANK0      5     3      2
                            _toupper
 ---------------------------------------------------------------------------------
 (4) _toupper                                              2     2      0      67
                                              0 BANK0      2     2      0
 ---------------------------------------------------------------------------------
 (2) _SIM300RingResponse                                   6     4      2     279
                                              2 BANK0      6     4      2
                 _USARTDataAvailable
                   _USARTFlushBuffer
                      _USARTReadData
 ---------------------------------------------------------------------------------
 (1) _USARTFlushBuffer                                     0     0      0      23
                 _USARTDataAvailable
                      _USARTReadData
 ---------------------------------------------------------------------------------
 (1) _SIM300Init                                           4     4      0    3308
                                             20 BANK0      4     4      0
                _SIM300CheckResponse
                          _SIM300Cmd
                 _USARTDataAvailable
                          _USARTInit
                    _USARTReadBuffer
 ---------------------------------------------------------------------------------
 (2) _USARTInit                                            3     1      2      75
                                              0 BANK0      3     1      2
 ---------------------------------------------------------------------------------
 (4) _SIM300Cmd                                            7     5      2    2456
                                             13 BANK0      7     5      2
                 _USARTDataAvailable
                    _USARTReadBuffer
                     _USARTWriteChar
                   _USARTWriteString
                             ___wmul
                             _strlen
 ---------------------------------------------------------------------------------
 (2) _strlen                                               6     4      2     620
                                              0 BANK0      6     4      2
 ---------------------------------------------------------------------------------
 (5) ___wmul                                               6     2      4     304
                                              0 BANK0      6     2      4
 ---------------------------------------------------------------------------------
 (5) _USARTWriteString                                     2     0      2     226
                                              1 BANK0      2     0      2
                     _USARTWriteChar
 ---------------------------------------------------------------------------------
 (6) _USARTWriteChar                                       1     1      0      22
                                              0 BANK0      1     1      0
 ---------------------------------------------------------------------------------
 (5) _USARTReadBuffer                                      7     5      2     353
                                              6 BANK0      7     5      2
                      _USARTReadData
                             _strlen (ARG)
 ---------------------------------------------------------------------------------
 (2) _USARTReadData                                        2     2      0      23
                                              0 BANK0      2     2      0
 ---------------------------------------------------------------------------------
 (2) _USARTDataAvailable                                   1     1      0       0
                                              0 BANK0      1     1      0
 ---------------------------------------------------------------------------------
 (2) _SIM300CheckResponse                                 11     8      3     400
                                              0 BANK0     11     8      3
 ---------------------------------------------------------------------------------
 Estimated maximum stack depth 6
 ---------------------------------------------------------------------------------
 (Depth) Function   	        Calls       Base Space   Used Autos Params    Refs
 ---------------------------------------------------------------------------------
 (7) _ISR                                                  4     4      0      23
                                              5 COMMON     4     4      0
                   _USARTHandleRxInt
 ---------------------------------------------------------------------------------
 (8) _USARTHandleRxInt                                     5     5      0      23
                                              0 COMMON     5     5      0
 ---------------------------------------------------------------------------------
 Estimated maximum stack depth 8
 ---------------------------------------------------------------------------------

 Call Graph Graphs:

 _main (ROOT)
   _SIM300Cmd
     _USARTDataAvailable
     _USARTReadBuffer
       _USARTReadData
       _strlen (ARG)
     _USARTWriteChar
     _USARTWriteString
       _USARTWriteChar
     ___wmul
     _strlen
   _SIM300Init
     _SIM300CheckResponse
     _SIM300Cmd
       _USARTDataAvailable
       _USARTReadBuffer
         _USARTReadData
         _strlen (ARG)
       _USARTWriteChar
       _USARTWriteString
         _USARTWriteChar
       ___wmul
       _strlen
     _USARTDataAvailable
     _USARTInit
     _USARTReadBuffer
       _USARTReadData
       _strlen (ARG)
   _SIM300SendMsg
     _SIM300Cmd
       _USARTDataAvailable
       _USARTReadBuffer
         _USARTReadData
         _strlen (ARG)
       _USARTWriteChar
       _USARTWriteString
         _USARTWriteChar
       ___wmul
       _strlen
     _SIM300DeleteMsg
       _SIM300Cmd
         _USARTDataAvailable
         _USARTReadBuffer
           _USARTReadData
           _strlen (ARG)
         _USARTWriteChar
         _USARTWriteString
           _USARTWriteChar
         ___wmul
         _strlen
       _SIM300WaitForResponse
         _USARTDataAvailable
         _USARTFlushBuffer
           _USARTDataAvailable
           _USARTReadData
         _USARTReadData
       _USARTFlushBuffer
         _USARTDataAvailable
         _USARTReadData
       _sprintf
         ___lwdiv
         ___lwmod
           ___lwdiv (ARG)
       _strnicmp
         _toupper
     _SIM300WaitForResponse
       _USARTDataAvailable
       _USARTFlushBuffer
         _USARTDataAvailable
         _USARTReadData
       _USARTReadData
     _USARTDataAvailable
     _USARTFlushBuffer
       _USARTDataAvailable
       _USARTReadData
     _USARTReadBuffer
       _USARTReadData
       _strlen (ARG)
     _USARTWriteChar
     _USARTWriteString
       _USARTWriteChar
     _atoi
       ___wmul
       _isdigit
     _sprintf
       ___lwdiv
       ___lwmod
         ___lwdiv (ARG)
     _strlen
     _strnicmp
       _toupper
   _SIM300WaitForValidCall
     _SIM300RingResponse
       _USARTDataAvailable
       _USARTFlushBuffer
         _USARTDataAvailable
         _USARTReadData
       _USARTReadData
     _USARTFlushBuffer
       _USARTDataAvailable
       _USARTReadData
     _strichr
       _toupper
     _strnicmp
       _toupper
     _strrichr
       _toupper
   _SMSCommunication
     _SIM300SendMsg
       _SIM300Cmd
         _USARTDataAvailable
         _USARTReadBuffer
           _USARTReadData
           _strlen (ARG)
         _USARTWriteChar
         _USARTWriteString
           _USARTWriteChar
         ___wmul
         _strlen
       _SIM300DeleteMsg
         _SIM300Cmd
           _USARTDataAvailable
           _USARTReadBuffer
             _USARTReadData
             _strlen (ARG)
           _USARTWriteChar
           _USARTWriteString
             _USARTWriteChar
           ___wmul
           _strlen
         _SIM300WaitForResponse
           _USARTDataAvailable
           _USARTFlushBuffer
             _USARTDataAvailable
             _USARTReadData
           _USARTReadData
         _USARTFlushBuffer
           _USARTDataAvailable
           _USARTReadData
         _sprintf
           ___lwdiv
           ___lwmod
             ___lwdiv (ARG)
         _strnicmp
           _toupper
       _SIM300WaitForResponse
         _USARTDataAvailable
         _USARTFlushBuffer
           _USARTDataAvailable
           _USARTReadData
         _USARTReadData
       _USARTDataAvailable
       _USARTFlushBuffer
         _USARTDataAvailable
         _USARTReadData
       _USARTReadBuffer
         _USARTReadData
         _strlen (ARG)
       _USARTWriteChar
       _USARTWriteString
         _USARTWriteChar
       _atoi
         ___wmul
         _isdigit
       _sprintf
         ___lwdiv
         ___lwmod
           ___lwdiv (ARG)
       _strlen
       _strnicmp
         _toupper
     _SIM300WaitForValidMsg
       _SIM300DeleteMsg
         _SIM300Cmd
           _USARTDataAvailable
           _USARTReadBuffer
             _USARTReadData
             _strlen (ARG)
           _USARTWriteChar
           _USARTWriteString
             _USARTWriteChar
           ___wmul
           _strlen
         _SIM300WaitForResponse
           _USARTDataAvailable
           _USARTFlushBuffer
             _USARTDataAvailable
             _USARTReadData
           _USARTReadData
         _USARTFlushBuffer
           _USARTDataAvailable
           _USARTReadData
         _sprintf
           ___lwdiv
           ___lwmod
             ___lwdiv (ARG)
         _strnicmp
           _toupper
       _SIM300ReadValidMsg
         _SIM300Cmd
           _USARTDataAvailable
           _USARTReadBuffer
             _USARTReadData
             _strlen (ARG)
           _USARTWriteChar
           _USARTWriteString
             _USARTWriteChar
           ___wmul
           _strlen
         _SIM300WaitForResponse
           _USARTDataAvailable
           _USARTFlushBuffer
             _USARTDataAvailable
             _USARTReadData
           _USARTReadData
         _USARTFlushBuffer
           _USARTDataAvailable
           _USARTReadData
         _sprintf
           ___lwdiv
           ___lwmod
             ___lwdiv (ARG)
         _strichr
           _toupper
         _strrichr
           _toupper
         _strstr
           _strchr
           _strlen
           _strncmp
             _strlen (ARG)
       _USARTFlushBuffer
         _USARTDataAvailable
         _USARTReadData
       _strnicmp
         _toupper
     _USARTFlushBuffer
       _USARTDataAvailable
       _USARTReadData
     _eeprom_read
     _phase_check
     _strcat
     _strcpy
     _strlen
   _USARTFlushBuffer
     _USARTDataAvailable
     _USARTReadData
   _eeprom_read
   _eeprom_write
   _phase_check
   _start
   _stop

 _ISR (ROOT)
   _USARTHandleRxInt

 Address spaces:
Name               Size   Autos  Total    Cost      Usage
BANK3               60      0      55       9       88.5%
BITBANK3            60      0       0       8        0.0%
SFR3                 0      0       0       4        0.0%
BITSFR3              0      0       0       4        0.0%
BANK2               60      0      40      11       66.7%
BITBANK2            60      0       0      10        0.0%
SFR2                 0      0       0       5        0.0%
BITSFR2              0      0       0       5        0.0%
BANK1               50     1B      50       7      100.0%
BITBANK1            50      0       0       6        0.0%
SFR1                 0      0       0       2        0.0%
BITSFR1              0      0       0       2        0.0%
BANK0               50     50      50       5      100.0%
BITBANK0            50      0       0       4        0.0%
SFR0                 0      0       0       1        0.0%
BITSFR0              0      0       0       1        0.0%
COMMON               E      9       B       1       78.6%
BITCOMMON            E      0       0       0        0.0%
CODE                 0      0       0       0        0.0%
DATA                 0      0     140      12        0.0%
ABS                  0      0     140       3        0.0%
NULL                 0      0       0       0        0.0%
STACK                0      0       0       2        0.0%
EEDATA             100      0       0       0        0.0%


Microchip Technology PIC Macro Assembler V1.32 build 58300 
Symbol Table                                                                                   Tue Feb 03 13:46:30 2015

            SMSCommunication@len 0065              SMSCommunication@ref 005E                                pc 0002  
                             _RD 0C60                               _WR 0C61                               fsr 0004  
            ___wmul@multiplicand 0022               USARTInit@baud_rate 0020              ?_SIM300ReadValidMsg 0070  
                            l114 0126                              l107 0057                              l135 0202  
                            l166 0D01                              l503 151A                              l525 1632  
                            l383 13D0                              l615 1569                              l376 1753  
           ??_USARTDataAvailable 0020                              _GIE 005F                              _RB0 0030  
                            _RB1 0031                              _RC0 0038                              _RC1 0039  
                            _RA5 002D                              _RC2 003A                              _RC3 003B  
                            _RC4 003C                              _RC5 003D                              _RB7 0037  
                            _ISR 1428                   ?_USARTReadData 0070                              fsr0 0004  
                            indf 0000           SMSCommunication@result 0063                      ?_SIM300Init 0070  
                           ?_ISR 0070                             l1061 07EA                             l3013 0D47  
                           l3131 0E26                             l3027 0D6C                             l3107 13E6  
                           l3301 0AEB                             l3061 0775                             l3029 0D86  
                           l3053 0DB4                             l3071 0795                             l3063 0781  
                           l3143 0E80                             l3039 0D9D                             l3321 0B33  
                           l3305 0AFE                             l3081 07CF                             l3161 0EC1  
                           l3049 0DB2                             l4131 1744                             l3171 0A29  
                           l3059 077C                             l3219 0B7B                             l3317 0B2E  
                           l3309 0B00                             l2613 14E6                             l4133 1749  
                           l3173 0A36                             l2701 1675                             l3077 079B  
                           l3237 0B91                             l3253 15DB                             l3501 063B  
                           l3319 0B04                             l2607 14D2                             l2631 158A  
                           l4135 174E                             l3263 1725                             l3087 07E0  
                           l3079 079F                             l3255 15E6                             l3247 1449  
                           l3511 0675                             l2633 159B                             l4129 173F  
                           l3265 1727                             l3273 1730                             l3185 0A54  
                           l3177 0A48                             l2801 094B                             l2705 1683  
                           l3441 054C                             l2619 14EE                             l2643 14F5  
                           l2651 1538                             l3267 1729                             l3371 0A95  
                           l2627 13E8                             l2803 0956                             l3259 15EE  
                           l3531 06C8                             l3269 172B                             l3373 0AD5  
                           l3365 0ABA                             l2813 0964                             l2709 168E  
                           l2733 17A6                             l3533 06E8                             l3517 0697  
                           l2655 1561                             l3199 0A76                             l2719 1415  
                           l2831 162D                             l2815 097A                             l2911 0F77  
                           l3535 06EE                             l3439 052C                             l3455 0598  
                           l3297 0AE9                             l2593 14CA                             l2585 14BD  
                           l2577 14AE                             l3609 0CF3                             l3625 0D0A  
                           l2729 178D                             l2737 1768                             l3473 05E3  
                           l3801 0289                             l2771 0C56                             l2827 1628  
                           l2851 09FE                             l2843 09F2                             l2683 16C3  
                           l2675 169F                             l2907 0F71                             l2739 17AF  
                           l3539 06FC                             l3731 0193                             l3715 016A  
                           l2829 1612                             l2837 09D3                             l2677 16AD  
                           l2933 0FAF                             l2925 0FAB                             l2749 07F3  
                           l3557 076E                             l3549 0744                             l3901 048E  
                           l3805 029B                             l3709 015C                             l3733 0196  
                           l2775 0C1E                             l2783 17EE                             l2791 17B5  
                           l3591 0CDA                             l2839 09E0                             l2687 16CE  
                           l2919 0F9C                             l2935 0EDC                             l2951 097F  
                           l3487 060F                             l3751 01D9                             l3743 01C8  
                           l3671 009F                             l2793 17FD                             l3569 0C79  
                           l2865 0A1E                             l2937 0FFB                             l3809 02A9  
                           l3753 01E1                             l3673 00A7                             l2787 17F4  
                           l2699 1667                             l2891 0F18                             l2875 0F02  
                           l2955 09CB                             l3827 02F2                             l3667 0098  
                           l3659 0083                             l3589 0CBF                             l2877 0F04  
                           l2949 09AF                             l3829 030F                             l3773 022B  
                           l2895 0F3C                             l2983 0BCE                             l2967 1404  
                           l3847 036F                             l3839 0364                             l3775 0232  
                           l2897 0F5A                             l3849 0389                             l3865 03E0  
                           l3777 0237                             l2995 0BED                             l3859 03B7  
                           l3699 013F                             l3899 0471          SMSCommunication@ref_201 005F  
        SMSCommunication@ref_210 0060          SMSCommunication@ref_213 0061                             STR_1 0902  
                           STR_2 08F8                             STR_3 08EE                             STR_4 0938  
                           STR_5 0938                             STR_6 0938                             STR_7 08E3  
                           STR_8 0832                             STR_9 08D8                             u2005 1684  
                           u2105 0C38                             u2205 09F0                             u2135 17C1  
                           u2215 09FA                             u2065 1774                             u4007 147E  
                           u2521 1518                             u4017 057A                             u4107 0C50  
                           u4027 0657                             u2605 0A46                             u4037 0726  
                           u2615 0A50                             u2295 0F92                             u4047 0766  
                           u1905 16A2                             u4057 0B53                             u1835 14FB  
                           u4067 0E0E                             u4077 09DB                             u1925 16AE  
                           u2565 0E4C                             u4087 0A31                             u1935 16BA  
                           u1865 156A                             u4097 0AB4                             u1945 16C4  
                           u1875 1571                             u3707 00EF                             _PEIE 005E  
                           u3717 0109                             u1975 166A                             u3807 0254  
                           u3727 011E                             i1l16 1435                             u3817 026E  
                           u3737 012D                             u1995 167B                             u3907 03EE  
                           u3827 028F                             u3747 0139                             u3667 0060  
                           _RCIE 0465                             _RCIF 0065                             u3917 0408  
                           u3837 02C1                             u3757 01A4                             u3677 0070  
                           u3927 0428                             u3847 02DB                             u3767 01BE  
                           u3687 00B7                             u3937 0441                             u3857 0337  
                           u3777 01F4                             u3697 00D5                             u3947 045B  
                           u3867 035C                             u3787 0207                             u3957 04B6  
                           u3877 03AB                             u3797 021F                             u3967 04DB  
                           u3887 03BF                             u3977 148F                             u3897 03D8  
                           u3987 14A0                             u3997 146D                             _WREN 0C62  
                 ??_eeprom_write 0021             ??_SIM300ReadValidMsg 003E           __end_of_USARTWriteChar 13D5  
                           _atoi 0772                             _main 0041                             btemp 007E  
                           _stop 1486                USARTReadData@data 0021                             ltemp 007E  
                           start 0012                             ttemp 007E                             wtemp 007E  
             __size_of_SIM300Cmd 0072              SIM300RingResponse@i 0027              SIM300RingResponse@n 0025  
                          ??_ISR 0075                ?_USARTHandleRxInt 0070                            ?_atoi 0026  
                          ?_main 0070               ??_USARTHandleRxInt 0070                            _EEADR 010D  
                          STR_10 0832                            STR_11 085D                            STR_20 088F  
                          STR_12 0938                            STR_13 0938                            STR_21 0890  
                          STR_14 0938                            STR_30 090C                            STR_22 08CD  
                          STR_31 088F                            STR_23 088F                            STR_15 08E3  
                          STR_24 0934                            STR_40 08B7                            STR_32 0881  
                          STR_16 081C                            STR_25 088F                            STR_33 08CD  
                          STR_17 08D8                            STR_41 093C                            STR_18 081C  
                          STR_42 091C                            STR_34 089E                            STR_26 0848  
                          STR_35 088F                            STR_27 088F                            STR_19 0923  
                          STR_43 08C2                            STR_36 0934                            STR_28 0934  
                          STR_44 0930                            STR_29 088F                            STR_45 08AB  
                          STR_37 0871                            STR_38 093F                            STR_46 092A  
                          STR_39 093C                            STR_47 0915                            _CARRY 0018  
               USARTWriteChar@ch 0020                            ?_stop 0070                  __end_of___lwdiv 16D5  
                __end_of___lwmod 1695                            i1l398 16DB                            _RCREG 001A  
                          _SPBRG 0099           __size_of_SIM300SendMsg 011F                            _TRISA 0085  
                          _TRISB 0086                            _TRISC 0087                            _TXREG 0019  
                          _UQEnd 0079                 ?_USARTReadBuffer 0026                     _WRONG_NUMBER 00EE  
                          _Timer 00ED                  __end_of_dpowers 081C                            _count 00EF  
                __end_of_isdigit 1406                            atoi@a 002B                            atoi@s 002D  
                          _start 1464                            main@i 006C                            main@r 006B  
                          pclath 000A                            ltemp0 007E                            ltemp1 0082  
                          ltemp2 0086                            ltemp3 0080               __size_of_USARTInit 0048  
                ?_USARTWriteChar 0070                            ttemp0 007E                            ttemp1 0081  
                          ttemp2 0084                            ttemp3 0087                            ttemp4 007F  
                          status 0003                            wtemp0 007E                            wtemp1 0080  
                          wtemp2 0082                            wtemp3 0084                            wtemp4 0086  
                          wtemp5 0088                            wtemp6 007F                  __end_of_sprintf 1000  
                __end_of_strichr 162F                     ?_phase_check 0070                  __end_of_strncmp 17B2  
                __end_of_toupper 1417          ??_SIM300WaitForValidMsg 0054          ??_SIM300WaitForResponse 0024  
                __initialization 0015              __size_of_SIM300Init 005C                     __end_of_atoi 07E7  
                   __end_of_main 04E3                     __end_of_stop 14A8            SIM300ReadValidMsg@cmd 0040  
          SIM300ReadValidMsg@len 0053                  ??_USARTReadData 0020                           ??_atoi 0028  
                         ??_main 0066                           ??_stop 0020                      SIM300Init@i 0036  
              __end_of_SIM300Cmd 0C64                           _ADCON1 009F               USARTReadBuffer@len 0026  
                         _EEDATA 010C                           _EECON1 018C                           _EECON2 018D  
                         ?_start 0070                           i1l3341 1705                           i1l3335 16FD  
                         i1l3345 170B                           i1l3329 16DC                           i1l3347 170F  
                         u281_25 16F9                ?_USARTFlushBuffer 0070                           _URBuff 0110  
                  _SIM300SendMsg 0DB6               ??_USARTFlushBuffer 0022               _SIM300RingResponse 0A23  
           __size_of_eeprom_read 0024                           ___wmul 155D              _SIM300CheckResponse 0AD7  
                      ??___lwdiv 0024                        ??___lwmod 002C              ?_SIM300RingResponse 0022  
       __end_of_USARTWriteString 155D         __end_of_SMSCommunication 0772             __end_of_eeprom_write 165F  
              __end_of_USARTInit 1765                           _strcat 15D4                           _strchr 07E7  
                         _strcpy 1442                           _strlen 1582                           _strstr 097C  
               SIM300SendMsg@cmd 00C9                        ??_isdigit 0020                 SIM300SendMsg@len 00E2  
               SIM300SendMsg@msg 0054                 SIM300SendMsg@num 0052                           saved_w 007E  
                      ??_sprintf 0032             ?_SIM300CheckResponse 0020                        ??_strichr 0024  
                      ??_strncmp 002A                        ??_toupper 0020             ??_SIM300RingResponse 0024  
               __end_of_strnicmp 1800                 __end_of_strrichr 097C         ??_SIM300WaitForValidCall 002A  
              SMSCommunication@c 0064                SMSCommunication@i 0062          __end_of__initialization 003D  
                eeprom_read@addr 0021                   ?_SIM300SendMsg 0052                   __pcstackCOMMON 0070  
                   __pidataBANK1 15AB           SIM300WaitForResponse@i 0027           SIM300WaitForResponse@n 0025  
                  __end_of_start 1486              SIM300ReadValidMsg@i 0050                     ??_SIM300Init 0034  
              eeprom_write@value 0020            ??_SIM300CheckResponse 0023                   SIM300SendMsg@n 00E3  
                   SIM300Cmd@cmd 002D                     SIM300Cmd@len 0033                          ??_start 0020  
                     __pbssBANK1 00E4                       __pbssBANK2 0110                       __pbssBANK3 0190  
       __size_of_SIM300DeleteMsg 005F      SIM300WaitForValidCall@start 002C             __size_of_phase_check 000B  
                     __pmaintext 0041                          ?___wmul 0020               __end_of_SIM300Init 0AD7  
                     __pintentry 0004              USARTReadBuffer@buff 002A                          ?_strcat 0020  
                        ?_strchr 0020                          ?_strcpy 0020                          ?_strlen 0020  
                        ?_strstr 002D      __size_of_USARTDataAvailable 0024                          _LP_FLAG 00EA  
               ??_USARTWriteChar 0020               USARTWriteInt@F1040 00E4      SIM300CheckResponse@response 002A  
      __size_of_USARTHandleRxInt 0048                       __stringtab 0800                  ??_SIM300SendMsg 0057  
                        _UQFront 007A      __size_of_SIM300ReadValidMsg 00AA  __size_of_SIM300WaitForValidCall 00A8  
 __size_of_SIM300WaitForValidMsg 005E    __end_of_SIM300WaitForValidMsg 0B93            __size_of_eeprom_write 0030  
 __size_of_SIM300WaitForResponse 0056    __end_of_SIM300WaitForResponse 0A23             SIM300CheckResponse@i 0029  
                __size_of___wmul 0025                          ___lwdiv 1695                          ___lwmod 165F  
                      ?_strnicmp 0022                          __ptext1 1486                          __ptext2 1464  
                        __ptext3 162F                          __ptext4 04E3                          __ptext5 1442  
                        __ptext6 15D4                          __ptext7 13DD                          __ptext8 1514  
                        __ptext9 0B35                        ?_strrichr 0022                  __size_of_strcat 002D  
                __size_of_strchr 0015                  __size_of_strcpy 0022                  __size_of_strlen 0029  
                   __size_of_ISR 001A                  __size_of_strstr 0051                          _dpowers 0812  
                        _isdigit 13F6                          _sprintf 0ED5                          main@ref 006F  
                        clrloop0 13D6                          _strichr 1601                          _strncmp 1765  
                        _toupper 1406             end_of_initialization 003D                        _SIM300Cmd 0BF2  
       __size_of_USARTReadBuffer 0024                     _eeprom_write 162F                ??_SIM300DeleteMsg 003E  
                      _RCSTAbits 0018                     __pstringtext 0800                          strlen@s 0020  
      __size_of_USARTFlushBuffer 000E                ?_USARTWriteString 0021           _SIM300WaitForValidCall 0C64  
                     ??_strnicmp 0026                       ??_strrichr 0024                ?_SMSCommunication 0070  
          __end_of_USARTReadData 14F0               ??_USARTWriteString 0023               ??_SMSCommunication 005B  
       SIM300CheckResponse@check 0020          SIM300WaitForValidCall@i 002D                        _USARTInit 171D  
        SIM300WaitForValidMsg@id 0058                       ?_SIM300Cmd 002D                    ??_eeprom_read 0020  
                      _TXSTAbits 0098                       main@result 0069                 USARTReadBuffer@i 002B  
                 __end_of___wmul 1582                   __end_of_strcat 1601                   __end_of_strchr 07FC  
                 __end_of_strcpy 1464                   __end_of_strlen 15AB                   __end_of_strstr 09CD  
            start_initialization 0015                       ?_USARTInit 0020                      __end_of_ISR 1442  
               _USARTHandleRxInt 16D5                       SIM300Cmd@i 0031      __size_of_SIM300RingResponse 0058  
        SIM300ReadValidMsg@i_328 0052        SIM300WaitForValidCall@len 002B    SIM300WaitForValidMsg@response 0057  
        SIM300ReadValidMsg@start 0051                ??_USARTReadBuffer 0028                         ??___wmul 0024  
            __end_of_eeprom_read 1538                       init_fetch0 1417                      __pdataBANK1 00A0  
                       ??_strcat 0022                         ??_strchr 0022                         ??_strcpy 0022  
                       ??_strlen 0022                         ??_strstr 002F      __end_of_SIM300CheckResponse 0B35  
         SIM300CheckResponse@len 0022                      __pbssCOMMON 0079                        ___latbits 0002  
                  __pcstackBANK0 0020                    __pcstackBANK1 00C9              __end_of__stringdata 0942  
           SIM300SendMsg@msg_ref 0056                 eeprom_write@addr 0022                      ??_SIM300Cmd 002F  
                    sprintf@_val 0039                      sprintf@flag 0035                      sprintf@prec 0036  
                  ??_phase_check 0020                 ___lwdiv@dividend 0022                         ?___lwdiv 0020  
                       ?___lwmod 0028                 _USARTFlushBuffer 13E8       __end_of_USARTDataAvailable 14CC  
                       ?_isdigit 0070                __size_of_strnicmp 004E                __size_of_strrichr 0038  
                    ??_USARTInit 0022                 ___lwdiv@quotient 0025                         ?_sprintf 002E  
     __end_of_SIM300ReadValidMsg 0DB6                         ?_strichr 0022                         ?_strncmp 0026  
                       ?_toupper 0070                  _SIM300DeleteMsg 0B93                   __size_of_start 0022  
              interrupt_function 0004                   ___wmul@product 0024            __end_of_SIM300SendMsg 0ED5  
                    strnicmp@len 0024                        clear_ram0 13D5                      _eeprom_read 1514  
                       _PIR1bits 000C                      strrichr@chr 0022              __end_of_phase_check 13E8  
        ?_SIM300WaitForValidCall 0070                      strrichr@ptr 0027            _SIM300WaitForValidMsg 0B35  
          _SIM300WaitForResponse 09CD                      __stringbase 0812                      __stringdata 081C  
                      main@i_172 006D                        main@i_177 006E                ___wmul@multiplier 0020  
   SIM300WaitForResponse@timeout 0022        __size_of_USARTWriteString 0025        __size_of_SMSCommunication 028F  
            _REQUIRED_RING_COUNT 00A0          __size_of_USARTWriteChar 0008   __end_of_SIM300WaitForValidCall 0D0C  
       __end_of_USARTHandleRxInt 171D                 __size_of___lwdiv 0040                 __size_of___lwmod 0036  
             __end_of__stringtab 0812                      _isdigit$742 0020                     _phone_number 00A1  
        __end_of_SIM300DeleteMsg 0BF2                       strcat@from 0020                 __size_of_isdigit 0010  
                ___lwdiv@divisor 0020                  ___lwdiv@counter 0027                         __ptext10 0D0C  
                       __ptext11 097C                         __ptext20 1695                         __ptext12 1765  
                       __ptext21 09CD                         __ptext13 07E7                         __ptext30 171D  
                       __ptext22 0C64                         __ptext14 0DB6                         __ptext31 0BF2  
                       __ptext23 0944                         __ptext15 0772                         __ptext40 1428  
                       __ptext32 1582                         __ptext24 17B2                         __ptext16 13F6  
                       __ptext41 16D5                         __ptext33 155D                         __ptext25 1601  
                       __ptext17 0B93                         __ptext34 1538                         __ptext26 1406  
                       __ptext18 0ED5                         __ptext35 13CD                         __ptext27 0A23  
                       __ptext19 165F                         __ptext36 14F0                         __ptext28 13E8  
                       __ptext37 14CC                         __ptext29 0A7B                         __ptext38 14A8  
                       __ptext39 0AD7                       strichr@chr 0022                 __size_of_sprintf 012B  
                _USARTReadBuffer 14F0                       strichr@ptr 0026                 __size_of_strichr 002E  
               __size_of_strncmp 004D                 __size_of_toupper 0011                       strcpy@from 0020  
                  __size_of_atoi 0075                    __size_of_main 04A2                    __size_of_stop 0022  
                    _phase_check 13DD                       strncmp@len 0028                       strnicmp@s1 0029  
                     strnicmp@s2 0022           __size_of_USARTReadData 0024                  main@ten_seconds 006A  
                     strrichr@cp 0026           ?_SIM300WaitForValidMsg 0070                         atoi@sign 002A  
         ?_SIM300WaitForResponse 0022                         _strnicmp 17B2                         _strrichr 0944  
                     _SIM300Init 0A7B                         init_ram0 141B       __end_of_SIM300RingResponse 0A7B  
                       isdigit@c 0021                         intlevel1 0000                        sprintf@ap 0037  
                      sprintf@sp 0038         __end_of_USARTFlushBuffer 13F6                        strchr@chr 0020  
               ___lwmod@dividend 002A                        strchr@ptr 0022                        strncmp@s1 002C  
                      strncmp@s2 0026                        stringcode 080A                        strnicmp@r 0028  
                     _RING_COUNT 00EC              USARTWriteString@str 0021                       _MOTOR_FLAG 00EB  
                       sprintf@c 003D                         sprintf@f 002E                         strcat@cp 0024  
                       strcat@to 0023                  ___lwmod@divisor 0028                    _USARTReadData 14CC  
                       strcpy@cp 0023                 ?_SIM300DeleteMsg 0070                         strlen@cp 0024  
                       strcpy@to 0024                  ___lwmod@counter 002D          __end_of_USARTReadBuffer 1514  
           USARTHandleRxInt@data 0074                         toupper@c 0021                         stringtab 0800  
      SIM300RingResponse@timeout 0022                         strstr@s1 0032                         strstr@s2 002D  
             _USARTDataAvailable 14A8     __size_of_SIM300CheckResponse 005E                       _MSG_number 01D6  
               _USARTWriteString 1538                 _SMSCommunication 04E3                    ?_eeprom_write 0020  
                   ?_eeprom_read 0070              ?_USARTDataAvailable 0070                   _USARTWriteChar 13CD  
                  _Dry_Run_Timer 00E9               SIM300DeleteMsg@cmd 0040               SIM300DeleteMsg@len 0051  
                  _sim300_buffer 0190                 SIM300DeleteMsg@i 0050               _SIM300ReadValidMsg 0D0C  
