

Microchip Technology PIC LITE Macro Assembler V1.12 build 49521 
                                                                                               Sun Jun 07 09:27:59 2015

HI-TECH Software Omniscient Code Generator (Lite mode) build 49521
     1  0000                     opt subtitle "HI-TECH Software Omniscient Code Generator (Lite mode) build 49521"
     2                           opt subtitle "HI-TECH Software Omniscient Code Generator (Lite mode) build 49521"
     3                           
     4                           opt pagewidth 120
     5                           
     6                           	opt lm
     7                           
     8                           	processor	16F877A
     9                           clrc	macro
    10  0000                     	endm
    11                           opt subtitle "HI-TECH Software Omniscient Code Generator (Lite mode) build 49521"
    12                           
    13  0000                     	endm
    14                           opt subtitle "HI-TECH Software Omniscient Code Generator (Lite mode) build 49521"
    15                           
    16  0000                     	endm
    17                           opt subtitle "HI-TECH Software Omniscient Code Generator (Lite mode) build 49521"
    18                           
    19  0000                     	endm
    20                           opt subtitle "HI-TECH Software Omniscient Code Generator (Lite mode) build 49521"
    21                           
    22  0000                     	endm
    23                           opt subtitle "HI-TECH Software Omniscient Code Generator (Lite mode) build 49521"
    24                           
    25  0000                     	endm
    26                           opt subtitle "HI-TECH Software Omniscient Code Generator (Lite mode) build 49521"
    27                           
    28  0000                     	endm
    29                           opt subtitle "HI-TECH Software Omniscient Code Generator (Lite mode) build 49521"
    30                           
    31  0000                     	endm
    32  0000                     indf	equ	0
    33  0000                     indf0	equ	0
    34  0002                     pc	equ	2
    35  0002                     pcl	equ	2
    36  0003                     status	equ	3
    37  0004                     fsr	equ	4
    38  0004                     fsr0	equ	4
    39  0001                     c	equ	1
    40  0000                     z	equ	0
    41  000A                     pclath	equ	10
    42                           opt subtitle "HI-TECH Software Omniscient Code Generator (Lite mode) build 49521"
    43  0000                     INDF equ 00h ;# 
    44                           opt subtitle "HI-TECH Software Omniscient Code Generator (Lite mode) build 49521"
    45  0001                     TMR0 equ 01h ;# 
    46                           opt subtitle "HI-TECH Software Omniscient Code Generator (Lite mode) build 49521"
    47  0002                     PCL equ 02h ;# 
    48                           opt subtitle "HI-TECH Software Omniscient Code Generator (Lite mode) build 49521"
    49  0003                     STATUS equ 03h ;# 
    50                           opt subtitle "HI-TECH Software Omniscient Code Generator (Lite mode) build 49521"
    51  0004                     FSR equ 04h ;# 
    52                           opt subtitle "HI-TECH Software Omniscient Code Generator (Lite mode) build 49521"
    53  0005                     PORTA equ 05h ;# 
    54                           opt subtitle "HI-TECH Software Omniscient Code Generator (Lite mode) build 49521"
    55  0006                     PORTB equ 06h ;# 
    56                           opt subtitle "HI-TECH Software Omniscient Code Generator (Lite mode) build 49521"
    57  0007                     PORTC equ 07h ;# 
    58                           opt subtitle "HI-TECH Software Omniscient Code Generator (Lite mode) build 49521"
    59  0008                     PORTD equ 08h ;# 
    60                           opt subtitle "HI-TECH Software Omniscient Code Generator (Lite mode) build 49521"
    61  0009                     PORTE equ 09h ;# 
    62                           opt subtitle "HI-TECH Software Omniscient Code Generator (Lite mode) build 49521"
    63  000A                     PCLATH equ 0Ah ;# 
    64                           opt subtitle "HI-TECH Software Omniscient Code Generator (Lite mode) build 49521"
    65  000B                     INTCON equ 0Bh ;# 
    66                           opt subtitle "HI-TECH Software Omniscient Code Generator (Lite mode) build 49521"
    67  000C                     PIR1 equ 0Ch ;# 
    68                           opt subtitle "HI-TECH Software Omniscient Code Generator (Lite mode) build 49521"
    69  000D                     PIR2 equ 0Dh ;# 
    70                           opt subtitle "HI-TECH Software Omniscient Code Generator (Lite mode) build 49521"
    71  000E                     TMR1 equ 0Eh ;# 
    72                           opt subtitle "HI-TECH Software Omniscient Code Generator (Lite mode) build 49521"
    73  000E                     TMR1L equ 0Eh ;# 
    74                           opt subtitle "HI-TECH Software Omniscient Code Generator (Lite mode) build 49521"
    75  000F                     TMR1H equ 0Fh ;# 
    76                           opt subtitle "HI-TECH Software Omniscient Code Generator (Lite mode) build 49521"
    77  0010                     T1CON equ 010h ;# 
    78                           opt subtitle "HI-TECH Software Omniscient Code Generator (Lite mode) build 49521"
    79  0011                     TMR2 equ 011h ;# 
    80                           opt subtitle "HI-TECH Software Omniscient Code Generator (Lite mode) build 49521"
    81  0012                     T2CON equ 012h ;# 
    82                           opt subtitle "HI-TECH Software Omniscient Code Generator (Lite mode) build 49521"
    83  0013                     SSPBUF equ 013h ;# 
    84                           opt subtitle "HI-TECH Software Omniscient Code Generator (Lite mode) build 49521"
    85  0014                     SSPCON equ 014h ;# 
    86                           opt subtitle "HI-TECH Software Omniscient Code Generator (Lite mode) build 49521"
    87  0015                     CCPR1 equ 015h ;# 
    88                           opt subtitle "HI-TECH Software Omniscient Code Generator (Lite mode) build 49521"
    89  0015                     CCPR1L equ 015h ;# 
    90                           opt subtitle "HI-TECH Software Omniscient Code Generator (Lite mode) build 49521"
    91  0016                     CCPR1H equ 016h ;# 
    92                           opt subtitle "HI-TECH Software Omniscient Code Generator (Lite mode) build 49521"
    93  0017                     CCP1CON equ 017h ;# 
    94                           opt subtitle "HI-TECH Software Omniscient Code Generator (Lite mode) build 49521"
    95  0018                     RCSTA equ 018h ;# 
    96                           opt subtitle "HI-TECH Software Omniscient Code Generator (Lite mode) build 49521"
    97  0019                     TXREG equ 019h ;# 
    98                           opt subtitle "HI-TECH Software Omniscient Code Generator (Lite mode) build 49521"
    99  001A                     RCREG equ 01Ah ;# 
   100                           opt subtitle "HI-TECH Software Omniscient Code Generator (Lite mode) build 49521"
   101  001B                     CCPR2 equ 01Bh ;# 
   102                           opt subtitle "HI-TECH Software Omniscient Code Generator (Lite mode) build 49521"
   103  001B                     CCPR2L equ 01Bh ;# 
   104                           opt subtitle "HI-TECH Software Omniscient Code Generator (Lite mode) build 49521"
   105  001C                     CCPR2H equ 01Ch ;# 
   106                           opt subtitle "HI-TECH Software Omniscient Code Generator (Lite mode) build 49521"
   107  001D                     CCP2CON equ 01Dh ;# 
   108                           opt subtitle "HI-TECH Software Omniscient Code Generator (Lite mode) build 49521"
   109  001E                     ADRESH equ 01Eh ;# 
   110                           opt subtitle "HI-TECH Software Omniscient Code Generator (Lite mode) build 49521"
   111  001F                     ADCON0 equ 01Fh ;# 
   112                           opt subtitle "HI-TECH Software Omniscient Code Generator (Lite mode) build 49521"
   113  0081                     OPTION_REG equ 081h ;# 
   114                           opt subtitle "HI-TECH Software Omniscient Code Generator (Lite mode) build 49521"
   115  0085                     TRISA equ 085h ;# 
   116                           opt subtitle "HI-TECH Software Omniscient Code Generator (Lite mode) build 49521"
   117  0086                     TRISB equ 086h ;# 
   118                           opt subtitle "HI-TECH Software Omniscient Code Generator (Lite mode) build 49521"
   119  0087                     TRISC equ 087h ;# 
   120                           opt subtitle "HI-TECH Software Omniscient Code Generator (Lite mode) build 49521"
   121  0088                     TRISD equ 088h ;# 
   122                           opt subtitle "HI-TECH Software Omniscient Code Generator (Lite mode) build 49521"
   123  0089                     TRISE equ 089h ;# 
   124                           opt subtitle "HI-TECH Software Omniscient Code Generator (Lite mode) build 49521"
   125  008C                     PIE1 equ 08Ch ;# 
   126                           opt subtitle "HI-TECH Software Omniscient Code Generator (Lite mode) build 49521"
   127  008D                     PIE2 equ 08Dh ;# 
   128                           opt subtitle "HI-TECH Software Omniscient Code Generator (Lite mode) build 49521"
   129  008E                     PCON equ 08Eh ;# 
   130                           opt subtitle "HI-TECH Software Omniscient Code Generator (Lite mode) build 49521"
   131  0091                     SSPCON2 equ 091h ;# 
   132                           opt subtitle "HI-TECH Software Omniscient Code Generator (Lite mode) build 49521"
   133  0092                     PR2 equ 092h ;# 
   134                           opt subtitle "HI-TECH Software Omniscient Code Generator (Lite mode) build 49521"
   135  0093                     SSPADD equ 093h ;# 
   136                           opt subtitle "HI-TECH Software Omniscient Code Generator (Lite mode) build 49521"
   137  0094                     SSPSTAT equ 094h ;# 
   138                           opt subtitle "HI-TECH Software Omniscient Code Generator (Lite mode) build 49521"
   139  0098                     TXSTA equ 098h ;# 
   140                           opt subtitle "HI-TECH Software Omniscient Code Generator (Lite mode) build 49521"
   141  0099                     SPBRG equ 099h ;# 
   142                           opt subtitle "HI-TECH Software Omniscient Code Generator (Lite mode) build 49521"
   143  009C                     CMCON equ 09Ch ;# 
   144                           opt subtitle "HI-TECH Software Omniscient Code Generator (Lite mode) build 49521"
   145  009D                     CVRCON equ 09Dh ;# 
   146                           opt subtitle "HI-TECH Software Omniscient Code Generator (Lite mode) build 49521"
   147  009E                     ADRESL equ 09Eh ;# 
   148                           opt subtitle "HI-TECH Software Omniscient Code Generator (Lite mode) build 49521"
   149  009F                     ADCON1 equ 09Fh ;# 
   150                           opt subtitle "HI-TECH Software Omniscient Code Generator (Lite mode) build 49521"
   151  010C                     EEDATA equ 010Ch ;# 
   152                           opt subtitle "HI-TECH Software Omniscient Code Generator (Lite mode) build 49521"
   153  010D                     EEADR equ 010Dh ;# 
   154                           opt subtitle "HI-TECH Software Omniscient Code Generator (Lite mode) build 49521"
   155  010E                     EEDATH equ 010Eh ;# 
   156                           opt subtitle "HI-TECH Software Omniscient Code Generator (Lite mode) build 49521"
   157  010F                     EEADRH equ 010Fh ;# 
   158                           opt subtitle "HI-TECH Software Omniscient Code Generator (Lite mode) build 49521"
   159  018C                     EECON1 equ 018Ch ;# 
   160                           opt subtitle "HI-TECH Software Omniscient Code Generator (Lite mode) build 49521"
   161  018D                     EECON2 equ 018Dh ;# 
   162                           opt subtitle "HI-TECH Software Omniscient Code Generator (Lite mode) build 49521"
   163  0000                     INDF equ 00h ;# 
   164                           opt subtitle "HI-TECH Software Omniscient Code Generator (Lite mode) build 49521"
   165  0001                     TMR0 equ 01h ;# 
   166                           opt subtitle "HI-TECH Software Omniscient Code Generator (Lite mode) build 49521"
   167  0002                     PCL equ 02h ;# 
   168                           opt subtitle "HI-TECH Software Omniscient Code Generator (Lite mode) build 49521"
   169  0003                     STATUS equ 03h ;# 
   170                           opt subtitle "HI-TECH Software Omniscient Code Generator (Lite mode) build 49521"
   171  0004                     FSR equ 04h ;# 
   172                           opt subtitle "HI-TECH Software Omniscient Code Generator (Lite mode) build 49521"
   173  0005                     PORTA equ 05h ;# 
   174                           opt subtitle "HI-TECH Software Omniscient Code Generator (Lite mode) build 49521"
   175  0006                     PORTB equ 06h ;# 
   176                           opt subtitle "HI-TECH Software Omniscient Code Generator (Lite mode) build 49521"
   177  0007                     PORTC equ 07h ;# 
   178                           opt subtitle "HI-TECH Software Omniscient Code Generator (Lite mode) build 49521"
   179  0008                     PORTD equ 08h ;# 
   180                           opt subtitle "HI-TECH Software Omniscient Code Generator (Lite mode) build 49521"
   181  0009                     PORTE equ 09h ;# 
   182                           opt subtitle "HI-TECH Software Omniscient Code Generator (Lite mode) build 49521"
   183  000A                     PCLATH equ 0Ah ;# 
   184                           opt subtitle "HI-TECH Software Omniscient Code Generator (Lite mode) build 49521"
   185  000B                     INTCON equ 0Bh ;# 
   186                           opt subtitle "HI-TECH Software Omniscient Code Generator (Lite mode) build 49521"
   187  000C                     PIR1 equ 0Ch ;# 
   188                           opt subtitle "HI-TECH Software Omniscient Code Generator (Lite mode) build 49521"
   189  000D                     PIR2 equ 0Dh ;# 
   190                           opt subtitle "HI-TECH Software Omniscient Code Generator (Lite mode) build 49521"
   191  000E                     TMR1 equ 0Eh ;# 
   192                           opt subtitle "HI-TECH Software Omniscient Code Generator (Lite mode) build 49521"
   193  000E                     TMR1L equ 0Eh ;# 
   194                           opt subtitle "HI-TECH Software Omniscient Code Generator (Lite mode) build 49521"
   195  000F                     TMR1H equ 0Fh ;# 
   196                           opt subtitle "HI-TECH Software Omniscient Code Generator (Lite mode) build 49521"
   197  0010                     T1CON equ 010h ;# 
   198                           opt subtitle "HI-TECH Software Omniscient Code Generator (Lite mode) build 49521"
   199  0011                     TMR2 equ 011h ;# 
   200                           opt subtitle "HI-TECH Software Omniscient Code Generator (Lite mode) build 49521"
   201  0012                     T2CON equ 012h ;# 
   202                           opt subtitle "HI-TECH Software Omniscient Code Generator (Lite mode) build 49521"
   203  0013                     SSPBUF equ 013h ;# 
   204                           opt subtitle "HI-TECH Software Omniscient Code Generator (Lite mode) build 49521"
   205  0014                     SSPCON equ 014h ;# 
   206                           opt subtitle "HI-TECH Software Omniscient Code Generator (Lite mode) build 49521"
   207  0015                     CCPR1 equ 015h ;# 
   208                           opt subtitle "HI-TECH Software Omniscient Code Generator (Lite mode) build 49521"
   209  0015                     CCPR1L equ 015h ;# 
   210                           opt subtitle "HI-TECH Software Omniscient Code Generator (Lite mode) build 49521"
   211  0016                     CCPR1H equ 016h ;# 
   212                           opt subtitle "HI-TECH Software Omniscient Code Generator (Lite mode) build 49521"
   213  0017                     CCP1CON equ 017h ;# 
   214                           opt subtitle "HI-TECH Software Omniscient Code Generator (Lite mode) build 49521"
   215  0018                     RCSTA equ 018h ;# 
   216                           opt subtitle "HI-TECH Software Omniscient Code Generator (Lite mode) build 49521"
   217  0019                     TXREG equ 019h ;# 
   218                           opt subtitle "HI-TECH Software Omniscient Code Generator (Lite mode) build 49521"
   219  001A                     RCREG equ 01Ah ;# 
   220                           opt subtitle "HI-TECH Software Omniscient Code Generator (Lite mode) build 49521"
   221  001B                     CCPR2 equ 01Bh ;# 
   222                           opt subtitle "HI-TECH Software Omniscient Code Generator (Lite mode) build 49521"
   223  001B                     CCPR2L equ 01Bh ;# 
   224                           opt subtitle "HI-TECH Software Omniscient Code Generator (Lite mode) build 49521"
   225  001C                     CCPR2H equ 01Ch ;# 
   226                           opt subtitle "HI-TECH Software Omniscient Code Generator (Lite mode) build 49521"
   227  001D                     CCP2CON equ 01Dh ;# 
   228                           opt subtitle "HI-TECH Software Omniscient Code Generator (Lite mode) build 49521"
   229  001E                     ADRESH equ 01Eh ;# 
   230                           opt subtitle "HI-TECH Software Omniscient Code Generator (Lite mode) build 49521"
   231  001F                     ADCON0 equ 01Fh ;# 
   232                           opt subtitle "HI-TECH Software Omniscient Code Generator (Lite mode) build 49521"
   233  0081                     OPTION_REG equ 081h ;# 
   234                           opt subtitle "HI-TECH Software Omniscient Code Generator (Lite mode) build 49521"
   235  0085                     TRISA equ 085h ;# 
   236                           opt subtitle "HI-TECH Software Omniscient Code Generator (Lite mode) build 49521"
   237  0086                     TRISB equ 086h ;# 
   238                           opt subtitle "HI-TECH Software Omniscient Code Generator (Lite mode) build 49521"
   239  0087                     TRISC equ 087h ;# 
   240                           opt subtitle "HI-TECH Software Omniscient Code Generator (Lite mode) build 49521"
   241  0088                     TRISD equ 088h ;# 
   242                           opt subtitle "HI-TECH Software Omniscient Code Generator (Lite mode) build 49521"
   243  0089                     TRISE equ 089h ;# 
   244                           opt subtitle "HI-TECH Software Omniscient Code Generator (Lite mode) build 49521"
   245  008C                     PIE1 equ 08Ch ;# 
   246                           opt subtitle "HI-TECH Software Omniscient Code Generator (Lite mode) build 49521"
   247  008D                     PIE2 equ 08Dh ;# 
   248                           opt subtitle "HI-TECH Software Omniscient Code Generator (Lite mode) build 49521"
   249  008E                     PCON equ 08Eh ;# 
   250                           opt subtitle "HI-TECH Software Omniscient Code Generator (Lite mode) build 49521"
   251  0091                     SSPCON2 equ 091h ;# 
   252                           opt subtitle "HI-TECH Software Omniscient Code Generator (Lite mode) build 49521"
   253  0092                     PR2 equ 092h ;# 
   254                           opt subtitle "HI-TECH Software Omniscient Code Generator (Lite mode) build 49521"
   255  0093                     SSPADD equ 093h ;# 
   256                           opt subtitle "HI-TECH Software Omniscient Code Generator (Lite mode) build 49521"
   257  0094                     SSPSTAT equ 094h ;# 
   258                           opt subtitle "HI-TECH Software Omniscient Code Generator (Lite mode) build 49521"
   259  0098                     TXSTA equ 098h ;# 
   260                           opt subtitle "HI-TECH Software Omniscient Code Generator (Lite mode) build 49521"
   261  0099                     SPBRG equ 099h ;# 
   262                           opt subtitle "HI-TECH Software Omniscient Code Generator (Lite mode) build 49521"
   263  009C                     CMCON equ 09Ch ;# 
   264                           opt subtitle "HI-TECH Software Omniscient Code Generator (Lite mode) build 49521"
   265  009D                     CVRCON equ 09Dh ;# 
   266                           opt subtitle "HI-TECH Software Omniscient Code Generator (Lite mode) build 49521"
   267  009E                     ADRESL equ 09Eh ;# 
   268                           opt subtitle "HI-TECH Software Omniscient Code Generator (Lite mode) build 49521"
   269  009F                     ADCON1 equ 09Fh ;# 
   270                           opt subtitle "HI-TECH Software Omniscient Code Generator (Lite mode) build 49521"
   271  010C                     EEDATA equ 010Ch ;# 
   272                           opt subtitle "HI-TECH Software Omniscient Code Generator (Lite mode) build 49521"
   273  010D                     EEADR equ 010Dh ;# 
   274                           opt subtitle "HI-TECH Software Omniscient Code Generator (Lite mode) build 49521"
   275  010E                     EEDATH equ 010Eh ;# 
   276                           opt subtitle "HI-TECH Software Omniscient Code Generator (Lite mode) build 49521"
   277  010F                     EEADRH equ 010Fh ;# 
   278                           opt subtitle "HI-TECH Software Omniscient Code Generator (Lite mode) build 49521"
   279  018C                     EECON1 equ 018Ch ;# 
   280                           opt subtitle "HI-TECH Software Omniscient Code Generator (Lite mode) build 49521"
   281  018D                     EECON2 equ 018Dh ;# 
   282                           opt subtitle "HI-TECH Software Omniscient Code Generator (Lite mode) build 49521"
   283                           
   284                           opt pagewidth 120
   285                           
   286                           	opt lm
   287                           
   288                           	processor	16F877A
   289                           clrc	macro
   290                           	bcf	3,0
   291                           	endm
   292                           clrz	macro
   293                           	bcf	3,2
   294                           	endm
   295                           setc	macro
   296                           	bsf	3,0
   297                           	endm
   298                           setz	macro
   299                           	bsf	3,2
   300                           	endm
   301                           skipc	macro
   302                           	btfss	3,0
   303                           	endm
   304                           skipz	macro
   305                           	btfss	3,2
   306                           	endm
   307                           skipnc	macro
   308                           	btfsc	3,0
   309                           	endm
   310                           skipnz	macro
   311  0FC0                     __pidataBANK1:
   312                           opt subtitle "HI-TECH Software Omniscient Code Generator (Lite mode) build 49521"
   313                           
   314                           opt pagewidth 120
   315                           
   316  0FC0  340C               	retlw	0Ch
   317  0FC1  3412               	retlw	012h
   318  0FC2  3412               	retlw	012h
   319  0FC3  340C               	retlw	0Ch
   320  0FC4  3400               	retlw	0
   321  0FC5  3400               	retlw	0
   322  0FC6  3400               	retlw	0
   323  0FC7  3400               	retlw	0
   324  0FC8  3400               	retlw	0
   325  0FC9  3404               	retlw	04h
   326  0FCA  340E               	retlw	0Eh
   327  0FCB  341F               	retlw	01Fh
   328  0FCC  340E               	retlw	0Eh
   329  0FCD  3404               	retlw	04h
   330  0FCE  3400               	retlw	0
   331  0FCF  3400               	retlw	0
   332  0FD0  3404               	retlw	04h
   333  0FD1  3404               	retlw	04h
   334  0FD2  3404               	retlw	04h
   335  0FD3  3404               	retlw	04h
   336  0FD4  341F               	retlw	01Fh
   337  0FD5  340E               	retlw	0Eh
   338  0FD6  3404               	retlw	04h
   339  0FD7  3400               	retlw	0
   340  0FD8  340A               	retlw	0Ah
   341  0FD9  3415               	retlw	015h
   342  0FDA  3411               	retlw	011h
   343  0FDB  340A               	retlw	0Ah
   344  0FDC  3404               	retlw	04h
   345  0FDD  3400               	retlw	0
   346  0FDE  3400               	retlw	0
   347  0FDF  3400               	retlw	0
   348  0FE0  340A               	retlw	0Ah
   349  0FE1  341F               	retlw	01Fh
   350  0FE2  341F               	retlw	01Fh
   351  0FE3  340E               	retlw	0Eh
   352  0FE4  3404               	retlw	04h
   353  0FE5  3400               	retlw	0
   354  0FE6  3400               	retlw	0
   355  0FE7  3400               	retlw	0
   356  0FE8  3400               	retlw	0
   357  0FE9  3400               	retlw	0
   358  0FEA  3400               	retlw	0
   359  0FEB  3400               	retlw	0
   360  0FEC  3400               	retlw	0
   361  0FED  3400               	retlw	0
   362  0FEE  3400               	retlw	0
   363  0FEF  3400               	retlw	0
   364  0FF0  3400               	retlw	0
   365  0FF1  3400               	retlw	0
   366  0FF2  3400               	retlw	0
   367  0FF3  3400               	retlw	0
   368  0FF4  3400               	retlw	0
   369  0FF5  3400               	retlw	0
   370  0FF6  3400               	retlw	0
   371  0FF7  3400               	retlw	0
   372  0FF8  3400               	retlw	0
   373  0FF9  3400               	retlw	0
   374  0FFA  3400               	retlw	0
   375  0FFB  3400               	retlw	0
   376  0FFC  3400               	retlw	0
   377  0FFD  3400               	retlw	0
   378  0FFE  3400               	retlw	0
   379  0FFF  3400               	retlw	0
   380                           opt subtitle "HI-TECH Software Omniscient Code Generator (Lite mode) build 49521"
   381                           
   382  000E                     _TMR1	set	0xE
   383                           opt subtitle "HI-TECH Software Omniscient Code Generator (Lite mode) build 49521"
   384  0005                     _PORTA	set	0x5
   385                           opt subtitle "HI-TECH Software Omniscient Code Generator (Lite mode) build 49521"
   386  0007                     _PORTCbits	set	0x7
   387                           opt subtitle "HI-TECH Software Omniscient Code Generator (Lite mode) build 49521"
   388  0008                     _PORTD	set	0x8
   389                           opt subtitle "HI-TECH Software Omniscient Code Generator (Lite mode) build 49521"
   390  0032                     _RB2	set	0x32
   391                           opt subtitle "HI-TECH Software Omniscient Code Generator (Lite mode) build 49521"
   392  0033                     _RB3	set	0x33
   393                           opt subtitle "HI-TECH Software Omniscient Code Generator (Lite mode) build 49521"
   394  0044                     _RD4	set	0x44
   395                           opt subtitle "HI-TECH Software Omniscient Code Generator (Lite mode) build 49521"
   396  0084                     _T1CKPS0	set	0x84
   397                           opt subtitle "HI-TECH Software Omniscient Code Generator (Lite mode) build 49521"
   398  0080                     _TMR1ON	set	0x80
   399                           opt subtitle "HI-TECH Software Omniscient Code Generator (Lite mode) build 49521"
   400  0085                     _TRISA	set	0x85
   401                           opt subtitle "HI-TECH Software Omniscient Code Generator (Lite mode) build 49521"
   402  0086                     _TRISBbits	set	0x86
   403                           opt subtitle "HI-TECH Software Omniscient Code Generator (Lite mode) build 49521"
   404  0087                     _TRISCbits	set	0x87
   405                           opt subtitle "HI-TECH Software Omniscient Code Generator (Lite mode) build 49521"
   406  0088                     _TRISD	set	0x88
   407                           opt subtitle "HI-TECH Software Omniscient Code Generator (Lite mode) build 49521"
   408  0088                     _TRISDbits	set	0x88
   409                           opt subtitle "HI-TECH Software Omniscient Code Generator (Lite mode) build 49521"
   410  04F9                     _PCFG1	set	0x4F9
   411                           opt subtitle "HI-TECH Software Omniscient Code Generator (Lite mode) build 49521"
   412  04FA                     _PCFG2	set	0x4FA
   413                           opt subtitle "HI-TECH Software Omniscient Code Generator (Lite mode) build 49521"
   414                           
   415  0003                     __pstrings:
   416                           opt subtitle "HI-TECH Software Omniscient Code Generator (Lite mode) build 49521"
   417  0003                     stringtab:
   418                           opt subtitle "HI-TECH Software Omniscient Code Generator (Lite mode) build 49521"
   419  0003                     __stringtab:
   420                           opt subtitle "HI-TECH Software Omniscient Code Generator (Lite mode) build 49521"
   421  0003                     stringcode:stringdir:
      + 0003                     stringdir:	
   422  0003  3000               movlw high(stringdir)
   423  0004  008A               movwf pclath
   424  0005  0804               movf fsr,w
   425  0006  0A84               incf fsr
   426  0007  0782               	addwf pc
   427  0008                     __stringbase:
   428  0008  3400               	retlw	0
   429                           opt subtitle "HI-TECH Software Omniscient Code Generator (Lite mode) build 49521"
   430                           
   431  0009                     __end_of__stringtab:
   432                           opt subtitle "HI-TECH Software Omniscient Code Generator (Lite mode) build 49521"
   433  0009                     __stringdata:
   434                           opt subtitle "HI-TECH Software Omniscient Code Generator (Lite mode) build 49521"
   435  0009                     STR_2:	
   436  0009  3420               	retlw	32	;' '
   437  000A  3420               	retlw	32	;' '
   438  000B  3445               	retlw	69	;'E'
   439  000C  346C               	retlw	108	;'l'
   440  000D  3465               	retlw	101	;'e'
   441  000E  3463               	retlw	99	;'c'
   442  000F  3474               	retlw	116	;'t'
   443  0010  3472               	retlw	114	;'r'
   444  0011  346F               	retlw	111	;'o'
   445  0012  346E               	retlw	110	;'n'
   446  0013  3469               	retlw	105	;'i'
   447  0014  3463               	retlw	99	;'c'
   448  0015  3473               	retlw	115	;'s'
   449  0016  3400               	retlw	0
   450                           opt subtitle "HI-TECH Software Omniscient Code Generator (Lite mode) build 49521"
   451                           
   452  0017                     STR_3:	
   453  0017  3448               	retlw	72	;'H'
   454  0018  3443               	retlw	67	;'C'
   455  0019  342D               	retlw	45	;'-'
   456  001A  3453               	retlw	83	;'S'
   457  001B  3452               	retlw	82	;'R'
   458  001C  3430               	retlw	48	;'0'
   459  001D  3434               	retlw	52	;'4'
   460  001E  3420               	retlw	32	;' '
   461  001F  3444               	retlw	68	;'D'
   462  0020  3465               	retlw	101	;'e'
   463  0021  346D               	retlw	109	;'m'
   464  0022  346F               	retlw	111	;'o'
   465  0023  3400               	retlw	0
   466                           opt subtitle "HI-TECH Software Omniscient Code Generator (Lite mode) build 49521"
   467                           
   468  0024                     STR_1:	
   469  0024  3420               	retlw	32	;' '
   470  0025  3420               	retlw	32	;' '
   471  0026  3420               	retlw	32	;' '
   472  0027  3420               	retlw	32	;' '
   473  0028  3465               	retlw	101	;'e'
   474  0029  3458               	retlw	88	;'X'
   475  002A  3474               	retlw	116	;'t'
   476  002B  3472               	retlw	114	;'r'
   477  002C  3465               	retlw	101	;'e'
   478  002D  346D               	retlw	109	;'m'
   479  002E  3465               	retlw	101	;'e'
   480  002F  3400               	retlw	0
   481                           opt subtitle "HI-TECH Software Omniscient Code Generator (Lite mode) build 49521"
   482                           
   483  0030                     STR_5:	
   484  0030  3443               	retlw	67	;'C'
   485  0031  346C               	retlw	108	;'l'
   486  0032  3465               	retlw	101	;'e'
   487  0033  3461               	retlw	97	;'a'
   488  0034  3472               	retlw	114	;'r'
   489  0035  3420               	retlw	32	;' '
   490  0036  3421               	retlw	33	;'!'
   491  0037  3420               	retlw	32	;' '
   492  0038  3420               	retlw	32	;' '
   493  0039  3400               	retlw	0
   494                           opt subtitle "HI-TECH Software Omniscient Code Generator (Lite mode) build 49521"
   495                           
   496  003A                     STR_6:	
   497  003A  3444               	retlw	68	;'D'
   498  003B  3469               	retlw	105	;'i'
   499  003C  3473               	retlw	115	;'s'
   500  003D  3474               	retlw	116	;'t'
   501  003E  3461               	retlw	97	;'a'
   502  003F  346E               	retlw	110	;'n'
   503  0040  3463               	retlw	99	;'c'
   504  0041  3465               	retlw	101	;'e'
   505  0042  343A               	retlw	58	;':'
   506  0043  3400               	retlw	0
   507                           opt subtitle "HI-TECH Software Omniscient Code Generator (Lite mode) build 49521"
   508                           
   509  0044                     STR_4:	
   510  0044  3445               	retlw	69	;'E'
   511  0045  3472               	retlw	114	;'r'
   512  0046  3472               	retlw	114	;'r'
   513  0047  346F               	retlw	111	;'o'
   514  0048  3472               	retlw	114	;'r'
   515  0049  3420               	retlw	32	;' '
   516  004A  3421               	retlw	33	;'!'
   517  004B  3420               	retlw	32	;' '
   518  004C  3400               	retlw	0
   519                           opt subtitle "HI-TECH Software Omniscient Code Generator (Lite mode) build 49521"
   520                           
   521  004D                     STR_7:	
   522  004D  3420               	retlw	32	;' '
   523  004E  3463               	retlw	99	;'c'
   524  004F  346D               	retlw	109	;'m'
   525  0050  3400               	retlw	0
   526                           opt subtitle "HI-TECH Software Omniscient Code Generator (Lite mode) build 49521"
   527                           
   528  0051                     __end_of__stringdata:
   529                           opt subtitle "HI-TECH Software Omniscient Code Generator (Lite mode) build 49521"
   530                           
   531  0000                     __CFG_BOREN$ON equ 0x0
   532                           opt subtitle "HI-TECH Software Omniscient Code Generator (Lite mode) build 49521"
   533  0000                     __CFG_CPD$OFF equ 0x0
   534                           opt subtitle "HI-TECH Software Omniscient Code Generator (Lite mode) build 49521"
   535  0000                     __CFG_WRT$OFF equ 0x0
   536                           opt subtitle "HI-TECH Software Omniscient Code Generator (Lite mode) build 49521"
   537  0000                     __CFG_FOSC$HS equ 0x0
   538                           opt subtitle "HI-TECH Software Omniscient Code Generator (Lite mode) build 49521"
   539  0000                     __CFG_WDTE$OFF equ 0x0
   540                           opt subtitle "HI-TECH Software Omniscient Code Generator (Lite mode) build 49521"
   541  0000                     __CFG_CP$OFF equ 0x0
   542                           opt subtitle "HI-TECH Software Omniscient Code Generator (Lite mode) build 49521"
   543  0000                     __CFG_LVP$OFF equ 0x0
   544                           opt subtitle "HI-TECH Software Omniscient Code Generator (Lite mode) build 49521"
   545  0000                     __CFG_PWRTE$OFF equ 0x0
   546                           opt subtitle "HI-TECH Software Omniscient Code Generator (Lite mode) build 49521"
   547                           
   548                           opt pagewidth 120
   549                           
   550  0F15                     start_initialization:
   551                           opt subtitle "HI-TECH Software Omniscient Code Generator (Lite mode) build 49521"
   552                           
   553  0F15                     __initialization:
   554                           opt subtitle "HI-TECH Software Omniscient Code Generator (Lite mode) build 49521"
   555                           
   556  004F                     __pbssBANK0:
   557  004F                     LCDWriteInt@F1160:
   558  004F                            ds      5
   559                           opt subtitle "HI-TECH Software Omniscient Code Generator (Lite mode) build 49521"
   560                           
   561                           opt pagewidth 120
   562  00A0                     __pdataBANK1:
   563                           opt subtitle "HI-TECH Software Omniscient Code Generator (Lite mode) build 49521"
   564  00A0                     ___cgram:
   565  00A0                            ds      64
   566                           opt subtitle "HI-TECH Software Omniscient Code Generator (Lite mode) build 49521"
   567                           
   568                           opt pagewidth 120
   569  0F15  01CF               	clrf	((__pbssBANK0)+0)&07Fh
   570  0F16  01D0               	clrf	((__pbssBANK0)+1)&07Fh
   571  0F17  01D1               	clrf	((__pbssBANK0)+2)&07Fh
   572  0F18  01D2               	clrf	((__pbssBANK0)+3)&07Fh
   573  0F19  01D3               	clrf	((__pbssBANK0)+4)&07Fh
   574                           opt subtitle "HI-TECH Software Omniscient Code Generator (Lite mode) build 49521"
   575                           
   576                           opt pagewidth 120
   577                           
   578  0F02                     init_fetch:
   579  0F02  087E               	movf btemp,w
   580  0F03  008A               	movwf pclath
   581  0F04  087F               	movf btemp+1,w
   582  0F05  0082               	movwf pc
   583                           opt subtitle "HI-TECH Software Omniscient Code Generator (Lite mode) build 49521"
   584                           
   585                           opt pagewidth 120
   586                           
   587                           	opt lm
   588                           
   589  0F06                     init_ram:
   590  0F06  120A  158A  2702   	fcall init_fetch
              120A  158A         
   591  0F0B  0080               	movwf indf,f
   592  0F0C  0A84               	incf fsr,f
   593  0F0D  0804               	movf fsr,w
   594  0F0E  067D               	xorwf btemp-1,w
   595  0F0F  1903               	btfsc status,2
   596  0F10  3400               	retlw 0
   597  0F11  0AFF               	incf btemp+1,f
   598  0F12  1903               	btfsc status,2
   599  0F13  0AFE               	incf btemp,f
   600  0F14  2F06               	goto init_ram
   601                           opt subtitle "HI-TECH Software Omniscient Code Generator (Lite mode) build 49521"
   602                           
   603                           opt pagewidth 120
   604  0F1A  1383               	bcf	status, 7	;select IRP bank0
   605  0F1B  30E0               	movlw low(__pdataBANK1+64)
   606  0F1C  00FD               	movwf btemp-1,f
   607  0F1D  300F               	movlw high(__pidataBANK1)
   608  0F1E  00FE               	movwf btemp,f
   609  0F1F  30C0               	movlw low(__pidataBANK1)
   610  0F20  00FF               	movwf btemp+1,f
   611  0F21  30A0               	movlw low(__pdataBANK1)
   612  0F22  0084               	movwf fsr,f
   613  0F23  120A  158A  2706   	fcall init_ram
              120A  158A         
   614                           opt subtitle "HI-TECH Software Omniscient Code Generator (Lite mode) build 49521"
   615                           
   616                           opt pagewidth 120
   617                           
   618                           	opt lm
   619  0F28                     end_of_initialization:
   620  0F28                     __end_of__initialization:clrf status
      + 0F28  0183               	clrf	3
   621  0F29  120A  118A  2DC1   ljmp _main	;jump to C main() function
   622                           opt subtitle "HI-TECH Software Omniscient Code Generator (Lite mode) build 49521"
   623                           
   624  0070                     __pcstackCOMMON:
   625  0070                     ?_LCDBusyLoop:	; 0 bytes @ 0x0
   626  0070                     ??_LCDBusyLoop:	; 0 bytes @ 0x0
   627  0070                     ?_LCDInit:	; 0 bytes @ 0x0
   628  0070                     ?_LCDWriteString:	; 0 bytes @ 0x0
   629  0070                     ?_HCSR04Init:	; 0 bytes @ 0x0
   630  0070                     ??_HCSR04Init:	; 0 bytes @ 0x0
   631  0070                     ?_HCSR04Trigger:	; 0 bytes @ 0x0
   632  0070                     ??_HCSR04Trigger:	; 0 bytes @ 0x0
   633  0070                     ?_main:	; 0 bytes @ 0x0
   634                           opt subtitle "HI-TECH Software Omniscient Code Generator (Lite mode) build 49521"
   635  0070                     ?___awdiv:	; 2 bytes @ 0x0
   636                           opt subtitle "HI-TECH Software Omniscient Code Generator (Lite mode) build 49521"
   637  0070                     ?___awmod:	; 2 bytes @ 0x0
   638                           opt subtitle "HI-TECH Software Omniscient Code Generator (Lite mode) build 49521"
   639  0070                     ?___ftpack:	; 3 bytes @ 0x0
   640                           opt subtitle "HI-TECH Software Omniscient Code Generator (Lite mode) build 49521"
   641  0070                     ___awdiv@divisor:	; 2 bytes @ 0x0
   642                           opt subtitle "HI-TECH Software Omniscient Code Generator (Lite mode) build 49521"
   643  0070                     ___awmod@divisor:	; 2 bytes @ 0x0
   644                           opt subtitle "HI-TECH Software Omniscient Code Generator (Lite mode) build 49521"
   645  0070                     ___ftpack@arg:	; 3 bytes @ 0x0
   646  0070                     	ds	2
   647                           opt subtitle "HI-TECH Software Omniscient Code Generator (Lite mode) build 49521"
   648  0072                     LCDBusyLoop@busy:	; 1 bytes @ 0x2
   649                           opt subtitle "HI-TECH Software Omniscient Code Generator (Lite mode) build 49521"
   650  0072                     ___awdiv@dividend:	; 2 bytes @ 0x2
   651                           opt subtitle "HI-TECH Software Omniscient Code Generator (Lite mode) build 49521"
   652  0072                     ___awmod@dividend:	; 2 bytes @ 0x2
   653  0072                     	ds	1
   654                           opt subtitle "HI-TECH Software Omniscient Code Generator (Lite mode) build 49521"
   655  0073                     LCDBusyLoop@temp:	; 1 bytes @ 0x3
   656                           opt subtitle "HI-TECH Software Omniscient Code Generator (Lite mode) build 49521"
   657  0073                     ___ftpack@exp:	; 1 bytes @ 0x3
   658  0073                     	ds	1
   659  0074                     ??___awdiv:	; 0 bytes @ 0x4
   660  0074                     ??___awmod:	; 0 bytes @ 0x4
   661                           opt subtitle "HI-TECH Software Omniscient Code Generator (Lite mode) build 49521"
   662  0074                     LCDBusyLoop@status:	; 1 bytes @ 0x4
   663                           opt subtitle "HI-TECH Software Omniscient Code Generator (Lite mode) build 49521"
   664  0074                     ___ftpack@sign:	; 1 bytes @ 0x4
   665  0074                     	ds	1
   666  0075                     ??___ftpack:	; 0 bytes @ 0x5
   667                           opt subtitle "HI-TECH Software Omniscient Code Generator (Lite mode) build 49521"
   668  0075                     ?_LCDByte:	; 0 bytes @ 0x5
   669                           opt subtitle "HI-TECH Software Omniscient Code Generator (Lite mode) build 49521"
   670  0075                     LCDByte@isdata:	; 1 bytes @ 0x5
   671                           opt subtitle "HI-TECH Software Omniscient Code Generator (Lite mode) build 49521"
   672  0075                     ___awdiv@counter:	; 1 bytes @ 0x5
   673                           opt subtitle "HI-TECH Software Omniscient Code Generator (Lite mode) build 49521"
   674  0075                     ___awmod@counter:	; 1 bytes @ 0x5
   675  0075                     	ds	1
   676  0076                     ??_LCDByte:	; 0 bytes @ 0x6
   677                           opt subtitle "HI-TECH Software Omniscient Code Generator (Lite mode) build 49521"
   678  0076                     ___awdiv@sign:	; 1 bytes @ 0x6
   679                           opt subtitle "HI-TECH Software Omniscient Code Generator (Lite mode) build 49521"
   680  0076                     ___awmod@sign:	; 1 bytes @ 0x6
   681  0076                     	ds	1
   682                           opt subtitle "HI-TECH Software Omniscient Code Generator (Lite mode) build 49521"
   683  0077                     ___awdiv@quotient:	; 2 bytes @ 0x7
   684  0077                     	ds	1
   685                           opt subtitle "HI-TECH Software Omniscient Code Generator (Lite mode) build 49521"
   686  0078                     ?___fttol:	; 4 bytes @ 0x8
   687                           opt subtitle "HI-TECH Software Omniscient Code Generator (Lite mode) build 49521"
   688  0078                     LCDByte@hn:	; 1 bytes @ 0x8
   689                           opt subtitle "HI-TECH Software Omniscient Code Generator (Lite mode) build 49521"
   690  0078                     ___fttol@f1:	; 3 bytes @ 0x8
   691  0078                     	ds	1
   692                           opt subtitle "HI-TECH Software Omniscient Code Generator (Lite mode) build 49521"
   693  0079                     LCDByte@ln:	; 1 bytes @ 0x9
   694  0079                     	ds	1
   695                           opt subtitle "HI-TECH Software Omniscient Code Generator (Lite mode) build 49521"
   696  007A                     LCDByte@c:	; 1 bytes @ 0xA
   697  007A                     	ds	1
   698                           opt subtitle "HI-TECH Software Omniscient Code Generator (Lite mode) build 49521"
   699  007B                     LCDByte@temp:	; 1 bytes @ 0xB
   700  007B                     	ds	1
   701  007C                     ??_LCDInit:	; 0 bytes @ 0xC
   702  007C                     ??_LCDWriteString:	; 0 bytes @ 0xC
   703  007C                     ??_LCDWriteInt:	; 0 bytes @ 0xC
   704                           opt subtitle "HI-TECH Software Omniscient Code Generator (Lite mode) build 49521"
   705  007C                     ?_LCDGotoXY:	; 0 bytes @ 0xC
   706  007C                     ??___awtoft:	; 0 bytes @ 0xC
   707  007C                     ??___lltoft:	; 0 bytes @ 0xC
   708                           opt subtitle "HI-TECH Software Omniscient Code Generator (Lite mode) build 49521"
   709  007C                     LCDGotoXY@y:	; 1 bytes @ 0xC
   710  007C                     	ds	1
   711  007D                     ??_LCDGotoXY:	; 0 bytes @ 0xD
   712                           opt subtitle "HI-TECH Software Omniscient Code Generator (Lite mode) build 49521"
   713  007D                     ___lltoft@exp:	; 1 bytes @ 0xD
   714  007D                     	ds	1
   715  007E                     ??_GetPulseWidth:	; 0 bytes @ 0xE
   716                           opt subtitle "HI-TECH Software Omniscient Code Generator (Lite mode) build 49521"
   717                           
   718  0020                     __pcstackBANK0:
   719                           opt subtitle "HI-TECH Software Omniscient Code Generator (Lite mode) build 49521"
   720  0020                     ?_LCDWriteInt:	; 0 bytes @ 0x0
   721  0020                     ??___fttol:	; 0 bytes @ 0x0
   722                           opt subtitle "HI-TECH Software Omniscient Code Generator (Lite mode) build 49521"
   723  0020                     LCDInit@style:	; 1 bytes @ 0x0
   724                           opt subtitle "HI-TECH Software Omniscient Code Generator (Lite mode) build 49521"
   725  0020                     LCDWriteString@cc:	; 1 bytes @ 0x0
   726                           opt subtitle "HI-TECH Software Omniscient Code Generator (Lite mode) build 49521"
   727  0020                     LCDGotoXY@x:	; 1 bytes @ 0x0
   728                           opt subtitle "HI-TECH Software Omniscient Code Generator (Lite mode) build 49521"
   729  0020                     LCDWriteInt@val:	; 2 bytes @ 0x0
   730  0020                     	ds	1
   731                           opt subtitle "HI-TECH Software Omniscient Code Generator (Lite mode) build 49521"
   732  0021                     LCDInit@__i:	; 1 bytes @ 0x1
   733                           opt subtitle "HI-TECH Software Omniscient Code Generator (Lite mode) build 49521"
   734  0021                     LCDWriteString@msg:	; 1 bytes @ 0x1
   735  0021                     	ds	1
   736                           opt subtitle "HI-TECH Software Omniscient Code Generator (Lite mode) build 49521"
   737  0022                     LCDWriteInt@field_length:	; 1 bytes @ 0x2
   738  0022                     	ds	1
   739                           opt subtitle "HI-TECH Software Omniscient Code Generator (Lite mode) build 49521"
   740  0023                     LCDWriteInt@str:	; 5 bytes @ 0x3
   741  0023                     	ds	1
   742                           opt subtitle "HI-TECH Software Omniscient Code Generator (Lite mode) build 49521"
   743  0024                     ___fttol@sign1:	; 1 bytes @ 0x4
   744  0024                     	ds	1
   745                           opt subtitle "HI-TECH Software Omniscient Code Generator (Lite mode) build 49521"
   746  0025                     ___fttol@lval:	; 4 bytes @ 0x5
   747  0025                     	ds	3
   748                           opt subtitle "HI-TECH Software Omniscient Code Generator (Lite mode) build 49521"
   749  0028                     LCDWriteInt@j:	; 2 bytes @ 0x8
   750  0028                     	ds	1
   751                           opt subtitle "HI-TECH Software Omniscient Code Generator (Lite mode) build 49521"
   752  0029                     ___fttol@exp1:	; 1 bytes @ 0x9
   753  0029                     	ds	1
   754                           opt subtitle "HI-TECH Software Omniscient Code Generator (Lite mode) build 49521"
   755  002A                     ?___awtoft:	; 3 bytes @ 0xA
   756                           opt subtitle "HI-TECH Software Omniscient Code Generator (Lite mode) build 49521"
   757  002A                     ?___lltoft:	; 3 bytes @ 0xA
   758                           opt subtitle "HI-TECH Software Omniscient Code Generator (Lite mode) build 49521"
   759  002A                     LCDWriteInt@i:	; 2 bytes @ 0xA
   760                           opt subtitle "HI-TECH Software Omniscient Code Generator (Lite mode) build 49521"
   761  002A                     ___awtoft@c:	; 2 bytes @ 0xA
   762                           opt subtitle "HI-TECH Software Omniscient Code Generator (Lite mode) build 49521"
   763  002A                     ___lltoft@c:	; 4 bytes @ 0xA
   764  002A                     	ds	3
   765                           opt subtitle "HI-TECH Software Omniscient Code Generator (Lite mode) build 49521"
   766  002D                     ___awtoft@sign:	; 1 bytes @ 0xD
   767  002D                     	ds	1
   768                           opt subtitle "HI-TECH Software Omniscient Code Generator (Lite mode) build 49521"
   769  002E                     ?___ftmul:	; 3 bytes @ 0xE
   770                           opt subtitle "HI-TECH Software Omniscient Code Generator (Lite mode) build 49521"
   771  002E                     ___ftmul@f1:	; 3 bytes @ 0xE
   772  002E                     	ds	3
   773                           opt subtitle "HI-TECH Software Omniscient Code Generator (Lite mode) build 49521"
   774  0031                     ___ftmul@f2:	; 3 bytes @ 0x11
   775  0031                     	ds	3
   776  0034                     ??___ftmul:	; 0 bytes @ 0x14
   777  0034                     	ds	4
   778                           opt subtitle "HI-TECH Software Omniscient Code Generator (Lite mode) build 49521"
   779  0038                     ___ftmul@exp:	; 1 bytes @ 0x18
   780  0038                     	ds	1
   781                           opt subtitle "HI-TECH Software Omniscient Code Generator (Lite mode) build 49521"
   782  0039                     ___ftmul@f3_as_product:	; 3 bytes @ 0x19
   783  0039                     	ds	3
   784                           opt subtitle "HI-TECH Software Omniscient Code Generator (Lite mode) build 49521"
   785  003C                     ___ftmul@cntr:	; 1 bytes @ 0x1C
   786  003C                     	ds	1
   787                           opt subtitle "HI-TECH Software Omniscient Code Generator (Lite mode) build 49521"
   788  003D                     ___ftmul@sign:	; 1 bytes @ 0x1D
   789  003D                     	ds	1
   790                           opt subtitle "HI-TECH Software Omniscient Code Generator (Lite mode) build 49521"
   791  003E                     ?_GetPulseWidth:	; 2 bytes @ 0x1E
   792  003E                     	ds	2
   793                           opt subtitle "HI-TECH Software Omniscient Code Generator (Lite mode) build 49521"
   794  0040                     GetPulseWidth@result:	; 4 bytes @ 0x20
   795  0040                     	ds	4
   796                           opt subtitle "HI-TECH Software Omniscient Code Generator (Lite mode) build 49521"
   797  0044                     GetPulseWidth@i:	; 4 bytes @ 0x24
   798  0044                     	ds	4
   799  0048                     ??_main:	; 0 bytes @ 0x28
   800  0048                     	ds	3
   801                           opt subtitle "HI-TECH Software Omniscient Code Generator (Lite mode) build 49521"
   802  004B                     main@d:	; 2 bytes @ 0x2B
   803  004B                     	ds	2
   804                           opt subtitle "HI-TECH Software Omniscient Code Generator (Lite mode) build 49521"
   805  004D                     main@r:	; 2 bytes @ 0x2D
   806  004D                     	ds	2
   807                           opt subtitle "HI-TECH Software Omniscient Code Generator (Lite mode) build 49521"
   808                           
   809                           opt pagewidth 120
   810                           
   811                           	opt lm
   812                           
   813                           	processor	16F877A
   814                           clrc	macro
   815                           	bcf	3,0
   816                           	endm
   817                           clrz	macro
   818                           	bcf	3,2
   819                           	endm
   820                           setc	macro
   821                           	bsf	3,0
   822                           	endm
   823                           setz	macro
   824                           	bsf	3,2
   825                           	endm
   826                           skipc	macro
   827                           	btfss	3,0
   828                           	endm
   829                           skipz	macro
   830                           	btfss	3,2
   831                           	endm
   832                           skipnc	macro
   833                           	btfsc	3,0
   834                           	endm
   835                           skipnz	macro
   836                           	btfsc	3,2
   837                           	endm
   838                           indf	equ	0
   839                           indf0	equ	0
   840                           pc	equ	2
   841                           pcl	equ	2
   842                           status	equ	3
   843                           fsr	equ	4
   844                           fsr0	equ	4
   845                           c	equ	1
   846                           z	equ	0
   847                           pclath	equ	10
   848                           # 46 "D:\Program Files (x86)\Microchip\xc8\v1.12\include\pic16f877a.h"
   849                           INDF equ 00h ;# 
   850                           # 52 "D:\Program Files (x86)\Microchip\xc8\v1.12\include\pic16f877a.h"
   851                           TMR0 equ 01h ;# 
   852                           # 58 "D:\Program Files (x86)\Microchip\xc8\v1.12\include\pic16f877a.h"
   853                           PCL equ 02h ;# 
   854                           # 64 "D:\Program Files (x86)\Microchip\xc8\v1.12\include\pic16f877a.h"
   855                           STATUS equ 03h ;# 
   856                           # 151 "D:\Program Files (x86)\Microchip\xc8\v1.12\include\pic16f877a.h"
   857                           FSR equ 04h ;# 
   858                           # 157 "D:\Program Files (x86)\Microchip\xc8\v1.12\include\pic16f877a.h"
   859                           PORTA equ 05h ;# 
   860                           # 206 "D:\Program Files (x86)\Microchip\xc8\v1.12\include\pic16f877a.h"
   861                           PORTB equ 06h ;# 
   862                           # 267 "D:\Program Files (x86)\Microchip\xc8\v1.12\include\pic16f877a.h"
   863                           PORTC equ 07h ;# 
   864                           # 328 "D:\Program Files (x86)\Microchip\xc8\v1.12\include\pic16f877a.h"
   865                           PORTD equ 08h ;# 
   866                           # 389 "D:\Program Files (x86)\Microchip\xc8\v1.12\include\pic16f877a.h"
   867                           PORTE equ 09h ;# 
   868                           # 420 "D:\Program Files (x86)\Microchip\xc8\v1.12\include\pic16f877a.h"
   869                           PCLATH equ 0Ah ;# 
   870                           # 439 "D:\Program Files (x86)\Microchip\xc8\v1.12\include\pic16f877a.h"
   871                           INTCON equ 0Bh ;# 
   872                           # 516 "D:\Program Files (x86)\Microchip\xc8\v1.12\include\pic16f877a.h"
   873                           PIR1 equ 0Ch ;# 
   874                           # 577 "D:\Program Files (x86)\Microchip\xc8\v1.12\include\pic16f877a.h"
   875                           PIR2 equ 0Dh ;# 
   876                           # 616 "D:\Program Files (x86)\Microchip\xc8\v1.12\include\pic16f877a.h"
   877                           TMR1 equ 0Eh ;# 
   878                           # 622 "D:\Program Files (x86)\Microchip\xc8\v1.12\include\pic16f877a.h"
   879                           TMR1L equ 0Eh ;# 
   880                           # 628 "D:\Program Files (x86)\Microchip\xc8\v1.12\include\pic16f877a.h"
   881                           TMR1H equ 0Fh ;# 
   882                           # 634 "D:\Program Files (x86)\Microchip\xc8\v1.12\include\pic16f877a.h"
   883                           T1CON equ 010h ;# 
   884                           # 708 "D:\Program Files (x86)\Microchip\xc8\v1.12\include\pic16f877a.h"
   885                           TMR2 equ 011h ;# 
   886                           # 714 "D:\Program Files (x86)\Microchip\xc8\v1.12\include\pic16f877a.h"
   887                           T2CON equ 012h ;# 
   888                           # 784 "D:\Program Files (x86)\Microchip\xc8\v1.12\include\pic16f877a.h"
   889                           SSPBUF equ 013h ;# 
   890                           # 790 "D:\Program Files (x86)\Microchip\xc8\v1.12\include\pic16f877a.h"
   891                           SSPCON equ 014h ;# 
   892                           # 859 "D:\Program Files (x86)\Microchip\xc8\v1.12\include\pic16f877a.h"
   893                           CCPR1 equ 015h ;# 
   894                           # 865 "D:\Program Files (x86)\Microchip\xc8\v1.12\include\pic16f877a.h"
   895                           CCPR1L equ 015h ;# 
   896                           # 871 "D:\Program Files (x86)\Microchip\xc8\v1.12\include\pic16f877a.h"
   897                           CCPR1H equ 016h ;# 
   898                           # 877 "D:\Program Files (x86)\Microchip\xc8\v1.12\include\pic16f877a.h"
   899                           CCP1CON equ 017h ;# 
   900                           # 934 "D:\Program Files (x86)\Microchip\xc8\v1.12\include\pic16f877a.h"
   901                           RCSTA equ 018h ;# 
   902                           # 1028 "D:\Program Files (x86)\Microchip\xc8\v1.12\include\pic16f877a.h"
   903                           TXREG equ 019h ;# 
   904                           # 1034 "D:\Program Files (x86)\Microchip\xc8\v1.12\include\pic16f877a.h"
   905                           RCREG equ 01Ah ;# 
   906                           # 1040 "D:\Program Files (x86)\Microchip\xc8\v1.12\include\pic16f877a.h"
   907                           CCPR2 equ 01Bh ;# 
   908                           # 1046 "D:\Program Files (x86)\Microchip\xc8\v1.12\include\pic16f877a.h"
   909                           CCPR2L equ 01Bh ;# 
   910                           # 1052 "D:\Program Files (x86)\Microchip\xc8\v1.12\include\pic16f877a.h"
   911                           CCPR2H equ 01Ch ;# 
   912                           # 1058 "D:\Program Files (x86)\Microchip\xc8\v1.12\include\pic16f877a.h"
   913                           CCP2CON equ 01Dh ;# 
   914                           # 1115 "D:\Program Files (x86)\Microchip\xc8\v1.12\include\pic16f877a.h"
   915                           ADRESH equ 01Eh ;# 
   916                           # 1121 "D:\Program Files (x86)\Microchip\xc8\v1.12\include\pic16f877a.h"
   917                           ADCON0 equ 01Fh ;# 
   918                           # 1216 "D:\Program Files (x86)\Microchip\xc8\v1.12\include\pic16f877a.h"
   919                           OPTION_REG equ 081h ;# 
   920                           # 1285 "D:\Program Files (x86)\Microchip\xc8\v1.12\include\pic16f877a.h"
   921                           TRISA equ 085h ;# 
   922                           # 1334 "D:\Program Files (x86)\Microchip\xc8\v1.12\include\pic16f877a.h"
   923                           TRISB equ 086h ;# 
   924                           # 1395 "D:\Program Files (x86)\Microchip\xc8\v1.12\include\pic16f877a.h"
   925                           TRISC equ 087h ;# 
   926                           # 1456 "D:\Program Files (x86)\Microchip\xc8\v1.12\include\pic16f877a.h"
   927                           TRISD equ 088h ;# 
   928                           # 1517 "D:\Program Files (x86)\Microchip\xc8\v1.12\include\pic16f877a.h"
   929                           TRISE equ 089h ;# 
   930                           # 1573 "D:\Program Files (x86)\Microchip\xc8\v1.12\include\pic16f877a.h"
   931                           PIE1 equ 08Ch ;# 
   932                           # 1634 "D:\Program Files (x86)\Microchip\xc8\v1.12\include\pic16f877a.h"
   933                           PIE2 equ 08Dh ;# 
   934                           # 1673 "D:\Program Files (x86)\Microchip\xc8\v1.12\include\pic16f877a.h"
   935                           PCON equ 08Eh ;# 
   936                           # 1706 "D:\Program Files (x86)\Microchip\xc8\v1.12\include\pic16f877a.h"
   937                           SSPCON2 equ 091h ;# 
   938                           # 1767 "D:\Program Files (x86)\Microchip\xc8\v1.12\include\pic16f877a.h"
   939                           PR2 equ 092h ;# 
   940                           # 1773 "D:\Program Files (x86)\Microchip\xc8\v1.12\include\pic16f877a.h"
   941                           SSPADD equ 093h ;# 
   942                           # 1779 "D:\Program Files (x86)\Microchip\xc8\v1.12\include\pic16f877a.h"
   943                           SSPSTAT equ 094h ;# 
   944                           # 1947 "D:\Program Files (x86)\Microchip\xc8\v1.12\include\pic16f877a.h"
   945                           TXSTA equ 098h ;# 
   946                           # 2027 "D:\Program Files (x86)\Microchip\xc8\v1.12\include\pic16f877a.h"
   947                           SPBRG equ 099h ;# 
   948                           # 2033 "D:\Program Files (x86)\Microchip\xc8\v1.12\include\pic16f877a.h"
   949                           CMCON equ 09Ch ;# 
   950                           # 2102 "D:\Program Files (x86)\Microchip\xc8\v1.12\include\pic16f877a.h"
   951                           CVRCON equ 09Dh ;# 
   952                           # 2166 "D:\Program Files (x86)\Microchip\xc8\v1.12\include\pic16f877a.h"
   953                           ADRESL equ 09Eh ;# 
   954                           # 2172 "D:\Program Files (x86)\Microchip\xc8\v1.12\include\pic16f877a.h"
   955                           ADCON1 equ 09Fh ;# 
   956                           # 2230 "D:\Program Files (x86)\Microchip\xc8\v1.12\include\pic16f877a.h"
   957                           EEDATA equ 010Ch ;# 
   958                           # 2236 "D:\Program Files (x86)\Microchip\xc8\v1.12\include\pic16f877a.h"
   959                           EEADR equ 010Dh ;# 
   960                           # 2242 "D:\Program Files (x86)\Microchip\xc8\v1.12\include\pic16f877a.h"
   961                           EEDATH equ 010Eh ;# 
   962                           # 2248 "D:\Program Files (x86)\Microchip\xc8\v1.12\include\pic16f877a.h"
   963                           EEADRH equ 010Fh ;# 
   964                           # 2254 "D:\Program Files (x86)\Microchip\xc8\v1.12\include\pic16f877a.h"
   965                           EECON1 equ 018Ch ;# 
   966                           # 2298 "D:\Program Files (x86)\Microchip\xc8\v1.12\include\pic16f877a.h"
   967                           EECON2 equ 018Dh ;# 
   968                           # 46 "D:\Program Files (x86)\Microchip\xc8\v1.12\include\pic16f877a.h"
   969                           INDF equ 00h ;# 
   970                           # 52 "D:\Program Files (x86)\Microchip\xc8\v1.12\include\pic16f877a.h"
   971                           TMR0 equ 01h ;# 
   972                           # 58 "D:\Program Files (x86)\Microchip\xc8\v1.12\include\pic16f877a.h"
   973                           PCL equ 02h ;# 
   974                           # 64 "D:\Program Files (x86)\Microchip\xc8\v1.12\include\pic16f877a.h"
   975                           STATUS equ 03h ;# 
   976                           # 151 "D:\Program Files (x86)\Microchip\xc8\v1.12\include\pic16f877a.h"
   977                           FSR equ 04h ;# 
   978                           # 157 "D:\Program Files (x86)\Microchip\xc8\v1.12\include\pic16f877a.h"
   979                           PORTA equ 05h ;# 
   980                           # 206 "D:\Program Files (x86)\Microchip\xc8\v1.12\include\pic16f877a.h"
   981                           PORTB equ 06h ;# 
   982                           # 267 "D:\Program Files (x86)\Microchip\xc8\v1.12\include\pic16f877a.h"
   983                           PORTC equ 07h ;# 
   984                           # 328 "D:\Program Files (x86)\Microchip\xc8\v1.12\include\pic16f877a.h"
   985                           PORTD equ 08h ;# 
   986                           # 389 "D:\Program Files (x86)\Microchip\xc8\v1.12\include\pic16f877a.h"
   987                           PORTE equ 09h ;# 
   988                           # 420 "D:\Program Files (x86)\Microchip\xc8\v1.12\include\pic16f877a.h"
   989                           PCLATH equ 0Ah ;# 
   990                           # 439 "D:\Program Files (x86)\Microchip\xc8\v1.12\include\pic16f877a.h"
   991                           INTCON equ 0Bh ;# 
   992                           # 516 "D:\Program Files (x86)\Microchip\xc8\v1.12\include\pic16f877a.h"
   993                           PIR1 equ 0Ch ;# 
   994                           # 577 "D:\Program Files (x86)\Microchip\xc8\v1.12\include\pic16f877a.h"
   995                           PIR2 equ 0Dh ;# 
   996                           # 616 "D:\Program Files (x86)\Microchip\xc8\v1.12\include\pic16f877a.h"
   997                           TMR1 equ 0Eh ;# 
   998                           # 622 "D:\Program Files (x86)\Microchip\xc8\v1.12\include\pic16f877a.h"
   999                           TMR1L equ 0Eh ;# 
  1000                           # 628 "D:\Program Files (x86)\Microchip\xc8\v1.12\include\pic16f877a.h"
  1001                           TMR1H equ 0Fh ;# 
  1002                           # 634 "D:\Program Files (x86)\Microchip\xc8\v1.12\include\pic16f877a.h"
  1003                           T1CON equ 010h ;# 
  1004                           # 708 "D:\Program Files (x86)\Microchip\xc8\v1.12\include\pic16f877a.h"
  1005                           TMR2 equ 011h ;# 
  1006                           # 714 "D:\Program Files (x86)\Microchip\xc8\v1.12\include\pic16f877a.h"
  1007                           T2CON equ 012h ;# 
  1008                           # 784 "D:\Program Files (x86)\Microchip\xc8\v1.12\include\pic16f877a.h"
  1009                           SSPBUF equ 013h ;# 
  1010                           # 790 "D:\Program Files (x86)\Microchip\xc8\v1.12\include\pic16f877a.h"
  1011                           SSPCON equ 014h ;# 
  1012                           # 859 "D:\Program Files (x86)\Microchip\xc8\v1.12\include\pic16f877a.h"
  1013                           CCPR1 equ 015h ;# 
  1014                           # 865 "D:\Program Files (x86)\Microchip\xc8\v1.12\include\pic16f877a.h"
  1015                           CCPR1L equ 015h ;# 
  1016                           # 871 "D:\Program Files (x86)\Microchip\xc8\v1.12\include\pic16f877a.h"
  1017                           CCPR1H equ 016h ;# 
  1018                           # 877 "D:\Program Files (x86)\Microchip\xc8\v1.12\include\pic16f877a.h"
  1019                           CCP1CON equ 017h ;# 
  1020                           # 934 "D:\Program Files (x86)\Microchip\xc8\v1.12\include\pic16f877a.h"
  1021                           RCSTA equ 018h ;# 
  1022                           # 1028 "D:\Program Files (x86)\Microchip\xc8\v1.12\include\pic16f877a.h"
  1023                           TXREG equ 019h ;# 
  1024                           # 1034 "D:\Program Files (x86)\Microchip\xc8\v1.12\include\pic16f877a.h"
  1025                           RCREG equ 01Ah ;# 
  1026                           # 1040 "D:\Program Files (x86)\Microchip\xc8\v1.12\include\pic16f877a.h"
  1027                           CCPR2 equ 01Bh ;# 
  1028                           # 1046 "D:\Program Files (x86)\Microchip\xc8\v1.12\include\pic16f877a.h"
  1029                           CCPR2L equ 01Bh ;# 
  1030                           # 1052 "D:\Program Files (x86)\Microchip\xc8\v1.12\include\pic16f877a.h"
  1031                           CCPR2H equ 01Ch ;# 
  1032                           # 1058 "D:\Program Files (x86)\Microchip\xc8\v1.12\include\pic16f877a.h"
  1033                           CCP2CON equ 01Dh ;# 
  1034                           # 1115 "D:\Program Files (x86)\Microchip\xc8\v1.12\include\pic16f877a.h"
  1035                           ADRESH equ 01Eh ;# 
  1036                           # 1121 "D:\Program Files (x86)\Microchip\xc8\v1.12\include\pic16f877a.h"
  1037                           ADCON0 equ 01Fh ;# 
  1038                           # 1216 "D:\Program Files (x86)\Microchip\xc8\v1.12\include\pic16f877a.h"
  1039                           OPTION_REG equ 081h ;# 
  1040                           # 1285 "D:\Program Files (x86)\Microchip\xc8\v1.12\include\pic16f877a.h"
  1041                           TRISA equ 085h ;# 
  1042                           # 1334 "D:\Program Files (x86)\Microchip\xc8\v1.12\include\pic16f877a.h"
  1043                           TRISB equ 086h ;# 
  1044                           # 1395 "D:\Program Files (x86)\Microchip\xc8\v1.12\include\pic16f877a.h"
  1045                           TRISC equ 087h ;# 
  1046                           # 1456 "D:\Program Files (x86)\Microchip\xc8\v1.12\include\pic16f877a.h"
  1047                           TRISD equ 088h ;# 
  1048                           # 1517 "D:\Program Files (x86)\Microchip\xc8\v1.12\include\pic16f877a.h"
  1049                           TRISE equ 089h ;# 
  1050                           # 1573 "D:\Program Files (x86)\Microchip\xc8\v1.12\include\pic16f877a.h"
  1051                           PIE1 equ 08Ch ;# 
  1052                           # 1634 "D:\Program Files (x86)\Microchip\xc8\v1.12\include\pic16f877a.h"
  1053                           PIE2 equ 08Dh ;# 
  1054                           # 1673 "D:\Program Files (x86)\Microchip\xc8\v1.12\include\pic16f877a.h"
  1055                           PCON equ 08Eh ;# 
  1056                           # 1706 "D:\Program Files (x86)\Microchip\xc8\v1.12\include\pic16f877a.h"
  1057                           SSPCON2 equ 091h ;# 
  1058                           # 1767 "D:\Program Files (x86)\Microchip\xc8\v1.12\include\pic16f877a.h"
  1059                           PR2 equ 092h ;# 
  1060                           # 1773 "D:\Program Files (x86)\Microchip\xc8\v1.12\include\pic16f877a.h"
  1061                           SSPADD equ 093h ;# 
  1062                           # 1779 "D:\Program Files (x86)\Microchip\xc8\v1.12\include\pic16f877a.h"
  1063                           SSPSTAT equ 094h ;# 
  1064                           # 1947 "D:\Program Files (x86)\Microchip\xc8\v1.12\include\pic16f877a.h"
  1065                           TXSTA equ 098h ;# 
  1066                           # 2027 "D:\Program Files (x86)\Microchip\xc8\v1.12\include\pic16f877a.h"
  1067                           SPBRG equ 099h ;# 
  1068                           # 2033 "D:\Program Files (x86)\Microchip\xc8\v1.12\include\pic16f877a.h"
  1069                           CMCON equ 09Ch ;# 
  1070                           # 2102 "D:\Program Files (x86)\Microchip\xc8\v1.12\include\pic16f877a.h"
  1071                           CVRCON equ 09Dh ;# 
  1072                           # 2166 "D:\Program Files (x86)\Microchip\xc8\v1.12\include\pic16f877a.h"
  1073                           ADRESL equ 09Eh ;# 
  1074                           # 2172 "D:\Program Files (x86)\Microchip\xc8\v1.12\include\pic16f877a.h"
  1075                           ADCON1 equ 09Fh ;# 
  1076                           # 2230 "D:\Program Files (x86)\Microchip\xc8\v1.12\include\pic16f877a.h"
  1077                           EEDATA equ 010Ch ;# 
  1078                           # 2236 "D:\Program Files (x86)\Microchip\xc8\v1.12\include\pic16f877a.h"
  1079                           EEADR equ 010Dh ;# 
  1080                           # 2242 "D:\Program Files (x86)\Microchip\xc8\v1.12\include\pic16f877a.h"
  1081                           EEDATH equ 010Eh ;# 
  1082                           # 2248 "D:\Program Files (x86)\Microchip\xc8\v1.12\include\pic16f877a.h"
  1083                           EEADRH equ 010Fh ;# 
  1084                           # 2254 "D:\Program Files (x86)\Microchip\xc8\v1.12\include\pic16f877a.h"
  1085                           EECON1 equ 018Ch ;# 
  1086                           # 2298 "D:\Program Files (x86)\Microchip\xc8\v1.12\include\pic16f877a.h"
  1087                           EECON2 equ 018Dh ;# 
  1088                           	FNCALL	_main,_LCDInit
  1089                           	FNCALL	_main,_LCDByte
  1090                           	FNCALL	_main,_HCSR04Init
  1091                           	FNCALL	_main,_LCDGotoXY
  1092                           	FNCALL	_main,_LCDWriteString
  1093                           	FNCALL	_main,_HCSR04Trigger
  1094                           	FNCALL	_main,_GetPulseWidth
  1095                           	FNCALL	_main,___awtoft
  1096                           	FNCALL	_main,___ftmul
  1097                           	FNCALL	_main,___fttol
  1098                           	FNCALL	_main,_LCDWriteInt
  1099                           	FNCALL	_LCDInit,_LCDBusyLoop
  1100                           	FNCALL	_LCDInit,_LCDByte
  1101                           	FNCALL	_LCDWriteString,_LCDByte
  1102                           	FNCALL	_LCDWriteInt,_LCDByte
  1103                           	FNCALL	_LCDWriteInt,___awmod
  1104                           	FNCALL	_LCDWriteInt,___awdiv
  1105                           	FNCALL	_LCDGotoXY,_LCDByte
  1106                           	FNCALL	_LCDByte,_LCDBusyLoop
  1107                           	FNCALL	_GetPulseWidth,___lltoft
  1108                           	FNCALL	_GetPulseWidth,___ftmul
  1109                           	FNCALL	_GetPulseWidth,___fttol
  1110                           	FNCALL	___ftmul,___ftpack
  1111                           	FNCALL	___awtoft,___ftpack
  1112                           	FNCALL	___lltoft,___ftpack
  1113                           	FNROOT	_main
  1114                           	global	___cgram
  1115                           psect	idataBANK1,class=CODE,space=0,delta=2
  1116                           global __pidataBANK1
  1117                           __pidataBANK1:
  1118                           	file	"custom_char.h"
  1119                           	line	15
  1120                           
  1121                           ;initializer for ___cgram
  1122                           	retlw	0Ch
  1123                           	retlw	012h
  1124  05C1                     __pmaintext:	;psect for function _main
  1125                           opt subtitle "HI-TECH Software Omniscient Code Generator (Lite mode) build 49521"
  1126                           
  1127                           opt pagewidth 120
  1128                           
  1129  011A                     	__size_of_main	equ	__end_of_main-_main
  1130                           opt subtitle "HI-TECH Software Omniscient Code Generator (Lite mode) build 49521"
  1131  05C1                     _main:	
  1132                           opt subtitle "HI-TECH Software Omniscient Code Generator (Lite mode) build 49521"
  1133                           
  1134                           opt pagewidth 120
  1135                           
  1136  05C1                     l1773:	
  1137                           opt subtitle "HI-TECH Software Omniscient Code Generator (Lite mode) build 49521"
  1138                           
  1139  05C1  1683               	bsf	status, 5	;RP0=1, select bank1
  1140  05C2  1303               	bcf	status, 6	;RP1=0, select bank1
  1141  05C3  151F               	bsf	(1274/8)^080h,(1274)&7	;volatile
  1142                           opt subtitle "HI-TECH Software Omniscient Code Generator (Lite mode) build 49521"
  1143                           
  1144  05C4  149F               	bsf	(1273/8)^080h,(1273)&7	;volatile
  1145                           opt subtitle "HI-TECH Software Omniscient Code Generator (Lite mode) build 49521"
  1146                           
  1147  05C5                     l1775:	
  1148                           opt subtitle "HI-TECH Software Omniscient Code Generator (Lite mode) build 49521"
  1149  05C5  3000               	movlw	(0)
  1150  05C6  120A  118A  2167   	fcall	_LCDInit
              120A  118A         
  1151                           opt subtitle "HI-TECH Software Omniscient Code Generator (Lite mode) build 49521"
  1152                           
  1153  05CB                     l1777:	
  1154                           opt subtitle "HI-TECH Software Omniscient Code Generator (Lite mode) build 49521"
  1155  05CB  1683               	bsf	status, 5	;RP0=1, select bank1
  1156  05CC  1303               	bcf	status, 6	;RP1=0, select bank1
  1157  05CD  1107               	bcf	(135)^080h,2	;volatile
  1158                           opt subtitle "HI-TECH Software Omniscient Code Generator (Lite mode) build 49521"
  1159                           
  1160  05CE                     l1779:	
  1161                           opt subtitle "HI-TECH Software Omniscient Code Generator (Lite mode) build 49521"
  1162  05CE  1283               	bcf	status, 5	;RP0=0, select bank0
  1163  05CF  1303               	bcf	status, 6	;RP1=0, select bank0
  1164  05D0  1507               	bsf	(7),2	;volatile
  1165                           opt subtitle "HI-TECH Software Omniscient Code Generator (Lite mode) build 49521"
  1166                           
  1167  05D1                     l1781:	
  1168                           opt subtitle "HI-TECH Software Omniscient Code Generator (Lite mode) build 49521"
  1169  05D1  01F5               	clrf	(?_LCDByte)
  1170  05D2  3001               	movlw	(01h)
  1171  05D3  120A  118A  205D   	fcall	_LCDByte
              120A  118A         
  1172                           opt subtitle "HI-TECH Software Omniscient Code Generator (Lite mode) build 49521"
  1173                           
  1174  05D8                     l1783:	
  1175                           opt subtitle "HI-TECH Software Omniscient Code Generator (Lite mode) build 49521"
  1176  05D8  120A  118A  2056   	fcall	_HCSR04Init
              120A  118A         
  1177                           opt subtitle "HI-TECH Software Omniscient Code Generator (Lite mode) build 49521"
  1178                           
  1179  05DD  01FC               	clrf	(?_LCDGotoXY)
  1180  05DE  3000               	movlw	(0)
  1181  05DF  120A  158A  2757   	fcall	_LCDGotoXY
              120A  118A         
  1182  05E4  301C               	movlw	((STR_1-__stringbase))&0ffh
  1183  05E5  120A  118A  2246   	fcall	_LCDWriteString
              120A  118A         
  1184                           opt subtitle "HI-TECH Software Omniscient Code Generator (Lite mode) build 49521"
  1185                           
  1186  05EA  01FC               	clrf	(?_LCDGotoXY)
  1187  05EB  0AFC               	incf	(?_LCDGotoXY),f
  1188  05EC  3000               	movlw	(0)
  1189  05ED  120A  158A  2757   	fcall	_LCDGotoXY
              120A  118A         
  1190  05F2  3001               	movlw	((STR_2-__stringbase))&0ffh
  1191  05F3  120A  118A  2246   	fcall	_LCDWriteString
              120A  118A         
  1192                           opt subtitle "HI-TECH Software Omniscient Code Generator (Lite mode) build 49521"
  1193                           
  1194  05F8                     l1785:	
  1195                           opt subtitle "HI-TECH Software Omniscient Code Generator (Lite mode) build 49521"
  1196                           
  1197  05F8  3033               movlw  51
  1198  05F9  1283               	bcf	status, 5	;RP0=0, select bank0
  1199  05FA  1303               	bcf	status, 6	;RP1=0, select bank0
  1200  05FB  00CA               movwf	((??_main+0)+0+2),f
  1201  05FC  30BC               movlw	188
  1202  05FD  00C9               movwf	((??_main+0)+0+1),f
  1203  05FE  3010               	movlw	16
  1204  05FF  00C8               movwf	((??_main+0)+0),f
  1205  0600                     u1777:
  1206  0600  0BC8               	decfsz	((??_main+0)+0),f
  1207  0601  2E00               	goto	u1777
  1208  0602  0BC9               	decfsz	((??_main+0)+0+1),f
  1209  0603  2E00               	goto	u1777
  1210  0604  0BCA               	decfsz	((??_main+0)+0+2),f
  1211  0605  2E00               	goto	u1777
  1212                           opt subtitle "HI-TECH Software Omniscient Code Generator (Lite mode) build 49521"
  1213                           
  1214  0606  2E07               	goto	l1787
  1215                           opt subtitle "HI-TECH Software Omniscient Code Generator (Lite mode) build 49521"
  1216                           
  1217                           opt pagewidth 120
  1218  0607                     l131:	
  1219                           opt subtitle "HI-TECH Software Omniscient Code Generator (Lite mode) build 49521"
  1220                           
  1221  0607                     l1787:	
  1222                           opt subtitle "HI-TECH Software Omniscient Code Generator (Lite mode) build 49521"
  1223                           
  1224  0607  120A  158A  26F3   	fcall	_HCSR04Trigger
              120A  118A         
  1225                           opt subtitle "HI-TECH Software Omniscient Code Generator (Lite mode) build 49521"
  1226                           
  1227  060C                     l1789:	
  1228                           opt subtitle "HI-TECH Software Omniscient Code Generator (Lite mode) build 49521"
  1229  060C  120A  118A  26DB   	fcall	_GetPulseWidth
              120A  118A         
  1230  0611  1283               	bcf	status, 5	;RP0=0, select bank0
  1231  0612  1303               	bcf	status, 6	;RP1=0, select bank0
  1232  0613  083F               	movf	(1+(?_GetPulseWidth)),w
  1233  0614  01CE               	clrf	(main@r+1)
  1234  0615  07CE               	addwf	(main@r+1)
  1235  0616  083E               	movf	(0+(?_GetPulseWidth)),w
  1236  0617  01CD               	clrf	(main@r)
  1237  0618  07CD               	addwf	(main@r)
  1238                           opt subtitle "HI-TECH Software Omniscient Code Generator (Lite mode) build 49521"
  1239                           
  1240                           opt pagewidth 120
  1241  0619                     l1791:	
  1242                           opt subtitle "HI-TECH Software Omniscient Code Generator (Lite mode) build 49521"
  1243  0619  01F5               	clrf	(?_LCDByte)
  1244  061A  3001               	movlw	(01h)
  1245  061B  120A  118A  205D   	fcall	_LCDByte
              120A  118A         
  1246                           opt subtitle "HI-TECH Software Omniscient Code Generator (Lite mode) build 49521"
  1247                           
  1248  0620                     l1793:	
  1249                           opt subtitle "HI-TECH Software Omniscient Code Generator (Lite mode) build 49521"
  1250  0620  01FC               	clrf	(?_LCDGotoXY)
  1251  0621  3000               	movlw	(0)
  1252  0622  120A  158A  2757   	fcall	_LCDGotoXY
              120A  118A         
  1253                           opt subtitle "HI-TECH Software Omniscient Code Generator (Lite mode) build 49521"
  1254  0627                     l1795:	
  1255  0627  300F               	movlw	((STR_3-__stringbase))&0ffh
  1256  0628  120A  118A  2246   	fcall	_LCDWriteString
              120A  118A         
  1257                           opt subtitle "HI-TECH Software Omniscient Code Generator (Lite mode) build 49521"
  1258                           
  1259  062D                     l1797:	
  1260                           opt subtitle "HI-TECH Software Omniscient Code Generator (Lite mode) build 49521"
  1261  062D  30FF               	movlw	high(-1)
  1262  062E  1283               	bcf	status, 5	;RP0=0, select bank0
  1263  062F  1303               	bcf	status, 6	;RP1=0, select bank0
  1264  0630  064E               	xorwf	(main@r+1),w
  1265  0631  1D03               	skipz
  1266  0632  2E35               	goto	u1755
  1267  0633  30FF               	movlw	low(-1)
  1268  0634  064D               	xorwf	(main@r),w
  1269  0635                     u1755:
  1270                           opt subtitle "HI-TECH Software Omniscient Code Generator (Lite mode) build 49521"
  1271  0635  1D03               	skipz
  1272  0636  2E38               	goto	u1751
  1273  0637  2E39               	goto	u1750
  1274  0638                     u1751:
  1275  0638  2E48               	goto	l1801
  1276  0639                     u1750:
  1277                           opt subtitle "HI-TECH Software Omniscient Code Generator (Lite mode) build 49521"
  1278                           
  1279  0639                     l1799:	
  1280                           opt subtitle "HI-TECH Software Omniscient Code Generator (Lite mode) build 49521"
  1281                           
  1282  0639  01FC               	clrf	(?_LCDGotoXY)
  1283  063A  0AFC               	incf	(?_LCDGotoXY),f
  1284  063B  3000               	movlw	(0)
  1285  063C  120A  158A  2757   	fcall	_LCDGotoXY
              120A  118A         
  1286  0641  303C               	movlw	((STR_4-__stringbase))&0ffh
  1287  0642  120A  118A  2246   	fcall	_LCDWriteString
              120A  118A         
  1288                           opt subtitle "HI-TECH Software Omniscient Code Generator (Lite mode) build 49521"
  1289                           
  1290  0647  2EC7               	goto	l1817
  1291                           opt subtitle "HI-TECH Software Omniscient Code Generator (Lite mode) build 49521"
  1292                           
  1293  0648                     l132:	
  1294                           opt subtitle "HI-TECH Software Omniscient Code Generator (Lite mode) build 49521"
  1295  0648                     l1801:	
  1296                           opt subtitle "HI-TECH Software Omniscient Code Generator (Lite mode) build 49521"
  1297  0648  30FF               	movlw	high(-2)
  1298  0649  1283               	bcf	status, 5	;RP0=0, select bank0
  1299  064A  1303               	bcf	status, 6	;RP1=0, select bank0
  1300  064B  064E               	xorwf	(main@r+1),w
  1301  064C  1D03               	skipz
  1302  064D  2E50               	goto	u1765
  1303  064E  30FE               	movlw	low(-2)
  1304  064F  064D               	xorwf	(main@r),w
  1305  0650                     u1765:
  1306                           opt subtitle "HI-TECH Software Omniscient Code Generator (Lite mode) build 49521"
  1307  0650  1D03               	skipz
  1308  0651  2E53               	goto	u1761
  1309  0652  2E54               	goto	u1760
  1310  0653                     u1761:
  1311  0653  2E63               	goto	l1805
  1312  0654                     u1760:
  1313                           opt subtitle "HI-TECH Software Omniscient Code Generator (Lite mode) build 49521"
  1314                           
  1315  0654                     l1803:	
  1316                           opt subtitle "HI-TECH Software Omniscient Code Generator (Lite mode) build 49521"
  1317                           
  1318  0654  01FC               	clrf	(?_LCDGotoXY)
  1319  0655  0AFC               	incf	(?_LCDGotoXY),f
  1320  0656  3000               	movlw	(0)
  1321  0657  120A  158A  2757   	fcall	_LCDGotoXY
              120A  118A         
  1322  065C  3028               	movlw	((STR_5-__stringbase))&0ffh
  1323  065D  120A  118A  2246   	fcall	_LCDWriteString
              120A  118A         
  1324                           opt subtitle "HI-TECH Software Omniscient Code Generator (Lite mode) build 49521"
  1325                           
  1326  0662  2EC7               	goto	l1817
  1327                           opt subtitle "HI-TECH Software Omniscient Code Generator (Lite mode) build 49521"
  1328                           
  1329  0663                     l134:	
  1330                           opt subtitle "HI-TECH Software Omniscient Code Generator (Lite mode) build 49521"
  1331                           
  1332  0663                     l1805:	
  1333                           opt subtitle "HI-TECH Software Omniscient Code Generator (Lite mode) build 49521"
  1334                           
  1335                           opt pagewidth 120
  1336                           
  1337  0663  1283               	bcf	status, 5	;RP0=0, select bank0
  1338  0664  1303               	bcf	status, 6	;RP1=0, select bank0
  1339  0665  084E               	movf	(main@r+1),w
  1340  0666  01AB               	clrf	(?___awtoft+1)
  1341  0667  07AB               	addwf	(?___awtoft+1)
  1342  0668  084D               	movf	(main@r),w
  1343  0669  01AA               	clrf	(?___awtoft)
  1344  066A  07AA               	addwf	(?___awtoft)
  1345                           opt subtitle "HI-TECH Software Omniscient Code Generator (Lite mode) build 49521"
  1346  066B  120A  158A  272C   	fcall	___awtoft
              120A  118A         
  1347  0670  1283               	bcf	status, 5	;RP0=0, select bank0
  1348  0671  1303               	bcf	status, 6	;RP1=0, select bank0
  1349  0672  082A               	movf	(0+(?___awtoft)),w
  1350  0673  00B1               	movwf	0+(?___ftmul)+03h
  1351  0674  082B               	movf	(1+(?___awtoft)),w
  1352  0675  00B2               	movwf	1+(?___ftmul)+03h
  1353  0676  082C               	movf	(2+(?___awtoft)),w
  1354  0677  00B3               	movwf	2+(?___ftmul)+03h
  1355  0678  30BD               	movlw	0xbd
  1356  0679  00AE               	movwf	(?___ftmul)
  1357  067A  308C               	movlw	0x8c
  1358  067B  00AF               	movwf	(?___ftmul+1)
  1359  067C  303C               	movlw	0x3c
  1360  067D  00B0               	movwf	(?___ftmul+2)
  1361  067E  120A  118A  23DA   	fcall	___ftmul
              120A  118A         
  1362  0683  1283               	bcf	status, 5	;RP0=0, select bank0
  1363  0684  1303               	bcf	status, 6	;RP1=0, select bank0
  1364  0685  082E               	movf	(0+(?___ftmul)),w
  1365  0686  00F8               	movwf	(?___fttol)
  1366  0687  082F               	movf	(1+(?___ftmul)),w
  1367  0688  00F9               	movwf	(?___fttol+1)
  1368  0689  0830               	movf	(2+(?___ftmul)),w
  1369  068A  00FA               	movwf	(?___fttol+2)
  1370  068B  120A  118A  2334   	fcall	___fttol
              120A  118A         
  1371  0690  0879               	movf	1+(((0+(?___fttol)))),w
  1372  0691  1283               	bcf	status, 5	;RP0=0, select bank0
  1373  0692  1303               	bcf	status, 6	;RP1=0, select bank0
  1374  0693  01CC               	clrf	(main@d+1)
  1375  0694  07CC               	addwf	(main@d+1)
  1376  0695  0878               	movf	0+(((0+(?___fttol)))),w
  1377  0696  01CB               	clrf	(main@d)
  1378  0697  07CB               	addwf	(main@d)
  1379                           opt subtitle "HI-TECH Software Omniscient Code Generator (Lite mode) build 49521"
  1380                           
  1381                           opt pagewidth 120
  1382  0698                     l1807:	
  1383                           opt subtitle "HI-TECH Software Omniscient Code Generator (Lite mode) build 49521"
  1384  0698  01FC               	clrf	(?_LCDGotoXY)
  1385  0699  0AFC               	incf	(?_LCDGotoXY),f
  1386  069A  3000               	movlw	(0)
  1387  069B  120A  158A  2757   	fcall	_LCDGotoXY
              120A  118A         
  1388                           opt subtitle "HI-TECH Software Omniscient Code Generator (Lite mode) build 49521"
  1389  06A0                     l1809:	
  1390  06A0  3032               	movlw	((STR_6-__stringbase))&0ffh
  1391  06A1  120A  118A  2246   	fcall	_LCDWriteString
              120A  118A         
  1392                           opt subtitle "HI-TECH Software Omniscient Code Generator (Lite mode) build 49521"
  1393                           
  1394  06A6                     l1811:	
  1395                           opt subtitle "HI-TECH Software Omniscient Code Generator (Lite mode) build 49521"
  1396  06A6  01FC               	clrf	(?_LCDGotoXY)
  1397  06A7  0AFC               	incf	(?_LCDGotoXY),f
  1398  06A8  3009               	movlw	(09h)
  1399  06A9  120A  158A  2757   	fcall	_LCDGotoXY
              120A  118A         
  1400                           opt subtitle "HI-TECH Software Omniscient Code Generator (Lite mode) build 49521"
  1401  06AE                     l1813:	
  1402  06AE  1283               	bcf	status, 5	;RP0=0, select bank0
  1403  06AF  1303               	bcf	status, 6	;RP1=0, select bank0
  1404  06B0  084C               	movf	(main@d+1),w
  1405  06B1  01A1               	clrf	(?_LCDWriteInt+1)
  1406  06B2  07A1               	addwf	(?_LCDWriteInt+1)
  1407  06B3  084B               	movf	(main@d),w
  1408  06B4  01A0               	clrf	(?_LCDWriteInt)
  1409  06B5  07A0               	addwf	(?_LCDWriteInt)
  1410                           opt subtitle "HI-TECH Software Omniscient Code Generator (Lite mode) build 49521"
  1411  06B6  3003               	movlw	(03h)
  1412  06B7  00C8               	movwf	(??_main+0)+0
  1413  06B8  0848               	movf	(??_main+0)+0,w
  1414  06B9  00A2               	movwf	0+(?_LCDWriteInt)+02h
  1415  06BA  120A  118A  24C8   	fcall	_LCDWriteInt
              120A  118A         
  1416                           opt subtitle "HI-TECH Software Omniscient Code Generator (Lite mode) build 49521"
  1417                           
  1418  06BF                     l1815:	
  1419                           opt subtitle "HI-TECH Software Omniscient Code Generator (Lite mode) build 49521"
  1420  06BF  3045               	movlw	((STR_7-__stringbase))&0ffh
  1421  06C0  120A  118A  2246   	fcall	_LCDWriteString
              120A  118A         
  1422  06C5  2EC7               	goto	l1817
  1423                           opt subtitle "HI-TECH Software Omniscient Code Generator (Lite mode) build 49521"
  1424                           
  1425  06C6                     l135:	
  1426  06C6  2EC7               	goto	l1817
  1427                           opt subtitle "HI-TECH Software Omniscient Code Generator (Lite mode) build 49521"
  1428  06C7                     l133:	
  1429                           opt subtitle "HI-TECH Software Omniscient Code Generator (Lite mode) build 49521"
  1430                           
  1431  06C7                     l1817:	
  1432                           opt subtitle "HI-TECH Software Omniscient Code Generator (Lite mode) build 49521"
  1433                           
  1434                           opt pagewidth 120
  1435  06C7  3007               movlw  7
  1436  06C8  1283               	bcf	status, 5	;RP0=0, select bank0
  1437  06C9  1303               	bcf	status, 6	;RP1=0, select bank0
  1438  06CA  00CA               movwf	((??_main+0)+0+2),f
  1439  06CB  3058               movlw	88
  1440  06CC  00C9               movwf	((??_main+0)+0+1),f
  1441  06CD  305E               	movlw	94
  1442  06CE  00C8               movwf	((??_main+0)+0),f
  1443  06CF                     u1787:
  1444  06CF  0BC8               	decfsz	((??_main+0)+0),f
  1445  06D0  2ECF               	goto	u1787
  1446  06D1  0BC9               	decfsz	((??_main+0)+0+1),f
  1447  06D2  2ECF               	goto	u1787
  1448  06D3  0BCA               	decfsz	((??_main+0)+0+2),f
  1449  06D4  2ECF               	goto	u1787
  1450  06D5  2ED6               	nop2
  1451                           opt subtitle "HI-TECH Software Omniscient Code Generator (Lite mode) build 49521"
  1452                           
  1453  06D6  2E07               	goto	l1787
  1454                           opt subtitle "HI-TECH Software Omniscient Code Generator (Lite mode) build 49521"
  1455                           
  1456  06D7                     l136:	
  1457                           opt subtitle "HI-TECH Software Omniscient Code Generator (Lite mode) build 49521"
  1458  06D7  2E07               	goto	l1787
  1459                           opt subtitle "HI-TECH Software Omniscient Code Generator (Lite mode) build 49521"
  1460  06D8                     l137:	
  1461                           opt subtitle "HI-TECH Software Omniscient Code Generator (Lite mode) build 49521"
  1462                           
  1463  06D8                     l138:	
  1464                           opt subtitle "HI-TECH Software Omniscient Code Generator (Lite mode) build 49521"
  1465  06D8  120A  118A  2800   	ljmp	start
  1466                           opt subtitle "HI-TECH Software Omniscient Code Generator (Lite mode) build 49521"
  1467                           
  1468  06DB                     	__end_of_main:
  1469                           opt subtitle "HI-TECH Software Omniscient Code Generator (Lite mode) build 49521"
  1470                           
  1471                           opt pagewidth 120
  1472                           
  1473                           	opt lm
  1474                           
  1475                           	processor	16F877A
  1476                           clrc	macro
  1477                           	bcf	3,0
  1478                           	endm
  1479                           clrz	macro
  1480                           	bcf	3,2
  1481                           	endm
  1482                           setc	macro
  1483                           	bsf	3,0
  1484                           	endm
  1485                           setz	macro
  1486                           	bsf	3,2
  1487                           	endm
  1488                           skipc	macro
  1489                           	btfss	3,0
  1490                           	endm
  1491                           skipz	macro
  1492                           	btfss	3,2
  1493                           	endm
  1494                           skipnc	macro
  1495                           	btfsc	3,0
  1496                           	endm
  1497                           skipnz	macro
  1498                           	btfsc	3,2
  1499                           	endm
  1500                           indf	equ	0
  1501                           indf0	equ	0
  1502                           pc	equ	2
  1503                           pcl	equ	2
  1504                           status	equ	3
  1505  0167                     __ptext349:	;psect for function _LCDInit
  1506                           opt subtitle "HI-TECH Software Omniscient Code Generator (Lite mode) build 49521"
  1507                           
  1508                           opt pagewidth 120
  1509                           
  1510  006D                     	__size_of_LCDInit	equ	__end_of_LCDInit-_LCDInit
  1511                           opt subtitle "HI-TECH Software Omniscient Code Generator (Lite mode) build 49521"
  1512  0167                     _LCDInit:	
  1513                           opt subtitle "HI-TECH Software Omniscient Code Generator (Lite mode) build 49521"
  1514                           
  1515                           opt pagewidth 120
  1516                           
  1517  0167  1283               	bcf	status, 5	;RP0=0, select bank0
  1518  0168  1303               	bcf	status, 6	;RP1=0, select bank0
  1519  0169  00A0               	movwf	(LCDInit@style)
  1520                           opt subtitle "HI-TECH Software Omniscient Code Generator (Lite mode) build 49521"
  1521  016A                     l1583:	
  1522                           opt subtitle "HI-TECH Software Omniscient Code Generator (Lite mode) build 49521"
  1523                           
  1524  016A  30C3               movlw	195
  1525  016B  00FD               movwf	((??_LCDInit+0)+0+1),f
  1526  016C  30CD               	movlw	205
  1527  016D  00FC               movwf	((??_LCDInit+0)+0),f
  1528  016E                     u1797:
  1529  016E  0BFC               	decfsz	((??_LCDInit+0)+0),f
  1530  016F  296E               	goto	u1797
  1531  0170  0BFD               	decfsz	((??_LCDInit+0)+0+1),f
  1532  0171  296E               	goto	u1797
  1533                           opt subtitle "HI-TECH Software Omniscient Code Generator (Lite mode) build 49521"
  1534                           
  1535                           opt pagewidth 120
  1536                           
  1537  0172                     l1585:	
  1538                           opt subtitle "HI-TECH Software Omniscient Code Generator (Lite mode) build 49521"
  1539  0172  30F0               	movlw	(0F0h)
  1540  0173  00FC               	movwf	(??_LCDInit+0)+0
  1541  0174  087C               	movf	(??_LCDInit+0)+0,w
  1542  0175  1683               	bsf	status, 5	;RP0=1, select bank1
  1543  0176  1303               	bcf	status, 6	;RP1=0, select bank1
  1544  0177  0588               	andwf	(136)^080h,f	;volatile
  1545                           opt subtitle "HI-TECH Software Omniscient Code Generator (Lite mode) build 49521"
  1546                           
  1547  0178                     l1587:	
  1548                           opt subtitle "HI-TECH Software Omniscient Code Generator (Lite mode) build 49521"
  1549  0178  1208               	bcf	(136)^080h,4	;volatile
  1550                           opt subtitle "HI-TECH Software Omniscient Code Generator (Lite mode) build 49521"
  1551                           
  1552  0179                     l1589:	
  1553                           opt subtitle "HI-TECH Software Omniscient Code Generator (Lite mode) build 49521"
  1554  0179  1186               	bcf	(134)^080h,3	;volatile
  1555                           opt subtitle "HI-TECH Software Omniscient Code Generator (Lite mode) build 49521"
  1556                           
  1557  017A                     l1591:	
  1558                           opt subtitle "HI-TECH Software Omniscient Code Generator (Lite mode) build 49521"
  1559  017A  1106               	bcf	(134)^080h,2	;volatile
  1560                           opt subtitle "HI-TECH Software Omniscient Code Generator (Lite mode) build 49521"
  1561                           
  1562  017B                     l1593:	
  1563                           opt subtitle "HI-TECH Software Omniscient Code Generator (Lite mode) build 49521"
  1564  017B  30F0               	movlw	(0F0h)
  1565  017C  00FC               	movwf	(??_LCDInit+0)+0
  1566  017D  087C               	movf	(??_LCDInit+0)+0,w
  1567  017E  1283               	bcf	status, 5	;RP0=0, select bank0
  1568  017F  1303               	bcf	status, 6	;RP1=0, select bank0
  1569  0180  0588               	andwf	(8),f	;volatile
  1570                           opt subtitle "HI-TECH Software Omniscient Code Generator (Lite mode) build 49521"
  1571                           
  1572  0181                     l1595:	
  1573                           opt subtitle "HI-TECH Software Omniscient Code Generator (Lite mode) build 49521"
  1574  0181  1208               	bcf	(68/8),(68)&7	;volatile
  1575                           opt subtitle "HI-TECH Software Omniscient Code Generator (Lite mode) build 49521"
  1576                           
  1577  0182                     l1597:	
  1578                           opt subtitle "HI-TECH Software Omniscient Code Generator (Lite mode) build 49521"
  1579  0182  1106               	bcf	(50/8),(50)&7	;volatile
  1580                           opt subtitle "HI-TECH Software Omniscient Code Generator (Lite mode) build 49521"
  1581                           
  1582  0183                     l1599:	
  1583                           opt subtitle "HI-TECH Software Omniscient Code Generator (Lite mode) build 49521"
  1584  0183  1186               	bcf	(51/8),(51)&7	;volatile
  1585                           opt subtitle "HI-TECH Software Omniscient Code Generator (Lite mode) build 49521"
  1586                           
  1587  0184                     l1601:	
  1588                           opt subtitle "HI-TECH Software Omniscient Code Generator (Lite mode) build 49521"
  1589                           
  1590  0184  2985               	nop2	;2 cycle nop
  1591                           opt subtitle "HI-TECH Software Omniscient Code Generator (Lite mode) build 49521"
  1592                           
  1593                           opt pagewidth 120
  1594                           
  1595  0185                     l1603:	
  1596                           opt subtitle "HI-TECH Software Omniscient Code Generator (Lite mode) build 49521"
  1597  0185  1283               	bcf	status, 5	;RP0=0, select bank0
  1598  0186  1303               	bcf	status, 6	;RP1=0, select bank0
  1599  0187  1608               	bsf	(68/8),(68)&7	;volatile
  1600                           opt subtitle "HI-TECH Software Omniscient Code Generator (Lite mode) build 49521"
  1601                           
  1602  0188                     l1605:	
  1603                           opt subtitle "HI-TECH Software Omniscient Code Generator (Lite mode) build 49521"
  1604  0188  1488               	bsf	(8)+(1/8),(1)&7	;volatile
  1605                           opt subtitle "HI-TECH Software Omniscient Code Generator (Lite mode) build 49521"
  1606                           
  1607  0189                     l1607:	
  1608                           opt subtitle "HI-TECH Software Omniscient Code Generator (Lite mode) build 49521"
  1609                           
  1610  0189  298A               	nop2	;2 cycle nop
  1611                           opt subtitle "HI-TECH Software Omniscient Code Generator (Lite mode) build 49521"
  1612                           
  1613  018A  298B               	nop2	;2 cycle nop
  1614                           opt subtitle "HI-TECH Software Omniscient Code Generator (Lite mode) build 49521"
  1615                           
  1616  018B  0000               	nop
  1617                           opt subtitle "HI-TECH Software Omniscient Code Generator (Lite mode) build 49521"
  1618                           
  1619                           opt pagewidth 120
  1620                           
  1621  018C                     l1609:	
  1622                           opt subtitle "HI-TECH Software Omniscient Code Generator (Lite mode) build 49521"
  1623  018C  1283               	bcf	status, 5	;RP0=0, select bank0
  1624  018D  1303               	bcf	status, 6	;RP1=0, select bank0
  1625  018E  1208               	bcf	(68/8),(68)&7	;volatile
  1626                           opt subtitle "HI-TECH Software Omniscient Code Generator (Lite mode) build 49521"
  1627                           
  1628  018F                     l1611:	
  1629                           opt subtitle "HI-TECH Software Omniscient Code Generator (Lite mode) build 49521"
  1630                           
  1631  018F  2990               	nop2	;2 cycle nop
  1632                           opt subtitle "HI-TECH Software Omniscient Code Generator (Lite mode) build 49521"
  1633                           
  1634  0190  2991               	nop2	;2 cycle nop
  1635                           opt subtitle "HI-TECH Software Omniscient Code Generator (Lite mode) build 49521"
  1636                           
  1637  0191  0000               	nop
  1638                           opt subtitle "HI-TECH Software Omniscient Code Generator (Lite mode) build 49521"
  1639                           
  1640                           opt pagewidth 120
  1641                           
  1642  0192                     l1613:	
  1643                           opt subtitle "HI-TECH Software Omniscient Code Generator (Lite mode) build 49521"
  1644  0192  120A  118A  20AA   	fcall	_LCDBusyLoop
              120A  118A         
  1645                           opt subtitle "HI-TECH Software Omniscient Code Generator (Lite mode) build 49521"
  1646                           
  1647  0197                     l1615:	
  1648                           opt subtitle "HI-TECH Software Omniscient Code Generator (Lite mode) build 49521"
  1649  0197  01F5               	clrf	(?_LCDByte)
  1650  0198  3028               	movlw	(028h)
  1651  0199  120A  118A  205D   	fcall	_LCDByte
              120A  118A         
  1652                           opt subtitle "HI-TECH Software Omniscient Code Generator (Lite mode) build 49521"
  1653                           
  1654  019E                     l1617:	
  1655                           opt subtitle "HI-TECH Software Omniscient Code Generator (Lite mode) build 49521"
  1656  019E  01F5               	clrf	(?_LCDByte)
  1657  019F  1283               	bcf	status, 5	;RP0=0, select bank0
  1658  01A0  1303               	bcf	status, 6	;RP1=0, select bank0
  1659  01A1  0820               	movf	(LCDInit@style),w
  1660  01A2  380C               	iorlw	0Ch
  1661  01A3  120A  118A  205D   	fcall	_LCDByte
              120A  118A         
  1662                           opt subtitle "HI-TECH Software Omniscient Code Generator (Lite mode) build 49521"
  1663                           
  1664  01A8                     l1619:	
  1665                           opt subtitle "HI-TECH Software Omniscient Code Generator (Lite mode) build 49521"
  1666  01A8  01F5               	clrf	(?_LCDByte)
  1667  01A9  3040               	movlw	(040h)
  1668  01AA  120A  118A  205D   	fcall	_LCDByte
              120A  118A         
  1669                           opt subtitle "HI-TECH Software Omniscient Code Generator (Lite mode) build 49521"
  1670                           
  1671  01AF                     l1621:	
  1672                           opt subtitle "HI-TECH Software Omniscient Code Generator (Lite mode) build 49521"
  1673                           
  1674  01AF  1283               	bcf	status, 5	;RP0=0, select bank0
  1675  01B0  1303               	bcf	status, 6	;RP1=0, select bank0
  1676  01B1  01A1               	clrf	(LCDInit@__i)
  1677  01B2  3040               	movlw	(040h)
  1678  01B3  0221               	subwf	(LCDInit@__i),w
  1679  01B4  1C03               	skipc
  1680  01B5  29B7               	goto	u1501
  1681  01B6  29B8               	goto	u1500
  1682  01B7                     u1501:
  1683  01B7  29BA               	goto	l1625
  1684  01B8                     u1500:
  1685  01B8  29D3               	goto	l35
  1686                           opt subtitle "HI-TECH Software Omniscient Code Generator (Lite mode) build 49521"
  1687  01B9                     l1623:	
  1688  01B9  29D3               	goto	l35
  1689                           opt subtitle "HI-TECH Software Omniscient Code Generator (Lite mode) build 49521"
  1690                           
  1691  01BA                     l33:	
  1692                           opt subtitle "HI-TECH Software Omniscient Code Generator (Lite mode) build 49521"
  1693  01BA                     l1625:	
  1694                           opt subtitle "HI-TECH Software Omniscient Code Generator (Lite mode) build 49521"
  1695  01BA  01F5               	clrf	(?_LCDByte)
  1696  01BB  0AF5               	incf	(?_LCDByte),f
  1697  01BC  0821               	movf	(LCDInit@__i),w
  1698  01BD  3EA0               	addlw	___cgram&0ffh
  1699  01BE  0084               	movwf	fsr0
  1700  01BF  1383               	bcf	status, 7	;select IRP bank1
  1701  01C0  0800               	movf	indf,w
  1702  01C1  120A  118A  205D   	fcall	_LCDByte
              120A  118A         
  1703                           opt subtitle "HI-TECH Software Omniscient Code Generator (Lite mode) build 49521"
  1704                           
  1705  01C6                     l1627:	
  1706  01C6  3001               	movlw	(01h)
  1707  01C7  00FC               	movwf	(??_LCDInit+0)+0
  1708  01C8  087C               	movf	(??_LCDInit+0)+0,w
  1709  01C9  1283               	bcf	status, 5	;RP0=0, select bank0
  1710  01CA  1303               	bcf	status, 6	;RP1=0, select bank0
  1711  01CB  07A1               	addwf	(LCDInit@__i),f
  1712                           opt subtitle "HI-TECH Software Omniscient Code Generator (Lite mode) build 49521"
  1713  01CC                     l1629:	
  1714  01CC  3040               	movlw	(040h)
  1715  01CD  0221               	subwf	(LCDInit@__i),w
  1716  01CE  1C03               	skipc
  1717  01CF  29D1               	goto	u1511
  1718  01D0  29D2               	goto	u1510
  1719  01D1                     u1511:
  1720  01D1  29BA               	goto	l1625
  1721  01D2                     u1510:
  1722  01D2  29D3               	goto	l35
  1723                           opt subtitle "HI-TECH Software Omniscient Code Generator (Lite mode) build 49521"
  1724  01D3                     l34:	
  1725                           opt subtitle "HI-TECH Software Omniscient Code Generator (Lite mode) build 49521"
  1726                           
  1727  01D3                     l35:	
  1728  01D3  0008               	return
  1729                           opt subtitle "HI-TECH Software Omniscient Code Generator (Lite mode) build 49521"
  1730                           
  1731  01D4                     	__end_of_LCDInit:
  1732                           opt subtitle "HI-TECH Software Omniscient Code Generator (Lite mode) build 49521"
  1733                           
  1734                           opt pagewidth 120
  1735                           
  1736                           	opt lm
  1737                           
  1738                           	processor	16F877A
  1739                           clrc	macro
  1740                           	bcf	3,0
  1741                           	endm
  1742                           clrz	macro
  1743                           	bcf	3,2
  1744                           	endm
  1745                           setc	macro
  1746                           	bsf	3,0
  1747                           	endm
  1748                           setz	macro
  1749                           	bsf	3,2
  1750                           	endm
  1751                           skipc	macro
  1752                           	btfss	3,0
  1753                           	endm
  1754                           skipz	macro
  1755                           	btfss	3,2
  1756                           	endm
  1757                           skipnc	macro
  1758                           	btfsc	3,0
  1759                           	endm
  1760                           skipnz	macro
  1761                           	btfsc	3,2
  1762                           	endm
  1763                           indf	equ	0
  1764                           indf0	equ	0
  1765                           pc	equ	2
  1766                           pcl	equ	2
  1767                           status	equ	3
  1768                           fsr	equ	4
  1769                           fsr0	equ	4
  1770                           c	equ	1
  1771  0246                     __ptext350:	;psect for function _LCDWriteString
  1772                           opt subtitle "HI-TECH Software Omniscient Code Generator (Lite mode) build 49521"
  1773                           
  1774                           opt pagewidth 120
  1775                           
  1776  0073                     	__size_of_LCDWriteString	equ	__end_of_LCDWriteString-_LCDWriteString
  1777                           opt subtitle "HI-TECH Software Omniscient Code Generator (Lite mode) build 49521"
  1778  0246                     _LCDWriteString:	
  1779                           opt subtitle "HI-TECH Software Omniscient Code Generator (Lite mode) build 49521"
  1780                           
  1781                           opt pagewidth 120
  1782  0246  1283               	bcf	status, 5	;RP0=0, select bank0
  1783  0247  1303               	bcf	status, 6	;RP1=0, select bank0
  1784  0248  00A1               	movwf	(LCDWriteString@msg)
  1785                           opt subtitle "HI-TECH Software Omniscient Code Generator (Lite mode) build 49521"
  1786                           
  1787  0249                     l1631:	
  1788                           opt subtitle "HI-TECH Software Omniscient Code Generator (Lite mode) build 49521"
  1789  0249  2AAB               	goto	l1653
  1790                           opt subtitle "HI-TECH Software Omniscient Code Generator (Lite mode) build 49521"
  1791  024A                     l39:	
  1792                           opt subtitle "HI-TECH Software Omniscient Code Generator (Lite mode) build 49521"
  1793                           
  1794  024A                     l1633:	
  1795                           opt subtitle "HI-TECH Software Omniscient Code Generator (Lite mode) build 49521"
  1796                           
  1797  024A  0821               	movf	(LCDWriteString@msg),w
  1798  024B  0084               	movwf	fsr0
  1799  024C  120A  118A  2003   	fcall	stringdir
              120A  118A         
  1800  0251  3A25               	xorlw	025h
  1801  0252  1D03               	skipz
  1802  0253  2A55               	goto	u1521
  1803  0254  2A56               	goto	u1520
  1804  0255                     u1521:
  1805  0255  2A93               	goto	l1649
  1806  0256                     u1520:
  1807                           opt subtitle "HI-TECH Software Omniscient Code Generator (Lite mode) build 49521"
  1808                           
  1809  0256                     l1635:	
  1810                           opt subtitle "HI-TECH Software Omniscient Code Generator (Lite mode) build 49521"
  1811                           
  1812  0256  3001               	movlw	(01h)
  1813  0257  00FC               	movwf	(??_LCDWriteString+0)+0
  1814  0258  087C               	movf	(??_LCDWriteString+0)+0,w
  1815  0259  07A1               	addwf	(LCDWriteString@msg),f
  1816                           opt subtitle "HI-TECH Software Omniscient Code Generator (Lite mode) build 49521"
  1817                           
  1818  025A                     l1637:	
  1819                           opt subtitle "HI-TECH Software Omniscient Code Generator (Lite mode) build 49521"
  1820  025A  0821               	movf	(LCDWriteString@msg),w
  1821  025B  0084               	movwf	fsr0
  1822  025C  120A  118A  2003   	fcall	stringdir
              120A  118A         
  1823  0261  3ED0               	addlw	-48
  1824  0262  00FC               	movwf	(??_LCDWriteString+0)+0
  1825  0263  087C               	movf	(??_LCDWriteString+0)+0,w
  1826  0264  00A0               	movwf	(LCDWriteString@cc)
  1827                           opt subtitle "HI-TECH Software Omniscient Code Generator (Lite mode) build 49521"
  1828                           
  1829  0265                     l1639:	
  1830                           opt subtitle "HI-TECH Software Omniscient Code Generator (Lite mode) build 49521"
  1831  0265  1BA0               	btfsc	(LCDWriteString@cc),7
  1832  0266  2A68               	goto	u1531
  1833  0267  2A69               	goto	u1530
  1834  0268                     u1531:
  1835  0268  2A79               	goto	l1645
  1836  0269                     u1530:
  1837                           opt subtitle "HI-TECH Software Omniscient Code Generator (Lite mode) build 49521"
  1838  0269                     l1641:	
  1839  0269  0820               	movf	(LCDWriteString@cc),w
  1840  026A  3A80               	xorlw	80h
  1841  026B  3E78               	addlw	-((08h)^80h)
  1842  026C  1803               	skipnc
  1843  026D  2A6F               	goto	u1541
  1844  026E  2A70               	goto	u1540
  1845  026F                     u1541:
  1846  026F  2A79               	goto	l1645
  1847  0270                     u1540:
  1848                           opt subtitle "HI-TECH Software Omniscient Code Generator (Lite mode) build 49521"
  1849                           
  1850  0270                     l1643:	
  1851                           opt subtitle "HI-TECH Software Omniscient Code Generator (Lite mode) build 49521"
  1852                           
  1853  0270  01F5               	clrf	(?_LCDByte)
  1854  0271  0AF5               	incf	(?_LCDByte),f
  1855  0272  0820               	movf	(LCDWriteString@cc),w
  1856  0273  120A  118A  205D   	fcall	_LCDByte
              120A  118A         
  1857                           opt subtitle "HI-TECH Software Omniscient Code Generator (Lite mode) build 49521"
  1858                           
  1859  0278  2AA4               	goto	l1651
  1860                           opt subtitle "HI-TECH Software Omniscient Code Generator (Lite mode) build 49521"
  1861                           
  1862  0279                     l41:	
  1863                           opt subtitle "HI-TECH Software Omniscient Code Generator (Lite mode) build 49521"
  1864                           
  1865  0279                     l1645:	
  1866                           opt subtitle "HI-TECH Software Omniscient Code Generator (Lite mode) build 49521"
  1867                           
  1868                           opt pagewidth 120
  1869  0279  01F5               	clrf	(?_LCDByte)
  1870  027A  0AF5               	incf	(?_LCDByte),f
  1871  027B  3025               	movlw	(025h)
  1872  027C  120A  118A  205D   	fcall	_LCDByte
              120A  118A         
  1873                           opt subtitle "HI-TECH Software Omniscient Code Generator (Lite mode) build 49521"
  1874                           
  1875  0281                     l1647:	
  1876                           opt subtitle "HI-TECH Software Omniscient Code Generator (Lite mode) build 49521"
  1877  0281  01F5               	clrf	(?_LCDByte)
  1878  0282  0AF5               	incf	(?_LCDByte),f
  1879  0283  1283               	bcf	status, 5	;RP0=0, select bank0
  1880  0284  1303               	bcf	status, 6	;RP1=0, select bank0
  1881  0285  0821               	movf	(LCDWriteString@msg),w
  1882  0286  0084               	movwf	fsr0
  1883  0287  120A  118A  2003   	fcall	stringdir
              120A  118A         
  1884  028C  120A  118A  205D   	fcall	_LCDByte
              120A  118A         
  1885  0291  2AA4               	goto	l1651
  1886                           opt subtitle "HI-TECH Software Omniscient Code Generator (Lite mode) build 49521"
  1887                           
  1888  0292                     l42:	
  1889                           opt subtitle "HI-TECH Software Omniscient Code Generator (Lite mode) build 49521"
  1890                           
  1891                           opt pagewidth 120
  1892  0292  2AA4               	goto	l1651
  1893                           opt subtitle "HI-TECH Software Omniscient Code Generator (Lite mode) build 49521"
  1894                           
  1895  0293                     l40:	
  1896                           opt subtitle "HI-TECH Software Omniscient Code Generator (Lite mode) build 49521"
  1897                           
  1898  0293                     l1649:	
  1899                           opt subtitle "HI-TECH Software Omniscient Code Generator (Lite mode) build 49521"
  1900                           
  1901                           opt pagewidth 120
  1902  0293  01F5               	clrf	(?_LCDByte)
  1903  0294  0AF5               	incf	(?_LCDByte),f
  1904  0295  1283               	bcf	status, 5	;RP0=0, select bank0
  1905  0296  1303               	bcf	status, 6	;RP1=0, select bank0
  1906  0297  0821               	movf	(LCDWriteString@msg),w
  1907  0298  0084               	movwf	fsr0
  1908  0299  120A  118A  2003   	fcall	stringdir
              120A  118A         
  1909  029E  120A  118A  205D   	fcall	_LCDByte
              120A  118A         
  1910  02A3  2AA4               	goto	l1651
  1911                           opt subtitle "HI-TECH Software Omniscient Code Generator (Lite mode) build 49521"
  1912                           
  1913  02A4                     l43:	
  1914                           opt subtitle "HI-TECH Software Omniscient Code Generator (Lite mode) build 49521"
  1915                           
  1916  02A4                     l1651:	
  1917                           opt subtitle "HI-TECH Software Omniscient Code Generator (Lite mode) build 49521"
  1918                           
  1919  02A4  3001               	movlw	(01h)
  1920  02A5  00FC               	movwf	(??_LCDWriteString+0)+0
  1921  02A6  087C               	movf	(??_LCDWriteString+0)+0,w
  1922  02A7  1283               	bcf	status, 5	;RP0=0, select bank0
  1923  02A8  1303               	bcf	status, 6	;RP1=0, select bank0
  1924  02A9  07A1               	addwf	(LCDWriteString@msg),f
  1925  02AA  2AAB               	goto	l1653
  1926                           opt subtitle "HI-TECH Software Omniscient Code Generator (Lite mode) build 49521"
  1927                           
  1928  02AB                     l38:	
  1929                           opt subtitle "HI-TECH Software Omniscient Code Generator (Lite mode) build 49521"
  1930                           
  1931  02AB                     l1653:	
  1932  02AB  0821               	movf	(LCDWriteString@msg),w
  1933  02AC  0084               	movwf	fsr0
  1934  02AD  120A  118A  2003   	fcall	stringdir
              120A  118A         
  1935  02B2  3800               	iorlw	0
  1936  02B3  1D03               	skipz
  1937  02B4  2AB6               	goto	u1551
  1938  02B5  2AB7               	goto	u1550
  1939  02B6                     u1551:
  1940  02B6  2A4A               	goto	l1633
  1941  02B7                     u1550:
  1942  02B7  2AB8               	goto	l45
  1943                           opt subtitle "HI-TECH Software Omniscient Code Generator (Lite mode) build 49521"
  1944  02B8                     l44:	
  1945                           opt subtitle "HI-TECH Software Omniscient Code Generator (Lite mode) build 49521"
  1946                           
  1947  02B8                     l45:	
  1948  02B8  0008               	return
  1949                           opt subtitle "HI-TECH Software Omniscient Code Generator (Lite mode) build 49521"
  1950                           
  1951  02B9                     	__end_of_LCDWriteString:
  1952                           opt subtitle "HI-TECH Software Omniscient Code Generator (Lite mode) build 49521"
  1953                           
  1954                           opt pagewidth 120
  1955                           
  1956                           	opt lm
  1957                           
  1958                           	processor	16F877A
  1959                           clrc	macro
  1960                           	bcf	3,0
  1961                           	endm
  1962                           clrz	macro
  1963                           	bcf	3,2
  1964                           	endm
  1965                           setc	macro
  1966                           	bsf	3,0
  1967                           	endm
  1968                           setz	macro
  1969                           	bsf	3,2
  1970                           	endm
  1971                           skipc	macro
  1972                           	btfss	3,0
  1973                           	endm
  1974                           skipz	macro
  1975                           	btfss	3,2
  1976                           	endm
  1977                           skipnc	macro
  1978                           	btfsc	3,0
  1979                           	endm
  1980                           skipnz	macro
  1981                           	btfsc	3,2
  1982                           	endm
  1983                           indf	equ	0
  1984                           indf0	equ	0
  1985                           pc	equ	2
  1986                           pcl	equ	2
  1987                           status	equ	3
  1988                           fsr	equ	4
  1989                           fsr0	equ	4
  1990                           c	equ	1
  1991  04C8                     __ptext351:	;psect for function _LCDWriteInt
  1992                           opt subtitle "HI-TECH Software Omniscient Code Generator (Lite mode) build 49521"
  1993                           
  1994                           opt pagewidth 120
  1995                           
  1996  00F9                     	__size_of_LCDWriteInt	equ	__end_of_LCDWriteInt-_LCDWriteInt
  1997                           opt subtitle "HI-TECH Software Omniscient Code Generator (Lite mode) build 49521"
  1998  04C8                     _LCDWriteInt:	
  1999                           opt subtitle "HI-TECH Software Omniscient Code Generator (Lite mode) build 49521"
  2000                           
  2001                           opt pagewidth 120
  2002                           
  2003  04C8                     l1655:	
  2004                           opt subtitle "HI-TECH Software Omniscient Code Generator (Lite mode) build 49521"
  2005  04C8  3023               	movlw	(LCDWriteInt@str)&0ffh
  2006  04C9  0084               	movwf	fsr0
  2007  04CA  1283               	bcf	status, 5	;RP0=0, select bank0
  2008  04CB  1303               	bcf	status, 6	;RP1=0, select bank0
  2009  04CC  084F               	movf	(LCDWriteInt@F1160),w
  2010  04CD  1383               	bcf	status, 7	;select IRP bank0
  2011  04CE  0080               	movwf	indf
  2012  04CF  0A84               	incf	fsr0,f
  2013  04D0  0850               	movf	(LCDWriteInt@F1160)+1,w
  2014  04D1  0080               	movwf	indf
  2015  04D2  0A84               	incf	fsr0,f
  2016  04D3  0851               	movf	(LCDWriteInt@F1160)+2,w
  2017  04D4  0080               	movwf	indf
  2018  04D5  0A84               	incf	fsr0,f
  2019  04D6  0852               	movf	(LCDWriteInt@F1160)+3,w
  2020  04D7  0080               	movwf	indf
  2021  04D8  0A84               	incf	fsr0,f
  2022  04D9  0853               	movf	(LCDWriteInt@F1160)+4,w
  2023  04DA  0080               	movwf	indf
  2024                           opt subtitle "HI-TECH Software Omniscient Code Generator (Lite mode) build 49521"
  2025                           
  2026  04DB                     l1657:	
  2027                           opt subtitle "HI-TECH Software Omniscient Code Generator (Lite mode) build 49521"
  2028  04DB  3004               	movlw	low(04h)
  2029  04DC  00AA               	movwf	(LCDWriteInt@i)
  2030  04DD  3000               	movlw	high(04h)
  2031  04DE  00AB               	movwf	((LCDWriteInt@i))+1
  2032                           opt subtitle "HI-TECH Software Omniscient Code Generator (Lite mode) build 49521"
  2033  04DF                     l1659:	
  2034  04DF  01A8               	clrf	(LCDWriteInt@j)
  2035  04E0  01A9               	clrf	(LCDWriteInt@j+1)
  2036                           opt subtitle "HI-TECH Software Omniscient Code Generator (Lite mode) build 49521"
  2037                           
  2038  04E1                     l1661:	
  2039                           opt subtitle "HI-TECH Software Omniscient Code Generator (Lite mode) build 49521"
  2040  04E1  1FA1               	btfss	(LCDWriteInt@val+1),7
  2041  04E2  2CE4               	goto	u1561
  2042  04E3  2CE5               	goto	u1560
  2043  04E4                     u1561:
  2044  04E4  2CF5               	goto	l1667
  2045  04E5                     u1560:
  2046                           opt subtitle "HI-TECH Software Omniscient Code Generator (Lite mode) build 49521"
  2047                           
  2048  04E5                     l1663:	
  2049                           opt subtitle "HI-TECH Software Omniscient Code Generator (Lite mode) build 49521"
  2050                           
  2051  04E5  01F5               	clrf	(?_LCDByte)
  2052  04E6  0AF5               	incf	(?_LCDByte),f
  2053  04E7  302D               	movlw	(02Dh)
  2054  04E8  120A  118A  205D   	fcall	_LCDByte
              120A  118A         
  2055                           opt subtitle "HI-TECH Software Omniscient Code Generator (Lite mode) build 49521"
  2056                           
  2057  04ED                     l1665:	
  2058                           opt subtitle "HI-TECH Software Omniscient Code Generator (Lite mode) build 49521"
  2059  04ED  1283               	bcf	status, 5	;RP0=0, select bank0
  2060  04EE  1303               	bcf	status, 6	;RP1=0, select bank0
  2061  04EF  09A0               	comf	(LCDWriteInt@val),f
  2062  04F0  09A1               	comf	(LCDWriteInt@val+1),f
  2063  04F1  0AA0               	incf	(LCDWriteInt@val),f
  2064  04F2  1903               	skipnz
  2065  04F3  0AA1               	incf	(LCDWriteInt@val+1),f
  2066                           opt subtitle "HI-TECH Software Omniscient Code Generator (Lite mode) build 49521"
  2067                           
  2068  04F4  2CFE               	goto	l1669
  2069                           opt subtitle "HI-TECH Software Omniscient Code Generator (Lite mode) build 49521"
  2070                           
  2071  04F5                     l50:	
  2072                           opt subtitle "HI-TECH Software Omniscient Code Generator (Lite mode) build 49521"
  2073                           
  2074  04F5                     l1667:	
  2075                           opt subtitle "HI-TECH Software Omniscient Code Generator (Lite mode) build 49521"
  2076                           
  2077                           opt pagewidth 120
  2078  04F5  01F5               	clrf	(?_LCDByte)
  2079  04F6  0AF5               	incf	(?_LCDByte),f
  2080  04F7  3020               	movlw	(020h)
  2081  04F8  120A  118A  205D   	fcall	_LCDByte
              120A  118A         
  2082  04FD  2CFE               	goto	l1669
  2083                           opt subtitle "HI-TECH Software Omniscient Code Generator (Lite mode) build 49521"
  2084                           
  2085  04FE                     l51:	
  2086                           opt subtitle "HI-TECH Software Omniscient Code Generator (Lite mode) build 49521"
  2087                           
  2088  04FE                     l1669:	
  2089                           opt subtitle "HI-TECH Software Omniscient Code Generator (Lite mode) build 49521"
  2090                           
  2091  04FE  1283               	bcf	status, 5	;RP0=0, select bank0
  2092  04FF  1303               	bcf	status, 6	;RP1=0, select bank0
  2093  0500  0821               	movf	((LCDWriteInt@val+1)),w
  2094  0501  0420               	iorwf	((LCDWriteInt@val)),w
  2095  0502  1D03               	skipz
  2096  0503  2D05               	goto	u1571
  2097  0504  2D06               	goto	u1570
  2098  0505                     u1571:
  2099  0505  2D51               	goto	l1683
  2100  0506                     u1570:
  2101                           opt subtitle "HI-TECH Software Omniscient Code Generator (Lite mode) build 49521"
  2102  0506                     l1671:	
  2103  0506  0822               	movf	(LCDWriteInt@field_length),w
  2104  0507  3A80               	xorlw	80h
  2105  0508  3E7F               	addlw	-((01h)^80h)
  2106  0509  1803               	skipnc
  2107  050A  2D0C               	goto	u1581
  2108  050B  2D0D               	goto	u1580
  2109  050C                     u1581:
  2110  050C  2D51               	goto	l1683
  2111  050D                     u1580:
  2112                           opt subtitle "HI-TECH Software Omniscient Code Generator (Lite mode) build 49521"
  2113                           
  2114  050D                     l1673:	
  2115                           opt subtitle "HI-TECH Software Omniscient Code Generator (Lite mode) build 49521"
  2116                           
  2117  050D  01F5               	clrf	(?_LCDByte)
  2118  050E  0AF5               	incf	(?_LCDByte),f
  2119  050F  3030               	movlw	(030h)
  2120  0510  120A  118A  205D   	fcall	_LCDByte
              120A  118A         
  2121  0515  2DC0               	goto	l53
  2122                           opt subtitle "HI-TECH Software Omniscient Code Generator (Lite mode) build 49521"
  2123                           
  2124  0516                     l1675:	
  2125                           opt subtitle "HI-TECH Software Omniscient Code Generator (Lite mode) build 49521"
  2126  0516  2DC0               	goto	l53
  2127                           opt subtitle "HI-TECH Software Omniscient Code Generator (Lite mode) build 49521"
  2128                           
  2129  0517                     l52:	
  2130                           opt subtitle "HI-TECH Software Omniscient Code Generator (Lite mode) build 49521"
  2131                           
  2132                           opt pagewidth 120
  2133  0517  2D51               	goto	l1683
  2134                           opt subtitle "HI-TECH Software Omniscient Code Generator (Lite mode) build 49521"
  2135  0518                     l55:	
  2136                           opt subtitle "HI-TECH Software Omniscient Code Generator (Lite mode) build 49521"
  2137                           
  2138  0518                     l1677:	
  2139                           opt subtitle "HI-TECH Software Omniscient Code Generator (Lite mode) build 49521"
  2140                           
  2141  0518  300A               	movlw	low(0Ah)
  2142  0519  00F0               	movwf	(?___awmod)
  2143  051A  3000               	movlw	high(0Ah)
  2144  051B  00F1               	movwf	((?___awmod))+1
  2145  051C  1283               	bcf	status, 5	;RP0=0, select bank0
  2146  051D  1303               	bcf	status, 6	;RP1=0, select bank0
  2147  051E  0821               	movf	(LCDWriteInt@val+1),w
  2148  051F  01F3               	clrf	1+(?___awmod)+02h
  2149  0520  07F3               	addwf	1+(?___awmod)+02h
  2150  0521  0820               	movf	(LCDWriteInt@val),w
  2151  0522  01F2               	clrf	0+(?___awmod)+02h
  2152  0523  07F2               	addwf	0+(?___awmod)+02h
  2153                           opt subtitle "HI-TECH Software Omniscient Code Generator (Lite mode) build 49521"
  2154  0524  120A  118A  2103   	fcall	___awmod
              120A  118A         
  2155  0529  0870               	movf	(0+(?___awmod)),w
  2156  052A  00FC               	movwf	(??_LCDWriteInt+0)+0
  2157  052B  1283               	bcf	status, 5	;RP0=0, select bank0
  2158  052C  1303               	bcf	status, 6	;RP1=0, select bank0
  2159  052D  082A               	movf	(LCDWriteInt@i),w
  2160  052E  3E23               	addlw	LCDWriteInt@str&0ffh
  2161  052F  0084               	movwf	fsr0
  2162  0530  087C               	movf	(??_LCDWriteInt+0)+0,w
  2163  0531  1383               	bcf	status, 7	;select IRP bank0
  2164  0532  0080               	movwf	indf
  2165                           opt subtitle "HI-TECH Software Omniscient Code Generator (Lite mode) build 49521"
  2166                           
  2167  0533                     l1679:	
  2168                           opt subtitle "HI-TECH Software Omniscient Code Generator (Lite mode) build 49521"
  2169  0533  300A               	movlw	low(0Ah)
  2170  0534  00F0               	movwf	(?___awdiv)
  2171  0535  3000               	movlw	high(0Ah)
  2172  0536  00F1               	movwf	((?___awdiv))+1
  2173  0537  0821               	movf	(LCDWriteInt@val+1),w
  2174  0538  01F3               	clrf	1+(?___awdiv)+02h
  2175  0539  07F3               	addwf	1+(?___awdiv)+02h
  2176  053A  0820               	movf	(LCDWriteInt@val),w
  2177  053B  01F2               	clrf	0+(?___awdiv)+02h
  2178  053C  07F2               	addwf	0+(?___awdiv)+02h
  2179                           opt subtitle "HI-TECH Software Omniscient Code Generator (Lite mode) build 49521"
  2180  053D  120A  118A  21D4   	fcall	___awdiv
              120A  118A         
  2181  0542  0871               	movf	(1+(?___awdiv)),w
  2182  0543  1283               	bcf	status, 5	;RP0=0, select bank0
  2183  0544  1303               	bcf	status, 6	;RP1=0, select bank0
  2184  0545  01A1               	clrf	(LCDWriteInt@val+1)
  2185  0546  07A1               	addwf	(LCDWriteInt@val+1)
  2186  0547  0870               	movf	(0+(?___awdiv)),w
  2187  0548  01A0               	clrf	(LCDWriteInt@val)
  2188  0549  07A0               	addwf	(LCDWriteInt@val)
  2189                           opt subtitle "HI-TECH Software Omniscient Code Generator (Lite mode) build 49521"
  2190                           
  2191                           opt pagewidth 120
  2192  054A                     l1681:	
  2193                           opt subtitle "HI-TECH Software Omniscient Code Generator (Lite mode) build 49521"
  2194  054A  30FF               	movlw	low(-1)
  2195  054B  07AA               	addwf	(LCDWriteInt@i),f
  2196  054C  1803               	skipnc
  2197  054D  0AAB               	incf	(LCDWriteInt@i+1),f
  2198  054E  30FF               	movlw	high(-1)
  2199  054F  07AB               	addwf	(LCDWriteInt@i+1),f
  2200  0550  2D51               	goto	l1683
  2201                           opt subtitle "HI-TECH Software Omniscient Code Generator (Lite mode) build 49521"
  2202                           
  2203  0551                     l54:	
  2204                           opt subtitle "HI-TECH Software Omniscient Code Generator (Lite mode) build 49521"
  2205                           
  2206  0551                     l1683:	
  2207  0551  1283               	bcf	status, 5	;RP0=0, select bank0
  2208  0552  1303               	bcf	status, 6	;RP1=0, select bank0
  2209  0553  0821               	movf	((LCDWriteInt@val+1)),w
  2210  0554  0420               	iorwf	((LCDWriteInt@val)),w
  2211  0555  1D03               	skipz
  2212  0556  2D58               	goto	u1591
  2213  0557  2D59               	goto	u1590
  2214  0558                     u1591:
  2215  0558  2D18               	goto	l1677
  2216  0559                     u1590:
  2217  0559  2D5A               	goto	l1685
  2218                           opt subtitle "HI-TECH Software Omniscient Code Generator (Lite mode) build 49521"
  2219  055A                     l56:	
  2220                           opt subtitle "HI-TECH Software Omniscient Code Generator (Lite mode) build 49521"
  2221                           
  2222  055A                     l1685:	
  2223                           opt subtitle "HI-TECH Software Omniscient Code Generator (Lite mode) build 49521"
  2224                           
  2225  055A  0822               	movf	(LCDWriteInt@field_length),w
  2226  055B  3AFF               	xorlw	-1
  2227  055C  1D03               	skipz
  2228  055D  2D5F               	goto	u1601
  2229  055E  2D60               	goto	u1600
  2230  055F                     u1601:
  2231  055F  2D74               	goto	l1693
  2232  0560                     u1600:
  2233  0560  2D69               	goto	l1691
  2234                           opt subtitle "HI-TECH Software Omniscient Code Generator (Lite mode) build 49521"
  2235                           
  2236  0561                     l1687:	
  2237                           opt subtitle "HI-TECH Software Omniscient Code Generator (Lite mode) build 49521"
  2238  0561  2D69               	goto	l1691
  2239                           opt subtitle "HI-TECH Software Omniscient Code Generator (Lite mode) build 49521"
  2240  0562                     l59:	
  2241                           opt subtitle "HI-TECH Software Omniscient Code Generator (Lite mode) build 49521"
  2242  0562                     l1689:	
  2243  0562  3001               	movlw	low(01h)
  2244  0563  07A8               	addwf	(LCDWriteInt@j),f
  2245  0564  1803               	skipnc
  2246  0565  0AA9               	incf	(LCDWriteInt@j+1),f
  2247  0566  3000               	movlw	high(01h)
  2248  0567  07A9               	addwf	(LCDWriteInt@j+1),f
  2249  0568  2D69               	goto	l1691
  2250                           opt subtitle "HI-TECH Software Omniscient Code Generator (Lite mode) build 49521"
  2251  0569                     l58:	
  2252                           opt subtitle "HI-TECH Software Omniscient Code Generator (Lite mode) build 49521"
  2253  0569                     l1691:	
  2254  0569  0828               	movf	(LCDWriteInt@j),w
  2255  056A  3E23               	addlw	LCDWriteInt@str&0ffh
  2256  056B  0084               	movwf	fsr0
  2257  056C  1383               	bcf	status, 7	;select IRP bank0
  2258  056D  0880               	movf	indf
  2259  056E  1903               	skipnz
  2260  056F  2D71               	goto	u1611
  2261  0570  2D72               	goto	u1610
  2262  0571                     u1611:
  2263  0571  2D62               	goto	l1689
  2264  0572                     u1610:
  2265  0572  2D86               	goto	l61
  2266                           opt subtitle "HI-TECH Software Omniscient Code Generator (Lite mode) build 49521"
  2267  0573                     l60:	
  2268  0573  2D86               	goto	l61
  2269                           opt subtitle "HI-TECH Software Omniscient Code Generator (Lite mode) build 49521"
  2270                           
  2271  0574                     l57:	
  2272                           opt subtitle "HI-TECH Software Omniscient Code Generator (Lite mode) build 49521"
  2273                           
  2274  0574                     l1693:	
  2275                           opt subtitle "HI-TECH Software Omniscient Code Generator (Lite mode) build 49521"
  2276                           
  2277  0574  0822               	movf	(LCDWriteInt@field_length),w
  2278  0575  00FC               	movwf	(??_LCDWriteInt+0)+0
  2279  0576  01FD               	clrf	(??_LCDWriteInt+0)+0+1
  2280  0577  1BFC               	btfsc	(??_LCDWriteInt+0)+0,7
  2281  0578  03FD               	decf	(??_LCDWriteInt+0)+0+1,f
  2282  0579  09FC               	comf	(??_LCDWriteInt+0)+0,f
  2283  057A  09FD               	comf	(??_LCDWriteInt+0)+1,f
  2284  057B  0AFC               	incf	(??_LCDWriteInt+0)+0,f
  2285  057C  1903               	skipnz
  2286  057D  0AFD               	incf	(??_LCDWriteInt+0)+1,f
  2287  057E  087C               	movf	0+(??_LCDWriteInt+0)+0,w
  2288  057F  3E05               	addlw	low(05h)
  2289  0580  00A8               	movwf	(LCDWriteInt@j)
  2290  0581  087D               	movf	1+(??_LCDWriteInt+0)+0,w
  2291  0582  1803               	skipnc
  2292  0583  3E01               	addlw	1
  2293  0584  3E00               	addlw	high(05h)
  2294  0585  00A9               	movwf	1+(LCDWriteInt@j)
  2295                           opt subtitle "HI-TECH Software Omniscient Code Generator (Lite mode) build 49521"
  2296  0586                     l61:	
  2297                           opt subtitle "HI-TECH Software Omniscient Code Generator (Lite mode) build 49521"
  2298                           
  2299  0586  0829               	movf	(LCDWriteInt@j+1),w
  2300  0587  01AB               	clrf	(LCDWriteInt@i+1)
  2301  0588  07AB               	addwf	(LCDWriteInt@i+1)
  2302  0589  0828               	movf	(LCDWriteInt@j),w
  2303  058A  01AA               	clrf	(LCDWriteInt@i)
  2304  058B  07AA               	addwf	(LCDWriteInt@i)
  2305                           opt subtitle "HI-TECH Software Omniscient Code Generator (Lite mode) build 49521"
  2306                           
  2307  058C                     l1695:	
  2308  058C  082B               	movf	(LCDWriteInt@i+1),w
  2309  058D  3A80               	xorlw	80h
  2310  058E  00FF               	movwf	btemp+1
  2311  058F  3080               	movlw	(high(05h))^80h
  2312  0590  027F               	subwf	btemp+1,w
  2313  0591  1D03               	skipz
  2314  0592  2D95               	goto	u1625
  2315  0593  3005               	movlw	low(05h)
  2316  0594  022A               	subwf	(LCDWriteInt@i),w
  2317  0595                     u1625:
  2318                           opt subtitle "HI-TECH Software Omniscient Code Generator (Lite mode) build 49521"
  2319  0595  1C03               	skipc
  2320  0596  2D98               	goto	u1621
  2321  0597  2D99               	goto	u1620
  2322  0598                     u1621:
  2323  0598  2D9B               	goto	l1699
  2324  0599                     u1620:
  2325  0599  2DC0               	goto	l53
  2326                           opt subtitle "HI-TECH Software Omniscient Code Generator (Lite mode) build 49521"
  2327  059A                     l1697:	
  2328  059A  2DC0               	goto	l53
  2329                           opt subtitle "HI-TECH Software Omniscient Code Generator (Lite mode) build 49521"
  2330                           
  2331  059B                     l62:	
  2332                           opt subtitle "HI-TECH Software Omniscient Code Generator (Lite mode) build 49521"
  2333                           
  2334  059B                     l1699:	
  2335                           opt subtitle "HI-TECH Software Omniscient Code Generator (Lite mode) build 49521"
  2336                           
  2337  059B  01F5               	clrf	(?_LCDByte)
  2338  059C  0AF5               	incf	(?_LCDByte),f
  2339  059D  1283               	bcf	status, 5	;RP0=0, select bank0
  2340  059E  1303               	bcf	status, 6	;RP1=0, select bank0
  2341  059F  082A               	movf	(LCDWriteInt@i),w
  2342  05A0  3E23               	addlw	LCDWriteInt@str&0ffh
  2343  05A1  0084               	movwf	fsr0
  2344  05A2  1383               	bcf	status, 7	;select IRP bank0
  2345  05A3  0800               	movf	indf,w
  2346  05A4  3E30               	addlw	030h
  2347  05A5  120A  118A  205D   	fcall	_LCDByte
              120A  118A         
  2348                           opt subtitle "HI-TECH Software Omniscient Code Generator (Lite mode) build 49521"
  2349                           
  2350  05AA                     l1701:	
  2351  05AA  3001               	movlw	low(01h)
  2352  05AB  1283               	bcf	status, 5	;RP0=0, select bank0
  2353  05AC  1303               	bcf	status, 6	;RP1=0, select bank0
  2354  05AD  07AA               	addwf	(LCDWriteInt@i),f
  2355  05AE  1803               	skipnc
  2356  05AF  0AAB               	incf	(LCDWriteInt@i+1),f
  2357  05B0  3000               	movlw	high(01h)
  2358  05B1  07AB               	addwf	(LCDWriteInt@i+1),f
  2359                           opt subtitle "HI-TECH Software Omniscient Code Generator (Lite mode) build 49521"
  2360  05B2                     l1703:	
  2361  05B2  082B               	movf	(LCDWriteInt@i+1),w
  2362  05B3  3A80               	xorlw	80h
  2363  05B4  00FF               	movwf	btemp+1
  2364  05B5  3080               	movlw	(high(05h))^80h
  2365  05B6  027F               	subwf	btemp+1,w
  2366  05B7  1D03               	skipz
  2367  05B8  2DBB               	goto	u1635
  2368  05B9  3005               	movlw	low(05h)
  2369  05BA  022A               	subwf	(LCDWriteInt@i),w
  2370  05BB                     u1635:
  2371                           opt subtitle "HI-TECH Software Omniscient Code Generator (Lite mode) build 49521"
  2372  05BB  1C03               	skipc
  2373  05BC  2DBE               	goto	u1631
  2374  05BD  2DBF               	goto	u1630
  2375  05BE                     u1631:
  2376  05BE  2D9B               	goto	l1699
  2377  05BF                     u1630:
  2378  05BF  2DC0               	goto	l53
  2379                           opt subtitle "HI-TECH Software Omniscient Code Generator (Lite mode) build 49521"
  2380  05C0                     l63:	
  2381                           opt subtitle "HI-TECH Software Omniscient Code Generator (Lite mode) build 49521"
  2382                           
  2383  05C0                     l53:	
  2384  05C0  0008               	return
  2385                           opt subtitle "HI-TECH Software Omniscient Code Generator (Lite mode) build 49521"
  2386                           
  2387  05C1                     	__end_of_LCDWriteInt:
  2388                           opt subtitle "HI-TECH Software Omniscient Code Generator (Lite mode) build 49521"
  2389                           
  2390                           opt pagewidth 120
  2391                           
  2392                           	opt lm
  2393                           
  2394                           	processor	16F877A
  2395                           clrc	macro
  2396                           	bcf	3,0
  2397                           	endm
  2398                           clrz	macro
  2399                           	bcf	3,2
  2400                           	endm
  2401                           setc	macro
  2402                           	bsf	3,0
  2403                           	endm
  2404                           setz	macro
  2405                           	bsf	3,2
  2406                           	endm
  2407                           skipc	macro
  2408                           	btfss	3,0
  2409                           	endm
  2410                           skipz	macro
  2411                           	btfss	3,2
  2412                           	endm
  2413                           skipnc	macro
  2414                           	btfsc	3,0
  2415                           	endm
  2416                           skipnz	macro
  2417                           	btfsc	3,2
  2418                           	endm
  2419                           indf	equ	0
  2420                           indf0	equ	0
  2421                           pc	equ	2
  2422                           pcl	equ	2
  2423  0F57                     __ptext352:	;psect for function _LCDGotoXY
  2424                           opt subtitle "HI-TECH Software Omniscient Code Generator (Lite mode) build 49521"
  2425                           
  2426                           opt pagewidth 120
  2427                           
  2428  0031                     	__size_of_LCDGotoXY	equ	__end_of_LCDGotoXY-_LCDGotoXY
  2429                           opt subtitle "HI-TECH Software Omniscient Code Generator (Lite mode) build 49521"
  2430  0F57                     _LCDGotoXY:	
  2431                           opt subtitle "HI-TECH Software Omniscient Code Generator (Lite mode) build 49521"
  2432                           
  2433                           opt pagewidth 120
  2434  0F57  1283               	bcf	status, 5	;RP0=0, select bank0
  2435  0F58  1303               	bcf	status, 6	;RP1=0, select bank0
  2436  0F59  00A0               	movwf	(LCDGotoXY@x)
  2437                           opt subtitle "HI-TECH Software Omniscient Code Generator (Lite mode) build 49521"
  2438                           
  2439  0F5A                     l1705:	
  2440                           opt subtitle "HI-TECH Software Omniscient Code Generator (Lite mode) build 49521"
  2441  0F5A  3014               	movlw	(014h)
  2442  0F5B  0220               	subwf	(LCDGotoXY@x),w
  2443  0F5C  1C03               	skipc
  2444  0F5D  2F5F               	goto	u1641
  2445  0F5E  2F60               	goto	u1640
  2446  0F5F                     u1641:
  2447  0F5F  2F71               	goto	l1715
  2448  0F60                     u1640:
  2449  0F60  2F87               	goto	l67
  2450                           opt subtitle "HI-TECH Software Omniscient Code Generator (Lite mode) build 49521"
  2451  0F61                     l1707:	
  2452  0F61  2F87               	goto	l67
  2453                           opt subtitle "HI-TECH Software Omniscient Code Generator (Lite mode) build 49521"
  2454  0F62                     l66:	
  2455                           opt subtitle "HI-TECH Software Omniscient Code Generator (Lite mode) build 49521"
  2456                           
  2457  0F62  2F71               	goto	l1715
  2458                           opt subtitle "HI-TECH Software Omniscient Code Generator (Lite mode) build 49521"
  2459                           
  2460                           opt pagewidth 120
  2461                           
  2462  0F63                     l69:	
  2463                           opt subtitle "HI-TECH Software Omniscient Code Generator (Lite mode) build 49521"
  2464                           
  2465  0F63  2F7F               	goto	l70
  2466                           opt subtitle "HI-TECH Software Omniscient Code Generator (Lite mode) build 49521"
  2467                           
  2468                           opt pagewidth 120
  2469  0F64                     l71:	
  2470                           opt subtitle "HI-TECH Software Omniscient Code Generator (Lite mode) build 49521"
  2471                           
  2472  0F64  1720               	bsf	(LCDGotoXY@x)+(6/8),(6)&7
  2473                           opt subtitle "HI-TECH Software Omniscient Code Generator (Lite mode) build 49521"
  2474                           
  2475  0F65  2F7F               	goto	l70
  2476                           opt subtitle "HI-TECH Software Omniscient Code Generator (Lite mode) build 49521"
  2477                           
  2478                           opt pagewidth 120
  2479  0F66                     l72:	
  2480                           opt subtitle "HI-TECH Software Omniscient Code Generator (Lite mode) build 49521"
  2481                           
  2482  0F66                     l1709:	
  2483                           opt subtitle "HI-TECH Software Omniscient Code Generator (Lite mode) build 49521"
  2484  0F66  3014               	movlw	(014h)
  2485  0F67  00FD               	movwf	(??_LCDGotoXY+0)+0
  2486  0F68  087D               	movf	(??_LCDGotoXY+0)+0,w
  2487  0F69  07A0               	addwf	(LCDGotoXY@x),f
  2488                           opt subtitle "HI-TECH Software Omniscient Code Generator (Lite mode) build 49521"
  2489                           
  2490  0F6A  2F7F               	goto	l70
  2491                           opt subtitle "HI-TECH Software Omniscient Code Generator (Lite mode) build 49521"
  2492                           
  2493                           opt pagewidth 120
  2494  0F6B                     l73:	
  2495                           opt subtitle "HI-TECH Software Omniscient Code Generator (Lite mode) build 49521"
  2496                           
  2497  0F6B                     l1711:	
  2498                           opt subtitle "HI-TECH Software Omniscient Code Generator (Lite mode) build 49521"
  2499  0F6B  3054               	movlw	(054h)
  2500  0F6C  00FD               	movwf	(??_LCDGotoXY+0)+0
  2501  0F6D  087D               	movf	(??_LCDGotoXY+0)+0,w
  2502  0F6E  07A0               	addwf	(LCDGotoXY@x),f
  2503                           opt subtitle "HI-TECH Software Omniscient Code Generator (Lite mode) build 49521"
  2504                           
  2505  0F6F  2F7F               	goto	l70
  2506                           opt subtitle "HI-TECH Software Omniscient Code Generator (Lite mode) build 49521"
  2507                           
  2508  0F70                     l1713:	
  2509                           opt subtitle "HI-TECH Software Omniscient Code Generator (Lite mode) build 49521"
  2510  0F70  2F7F               	goto	l70
  2511                           opt subtitle "HI-TECH Software Omniscient Code Generator (Lite mode) build 49521"
  2512                           
  2513  0F71                     l68:	
  2514                           opt subtitle "HI-TECH Software Omniscient Code Generator (Lite mode) build 49521"
  2515  0F71                     l1715:	
  2516  0F71  087C               	movf	(LCDGotoXY@y),w
  2517                           opt subtitle "HI-TECH Software Omniscient Code Generator (Lite mode) build 49521"
  2518                           
  2519                           opt pagewidth 120
  2520                           
  2521                           	opt lm
  2522                           
  2523                           	processor	16F877A
  2524                           clrc	macro
  2525                           	bcf	3,0
  2526                           	endm
  2527                           clrz	macro
  2528                           	bcf	3,2
  2529                           	endm
  2530  0F72  3A00               	xorlw	0^0	; case 0
  2531  0F73  1903               	skipnz
  2532  0F74  2F7F               	goto	l70
  2533  0F75  3A01               	xorlw	1^0	; case 1
  2534  0F76  1903               	skipnz
  2535  0F77  2F64               	goto	l71
  2536  0F78  3A03               	xorlw	2^1	; case 2
  2537  0F79  1903               	skipnz
  2538  0F7A  2F66               	goto	l1709
  2539  0F7B  3A01               	xorlw	3^2	; case 3
  2540  0F7C  1903               	skipnz
  2541  0F7D  2F6B               	goto	l1711
  2542  0F7E  2F7F               	goto	l70
  2543                           opt subtitle "HI-TECH Software Omniscient Code Generator (Lite mode) build 49521"
  2544                           
  2545                           opt pagewidth 120
  2546                           
  2547  0F7F                     l70:	
  2548                           opt subtitle "HI-TECH Software Omniscient Code Generator (Lite mode) build 49521"
  2549                           
  2550  0F7F  17A0               	bsf	(LCDGotoXY@x)+(7/8),(7)&7
  2551                           opt subtitle "HI-TECH Software Omniscient Code Generator (Lite mode) build 49521"
  2552                           
  2553  0F80                     l1717:	
  2554                           opt subtitle "HI-TECH Software Omniscient Code Generator (Lite mode) build 49521"
  2555  0F80  01F5               	clrf	(?_LCDByte)
  2556  0F81  0820               	movf	(LCDGotoXY@x),w
  2557  0F82  120A  118A  205D   	fcall	_LCDByte
              120A  158A         
  2558                           opt subtitle "HI-TECH Software Omniscient Code Generator (Lite mode) build 49521"
  2559                           
  2560  0F87                     l67:	
  2561  0F87  0008               	return
  2562                           opt subtitle "HI-TECH Software Omniscient Code Generator (Lite mode) build 49521"
  2563                           
  2564  0F88                     	__end_of_LCDGotoXY:
  2565                           opt subtitle "HI-TECH Software Omniscient Code Generator (Lite mode) build 49521"
  2566                           
  2567                           opt pagewidth 120
  2568                           
  2569                           	opt lm
  2570                           
  2571                           	processor	16F877A
  2572                           clrc	macro
  2573                           	bcf	3,0
  2574                           	endm
  2575                           clrz	macro
  2576                           	bcf	3,2
  2577                           	endm
  2578                           setc	macro
  2579                           	bsf	3,0
  2580                           	endm
  2581                           setz	macro
  2582                           	bsf	3,2
  2583                           	endm
  2584                           skipc	macro
  2585                           	btfss	3,0
  2586                           	endm
  2587                           skipz	macro
  2588                           	btfss	3,2
  2589                           	endm
  2590                           skipnc	macro
  2591                           	btfsc	3,0
  2592                           	endm
  2593                           skipnz	macro
  2594                           	btfsc	3,2
  2595                           	endm
  2596                           indf	equ	0
  2597                           indf0	equ	0
  2598                           pc	equ	2
  2599                           pcl	equ	2
  2600                           status	equ	3
  2601                           fsr	equ	4
  2602                           fsr0	equ	4
  2603                           c	equ	1
  2604                           z	equ	0
  2605                           pclath	equ	10
  2606                           # 46 "D:\Program Files (x86)\Microchip\xc8\v1.12\include\pic16f877a.h"
  2607  005D                     __ptext353:	;psect for function _LCDByte
  2608                           opt subtitle "HI-TECH Software Omniscient Code Generator (Lite mode) build 49521"
  2609                           
  2610                           opt pagewidth 120
  2611                           
  2612  004D                     	__size_of_LCDByte	equ	__end_of_LCDByte-_LCDByte
  2613                           opt subtitle "HI-TECH Software Omniscient Code Generator (Lite mode) build 49521"
  2614  005D                     _LCDByte:	
  2615                           opt subtitle "HI-TECH Software Omniscient Code Generator (Lite mode) build 49521"
  2616                           
  2617                           opt pagewidth 120
  2618                           
  2619  005D  00FA               	movwf	(LCDByte@c)
  2620                           opt subtitle "HI-TECH Software Omniscient Code Generator (Lite mode) build 49521"
  2621  005E                     l1503:	
  2622                           opt subtitle "HI-TECH Software Omniscient Code Generator (Lite mode) build 49521"
  2623                           
  2624                           opt pagewidth 120
  2625  005E  087A               	movf	(LCDByte@c),w
  2626  005F  00F6               	movwf	(??_LCDByte+0)+0
  2627  0060  3004               	movlw	04h
  2628  0061                     u1345:
  2629  0061  1003               	clrc
  2630  0062  0CF6               	rrf	(??_LCDByte+0)+0,f
  2631  0063  3EFF               	addlw	-1
  2632  0064  1D03               	skipz
  2633  0065  2861               	goto	u1345
  2634  0066  0876               	movf	0+(??_LCDByte+0)+0,w
  2635  0067  00F7               	movwf	(??_LCDByte+1)+0
  2636  0068  0877               	movf	(??_LCDByte+1)+0,w
  2637  0069  00F8               	movwf	(LCDByte@hn)
  2638                           opt subtitle "HI-TECH Software Omniscient Code Generator (Lite mode) build 49521"
  2639                           
  2640  006A                     l1505:	
  2641                           opt subtitle "HI-TECH Software Omniscient Code Generator (Lite mode) build 49521"
  2642  006A  087A               	movf	(LCDByte@c),w
  2643  006B  390F               	andlw	0Fh
  2644  006C  00F6               	movwf	(??_LCDByte+0)+0
  2645  006D  0876               	movf	(??_LCDByte+0)+0,w
  2646  006E  00F9               	movwf	(LCDByte@ln)
  2647                           opt subtitle "HI-TECH Software Omniscient Code Generator (Lite mode) build 49521"
  2648                           
  2649  006F                     l1507:	
  2650                           opt subtitle "HI-TECH Software Omniscient Code Generator (Lite mode) build 49521"
  2651  006F  08F5               	movf	(LCDByte@isdata),f
  2652  0070  1D03               	skipz
  2653  0071  2873               	goto	u1351
  2654  0072  2874               	goto	u1350
  2655  0073                     u1351:
  2656  0073  2878               	goto	l23
  2657  0074                     u1350:
  2658                           opt subtitle "HI-TECH Software Omniscient Code Generator (Lite mode) build 49521"
  2659                           
  2660  0074                     l1509:	
  2661                           opt subtitle "HI-TECH Software Omniscient Code Generator (Lite mode) build 49521"
  2662  0074  1283               	bcf	status, 5	;RP0=0, select bank0
  2663  0075  1303               	bcf	status, 6	;RP1=0, select bank0
  2664  0076  1186               	bcf	(51/8),(51)&7	;volatile
  2665  0077  287B               	goto	l24
  2666                           opt subtitle "HI-TECH Software Omniscient Code Generator (Lite mode) build 49521"
  2667                           
  2668  0078                     l23:	
  2669                           opt subtitle "HI-TECH Software Omniscient Code Generator (Lite mode) build 49521"
  2670                           
  2671                           opt pagewidth 120
  2672  0078  1283               	bcf	status, 5	;RP0=0, select bank0
  2673  0079  1303               	bcf	status, 6	;RP1=0, select bank0
  2674  007A  1586               	bsf	(51/8),(51)&7	;volatile
  2675                           opt subtitle "HI-TECH Software Omniscient Code Generator (Lite mode) build 49521"
  2676  007B                     l24:	
  2677                           opt subtitle "HI-TECH Software Omniscient Code Generator (Lite mode) build 49521"
  2678                           
  2679                           opt pagewidth 120
  2680  007B  287C               	nop2	;2 cycle nop
  2681                           opt subtitle "HI-TECH Software Omniscient Code Generator (Lite mode) build 49521"
  2682                           
  2683                           opt pagewidth 120
  2684                           
  2685  007C  1283               	bcf	status, 5	;RP0=0, select bank0
  2686  007D  1303               	bcf	status, 6	;RP1=0, select bank0
  2687  007E  1608               	bsf	(68/8),(68)&7	;volatile
  2688                           opt subtitle "HI-TECH Software Omniscient Code Generator (Lite mode) build 49521"
  2689                           
  2690  007F                     l1511:	
  2691                           opt subtitle "HI-TECH Software Omniscient Code Generator (Lite mode) build 49521"
  2692  007F  0808               	movf	(8),w	;volatile
  2693  0080  39F0               	andlw	0F0h
  2694  0081  0478               	iorwf	(LCDByte@hn),w
  2695  0082  00F6               	movwf	(??_LCDByte+0)+0
  2696  0083  0876               	movf	(??_LCDByte+0)+0,w
  2697  0084  00FB               	movwf	(LCDByte@temp)
  2698                           opt subtitle "HI-TECH Software Omniscient Code Generator (Lite mode) build 49521"
  2699                           
  2700  0085                     l1513:	
  2701                           opt subtitle "HI-TECH Software Omniscient Code Generator (Lite mode) build 49521"
  2702  0085  087B               	movf	(LCDByte@temp),w
  2703  0086  0088               	movwf	(8)	;volatile
  2704                           opt subtitle "HI-TECH Software Omniscient Code Generator (Lite mode) build 49521"
  2705                           
  2706  0087                     l1515:	
  2707                           opt subtitle "HI-TECH Software Omniscient Code Generator (Lite mode) build 49521"
  2708                           
  2709  0087  2888               	nop2	;2 cycle nop
  2710                           opt subtitle "HI-TECH Software Omniscient Code Generator (Lite mode) build 49521"
  2711                           
  2712  0088  2889               	nop2	;2 cycle nop
  2713                           opt subtitle "HI-TECH Software Omniscient Code Generator (Lite mode) build 49521"
  2714                           
  2715  0089  0000               	nop
  2716                           opt subtitle "HI-TECH Software Omniscient Code Generator (Lite mode) build 49521"
  2717                           
  2718                           opt pagewidth 120
  2719                           
  2720  008A                     l1517:	
  2721                           opt subtitle "HI-TECH Software Omniscient Code Generator (Lite mode) build 49521"
  2722  008A  1283               	bcf	status, 5	;RP0=0, select bank0
  2723  008B  1303               	bcf	status, 6	;RP1=0, select bank0
  2724  008C  1208               	bcf	(68/8),(68)&7	;volatile
  2725                           opt subtitle "HI-TECH Software Omniscient Code Generator (Lite mode) build 49521"
  2726                           
  2727  008D                     l1519:	
  2728                           opt subtitle "HI-TECH Software Omniscient Code Generator (Lite mode) build 49521"
  2729                           
  2730  008D  288E               	nop2	;2 cycle nop
  2731                           opt subtitle "HI-TECH Software Omniscient Code Generator (Lite mode) build 49521"
  2732                           
  2733  008E  288F               	nop2	;2 cycle nop
  2734                           opt subtitle "HI-TECH Software Omniscient Code Generator (Lite mode) build 49521"
  2735                           
  2736  008F  0000               	nop
  2737                           opt subtitle "HI-TECH Software Omniscient Code Generator (Lite mode) build 49521"
  2738                           
  2739                           opt pagewidth 120
  2740                           
  2741  0090                     l1521:	
  2742                           opt subtitle "HI-TECH Software Omniscient Code Generator (Lite mode) build 49521"
  2743  0090  1283               	bcf	status, 5	;RP0=0, select bank0
  2744  0091  1303               	bcf	status, 6	;RP1=0, select bank0
  2745  0092  1608               	bsf	(68/8),(68)&7	;volatile
  2746                           opt subtitle "HI-TECH Software Omniscient Code Generator (Lite mode) build 49521"
  2747                           
  2748  0093                     l1523:	
  2749                           opt subtitle "HI-TECH Software Omniscient Code Generator (Lite mode) build 49521"
  2750  0093  0808               	movf	(8),w	;volatile
  2751  0094  39F0               	andlw	0F0h
  2752  0095  0479               	iorwf	(LCDByte@ln),w
  2753  0096  00F6               	movwf	(??_LCDByte+0)+0
  2754  0097  0876               	movf	(??_LCDByte+0)+0,w
  2755  0098  00FB               	movwf	(LCDByte@temp)
  2756                           opt subtitle "HI-TECH Software Omniscient Code Generator (Lite mode) build 49521"
  2757                           
  2758  0099  087B               	movf	(LCDByte@temp),w
  2759  009A  0088               	movwf	(8)	;volatile
  2760                           opt subtitle "HI-TECH Software Omniscient Code Generator (Lite mode) build 49521"
  2761                           
  2762  009B                     l1525:	
  2763                           opt subtitle "HI-TECH Software Omniscient Code Generator (Lite mode) build 49521"
  2764                           
  2765  009B  289C               	nop2	;2 cycle nop
  2766                           opt subtitle "HI-TECH Software Omniscient Code Generator (Lite mode) build 49521"
  2767                           
  2768  009C  289D               	nop2	;2 cycle nop
  2769                           opt subtitle "HI-TECH Software Omniscient Code Generator (Lite mode) build 49521"
  2770                           
  2771  009D  0000               	nop
  2772                           opt subtitle "HI-TECH Software Omniscient Code Generator (Lite mode) build 49521"
  2773                           
  2774                           opt pagewidth 120
  2775                           
  2776  009E                     l1527:	
  2777                           opt subtitle "HI-TECH Software Omniscient Code Generator (Lite mode) build 49521"
  2778  009E  1283               	bcf	status, 5	;RP0=0, select bank0
  2779  009F  1303               	bcf	status, 6	;RP1=0, select bank0
  2780  00A0  1208               	bcf	(68/8),(68)&7	;volatile
  2781                           opt subtitle "HI-TECH Software Omniscient Code Generator (Lite mode) build 49521"
  2782                           
  2783  00A1                     l1529:	
  2784                           opt subtitle "HI-TECH Software Omniscient Code Generator (Lite mode) build 49521"
  2785                           
  2786  00A1  28A2               	nop2	;2 cycle nop
  2787                           opt subtitle "HI-TECH Software Omniscient Code Generator (Lite mode) build 49521"
  2788                           
  2789  00A2  28A3               	nop2	;2 cycle nop
  2790                           opt subtitle "HI-TECH Software Omniscient Code Generator (Lite mode) build 49521"
  2791                           
  2792  00A3  0000               	nop
  2793                           opt subtitle "HI-TECH Software Omniscient Code Generator (Lite mode) build 49521"
  2794                           
  2795                           opt pagewidth 120
  2796                           
  2797  00A4                     l1531:	
  2798                           opt subtitle "HI-TECH Software Omniscient Code Generator (Lite mode) build 49521"
  2799  00A4  120A  118A  20AA   	fcall	_LCDBusyLoop
              120A  118A         
  2800                           opt subtitle "HI-TECH Software Omniscient Code Generator (Lite mode) build 49521"
  2801                           
  2802  00A9                     l25:	
  2803  00A9  0008               	return
  2804                           opt subtitle "HI-TECH Software Omniscient Code Generator (Lite mode) build 49521"
  2805                           
  2806  00AA                     	__end_of_LCDByte:
  2807                           opt subtitle "HI-TECH Software Omniscient Code Generator (Lite mode) build 49521"
  2808                           
  2809                           opt pagewidth 120
  2810                           
  2811                           	opt lm
  2812                           
  2813                           	processor	16F877A
  2814                           clrc	macro
  2815                           	bcf	3,0
  2816                           	endm
  2817                           clrz	macro
  2818                           	bcf	3,2
  2819                           	endm
  2820                           setc	macro
  2821                           	bsf	3,0
  2822                           	endm
  2823                           setz	macro
  2824                           	bsf	3,2
  2825                           	endm
  2826                           skipc	macro
  2827                           	btfss	3,0
  2828                           	endm
  2829                           skipz	macro
  2830                           	btfss	3,2
  2831                           	endm
  2832                           skipnc	macro
  2833                           	btfsc	3,0
  2834                           	endm
  2835                           skipnz	macro
  2836                           	btfsc	3,2
  2837                           	endm
  2838                           indf	equ	0
  2839                           indf0	equ	0
  2840                           pc	equ	2
  2841                           pcl	equ	2
  2842                           status	equ	3
  2843  00AA                     __ptext354:	;psect for function _LCDBusyLoop
  2844                           opt subtitle "HI-TECH Software Omniscient Code Generator (Lite mode) build 49521"
  2845                           
  2846                           opt pagewidth 120
  2847                           
  2848  0059                     	__size_of_LCDBusyLoop	equ	__end_of_LCDBusyLoop-_LCDBusyLoop
  2849                           opt subtitle "HI-TECH Software Omniscient Code Generator (Lite mode) build 49521"
  2850  00AA                     _LCDBusyLoop:	
  2851                           opt subtitle "HI-TECH Software Omniscient Code Generator (Lite mode) build 49521"
  2852                           
  2853                           opt pagewidth 120
  2854                           
  2855  00AA                     l1389:	
  2856                           opt subtitle "HI-TECH Software Omniscient Code Generator (Lite mode) build 49521"
  2857  00AA  01F4               	clrf	(LCDBusyLoop@status)
  2858                           opt subtitle "HI-TECH Software Omniscient Code Generator (Lite mode) build 49521"
  2859                           
  2860  00AB                     l1391:	
  2861                           opt subtitle "HI-TECH Software Omniscient Code Generator (Lite mode) build 49521"
  2862  00AB  300F               	movlw	(0Fh)
  2863  00AC  00F0               	movwf	(??_LCDBusyLoop+0)+0
  2864  00AD  0870               	movf	(??_LCDBusyLoop+0)+0,w
  2865  00AE  1683               	bsf	status, 5	;RP0=1, select bank1
  2866  00AF  1303               	bcf	status, 6	;RP1=0, select bank1
  2867  00B0  0488               	iorwf	(136)^080h,f	;volatile
  2868                           opt subtitle "HI-TECH Software Omniscient Code Generator (Lite mode) build 49521"
  2869                           
  2870  00B1                     l1393:	
  2871                           opt subtitle "HI-TECH Software Omniscient Code Generator (Lite mode) build 49521"
  2872  00B1  1283               	bcf	status, 5	;RP0=0, select bank0
  2873  00B2  1303               	bcf	status, 6	;RP1=0, select bank0
  2874  00B3  1506               	bsf	(50/8),(50)&7	;volatile
  2875                           opt subtitle "HI-TECH Software Omniscient Code Generator (Lite mode) build 49521"
  2876                           
  2877  00B4                     l1395:	
  2878                           opt subtitle "HI-TECH Software Omniscient Code Generator (Lite mode) build 49521"
  2879  00B4  1186               	bcf	(51/8),(51)&7	;volatile
  2880                           opt subtitle "HI-TECH Software Omniscient Code Generator (Lite mode) build 49521"
  2881                           
  2882  00B5                     l1397:	
  2883                           opt subtitle "HI-TECH Software Omniscient Code Generator (Lite mode) build 49521"
  2884                           
  2885  00B5  28B6               	nop2	;2 cycle nop
  2886                           opt subtitle "HI-TECH Software Omniscient Code Generator (Lite mode) build 49521"
  2887                           
  2888  00B6  28B7               	goto	l1399
  2889                           opt subtitle "HI-TECH Software Omniscient Code Generator (Lite mode) build 49521"
  2890                           
  2891                           opt pagewidth 120
  2892  00B7                     l28:	
  2893                           opt subtitle "HI-TECH Software Omniscient Code Generator (Lite mode) build 49521"
  2894                           
  2895  00B7                     l1399:	
  2896                           opt subtitle "HI-TECH Software Omniscient Code Generator (Lite mode) build 49521"
  2897                           
  2898  00B7  1283               	bcf	status, 5	;RP0=0, select bank0
  2899  00B8  1303               	bcf	status, 6	;RP1=0, select bank0
  2900  00B9  1608               	bsf	(68/8),(68)&7	;volatile
  2901                           opt subtitle "HI-TECH Software Omniscient Code Generator (Lite mode) build 49521"
  2902                           
  2903  00BA                     l1401:	
  2904                           opt subtitle "HI-TECH Software Omniscient Code Generator (Lite mode) build 49521"
  2905                           
  2906  00BA  28BB               	nop2	;2 cycle nop
  2907                           opt subtitle "HI-TECH Software Omniscient Code Generator (Lite mode) build 49521"
  2908                           
  2909                           opt pagewidth 120
  2910                           
  2911  00BB                     l1403:	
  2912                           opt subtitle "HI-TECH Software Omniscient Code Generator (Lite mode) build 49521"
  2913  00BB  1283               	bcf	status, 5	;RP0=0, select bank0
  2914  00BC  1303               	bcf	status, 6	;RP1=0, select bank0
  2915  00BD  0808               	movf	(8),w	;volatile
  2916  00BE  00F0               	movwf	(??_LCDBusyLoop+0)+0
  2917  00BF  0870               	movf	(??_LCDBusyLoop+0)+0,w
  2918  00C0  00F4               	movwf	(LCDBusyLoop@status)
  2919                           opt subtitle "HI-TECH Software Omniscient Code Generator (Lite mode) build 49521"
  2920                           
  2921  00C1                     l1405:	
  2922                           opt subtitle "HI-TECH Software Omniscient Code Generator (Lite mode) build 49521"
  2923  00C1  0874               	movf	(LCDBusyLoop@status),w
  2924  00C2  00F0               	movwf	(??_LCDBusyLoop+0)+0
  2925  00C3  3003               	movlw	(04h)-1
  2926  00C4                     u1195:
  2927  00C4  1003               	clrc
  2928  00C5  0DF0               	rlf	(??_LCDBusyLoop+0)+0,f
  2929  00C6  3EFF               	addlw	-1
  2930  00C7  1D03               	skipz
  2931  00C8  28C4               	goto	u1195
  2932  00C9  1003               	clrc
  2933  00CA  0D70               	rlf	(??_LCDBusyLoop+0)+0,w
  2934  00CB  00F1               	movwf	(??_LCDBusyLoop+1)+0
  2935  00CC  0871               	movf	(??_LCDBusyLoop+1)+0,w
  2936  00CD  00F4               	movwf	(LCDBusyLoop@status)
  2937                           opt subtitle "HI-TECH Software Omniscient Code Generator (Lite mode) build 49521"
  2938                           
  2939  00CE                     l1407:	
  2940                           opt subtitle "HI-TECH Software Omniscient Code Generator (Lite mode) build 49521"
  2941                           
  2942  00CE  28CF               	nop2	;2 cycle nop
  2943                           opt subtitle "HI-TECH Software Omniscient Code Generator (Lite mode) build 49521"
  2944                           
  2945                           opt pagewidth 120
  2946                           
  2947  00CF                     l1409:	
  2948                           opt subtitle "HI-TECH Software Omniscient Code Generator (Lite mode) build 49521"
  2949  00CF  1283               	bcf	status, 5	;RP0=0, select bank0
  2950  00D0  1303               	bcf	status, 6	;RP1=0, select bank0
  2951  00D1  1208               	bcf	(68/8),(68)&7	;volatile
  2952                           opt subtitle "HI-TECH Software Omniscient Code Generator (Lite mode) build 49521"
  2953                           
  2954  00D2                     l1411:	
  2955                           opt subtitle "HI-TECH Software Omniscient Code Generator (Lite mode) build 49521"
  2956                           
  2957  00D2  28D3               	nop2	;2 cycle nop
  2958                           opt subtitle "HI-TECH Software Omniscient Code Generator (Lite mode) build 49521"
  2959                           
  2960  00D3  28D4               	nop2	;2 cycle nop
  2961                           opt subtitle "HI-TECH Software Omniscient Code Generator (Lite mode) build 49521"
  2962                           
  2963  00D4  0000               	nop
  2964                           opt subtitle "HI-TECH Software Omniscient Code Generator (Lite mode) build 49521"
  2965                           
  2966                           opt pagewidth 120
  2967                           
  2968  00D5                     l1413:	
  2969                           opt subtitle "HI-TECH Software Omniscient Code Generator (Lite mode) build 49521"
  2970  00D5  1283               	bcf	status, 5	;RP0=0, select bank0
  2971  00D6  1303               	bcf	status, 6	;RP1=0, select bank0
  2972  00D7  1608               	bsf	(68/8),(68)&7	;volatile
  2973                           opt subtitle "HI-TECH Software Omniscient Code Generator (Lite mode) build 49521"
  2974                           
  2975  00D8                     l1415:	
  2976                           opt subtitle "HI-TECH Software Omniscient Code Generator (Lite mode) build 49521"
  2977                           
  2978  00D8  28D9               	nop2	;2 cycle nop
  2979                           opt subtitle "HI-TECH Software Omniscient Code Generator (Lite mode) build 49521"
  2980                           
  2981                           opt pagewidth 120
  2982                           
  2983  00D9  1283               	bcf	status, 5	;RP0=0, select bank0
  2984  00DA  1303               	bcf	status, 6	;RP1=0, select bank0
  2985  00DB  0808               	movf	(8),w	;volatile
  2986  00DC  00F0               	movwf	(??_LCDBusyLoop+0)+0
  2987  00DD  0870               	movf	(??_LCDBusyLoop+0)+0,w
  2988  00DE  00F3               	movwf	(LCDBusyLoop@temp)
  2989                           opt subtitle "HI-TECH Software Omniscient Code Generator (Lite mode) build 49521"
  2990                           
  2991  00DF                     l1417:	
  2992                           opt subtitle "HI-TECH Software Omniscient Code Generator (Lite mode) build 49521"
  2993  00DF  300F               	movlw	(0Fh)
  2994  00E0  00F0               	movwf	(??_LCDBusyLoop+0)+0
  2995  00E1  0870               	movf	(??_LCDBusyLoop+0)+0,w
  2996  00E2  05F3               	andwf	(LCDBusyLoop@temp),f
  2997                           opt subtitle "HI-TECH Software Omniscient Code Generator (Lite mode) build 49521"
  2998                           
  2999  00E3                     l1419:	
  3000                           opt subtitle "HI-TECH Software Omniscient Code Generator (Lite mode) build 49521"
  3001  00E3  0874               	movf	(LCDBusyLoop@status),w
  3002  00E4  0473               	iorwf	(LCDBusyLoop@temp),w
  3003  00E5  00F0               	movwf	(??_LCDBusyLoop+0)+0
  3004  00E6  0870               	movf	(??_LCDBusyLoop+0)+0,w
  3005  00E7  00F4               	movwf	(LCDBusyLoop@status)
  3006                           opt subtitle "HI-TECH Software Omniscient Code Generator (Lite mode) build 49521"
  3007                           
  3008  00E8                     l1421:	
  3009                           opt subtitle "HI-TECH Software Omniscient Code Generator (Lite mode) build 49521"
  3010  00E8  0874               	movf	(LCDBusyLoop@status),w
  3011  00E9  3980               	andlw	080h
  3012  00EA  00F0               	movwf	(??_LCDBusyLoop+0)+0
  3013  00EB  0870               	movf	(??_LCDBusyLoop+0)+0,w
  3014  00EC  00F2               	movwf	(LCDBusyLoop@busy)
  3015                           opt subtitle "HI-TECH Software Omniscient Code Generator (Lite mode) build 49521"
  3016                           
  3017  00ED                     l1423:	
  3018                           opt subtitle "HI-TECH Software Omniscient Code Generator (Lite mode) build 49521"
  3019                           
  3020  00ED  28EE               	nop2	;2 cycle nop
  3021                           opt subtitle "HI-TECH Software Omniscient Code Generator (Lite mode) build 49521"
  3022                           
  3023                           opt pagewidth 120
  3024                           
  3025  00EE                     l1425:	
  3026                           opt subtitle "HI-TECH Software Omniscient Code Generator (Lite mode) build 49521"
  3027  00EE  1283               	bcf	status, 5	;RP0=0, select bank0
  3028  00EF  1303               	bcf	status, 6	;RP1=0, select bank0
  3029  00F0  1208               	bcf	(68/8),(68)&7	;volatile
  3030                           opt subtitle "HI-TECH Software Omniscient Code Generator (Lite mode) build 49521"
  3031                           
  3032  00F1                     l1427:	
  3033                           opt subtitle "HI-TECH Software Omniscient Code Generator (Lite mode) build 49521"
  3034                           
  3035  00F1  28F2               	nop2	;2 cycle nop
  3036                           opt subtitle "HI-TECH Software Omniscient Code Generator (Lite mode) build 49521"
  3037                           
  3038  00F2  28F3               	nop2	;2 cycle nop
  3039                           opt subtitle "HI-TECH Software Omniscient Code Generator (Lite mode) build 49521"
  3040                           
  3041  00F3  0000               	nop
  3042                           opt subtitle "HI-TECH Software Omniscient Code Generator (Lite mode) build 49521"
  3043                           
  3044                           opt pagewidth 120
  3045                           
  3046  00F4                     l1429:	
  3047                           opt subtitle "HI-TECH Software Omniscient Code Generator (Lite mode) build 49521"
  3048  00F4  08F2               	movf	(LCDBusyLoop@busy),f
  3049  00F5  1D03               	skipz
  3050  00F6  28F8               	goto	u1201
  3051  00F7  28F9               	goto	u1200
  3052  00F8                     u1201:
  3053  00F8  28B7               	goto	l1399
  3054  00F9                     u1200:
  3055                           opt subtitle "HI-TECH Software Omniscient Code Generator (Lite mode) build 49521"
  3056  00F9                     l29:	
  3057                           opt subtitle "HI-TECH Software Omniscient Code Generator (Lite mode) build 49521"
  3058                           
  3059  00F9  1283               	bcf	status, 5	;RP0=0, select bank0
  3060  00FA  1303               	bcf	status, 6	;RP1=0, select bank0
  3061  00FB  1106               	bcf	(50/8),(50)&7	;volatile
  3062                           opt subtitle "HI-TECH Software Omniscient Code Generator (Lite mode) build 49521"
  3063                           
  3064  00FC                     l1431:	
  3065                           opt subtitle "HI-TECH Software Omniscient Code Generator (Lite mode) build 49521"
  3066  00FC  30F0               	movlw	(0F0h)
  3067  00FD  00F0               	movwf	(??_LCDBusyLoop+0)+0
  3068  00FE  0870               	movf	(??_LCDBusyLoop+0)+0,w
  3069  00FF  1683               	bsf	status, 5	;RP0=1, select bank1
  3070  0100  1303               	bcf	status, 6	;RP1=0, select bank1
  3071  0101  0588               	andwf	(136)^080h,f	;volatile
  3072                           opt subtitle "HI-TECH Software Omniscient Code Generator (Lite mode) build 49521"
  3073                           
  3074  0102                     l30:	
  3075  0102  0008               	return
  3076                           opt subtitle "HI-TECH Software Omniscient Code Generator (Lite mode) build 49521"
  3077                           
  3078  0103                     	__end_of_LCDBusyLoop:
  3079                           opt subtitle "HI-TECH Software Omniscient Code Generator (Lite mode) build 49521"
  3080                           
  3081                           opt pagewidth 120
  3082                           
  3083                           	opt lm
  3084                           
  3085                           	processor	16F877A
  3086                           clrc	macro
  3087                           	bcf	3,0
  3088                           	endm
  3089                           clrz	macro
  3090                           	bcf	3,2
  3091                           	endm
  3092                           setc	macro
  3093                           	bsf	3,0
  3094                           	endm
  3095                           setz	macro
  3096                           	bsf	3,2
  3097                           	endm
  3098                           skipc	macro
  3099                           	btfss	3,0
  3100                           	endm
  3101                           skipz	macro
  3102                           	btfss	3,2
  3103                           	endm
  3104                           skipnc	macro
  3105                           	btfsc	3,0
  3106                           	endm
  3107                           skipnz	macro
  3108                           	btfsc	3,2
  3109                           	endm
  3110                           indf	equ	0
  3111                           indf0	equ	0
  3112  0056                     __ptext355:	;psect for function _HCSR04Init
  3113                           opt subtitle "HI-TECH Software Omniscient Code Generator (Lite mode) build 49521"
  3114                           
  3115                           opt pagewidth 120
  3116                           
  3117  0007                     	__size_of_HCSR04Init	equ	__end_of_HCSR04Init-_HCSR04Init
  3118                           opt subtitle "HI-TECH Software Omniscient Code Generator (Lite mode) build 49521"
  3119  0056                     _HCSR04Init:	
  3120                           opt subtitle "HI-TECH Software Omniscient Code Generator (Lite mode) build 49521"
  3121                           
  3122                           opt pagewidth 120
  3123                           
  3124  0056                     l1279:	
  3125                           opt subtitle "HI-TECH Software Omniscient Code Generator (Lite mode) build 49521"
  3126  0056  30FE               	movlw	(0FEh)
  3127  0057  00F0               	movwf	(??_HCSR04Init+0)+0
  3128  0058  0870               	movf	(??_HCSR04Init+0)+0,w
  3129  0059  1683               	bsf	status, 5	;RP0=1, select bank1
  3130  005A  1303               	bcf	status, 6	;RP1=0, select bank1
  3131  005B  0585               	andwf	(133)^080h,f	;volatile
  3132                           opt subtitle "HI-TECH Software Omniscient Code Generator (Lite mode) build 49521"
  3133                           
  3134  005C                     l106:	
  3135  005C  0008               	return
  3136                           opt subtitle "HI-TECH Software Omniscient Code Generator (Lite mode) build 49521"
  3137                           
  3138  005D                     	__end_of_HCSR04Init:
  3139                           opt subtitle "HI-TECH Software Omniscient Code Generator (Lite mode) build 49521"
  3140                           
  3141                           opt pagewidth 120
  3142                           
  3143                           	opt lm
  3144                           
  3145                           	processor	16F877A
  3146                           clrc	macro
  3147                           	bcf	3,0
  3148                           	endm
  3149                           clrz	macro
  3150                           	bcf	3,2
  3151                           	endm
  3152                           setc	macro
  3153                           	bsf	3,0
  3154                           	endm
  3155                           setz	macro
  3156                           	bsf	3,2
  3157                           	endm
  3158                           skipc	macro
  3159                           	btfss	3,0
  3160                           	endm
  3161                           skipz	macro
  3162                           	btfss	3,2
  3163                           	endm
  3164                           skipnc	macro
  3165                           	btfsc	3,0
  3166                           	endm
  3167                           skipnz	macro
  3168                           	btfsc	3,2
  3169                           	endm
  3170                           indf	equ	0
  3171                           indf0	equ	0
  3172  0EF3                     __ptext356:	;psect for function _HCSR04Trigger
  3173                           opt subtitle "HI-TECH Software Omniscient Code Generator (Lite mode) build 49521"
  3174                           
  3175                           opt pagewidth 120
  3176                           
  3177  000F                     	__size_of_HCSR04Trigger	equ	__end_of_HCSR04Trigger-_HCSR04Trigger
  3178                           opt subtitle "HI-TECH Software Omniscient Code Generator (Lite mode) build 49521"
  3179  0EF3                     _HCSR04Trigger:	
  3180                           opt subtitle "HI-TECH Software Omniscient Code Generator (Lite mode) build 49521"
  3181                           
  3182                           opt pagewidth 120
  3183                           
  3184  0EF3                     l1433:	
  3185                           opt subtitle "HI-TECH Software Omniscient Code Generator (Lite mode) build 49521"
  3186  0EF3  1283               	bcf	status, 5	;RP0=0, select bank0
  3187  0EF4  1303               	bcf	status, 6	;RP1=0, select bank0
  3188  0EF5  1405               	bsf	(5)+(0/8),(0)&7	;volatile
  3189                           opt subtitle "HI-TECH Software Omniscient Code Generator (Lite mode) build 49521"
  3190                           
  3191  0EF6                     l1435:	
  3192                           opt subtitle "HI-TECH Software Omniscient Code Generator (Lite mode) build 49521"
  3193                           
  3194  0EF6  3018               movlw	24
  3195  0EF7  00F0               movwf	(??_HCSR04Trigger+0)+0,f
  3196  0EF8                     u1807:
  3197  0EF8  0BF0               decfsz	(??_HCSR04Trigger+0)+0,f
  3198  0EF9  2EF8               	goto	u1807
  3199  0EFA  2EFB               	nop2	;nop
  3200                           opt subtitle "HI-TECH Software Omniscient Code Generator (Lite mode) build 49521"
  3201                           
  3202                           opt pagewidth 120
  3203                           
  3204  0EFB                     l1437:	
  3205                           opt subtitle "HI-TECH Software Omniscient Code Generator (Lite mode) build 49521"
  3206  0EFB  30FE               	movlw	(0FEh)
  3207  0EFC  00F0               	movwf	(??_HCSR04Trigger+0)+0
  3208  0EFD  0870               	movf	(??_HCSR04Trigger+0)+0,w
  3209  0EFE  1283               	bcf	status, 5	;RP0=0, select bank0
  3210  0EFF  1303               	bcf	status, 6	;RP1=0, select bank0
  3211  0F00  0585               	andwf	(5),f	;volatile
  3212                           opt subtitle "HI-TECH Software Omniscient Code Generator (Lite mode) build 49521"
  3213                           
  3214  0F01                     l109:	
  3215  0F01  0008               	return
  3216                           opt subtitle "HI-TECH Software Omniscient Code Generator (Lite mode) build 49521"
  3217                           
  3218  0F02                     	__end_of_HCSR04Trigger:
  3219                           opt subtitle "HI-TECH Software Omniscient Code Generator (Lite mode) build 49521"
  3220                           
  3221                           opt pagewidth 120
  3222                           
  3223                           	opt lm
  3224                           
  3225                           	processor	16F877A
  3226                           clrc	macro
  3227                           	bcf	3,0
  3228                           	endm
  3229                           clrz	macro
  3230                           	bcf	3,2
  3231                           	endm
  3232                           setc	macro
  3233                           	bsf	3,0
  3234                           	endm
  3235                           setz	macro
  3236                           	bsf	3,2
  3237                           	endm
  3238                           skipc	macro
  3239                           	btfss	3,0
  3240                           	endm
  3241                           skipz	macro
  3242                           	btfss	3,2
  3243                           	endm
  3244                           skipnc	macro
  3245                           	btfsc	3,0
  3246                           	endm
  3247                           skipnz	macro
  3248                           	btfsc	3,2
  3249                           	endm
  3250                           indf	equ	0
  3251                           indf0	equ	0
  3252                           pc	equ	2
  3253                           pcl	equ	2
  3254                           status	equ	3
  3255                           fsr	equ	4
  3256  06DB                     __ptext357:	;psect for function _GetPulseWidth
  3257                           opt subtitle "HI-TECH Software Omniscient Code Generator (Lite mode) build 49521"
  3258                           
  3259                           opt pagewidth 120
  3260                           
  3261  0125                     	__size_of_GetPulseWidth	equ	__end_of_GetPulseWidth-_GetPulseWidth
  3262                           opt subtitle "HI-TECH Software Omniscient Code Generator (Lite mode) build 49521"
  3263  06DB                     _GetPulseWidth:	
  3264                           opt subtitle "HI-TECH Software Omniscient Code Generator (Lite mode) build 49521"
  3265                           
  3266                           opt pagewidth 120
  3267                           
  3268  06DB                     l1719:	
  3269                           opt subtitle "HI-TECH Software Omniscient Code Generator (Lite mode) build 49521"
  3270                           
  3271  06DB  3000               	movlw	0
  3272  06DC  1283               	bcf	status, 5	;RP0=0, select bank0
  3273  06DD  1303               	bcf	status, 6	;RP1=0, select bank0
  3274  06DE  00C7               	movwf	(GetPulseWidth@i+3)
  3275  06DF  3000               	movlw	0
  3276  06E0  00C6               	movwf	(GetPulseWidth@i+2)
  3277  06E1  3000               	movlw	0
  3278  06E2  00C5               	movwf	(GetPulseWidth@i+1)
  3279  06E3  3000               	movlw	0
  3280  06E4  00C4               	movwf	(GetPulseWidth@i)
  3281                           opt subtitle "HI-TECH Software Omniscient Code Generator (Lite mode) build 49521"
  3282  06E5  3000               	movlw	0
  3283  06E6  0247               	subwf	(GetPulseWidth@i+3),w
  3284  06E7  1D03               	skipz
  3285  06E8  2EF3               	goto	u1655
  3286  06E9  3009               	movlw	09h
  3287  06EA  0246               	subwf	(GetPulseWidth@i+2),w
  3288  06EB  1D03               	skipz
  3289  06EC  2EF3               	goto	u1655
  3290  06ED  3027               	movlw	027h
  3291  06EE  0245               	subwf	(GetPulseWidth@i+1),w
  3292  06EF  1D03               	skipz
  3293  06F0  2EF3               	goto	u1655
  3294  06F1  30C0               	movlw	0C0h
  3295  06F2  0244               	subwf	(GetPulseWidth@i),w
  3296  06F3                     u1655:
  3297  06F3  1C03               	skipc
  3298  06F4  2EF6               	goto	u1651
  3299  06F5  2EF7               	goto	u1650
  3300  06F6                     u1651:
  3301  06F6  2EF9               	goto	l112
  3302  06F7                     u1650:
  3303  06F7  2F23               	goto	l1729
  3304                           opt subtitle "HI-TECH Software Omniscient Code Generator (Lite mode) build 49521"
  3305  06F8                     l1721:	
  3306  06F8  2F23               	goto	l1729
  3307                           opt subtitle "HI-TECH Software Omniscient Code Generator (Lite mode) build 49521"
  3308                           
  3309  06F9                     l112:	
  3310                           opt subtitle "HI-TECH Software Omniscient Code Generator (Lite mode) build 49521"
  3311                           
  3312                           opt pagewidth 120
  3313  06F9  1885               	btfsc	(5),(1)&7	;volatile
  3314  06FA  2EFC               	goto	u1661
  3315  06FB  2EFD               	goto	u1660
  3316  06FC                     u1661:
  3317  06FC  2F23               	goto	l1729
  3318  06FD                     u1660:
  3319  06FD  2F02               	goto	l1727
  3320                           opt subtitle "HI-TECH Software Omniscient Code Generator (Lite mode) build 49521"
  3321                           
  3322  06FE                     l1723:	
  3323                           opt subtitle "HI-TECH Software Omniscient Code Generator (Lite mode) build 49521"
  3324  06FE  2F02               	goto	l1727
  3325                           opt subtitle "HI-TECH Software Omniscient Code Generator (Lite mode) build 49521"
  3326  06FF                     l1725:	
  3327  06FF  2F02               	goto	l1727
  3328                           opt subtitle "HI-TECH Software Omniscient Code Generator (Lite mode) build 49521"
  3329                           
  3330  0700                     l114:	
  3331                           opt subtitle "HI-TECH Software Omniscient Code Generator (Lite mode) build 49521"
  3332                           
  3333                           opt pagewidth 120
  3334  0700  2F23               	goto	l1729
  3335                           opt subtitle "HI-TECH Software Omniscient Code Generator (Lite mode) build 49521"
  3336  0701                     l116:	
  3337  0701  2F02               	goto	l1727
  3338                           opt subtitle "HI-TECH Software Omniscient Code Generator (Lite mode) build 49521"
  3339                           
  3340  0702                     l115:	
  3341                           opt subtitle "HI-TECH Software Omniscient Code Generator (Lite mode) build 49521"
  3342  0702                     l1727:	
  3343  0702  3001               	movlw	01h
  3344  0703  07C4               	addwf	(GetPulseWidth@i),f
  3345  0704  3000               	movlw	0
  3346  0705  1803               	skipnc
  3347  0706  3001               movlw 1
  3348  0707  07C5               	addwf	(GetPulseWidth@i+1),f
  3349  0708  3000               	movlw	0
  3350  0709  1803               	skipnc
  3351  070A  3001               movlw 1
  3352  070B  07C6               	addwf	(GetPulseWidth@i+2),f
  3353  070C  3000               	movlw	0
  3354  070D  1803               	skipnc
  3355  070E  3001               movlw 1
  3356  070F  07C7               	addwf	(GetPulseWidth@i+3),f
  3357  0710  3000               	movlw	0
  3358  0711  0247               	subwf	(GetPulseWidth@i+3),w
  3359  0712  1D03               	skipz
  3360  0713  2F1E               	goto	u1675
  3361  0714  3009               	movlw	09h
  3362  0715  0246               	subwf	(GetPulseWidth@i+2),w
  3363  0716  1D03               	skipz
  3364  0717  2F1E               	goto	u1675
  3365  0718  3027               	movlw	027h
  3366  0719  0245               	subwf	(GetPulseWidth@i+1),w
  3367  071A  1D03               	skipz
  3368  071B  2F1E               	goto	u1675
  3369  071C  30C0               	movlw	0C0h
  3370  071D  0244               	subwf	(GetPulseWidth@i),w
  3371  071E                     u1675:
  3372  071E  1C03               	skipc
  3373  071F  2F21               	goto	u1671
  3374  0720  2F22               	goto	u1670
  3375  0721                     u1671:
  3376  0721  2EF9               	goto	l112
  3377  0722                     u1670:
  3378  0722  2F23               	goto	l1729
  3379                           opt subtitle "HI-TECH Software Omniscient Code Generator (Lite mode) build 49521"
  3380  0723                     l113:	
  3381                           opt subtitle "HI-TECH Software Omniscient Code Generator (Lite mode) build 49521"
  3382                           
  3383  0723                     l1729:	
  3384                           opt subtitle "HI-TECH Software Omniscient Code Generator (Lite mode) build 49521"
  3385                           
  3386  0723  3000               	movlw	0
  3387  0724  0647               	xorwf	(GetPulseWidth@i+3),w
  3388  0725  1D03               	skipz
  3389  0726  2F31               	goto	u1685
  3390  0727  3009               	movlw	09h
  3391  0728  0646               	xorwf	(GetPulseWidth@i+2),w
  3392  0729  1D03               	skipz
  3393  072A  2F31               	goto	u1685
  3394  072B  3027               	movlw	027h
  3395  072C  0645               	xorwf	(GetPulseWidth@i+1),w
  3396  072D  1D03               	skipz
  3397  072E  2F31               	goto	u1685
  3398  072F  30C0               	movlw	0C0h
  3399  0730  0644               	xorwf	(GetPulseWidth@i),w
  3400  0731                     u1685:
  3401  0731  1D03               	skipz
  3402  0732  2F34               	goto	u1681
  3403  0733  2F35               	goto	u1680
  3404  0734                     u1681:
  3405  0734  2F3B               	goto	l117
  3406  0735                     u1680:
  3407                           opt subtitle "HI-TECH Software Omniscient Code Generator (Lite mode) build 49521"
  3408                           
  3409  0735                     l1731:	
  3410                           opt subtitle "HI-TECH Software Omniscient Code Generator (Lite mode) build 49521"
  3411  0735  30FF               	movlw	low(-1)
  3412  0736  00BE               	movwf	(?_GetPulseWidth)
  3413  0737  30FF               	movlw	high(-1)
  3414  0738  00BF               	movwf	((?_GetPulseWidth))+1
  3415  0739  2FFF               	goto	l118
  3416                           opt subtitle "HI-TECH Software Omniscient Code Generator (Lite mode) build 49521"
  3417  073A                     l1733:	
  3418  073A  2FFF               	goto	l118
  3419                           opt subtitle "HI-TECH Software Omniscient Code Generator (Lite mode) build 49521"
  3420  073B                     l117:	
  3421                           opt subtitle "HI-TECH Software Omniscient Code Generator (Lite mode) build 49521"
  3422                           
  3423  073B  1610               	bsf	(132/8),(132)&7	;volatile
  3424                           opt subtitle "HI-TECH Software Omniscient Code Generator (Lite mode) build 49521"
  3425                           
  3426  073C                     l1735:	
  3427                           opt subtitle "HI-TECH Software Omniscient Code Generator (Lite mode) build 49521"
  3428  073C  018E               	clrf	(14)	;volatile
  3429  073D  018F               	clrf	(14+1)	;volatile
  3430                           opt subtitle "HI-TECH Software Omniscient Code Generator (Lite mode) build 49521"
  3431                           
  3432  073E                     l1737:	
  3433                           opt subtitle "HI-TECH Software Omniscient Code Generator (Lite mode) build 49521"
  3434  073E  1410               	bsf	(128/8),(128)&7	;volatile
  3435                           opt subtitle "HI-TECH Software Omniscient Code Generator (Lite mode) build 49521"
  3436                           
  3437  073F                     l1739:	
  3438                           opt subtitle "HI-TECH Software Omniscient Code Generator (Lite mode) build 49521"
  3439  073F  3000               	movlw	0
  3440  0740  00C7               	movwf	(GetPulseWidth@i+3)
  3441  0741  3000               	movlw	0
  3442  0742  00C6               	movwf	(GetPulseWidth@i+2)
  3443  0743  3000               	movlw	0
  3444  0744  00C5               	movwf	(GetPulseWidth@i+1)
  3445  0745  3000               	movlw	0
  3446  0746  00C4               	movwf	(GetPulseWidth@i)
  3447                           opt subtitle "HI-TECH Software Omniscient Code Generator (Lite mode) build 49521"
  3448                           
  3449  0747                     l1741:	
  3450  0747  3000               	movlw	0
  3451  0748  0247               	subwf	(GetPulseWidth@i+3),w
  3452  0749  1D03               	skipz
  3453  074A  2F55               	goto	u1695
  3454  074B  3009               	movlw	09h
  3455  074C  0246               	subwf	(GetPulseWidth@i+2),w
  3456  074D  1D03               	skipz
  3457  074E  2F55               	goto	u1695
  3458  074F  3027               	movlw	027h
  3459  0750  0245               	subwf	(GetPulseWidth@i+1),w
  3460  0751  1D03               	skipz
  3461  0752  2F55               	goto	u1695
  3462  0753  30C0               	movlw	0C0h
  3463  0754  0244               	subwf	(GetPulseWidth@i),w
  3464  0755                     u1695:
  3465  0755  1C03               	skipc
  3466  0756  2F58               	goto	u1691
  3467  0757  2F59               	goto	u1690
  3468  0758                     u1691:
  3469  0758  2F5B               	goto	l119
  3470  0759                     u1690:
  3471  0759  2F90               	goto	l1753
  3472                           opt subtitle "HI-TECH Software Omniscient Code Generator (Lite mode) build 49521"
  3473  075A                     l1743:	
  3474  075A  2F90               	goto	l1753
  3475                           opt subtitle "HI-TECH Software Omniscient Code Generator (Lite mode) build 49521"
  3476                           
  3477  075B                     l119:	
  3478                           opt subtitle "HI-TECH Software Omniscient Code Generator (Lite mode) build 49521"
  3479                           
  3480                           opt pagewidth 120
  3481  075B  1C85               	btfss	(5),(1)&7	;volatile
  3482  075C  2F5E               	goto	u1701
  3483  075D  2F5F               	goto	u1700
  3484  075E                     u1701:
  3485  075E  2F90               	goto	l1753
  3486  075F                     u1700:
  3487                           opt subtitle "HI-TECH Software Omniscient Code Generator (Lite mode) build 49521"
  3488                           
  3489  075F                     l1745:	
  3490                           opt subtitle "HI-TECH Software Omniscient Code Generator (Lite mode) build 49521"
  3491                           
  3492  075F  30EA               	movlw	high(0EA61h)
  3493  0760  020F               	subwf	(14+1),w	;volatile
  3494  0761  3061               	movlw	low(0EA61h)
  3495  0762  1903               	skipnz
  3496  0763  020E               	subwf	(14),w	;volatile
  3497  0764  1C03               	skipc
  3498  0765  2F67               	goto	u1711
  3499  0766  2F68               	goto	u1710
  3500  0767                     u1711:
  3501  0767  2F6F               	goto	l1751
  3502  0768                     u1710:
  3503  0768  2F90               	goto	l1753
  3504                           opt subtitle "HI-TECH Software Omniscient Code Generator (Lite mode) build 49521"
  3505  0769                     l1747:	
  3506  0769  2F90               	goto	l1753
  3507                           opt subtitle "HI-TECH Software Omniscient Code Generator (Lite mode) build 49521"
  3508  076A                     l1749:	
  3509  076A  2F6F               	goto	l1751
  3510                           opt subtitle "HI-TECH Software Omniscient Code Generator (Lite mode) build 49521"
  3511  076B                     l122:	
  3512  076B  2F6F               	goto	l1751
  3513                           opt subtitle "HI-TECH Software Omniscient Code Generator (Lite mode) build 49521"
  3514  076C                     l123:	
  3515                           opt subtitle "HI-TECH Software Omniscient Code Generator (Lite mode) build 49521"
  3516                           
  3517  076C  2F6F               	goto	l1751
  3518                           opt subtitle "HI-TECH Software Omniscient Code Generator (Lite mode) build 49521"
  3519                           
  3520  076D                     l121:	
  3521                           opt subtitle "HI-TECH Software Omniscient Code Generator (Lite mode) build 49521"
  3522                           
  3523                           opt pagewidth 120
  3524  076D  2F90               	goto	l1753
  3525                           opt subtitle "HI-TECH Software Omniscient Code Generator (Lite mode) build 49521"
  3526  076E                     l125:	
  3527  076E  2F6F               	goto	l1751
  3528                           opt subtitle "HI-TECH Software Omniscient Code Generator (Lite mode) build 49521"
  3529                           
  3530  076F                     l124:	
  3531                           opt subtitle "HI-TECH Software Omniscient Code Generator (Lite mode) build 49521"
  3532  076F                     l1751:	
  3533  076F  3001               	movlw	01h
  3534  0770  07C4               	addwf	(GetPulseWidth@i),f
  3535  0771  3000               	movlw	0
  3536  0772  1803               	skipnc
  3537  0773  3001               movlw 1
  3538  0774  07C5               	addwf	(GetPulseWidth@i+1),f
  3539  0775  3000               	movlw	0
  3540  0776  1803               	skipnc
  3541  0777  3001               movlw 1
  3542  0778  07C6               	addwf	(GetPulseWidth@i+2),f
  3543  0779  3000               	movlw	0
  3544  077A  1803               	skipnc
  3545  077B  3001               movlw 1
  3546  077C  07C7               	addwf	(GetPulseWidth@i+3),f
  3547  077D  3000               	movlw	0
  3548  077E  0247               	subwf	(GetPulseWidth@i+3),w
  3549  077F  1D03               	skipz
  3550  0780  2F8B               	goto	u1725
  3551  0781  3009               	movlw	09h
  3552  0782  0246               	subwf	(GetPulseWidth@i+2),w
  3553  0783  1D03               	skipz
  3554  0784  2F8B               	goto	u1725
  3555  0785  3027               	movlw	027h
  3556  0786  0245               	subwf	(GetPulseWidth@i+1),w
  3557  0787  1D03               	skipz
  3558  0788  2F8B               	goto	u1725
  3559  0789  30C0               	movlw	0C0h
  3560  078A  0244               	subwf	(GetPulseWidth@i),w
  3561  078B                     u1725:
  3562  078B  1C03               	skipc
  3563  078C  2F8E               	goto	u1721
  3564  078D  2F8F               	goto	u1720
  3565  078E                     u1721:
  3566  078E  2F5B               	goto	l119
  3567  078F                     u1720:
  3568  078F  2F90               	goto	l1753
  3569                           opt subtitle "HI-TECH Software Omniscient Code Generator (Lite mode) build 49521"
  3570  0790                     l120:	
  3571                           opt subtitle "HI-TECH Software Omniscient Code Generator (Lite mode) build 49521"
  3572                           
  3573  0790                     l1753:	
  3574                           opt subtitle "HI-TECH Software Omniscient Code Generator (Lite mode) build 49521"
  3575                           
  3576  0790  3000               	movlw	0
  3577  0791  0647               	xorwf	(GetPulseWidth@i+3),w
  3578  0792  1D03               	skipz
  3579  0793  2F9E               	goto	u1735
  3580  0794  3009               	movlw	09h
  3581  0795  0646               	xorwf	(GetPulseWidth@i+2),w
  3582  0796  1D03               	skipz
  3583  0797  2F9E               	goto	u1735
  3584  0798  3027               	movlw	027h
  3585  0799  0645               	xorwf	(GetPulseWidth@i+1),w
  3586  079A  1D03               	skipz
  3587  079B  2F9E               	goto	u1735
  3588  079C  30C0               	movlw	0C0h
  3589  079D  0644               	xorwf	(GetPulseWidth@i),w
  3590  079E                     u1735:
  3591  079E  1D03               	skipz
  3592  079F  2FA1               	goto	u1731
  3593  07A0  2FA2               	goto	u1730
  3594  07A1                     u1731:
  3595  07A1  2FA8               	goto	l1759
  3596  07A2                     u1730:
  3597                           opt subtitle "HI-TECH Software Omniscient Code Generator (Lite mode) build 49521"
  3598                           
  3599  07A2                     l1755:	
  3600                           opt subtitle "HI-TECH Software Omniscient Code Generator (Lite mode) build 49521"
  3601  07A2  30FE               	movlw	low(-2)
  3602  07A3  00BE               	movwf	(?_GetPulseWidth)
  3603  07A4  30FF               	movlw	high(-2)
  3604  07A5  00BF               	movwf	((?_GetPulseWidth))+1
  3605  07A6  2FFF               	goto	l118
  3606                           opt subtitle "HI-TECH Software Omniscient Code Generator (Lite mode) build 49521"
  3607  07A7                     l1757:	
  3608  07A7  2FFF               	goto	l118
  3609                           opt subtitle "HI-TECH Software Omniscient Code Generator (Lite mode) build 49521"
  3610  07A8                     l126:	
  3611                           opt subtitle "HI-TECH Software Omniscient Code Generator (Lite mode) build 49521"
  3612                           
  3613  07A8                     l1759:	
  3614                           opt subtitle "HI-TECH Software Omniscient Code Generator (Lite mode) build 49521"
  3615  07A8  080E               	movf	(14),w	;volatile
  3616  07A9  00C0               	movwf	(GetPulseWidth@result)
  3617  07AA  080F               	movf	(14+1),w	;volatile
  3618  07AB  00C1               	movwf	((GetPulseWidth@result))+1
  3619  07AC  01C2               	clrf	2+((GetPulseWidth@result))
  3620  07AD  01C3               	clrf	3+((GetPulseWidth@result))
  3621                           opt subtitle "HI-TECH Software Omniscient Code Generator (Lite mode) build 49521"
  3622                           
  3623  07AE                     l1761:	
  3624                           opt subtitle "HI-TECH Software Omniscient Code Generator (Lite mode) build 49521"
  3625  07AE  1010               	bcf	(128/8),(128)&7	;volatile
  3626                           opt subtitle "HI-TECH Software Omniscient Code Generator (Lite mode) build 49521"
  3627                           
  3628  07AF  3000               	movlw	0
  3629  07B0  0243               	subwf	(GetPulseWidth@result+3),w
  3630  07B1  1D03               	skipz
  3631  07B2  2FBD               	goto	u1745
  3632  07B3  3000               	movlw	0
  3633  07B4  0242               	subwf	(GetPulseWidth@result+2),w
  3634  07B5  1D03               	skipz
  3635  07B6  2FBD               	goto	u1745
  3636  07B7  30EA               	movlw	0EAh
  3637  07B8  0241               	subwf	(GetPulseWidth@result+1),w
  3638  07B9  1D03               	skipz
  3639  07BA  2FBD               	goto	u1745
  3640  07BB  3061               	movlw	061h
  3641  07BC  0240               	subwf	(GetPulseWidth@result),w
  3642  07BD                     u1745:
  3643  07BD  1C03               	skipc
  3644  07BE  2FC0               	goto	u1741
  3645  07BF  2FC1               	goto	u1740
  3646  07C0                     u1741:
  3647  07C0  2FC8               	goto	l1769
  3648  07C1                     u1740:
  3649                           opt subtitle "HI-TECH Software Omniscient Code Generator (Lite mode) build 49521"
  3650                           
  3651  07C1                     l1763:	
  3652                           opt subtitle "HI-TECH Software Omniscient Code Generator (Lite mode) build 49521"
  3653  07C1  30FE               	movlw	low(-2)
  3654  07C2  00BE               	movwf	(?_GetPulseWidth)
  3655  07C3  30FF               	movlw	high(-2)
  3656  07C4  00BF               	movwf	((?_GetPulseWidth))+1
  3657  07C5  2FFF               	goto	l118
  3658                           opt subtitle "HI-TECH Software Omniscient Code Generator (Lite mode) build 49521"
  3659  07C6                     l1765:	
  3660  07C6  2FFF               	goto	l118
  3661                           opt subtitle "HI-TECH Software Omniscient Code Generator (Lite mode) build 49521"
  3662  07C7                     l1767:	
  3663  07C7  2FFF               	goto	l118
  3664                           opt subtitle "HI-TECH Software Omniscient Code Generator (Lite mode) build 49521"
  3665                           
  3666  07C8                     l127:	
  3667                           opt subtitle "HI-TECH Software Omniscient Code Generator (Lite mode) build 49521"
  3668                           
  3669  07C8                     l1769:	
  3670                           opt subtitle "HI-TECH Software Omniscient Code Generator (Lite mode) build 49521"
  3671                           
  3672  07C8  0843               	movf	(GetPulseWidth@result+3),w
  3673  07C9  00AD               	movwf	(?___lltoft+3)
  3674  07CA  0842               	movf	(GetPulseWidth@result+2),w
  3675  07CB  00AC               	movwf	(?___lltoft+2)
  3676  07CC  0841               	movf	(GetPulseWidth@result+1),w
  3677  07CD  00AB               	movwf	(?___lltoft+1)
  3678  07CE  0840               	movf	(GetPulseWidth@result),w
  3679  07CF  00AA               	movwf	(?___lltoft)
  3680                           opt subtitle "HI-TECH Software Omniscient Code Generator (Lite mode) build 49521"
  3681  07D0  120A  158A  2788   	fcall	___lltoft
              120A  118A         
  3682  07D5  1283               	bcf	status, 5	;RP0=0, select bank0
  3683  07D6  1303               	bcf	status, 6	;RP1=0, select bank0
  3684  07D7  082A               	movf	(0+(?___lltoft)),w
  3685  07D8  00B1               	movwf	0+(?___ftmul)+03h
  3686  07D9  082B               	movf	(1+(?___lltoft)),w
  3687  07DA  00B2               	movwf	1+(?___ftmul)+03h
  3688  07DB  082C               	movf	(2+(?___lltoft)),w
  3689  07DC  00B3               	movwf	2+(?___ftmul)+03h
  3690  07DD  30CD               	movlw	0xcd
  3691  07DE  00AE               	movwf	(?___ftmul)
  3692  07DF  30CC               	movlw	0xcc
  3693  07E0  00AF               	movwf	(?___ftmul+1)
  3694  07E1  303E               	movlw	0x3e
  3695  07E2  00B0               	movwf	(?___ftmul+2)
  3696  07E3  120A  118A  23DA   	fcall	___ftmul
              120A  118A         
  3697  07E8  1283               	bcf	status, 5	;RP0=0, select bank0
  3698  07E9  1303               	bcf	status, 6	;RP1=0, select bank0
  3699  07EA  082E               	movf	(0+(?___ftmul)),w
  3700  07EB  00F8               	movwf	(?___fttol)
  3701  07EC  082F               	movf	(1+(?___ftmul)),w
  3702  07ED  00F9               	movwf	(?___fttol+1)
  3703  07EE  0830               	movf	(2+(?___ftmul)),w
  3704  07EF  00FA               	movwf	(?___fttol+2)
  3705  07F0  120A  118A  2334   	fcall	___fttol
              120A  118A         
  3706  07F5  0879               	movf	1+(((0+(?___fttol)))),w
  3707  07F6  1283               	bcf	status, 5	;RP0=0, select bank0
  3708  07F7  1303               	bcf	status, 6	;RP1=0, select bank0
  3709  07F8  01BF               	clrf	(?_GetPulseWidth+1)
  3710  07F9  07BF               	addwf	(?_GetPulseWidth+1)
  3711  07FA  0878               	movf	0+(((0+(?___fttol)))),w
  3712  07FB  01BE               	clrf	(?_GetPulseWidth)
  3713  07FC  07BE               	addwf	(?_GetPulseWidth)
  3714                           opt subtitle "HI-TECH Software Omniscient Code Generator (Lite mode) build 49521"
  3715  07FD  2FFF               	goto	l118
  3716                           opt subtitle "HI-TECH Software Omniscient Code Generator (Lite mode) build 49521"
  3717  07FE                     l1771:	
  3718  07FE  2FFF               	goto	l118
  3719                           opt subtitle "HI-TECH Software Omniscient Code Generator (Lite mode) build 49521"
  3720  07FF                     l128:	
  3721                           opt subtitle "HI-TECH Software Omniscient Code Generator (Lite mode) build 49521"
  3722                           
  3723  07FF                     l118:	
  3724  07FF  0008               	return
  3725                           opt subtitle "HI-TECH Software Omniscient Code Generator (Lite mode) build 49521"
  3726                           
  3727  0800                     	__end_of_GetPulseWidth:
  3728                           opt subtitle "HI-TECH Software Omniscient Code Generator (Lite mode) build 49521"
  3729                           
  3730                           opt pagewidth 120
  3731                           
  3732                           	opt lm
  3733                           
  3734                           	processor	16F877A
  3735                           clrc	macro
  3736                           	bcf	3,0
  3737                           	endm
  3738                           clrz	macro
  3739                           	bcf	3,2
  3740                           	endm
  3741                           setc	macro
  3742                           	bsf	3,0
  3743                           	endm
  3744                           setz	macro
  3745                           	bsf	3,2
  3746                           	endm
  3747                           skipc	macro
  3748                           	btfss	3,0
  3749                           	endm
  3750                           skipz	macro
  3751                           	btfss	3,2
  3752                           	endm
  3753                           skipnc	macro
  3754                           	btfsc	3,0
  3755                           	endm
  3756                           skipnz	macro
  3757                           	btfsc	3,2
  3758                           	endm
  3759                           indf	equ	0
  3760                           indf0	equ	0
  3761                           pc	equ	2
  3762                           pcl	equ	2
  3763                           status	equ	3
  3764                           fsr	equ	4
  3765                           fsr0	equ	4
  3766                           c	equ	1
  3767  03DA                     __ptext358:	;psect for function ___ftmul
  3768                           opt subtitle "HI-TECH Software Omniscient Code Generator (Lite mode) build 49521"
  3769                           
  3770                           opt pagewidth 120
  3771                           
  3772  00EE                     	__size_of___ftmul	equ	__end_of___ftmul-___ftmul
  3773                           opt subtitle "HI-TECH Software Omniscient Code Generator (Lite mode) build 49521"
  3774  03DA                     ___ftmul:	
  3775                           opt subtitle "HI-TECH Software Omniscient Code Generator (Lite mode) build 49521"
  3776                           
  3777                           opt pagewidth 120
  3778                           
  3779  03DA                     l1533:	
  3780  03DA  1283               	bcf	status, 5	;RP0=0, select bank0
  3781  03DB  1303               	bcf	status, 6	;RP1=0, select bank0
  3782  03DC  082E               	movf	(___ftmul@f1),w
  3783  03DD  00B4               	movwf	((??___ftmul+0)+0)
  3784  03DE  082F               	movf	(___ftmul@f1+1),w
  3785  03DF  00B5               	movwf	((??___ftmul+0)+0+1)
  3786  03E0  0830               	movf	(___ftmul@f1+2),w
  3787  03E1  00B6               	movwf	((??___ftmul+0)+0+2)
  3788  03E2  1003               	clrc
  3789  03E3  0D35               	rlf	(??___ftmul+0)+1,w
  3790  03E4  0D36               	rlf	(??___ftmul+0)+2,w
  3791  03E5  00B7               	movwf	(??___ftmul+3)+0
  3792  03E6  0837               	movf	(??___ftmul+3)+0,w
  3793  03E7  00B8               	movwf	(___ftmul@exp)
  3794  03E8  08B8               	movf	((___ftmul@exp)),f
  3795  03E9  1D03               	skipz
  3796  03EA  2BEC               	goto	u1361
  3797  03EB  2BED               	goto	u1360
  3798  03EC                     u1361:
  3799  03EC  2BF5               	goto	l1539
  3800  03ED                     u1360:
  3801                           opt subtitle "HI-TECH Software Omniscient Code Generator (Lite mode) build 49521"
  3802                           
  3803  03ED                     l1535:	
  3804  03ED  3000               	movlw	0x0
  3805  03EE  00AE               	movwf	(?___ftmul)
  3806  03EF  3000               	movlw	0x0
  3807  03F0  00AF               	movwf	(?___ftmul+1)
  3808  03F1  3000               	movlw	0x0
  3809  03F2  00B0               	movwf	(?___ftmul+2)
  3810  03F3  2CC7               	goto	l326
  3811                           opt subtitle "HI-TECH Software Omniscient Code Generator (Lite mode) build 49521"
  3812  03F4                     l1537:	
  3813  03F4  2CC7               	goto	l326
  3814                           opt subtitle "HI-TECH Software Omniscient Code Generator (Lite mode) build 49521"
  3815  03F5                     l325:	
  3816                           opt subtitle "HI-TECH Software Omniscient Code Generator (Lite mode) build 49521"
  3817                           
  3818  03F5                     l1539:	
  3819  03F5  0831               	movf	(___ftmul@f2),w
  3820  03F6  00B4               	movwf	((??___ftmul+0)+0)
  3821  03F7  0832               	movf	(___ftmul@f2+1),w
  3822  03F8  00B5               	movwf	((??___ftmul+0)+0+1)
  3823  03F9  0833               	movf	(___ftmul@f2+2),w
  3824  03FA  00B6               	movwf	((??___ftmul+0)+0+2)
  3825  03FB  1003               	clrc
  3826  03FC  0D35               	rlf	(??___ftmul+0)+1,w
  3827  03FD  0D36               	rlf	(??___ftmul+0)+2,w
  3828  03FE  00B7               	movwf	(??___ftmul+3)+0
  3829  03FF  0837               	movf	(??___ftmul+3)+0,w
  3830  0400  00BD               	movwf	(___ftmul@sign)
  3831  0401  08BD               	movf	((___ftmul@sign)),f
  3832  0402  1D03               	skipz
  3833  0403  2C05               	goto	u1371
  3834  0404  2C06               	goto	u1370
  3835  0405                     u1371:
  3836  0405  2C0E               	goto	l1545
  3837  0406                     u1370:
  3838                           opt subtitle "HI-TECH Software Omniscient Code Generator (Lite mode) build 49521"
  3839                           
  3840  0406                     l1541:	
  3841  0406  3000               	movlw	0x0
  3842  0407  00AE               	movwf	(?___ftmul)
  3843  0408  3000               	movlw	0x0
  3844  0409  00AF               	movwf	(?___ftmul+1)
  3845  040A  3000               	movlw	0x0
  3846  040B  00B0               	movwf	(?___ftmul+2)
  3847  040C  2CC7               	goto	l326
  3848                           opt subtitle "HI-TECH Software Omniscient Code Generator (Lite mode) build 49521"
  3849  040D                     l1543:	
  3850  040D  2CC7               	goto	l326
  3851                           opt subtitle "HI-TECH Software Omniscient Code Generator (Lite mode) build 49521"
  3852  040E                     l327:	
  3853                           opt subtitle "HI-TECH Software Omniscient Code Generator (Lite mode) build 49521"
  3854                           
  3855  040E                     l1545:	
  3856  040E  083D               	movf	(___ftmul@sign),w
  3857  040F  3E7B               	addlw	07Bh
  3858  0410  00B4               	movwf	(??___ftmul+0)+0
  3859  0411  0834               	movf	(??___ftmul+0)+0,w
  3860  0412  07B8               	addwf	(___ftmul@exp),f
  3861                           opt subtitle "HI-TECH Software Omniscient Code Generator (Lite mode) build 49521"
  3862  0413  082E               	movf	(___ftmul@f1),w
  3863  0414  00B4               	movwf	((??___ftmul+0)+0)
  3864  0415  082F               	movf	(___ftmul@f1+1),w
  3865  0416  00B5               	movwf	((??___ftmul+0)+0+1)
  3866  0417  0830               	movf	(___ftmul@f1+2),w
  3867  0418  00B6               	movwf	((??___ftmul+0)+0+2)
  3868  0419  3010               	movlw	010h
  3869  041A                     u1385:
  3870  041A  1003               	clrc
  3871  041B  0CB6               	rrf	(??___ftmul+0)+2,f
  3872  041C  0CB5               	rrf	(??___ftmul+0)+1,f
  3873  041D  0CB4               	rrf	(??___ftmul+0)+0,f
  3874  041E                     u1380:
  3875  041E  3EFF               	addlw	-1
  3876  041F  1D03               	skipz
  3877  0420  2C1A               	goto	u1385
  3878  0421  0834               	movf	0+(??___ftmul+0)+0,w
  3879  0422  00B7               	movwf	(??___ftmul+3)+0
  3880  0423  0837               	movf	(??___ftmul+3)+0,w
  3881  0424  00BD               	movwf	(___ftmul@sign)
  3882                           opt subtitle "HI-TECH Software Omniscient Code Generator (Lite mode) build 49521"
  3883  0425  0831               	movf	(___ftmul@f2),w
  3884  0426  00B4               	movwf	((??___ftmul+0)+0)
  3885  0427  0832               	movf	(___ftmul@f2+1),w
  3886  0428  00B5               	movwf	((??___ftmul+0)+0+1)
  3887  0429  0833               	movf	(___ftmul@f2+2),w
  3888  042A  00B6               	movwf	((??___ftmul+0)+0+2)
  3889  042B  3010               	movlw	010h
  3890  042C                     u1395:
  3891  042C  1003               	clrc
  3892  042D  0CB6               	rrf	(??___ftmul+0)+2,f
  3893  042E  0CB5               	rrf	(??___ftmul+0)+1,f
  3894  042F  0CB4               	rrf	(??___ftmul+0)+0,f
  3895  0430                     u1390:
  3896  0430  3EFF               	addlw	-1
  3897  0431  1D03               	skipz
  3898  0432  2C2C               	goto	u1395
  3899  0433  0834               	movf	0+(??___ftmul+0)+0,w
  3900  0434  00B7               	movwf	(??___ftmul+3)+0
  3901  0435  0837               	movf	(??___ftmul+3)+0,w
  3902  0436  06BD               	xorwf	(___ftmul@sign),f
  3903                           opt subtitle "HI-TECH Software Omniscient Code Generator (Lite mode) build 49521"
  3904  0437  3080               	movlw	(080h)
  3905  0438  00B4               	movwf	(??___ftmul+0)+0
  3906  0439  0834               	movf	(??___ftmul+0)+0,w
  3907  043A  05BD               	andwf	(___ftmul@sign),f
  3908                           opt subtitle "HI-TECH Software Omniscient Code Generator (Lite mode) build 49521"
  3909                           
  3910  043B                     l1547:	
  3911  043B  17AF               	bsf	(___ftmul@f1)+(15/8),(15)&7
  3912                           opt subtitle "HI-TECH Software Omniscient Code Generator (Lite mode) build 49521"
  3913                           
  3914  043C                     l1549:	
  3915  043C  17B2               	bsf	(___ftmul@f2)+(15/8),(15)&7
  3916                           opt subtitle "HI-TECH Software Omniscient Code Generator (Lite mode) build 49521"
  3917                           
  3918  043D                     l1551:	
  3919  043D  30FF               	movlw	0FFh
  3920  043E  05B1               	andwf	(___ftmul@f2),f
  3921  043F  30FF               	movlw	0FFh
  3922  0440  05B2               	andwf	(___ftmul@f2+1),f
  3923  0441  3000               	movlw	0
  3924  0442  05B3               	andwf	(___ftmul@f2+2),f
  3925                           opt subtitle "HI-TECH Software Omniscient Code Generator (Lite mode) build 49521"
  3926                           
  3927  0443                     l1553:	
  3928  0443  3000               	movlw	0
  3929  0444  00B9               	movwf	(___ftmul@f3_as_product)
  3930  0445  3000               	movlw	0
  3931  0446  00BA               	movwf	(___ftmul@f3_as_product+1)
  3932  0447  3000               	movlw	0
  3933  0448  00BB               	movwf	(___ftmul@f3_as_product+2)
  3934                           opt subtitle "HI-TECH Software Omniscient Code Generator (Lite mode) build 49521"
  3935                           
  3936  0449                     l1555:	
  3937  0449  3007               	movlw	(07h)
  3938  044A  00B4               	movwf	(??___ftmul+0)+0
  3939  044B  0834               	movf	(??___ftmul+0)+0,w
  3940  044C  00BC               	movwf	(___ftmul@cntr)
  3941  044D  2C4E               	goto	l1557
  3942                           opt subtitle "HI-TECH Software Omniscient Code Generator (Lite mode) build 49521"
  3943                           
  3944  044E                     l328:	
  3945                           opt subtitle "HI-TECH Software Omniscient Code Generator (Lite mode) build 49521"
  3946                           
  3947  044E                     l1557:	
  3948  044E  1C2E               	btfss	(___ftmul@f1),(0)&7
  3949  044F  2C51               	goto	u1401
  3950  0450  2C52               	goto	u1400
  3951  0451                     u1401:
  3952  0451  2C63               	goto	l1561
  3953  0452                     u1400:
  3954                           opt subtitle "HI-TECH Software Omniscient Code Generator (Lite mode) build 49521"
  3955                           
  3956  0452                     l1559:	
  3957  0452  0831               	movf	(___ftmul@f2),w
  3958  0453  07B9               	addwf	(___ftmul@f3_as_product),f
  3959  0454  0832               	movf	(___ftmul@f2+1),w
  3960  0455  1103               	clrz
  3961  0456  1803               	skipnc
  3962  0457  0A32               	incf	(___ftmul@f2+1),w
  3963  0458  1903               	skipnz
  3964  0459  2C5B               	goto	u1411
  3965  045A  07BA               	addwf	(___ftmul@f3_as_product+1),f
  3966  045B                     u1411:
  3967  045B  0833               	movf	(___ftmul@f2+2),w
  3968  045C  1103               	clrz
  3969  045D  1803               	skipnc
  3970  045E  0A33               	incf	(___ftmul@f2+2),w
  3971  045F  1903               	skipnz
  3972  0460  2C62               	goto	u1412
  3973  0461  07BB               	addwf	(___ftmul@f3_as_product+2),f
  3974  0462                     u1412:
  3975                           opt subtitle "HI-TECH Software Omniscient Code Generator (Lite mode) build 49521"
  3976  0462  2C63               	goto	l1561
  3977                           opt subtitle "HI-TECH Software Omniscient Code Generator (Lite mode) build 49521"
  3978  0463                     l329:	
  3979                           opt subtitle "HI-TECH Software Omniscient Code Generator (Lite mode) build 49521"
  3980                           
  3981  0463                     l1561:	
  3982  0463  3001               	movlw	01h
  3983  0464                     u1425:
  3984  0464  1003               	clrc
  3985  0465  0CB0               	rrf	(___ftmul@f1+2),f
  3986  0466  0CAF               	rrf	(___ftmul@f1+1),f
  3987  0467  0CAE               	rrf	(___ftmul@f1),f
  3988  0468  3EFF               	addlw	-1
  3989  0469  1D03               	skipz
  3990  046A  2C64               	goto	u1425
  3991                           opt subtitle "HI-TECH Software Omniscient Code Generator (Lite mode) build 49521"
  3992                           
  3993                           opt pagewidth 120
  3994  046B                     l1563:	
  3995  046B  3001               	movlw	01h
  3996  046C                     u1435:
  3997  046C  1003               	clrc
  3998  046D  0DB1               	rlf	(___ftmul@f2),f
  3999  046E  0DB2               	rlf	(___ftmul@f2+1),f
  4000  046F  0DB3               	rlf	(___ftmul@f2+2),f
  4001  0470  3EFF               	addlw	-1
  4002  0471  1D03               	skipz
  4003  0472  2C6C               	goto	u1435
  4004                           opt subtitle "HI-TECH Software Omniscient Code Generator (Lite mode) build 49521"
  4005                           
  4006  0473                     l1565:	
  4007  0473  3001               	movlw	low(01h)
  4008  0474  02BC               	subwf	(___ftmul@cntr),f
  4009  0475  1D03               	btfss	status,2
  4010  0476  2C78               	goto	u1441
  4011  0477  2C79               	goto	u1440
  4012  0478                     u1441:
  4013  0478  2C4E               	goto	l1557
  4014  0479                     u1440:
  4015  0479  2C7A               	goto	l1567
  4016                           opt subtitle "HI-TECH Software Omniscient Code Generator (Lite mode) build 49521"
  4017  047A                     l330:	
  4018                           opt subtitle "HI-TECH Software Omniscient Code Generator (Lite mode) build 49521"
  4019                           
  4020  047A                     l1567:	
  4021  047A  3009               	movlw	(09h)
  4022  047B  00B4               	movwf	(??___ftmul+0)+0
  4023  047C  0834               	movf	(??___ftmul+0)+0,w
  4024  047D  00BC               	movwf	(___ftmul@cntr)
  4025  047E  2C7F               	goto	l1569
  4026                           opt subtitle "HI-TECH Software Omniscient Code Generator (Lite mode) build 49521"
  4027                           
  4028  047F                     l331:	
  4029                           opt subtitle "HI-TECH Software Omniscient Code Generator (Lite mode) build 49521"
  4030                           
  4031  047F                     l1569:	
  4032  047F  1C2E               	btfss	(___ftmul@f1),(0)&7
  4033  0480  2C82               	goto	u1451
  4034  0481  2C83               	goto	u1450
  4035  0482                     u1451:
  4036  0482  2C94               	goto	l1573
  4037  0483                     u1450:
  4038                           opt subtitle "HI-TECH Software Omniscient Code Generator (Lite mode) build 49521"
  4039                           
  4040  0483                     l1571:	
  4041  0483  0831               	movf	(___ftmul@f2),w
  4042  0484  07B9               	addwf	(___ftmul@f3_as_product),f
  4043  0485  0832               	movf	(___ftmul@f2+1),w
  4044  0486  1103               	clrz
  4045  0487  1803               	skipnc
  4046  0488  0A32               	incf	(___ftmul@f2+1),w
  4047  0489  1903               	skipnz
  4048  048A  2C8C               	goto	u1461
  4049  048B  07BA               	addwf	(___ftmul@f3_as_product+1),f
  4050  048C                     u1461:
  4051  048C  0833               	movf	(___ftmul@f2+2),w
  4052  048D  1103               	clrz
  4053  048E  1803               	skipnc
  4054  048F  0A33               	incf	(___ftmul@f2+2),w
  4055  0490  1903               	skipnz
  4056  0491  2C93               	goto	u1462
  4057  0492  07BB               	addwf	(___ftmul@f3_as_product+2),f
  4058  0493                     u1462:
  4059                           opt subtitle "HI-TECH Software Omniscient Code Generator (Lite mode) build 49521"
  4060  0493  2C94               	goto	l1573
  4061                           opt subtitle "HI-TECH Software Omniscient Code Generator (Lite mode) build 49521"
  4062  0494                     l332:	
  4063                           opt subtitle "HI-TECH Software Omniscient Code Generator (Lite mode) build 49521"
  4064                           
  4065  0494                     l1573:	
  4066  0494  3001               	movlw	01h
  4067  0495                     u1475:
  4068  0495  1003               	clrc
  4069  0496  0CB0               	rrf	(___ftmul@f1+2),f
  4070  0497  0CAF               	rrf	(___ftmul@f1+1),f
  4071  0498  0CAE               	rrf	(___ftmul@f1),f
  4072  0499  3EFF               	addlw	-1
  4073  049A  1D03               	skipz
  4074  049B  2C95               	goto	u1475
  4075                           opt subtitle "HI-TECH Software Omniscient Code Generator (Lite mode) build 49521"
  4076                           
  4077                           opt pagewidth 120
  4078  049C                     l1575:	
  4079  049C  3001               	movlw	01h
  4080  049D                     u1485:
  4081  049D  1003               	clrc
  4082  049E  0CBB               	rrf	(___ftmul@f3_as_product+2),f
  4083  049F  0CBA               	rrf	(___ftmul@f3_as_product+1),f
  4084  04A0  0CB9               	rrf	(___ftmul@f3_as_product),f
  4085  04A1  3EFF               	addlw	-1
  4086  04A2  1D03               	skipz
  4087  04A3  2C9D               	goto	u1485
  4088                           opt subtitle "HI-TECH Software Omniscient Code Generator (Lite mode) build 49521"
  4089                           
  4090                           opt pagewidth 120
  4091  04A4                     l1577:	
  4092  04A4  3001               	movlw	low(01h)
  4093  04A5  02BC               	subwf	(___ftmul@cntr),f
  4094  04A6  1D03               	btfss	status,2
  4095  04A7  2CA9               	goto	u1491
  4096  04A8  2CAA               	goto	u1490
  4097  04A9                     u1491:
  4098  04A9  2C7F               	goto	l1569
  4099  04AA                     u1490:
  4100  04AA  2CAB               	goto	l1579
  4101                           opt subtitle "HI-TECH Software Omniscient Code Generator (Lite mode) build 49521"
  4102  04AB                     l333:	
  4103                           opt subtitle "HI-TECH Software Omniscient Code Generator (Lite mode) build 49521"
  4104                           
  4105  04AB                     l1579:	
  4106  04AB  0839               	movf	(___ftmul@f3_as_product),w
  4107  04AC  00F0               	movwf	(?___ftpack)
  4108  04AD  083A               	movf	(___ftmul@f3_as_product+1),w
  4109  04AE  00F1               	movwf	(?___ftpack+1)
  4110  04AF  083B               	movf	(___ftmul@f3_as_product+2),w
  4111  04B0  00F2               	movwf	(?___ftpack+2)
  4112  04B1  0838               	movf	(___ftmul@exp),w
  4113  04B2  00B4               	movwf	(??___ftmul+0)+0
  4114  04B3  0834               	movf	(??___ftmul+0)+0,w
  4115  04B4  00F3               	movwf	0+(?___ftpack)+03h
  4116  04B5  083D               	movf	(___ftmul@sign),w
  4117  04B6  00B5               	movwf	(??___ftmul+1)+0
  4118  04B7  0835               	movf	(??___ftmul+1)+0,w
  4119  04B8  00F4               	movwf	0+(?___ftpack)+04h
  4120  04B9  120A  118A  22B9   	fcall	___ftpack
              120A  118A         
  4121  04BE  0870               	movf	(0+(?___ftpack)),w
  4122  04BF  1283               	bcf	status, 5	;RP0=0, select bank0
  4123  04C0  1303               	bcf	status, 6	;RP1=0, select bank0
  4124  04C1  00AE               	movwf	(?___ftmul)
  4125  04C2  0871               	movf	(1+(?___ftpack)),w
  4126  04C3  00AF               	movwf	(?___ftmul+1)
  4127  04C4  0872               	movf	(2+(?___ftpack)),w
  4128  04C5  00B0               	movwf	(?___ftmul+2)
  4129  04C6  2CC7               	goto	l326
  4130                           opt subtitle "HI-TECH Software Omniscient Code Generator (Lite mode) build 49521"
  4131  04C7                     l1581:	
  4132                           opt subtitle "HI-TECH Software Omniscient Code Generator (Lite mode) build 49521"
  4133                           
  4134  04C7                     l326:	
  4135  04C7  0008               	return
  4136                           opt subtitle "HI-TECH Software Omniscient Code Generator (Lite mode) build 49521"
  4137                           
  4138  04C8                     	__end_of___ftmul:
  4139                           opt subtitle "HI-TECH Software Omniscient Code Generator (Lite mode) build 49521"
  4140                           
  4141                           opt pagewidth 120
  4142                           
  4143                           	opt lm
  4144                           
  4145                           	processor	16F877A
  4146                           clrc	macro
  4147                           	bcf	3,0
  4148                           	endm
  4149                           clrz	macro
  4150                           	bcf	3,2
  4151                           	endm
  4152                           setc	macro
  4153                           	bsf	3,0
  4154                           	endm
  4155                           setz	macro
  4156                           	bsf	3,2
  4157                           	endm
  4158                           skipc	macro
  4159                           	btfss	3,0
  4160                           	endm
  4161                           skipz	macro
  4162                           	btfss	3,2
  4163                           	endm
  4164                           skipnc	macro
  4165                           	btfsc	3,0
  4166                           	endm
  4167                           skipnz	macro
  4168                           	btfsc	3,2
  4169                           	endm
  4170                           indf	equ	0
  4171                           indf0	equ	0
  4172                           pc	equ	2
  4173                           pcl	equ	2
  4174                           status	equ	3
  4175  0334                     __ptext359:	;psect for function ___fttol
  4176                           opt subtitle "HI-TECH Software Omniscient Code Generator (Lite mode) build 49521"
  4177                           
  4178                           opt pagewidth 120
  4179                           
  4180  00A6                     	__size_of___fttol	equ	__end_of___fttol-___fttol
  4181                           opt subtitle "HI-TECH Software Omniscient Code Generator (Lite mode) build 49521"
  4182  0334                     ___fttol:	
  4183                           opt subtitle "HI-TECH Software Omniscient Code Generator (Lite mode) build 49521"
  4184                           
  4185                           opt pagewidth 120
  4186                           
  4187  0334                     l1439:	
  4188  0334  0878               	movf	(___fttol@f1),w
  4189  0335  1283               	bcf	status, 5	;RP0=0, select bank0
  4190  0336  1303               	bcf	status, 6	;RP1=0, select bank0
  4191  0337  00A0               	movwf	((??___fttol+0)+0)
  4192  0338  0879               	movf	(___fttol@f1+1),w
  4193  0339  00A1               	movwf	((??___fttol+0)+0+1)
  4194  033A  087A               	movf	(___fttol@f1+2),w
  4195  033B  00A2               	movwf	((??___fttol+0)+0+2)
  4196  033C  1003               	clrc
  4197  033D  0D21               	rlf	(??___fttol+0)+1,w
  4198  033E  0D22               	rlf	(??___fttol+0)+2,w
  4199  033F  00A3               	movwf	(??___fttol+3)+0
  4200  0340  0823               	movf	(??___fttol+3)+0,w
  4201  0341  00A9               	movwf	(___fttol@exp1)
  4202  0342  08A9               	movf	((___fttol@exp1)),f
  4203  0343  1D03               	skipz
  4204  0344  2B46               	goto	u1211
  4205  0345  2B47               	goto	u1210
  4206  0346                     u1211:
  4207  0346  2B51               	goto	l1445
  4208  0347                     u1210:
  4209                           opt subtitle "HI-TECH Software Omniscient Code Generator (Lite mode) build 49521"
  4210                           
  4211  0347                     l1441:	
  4212  0347  3000               	movlw	0
  4213  0348  00FB               	movwf	(?___fttol+3)
  4214  0349  3000               	movlw	0
  4215  034A  00FA               	movwf	(?___fttol+2)
  4216  034B  3000               	movlw	0
  4217  034C  00F9               	movwf	(?___fttol+1)
  4218  034D  3000               	movlw	0
  4219  034E  00F8               	movwf	(?___fttol)
  4220                           opt subtitle "HI-TECH Software Omniscient Code Generator (Lite mode) build 49521"
  4221  034F  2BD9               	goto	l337
  4222                           opt subtitle "HI-TECH Software Omniscient Code Generator (Lite mode) build 49521"
  4223  0350                     l1443:	
  4224  0350  2BD9               	goto	l337
  4225                           opt subtitle "HI-TECH Software Omniscient Code Generator (Lite mode) build 49521"
  4226  0351                     l336:	
  4227                           opt subtitle "HI-TECH Software Omniscient Code Generator (Lite mode) build 49521"
  4228                           
  4229  0351                     l1445:	
  4230  0351  0878               	movf	(___fttol@f1),w
  4231  0352  00A0               	movwf	((??___fttol+0)+0)
  4232  0353  0879               	movf	(___fttol@f1+1),w
  4233  0354  00A1               	movwf	((??___fttol+0)+0+1)
  4234  0355  087A               	movf	(___fttol@f1+2),w
  4235  0356  00A2               	movwf	((??___fttol+0)+0+2)
  4236  0357  3017               	movlw	017h
  4237  0358                     u1225:
  4238  0358  1003               	clrc
  4239  0359  0CA2               	rrf	(??___fttol+0)+2,f
  4240  035A  0CA1               	rrf	(??___fttol+0)+1,f
  4241  035B  0CA0               	rrf	(??___fttol+0)+0,f
  4242  035C                     u1220:
  4243  035C  3EFF               	addlw	-1
  4244  035D  1D03               	skipz
  4245  035E  2B58               	goto	u1225
  4246  035F  0820               	movf	0+(??___fttol+0)+0,w
  4247  0360  00A3               	movwf	(??___fttol+3)+0
  4248  0361  0823               	movf	(??___fttol+3)+0,w
  4249  0362  00A4               	movwf	(___fttol@sign1)
  4250                           opt subtitle "HI-TECH Software Omniscient Code Generator (Lite mode) build 49521"
  4251                           
  4252  0363                     l1447:	
  4253  0363  17F9               	bsf	(___fttol@f1)+(15/8),(15)&7
  4254                           opt subtitle "HI-TECH Software Omniscient Code Generator (Lite mode) build 49521"
  4255                           
  4256  0364                     l1449:	
  4257  0364  30FF               	movlw	0FFh
  4258  0365  05F8               	andwf	(___fttol@f1),f
  4259  0366  30FF               	movlw	0FFh
  4260  0367  05F9               	andwf	(___fttol@f1+1),f
  4261  0368  3000               	movlw	0
  4262  0369  05FA               	andwf	(___fttol@f1+2),f
  4263                           opt subtitle "HI-TECH Software Omniscient Code Generator (Lite mode) build 49521"
  4264                           
  4265  036A                     l1451:	
  4266  036A  0878               	movf	(___fttol@f1),w
  4267  036B  00A5               	movwf	(___fttol@lval)
  4268  036C  0879               	movf	(___fttol@f1+1),w
  4269  036D  00A6               	movwf	((___fttol@lval))+1
  4270  036E  087A               	movf	(___fttol@f1+2),w
  4271  036F  00A7               	movwf	((___fttol@lval))+2
  4272  0370  01A8               	clrf	((___fttol@lval))+3
  4273                           opt subtitle "HI-TECH Software Omniscient Code Generator (Lite mode) build 49521"
  4274                           
  4275  0371                     l1453:	
  4276  0371  308E               	movlw	low(08Eh)
  4277  0372  02A9               	subwf	(___fttol@exp1),f
  4278                           opt subtitle "HI-TECH Software Omniscient Code Generator (Lite mode) build 49521"
  4279                           
  4280  0373                     l1455:	
  4281  0373  1FA9               	btfss	(___fttol@exp1),7
  4282  0374  2B76               	goto	u1231
  4283  0375  2B77               	goto	u1230
  4284  0376                     u1231:
  4285  0376  2B9C               	goto	l1465
  4286  0377                     u1230:
  4287                           opt subtitle "HI-TECH Software Omniscient Code Generator (Lite mode) build 49521"
  4288                           
  4289  0377                     l1457:	
  4290  0377  0829               	movf	(___fttol@exp1),w
  4291  0378  3A80               	xorlw	80h
  4292  0379  3E8F               	addlw	-((-15)^80h)
  4293  037A  1803               	skipnc
  4294  037B  2B7D               	goto	u1241
  4295  037C  2B7E               	goto	u1240
  4296  037D                     u1241:
  4297  037D  2B89               	goto	l1463
  4298  037E                     u1240:
  4299                           opt subtitle "HI-TECH Software Omniscient Code Generator (Lite mode) build 49521"
  4300                           
  4301  037E                     l1459:	
  4302  037E  3000               	movlw	0
  4303  037F  00FB               	movwf	(?___fttol+3)
  4304  0380  3000               	movlw	0
  4305  0381  00FA               	movwf	(?___fttol+2)
  4306  0382  3000               	movlw	0
  4307  0383  00F9               	movwf	(?___fttol+1)
  4308  0384  3000               	movlw	0
  4309  0385  00F8               	movwf	(?___fttol)
  4310                           opt subtitle "HI-TECH Software Omniscient Code Generator (Lite mode) build 49521"
  4311  0386  2BD9               	goto	l337
  4312                           opt subtitle "HI-TECH Software Omniscient Code Generator (Lite mode) build 49521"
  4313  0387                     l1461:	
  4314  0387  2BD9               	goto	l337
  4315                           opt subtitle "HI-TECH Software Omniscient Code Generator (Lite mode) build 49521"
  4316  0388                     l339:	
  4317  0388  2B89               	goto	l1463
  4318                           opt subtitle "HI-TECH Software Omniscient Code Generator (Lite mode) build 49521"
  4319                           
  4320  0389                     l340:	
  4321                           opt subtitle "HI-TECH Software Omniscient Code Generator (Lite mode) build 49521"
  4322                           
  4323  0389                     l1463:	
  4324  0389  3001               	movlw	01h
  4325  038A                     u1255:
  4326  038A  1003               	clrc
  4327  038B  0CA8               	rrf	(___fttol@lval+3),f
  4328  038C  0CA7               	rrf	(___fttol@lval+2),f
  4329  038D  0CA6               	rrf	(___fttol@lval+1),f
  4330  038E  0CA5               	rrf	(___fttol@lval),f
  4331  038F  3EFF               	addlw	-1
  4332  0390  1D03               	skipz
  4333  0391  2B8A               	goto	u1255
  4334                           opt subtitle "HI-TECH Software Omniscient Code Generator (Lite mode) build 49521"
  4335                           
  4336  0392  3001               	movlw	(01h)
  4337  0393  00A0               	movwf	(??___fttol+0)+0
  4338  0394  0820               	movf	(??___fttol+0)+0,w
  4339  0395  07A9               	addwf	(___fttol@exp1),f
  4340  0396  1D03               	btfss	status,2
  4341  0397  2B99               	goto	u1261
  4342  0398  2B9A               	goto	u1260
  4343  0399                     u1261:
  4344  0399  2B89               	goto	l1463
  4345  039A                     u1260:
  4346  039A  2BC0               	goto	l1475
  4347                           opt subtitle "HI-TECH Software Omniscient Code Generator (Lite mode) build 49521"
  4348  039B                     l341:	
  4349                           opt subtitle "HI-TECH Software Omniscient Code Generator (Lite mode) build 49521"
  4350  039B  2BC0               	goto	l1475
  4351                           opt subtitle "HI-TECH Software Omniscient Code Generator (Lite mode) build 49521"
  4352  039C                     l338:	
  4353                           opt subtitle "HI-TECH Software Omniscient Code Generator (Lite mode) build 49521"
  4354                           
  4355  039C                     l1465:	
  4356  039C  3018               	movlw	(018h)
  4357  039D  0229               	subwf	(___fttol@exp1),w
  4358  039E  1C03               	skipc
  4359  039F  2BA1               	goto	u1271
  4360  03A0  2BA2               	goto	u1270
  4361  03A1                     u1271:
  4362  03A1  2BB9               	goto	l1473
  4363  03A2                     u1270:
  4364                           opt subtitle "HI-TECH Software Omniscient Code Generator (Lite mode) build 49521"
  4365                           
  4366  03A2                     l1467:	
  4367  03A2  3000               	movlw	0
  4368  03A3  00FB               	movwf	(?___fttol+3)
  4369  03A4  3000               	movlw	0
  4370  03A5  00FA               	movwf	(?___fttol+2)
  4371  03A6  3000               	movlw	0
  4372  03A7  00F9               	movwf	(?___fttol+1)
  4373  03A8  3000               	movlw	0
  4374  03A9  00F8               	movwf	(?___fttol)
  4375                           opt subtitle "HI-TECH Software Omniscient Code Generator (Lite mode) build 49521"
  4376  03AA  2BD9               	goto	l337
  4377                           opt subtitle "HI-TECH Software Omniscient Code Generator (Lite mode) build 49521"
  4378  03AB                     l1469:	
  4379  03AB  2BD9               	goto	l337
  4380                           opt subtitle "HI-TECH Software Omniscient Code Generator (Lite mode) build 49521"
  4381  03AC                     l343:	
  4382                           opt subtitle "HI-TECH Software Omniscient Code Generator (Lite mode) build 49521"
  4383  03AC  2BB9               	goto	l1473
  4384                           opt subtitle "HI-TECH Software Omniscient Code Generator (Lite mode) build 49521"
  4385  03AD                     l345:	
  4386                           opt subtitle "HI-TECH Software Omniscient Code Generator (Lite mode) build 49521"
  4387                           
  4388  03AD                     l1471:	
  4389  03AD  3001               	movlw	01h
  4390  03AE  00A0               	movwf	(??___fttol+0)+0
  4391  03AF                     u1285:
  4392  03AF  1003               	clrc
  4393  03B0  0DA5               	rlf	(___fttol@lval),f
  4394  03B1  0DA6               	rlf	(___fttol@lval+1),f
  4395  03B2  0DA7               	rlf	(___fttol@lval+2),f
  4396  03B3  0DA8               	rlf	(___fttol@lval+3),f
  4397  03B4  0BA0               	decfsz	(??___fttol+0)+0
  4398  03B5  2BAF               	goto	u1285
  4399                           opt subtitle "HI-TECH Software Omniscient Code Generator (Lite mode) build 49521"
  4400  03B6  3001               	movlw	low(01h)
  4401  03B7  02A9               	subwf	(___fttol@exp1),f
  4402  03B8  2BB9               	goto	l1473
  4403                           opt subtitle "HI-TECH Software Omniscient Code Generator (Lite mode) build 49521"
  4404                           
  4405  03B9                     l344:	
  4406                           opt subtitle "HI-TECH Software Omniscient Code Generator (Lite mode) build 49521"
  4407                           
  4408  03B9                     l1473:	
  4409  03B9  08A9               	movf	(___fttol@exp1),f
  4410  03BA  1D03               	skipz
  4411  03BB  2BBD               	goto	u1291
  4412  03BC  2BBE               	goto	u1290
  4413  03BD                     u1291:
  4414  03BD  2BAD               	goto	l1471
  4415  03BE                     u1290:
  4416  03BE  2BC0               	goto	l1475
  4417                           opt subtitle "HI-TECH Software Omniscient Code Generator (Lite mode) build 49521"
  4418  03BF                     l346:	
  4419  03BF  2BC0               	goto	l1475
  4420                           opt subtitle "HI-TECH Software Omniscient Code Generator (Lite mode) build 49521"
  4421                           
  4422  03C0                     l342:	
  4423                           opt subtitle "HI-TECH Software Omniscient Code Generator (Lite mode) build 49521"
  4424                           
  4425  03C0                     l1475:	
  4426  03C0  0824               	movf	(___fttol@sign1),w
  4427  03C1  1D03               	skipz
  4428  03C2  2BC4               	goto	u1300
  4429  03C3  2BD0               	goto	l1479
  4430  03C4                     u1300:
  4431                           opt subtitle "HI-TECH Software Omniscient Code Generator (Lite mode) build 49521"
  4432                           
  4433  03C4                     l1477:	
  4434  03C4  09A5               	comf	(___fttol@lval),f
  4435  03C5  09A6               	comf	(___fttol@lval+1),f
  4436  03C6  09A7               	comf	(___fttol@lval+2),f
  4437  03C7  09A8               	comf	(___fttol@lval+3),f
  4438  03C8  0AA5               	incf	(___fttol@lval),f
  4439  03C9  1903               	skipnz
  4440  03CA  0AA6               	incf	(___fttol@lval+1),f
  4441  03CB  1903               	skipnz
  4442  03CC  0AA7               	incf	(___fttol@lval+2),f
  4443  03CD  1903               	skipnz
  4444  03CE  0AA8               	incf	(___fttol@lval+3),f
  4445  03CF  2BD0               	goto	l1479
  4446                           opt subtitle "HI-TECH Software Omniscient Code Generator (Lite mode) build 49521"
  4447  03D0                     l347:	
  4448                           opt subtitle "HI-TECH Software Omniscient Code Generator (Lite mode) build 49521"
  4449                           
  4450  03D0                     l1479:	
  4451  03D0  0828               	movf	(___fttol@lval+3),w
  4452  03D1  00FB               	movwf	(?___fttol+3)
  4453  03D2  0827               	movf	(___fttol@lval+2),w
  4454  03D3  00FA               	movwf	(?___fttol+2)
  4455  03D4  0826               	movf	(___fttol@lval+1),w
  4456  03D5  00F9               	movwf	(?___fttol+1)
  4457  03D6  0825               	movf	(___fttol@lval),w
  4458  03D7  00F8               	movwf	(?___fttol)
  4459                           opt subtitle "HI-TECH Software Omniscient Code Generator (Lite mode) build 49521"
  4460  03D8  2BD9               	goto	l337
  4461                           opt subtitle "HI-TECH Software Omniscient Code Generator (Lite mode) build 49521"
  4462  03D9                     l1481:	
  4463                           opt subtitle "HI-TECH Software Omniscient Code Generator (Lite mode) build 49521"
  4464                           
  4465  03D9                     l337:	
  4466  03D9  0008               	return
  4467                           opt subtitle "HI-TECH Software Omniscient Code Generator (Lite mode) build 49521"
  4468                           
  4469  03DA                     	__end_of___fttol:
  4470                           opt subtitle "HI-TECH Software Omniscient Code Generator (Lite mode) build 49521"
  4471                           
  4472                           opt pagewidth 120
  4473                           
  4474                           	opt lm
  4475                           
  4476                           	processor	16F877A
  4477                           clrc	macro
  4478                           	bcf	3,0
  4479                           	endm
  4480                           clrz	macro
  4481                           	bcf	3,2
  4482                           	endm
  4483                           setc	macro
  4484                           	bsf	3,0
  4485                           	endm
  4486                           setz	macro
  4487                           	bsf	3,2
  4488                           	endm
  4489                           skipc	macro
  4490                           	btfss	3,0
  4491                           	endm
  4492                           skipz	macro
  4493                           	btfss	3,2
  4494                           	endm
  4495                           skipnc	macro
  4496                           	btfsc	3,0
  4497                           	endm
  4498                           skipnz	macro
  4499                           	btfsc	3,2
  4500                           	endm
  4501                           indf	equ	0
  4502                           indf0	equ	0
  4503                           pc	equ	2
  4504  0F2C                     __ptext360:	;psect for function ___awtoft
  4505                           opt subtitle "HI-TECH Software Omniscient Code Generator (Lite mode) build 49521"
  4506                           
  4507                           opt pagewidth 120
  4508                           
  4509  002B                     	__size_of___awtoft	equ	__end_of___awtoft-___awtoft
  4510                           opt subtitle "HI-TECH Software Omniscient Code Generator (Lite mode) build 49521"
  4511  0F2C                     ___awtoft:	
  4512                           opt subtitle "HI-TECH Software Omniscient Code Generator (Lite mode) build 49521"
  4513                           
  4514                           opt pagewidth 120
  4515                           
  4516  0F2C                     l1483:	
  4517  0F2C  1283               	bcf	status, 5	;RP0=0, select bank0
  4518  0F2D  1303               	bcf	status, 6	;RP1=0, select bank0
  4519  0F2E  01AD               	clrf	(___awtoft@sign)
  4520                           opt subtitle "HI-TECH Software Omniscient Code Generator (Lite mode) build 49521"
  4521  0F2F  1FAB               	btfss	(___awtoft@c+1),7
  4522  0F30  2F32               	goto	u1311
  4523  0F31  2F33               	goto	u1310
  4524  0F32                     u1311:
  4525  0F32  2F3B               	goto	l1489
  4526  0F33                     u1310:
  4527                           opt subtitle "HI-TECH Software Omniscient Code Generator (Lite mode) build 49521"
  4528                           
  4529  0F33                     l1485:	
  4530  0F33  09AA               	comf	(___awtoft@c),f
  4531  0F34  09AB               	comf	(___awtoft@c+1),f
  4532  0F35  0AAA               	incf	(___awtoft@c),f
  4533  0F36  1903               	skipnz
  4534  0F37  0AAB               	incf	(___awtoft@c+1),f
  4535                           opt subtitle "HI-TECH Software Omniscient Code Generator (Lite mode) build 49521"
  4536                           
  4537  0F38                     l1487:	
  4538  0F38  01AD               	clrf	(___awtoft@sign)
  4539  0F39  0AAD               	incf	(___awtoft@sign),f
  4540  0F3A  2F3B               	goto	l1489
  4541                           opt subtitle "HI-TECH Software Omniscient Code Generator (Lite mode) build 49521"
  4542                           
  4543  0F3B                     l363:	
  4544                           opt subtitle "HI-TECH Software Omniscient Code Generator (Lite mode) build 49521"
  4545                           
  4546  0F3B                     l1489:	
  4547  0F3B  082A               	movf	(___awtoft@c),w
  4548  0F3C  00F0               	movwf	(?___ftpack)
  4549  0F3D  082B               	movf	(___awtoft@c+1),w
  4550  0F3E  00F1               	movwf	(?___ftpack+1)
  4551  0F3F  01F2               	clrf	(?___ftpack+2)
  4552  0F40  308E               	movlw	(08Eh)
  4553  0F41  00FC               	movwf	(??___awtoft+0)+0
  4554  0F42  087C               	movf	(??___awtoft+0)+0,w
  4555  0F43  00F3               	movwf	0+(?___ftpack)+03h
  4556  0F44  082D               	movf	(___awtoft@sign),w
  4557  0F45  00FD               	movwf	(??___awtoft+1)+0
  4558  0F46  087D               	movf	(??___awtoft+1)+0,w
  4559  0F47  00F4               	movwf	0+(?___ftpack)+04h
  4560  0F48  120A  118A  22B9   	fcall	___ftpack
              120A  158A         
  4561  0F4D  0870               	movf	(0+(?___ftpack)),w
  4562  0F4E  1283               	bcf	status, 5	;RP0=0, select bank0
  4563  0F4F  1303               	bcf	status, 6	;RP1=0, select bank0
  4564  0F50  00AA               	movwf	(?___awtoft)
  4565  0F51  0871               	movf	(1+(?___ftpack)),w
  4566  0F52  00AB               	movwf	(?___awtoft+1)
  4567  0F53  0872               	movf	(2+(?___ftpack)),w
  4568  0F54  00AC               	movwf	(?___awtoft+2)
  4569  0F55  2F56               	goto	l364
  4570                           opt subtitle "HI-TECH Software Omniscient Code Generator (Lite mode) build 49521"
  4571  0F56                     l1491:	
  4572                           opt subtitle "HI-TECH Software Omniscient Code Generator (Lite mode) build 49521"
  4573                           
  4574  0F56                     l364:	
  4575  0F56  0008               	return
  4576                           opt subtitle "HI-TECH Software Omniscient Code Generator (Lite mode) build 49521"
  4577                           
  4578  0F57                     	__end_of___awtoft:
  4579                           opt subtitle "HI-TECH Software Omniscient Code Generator (Lite mode) build 49521"
  4580                           
  4581                           opt pagewidth 120
  4582                           
  4583                           	opt lm
  4584                           
  4585                           	processor	16F877A
  4586                           clrc	macro
  4587                           	bcf	3,0
  4588                           	endm
  4589                           clrz	macro
  4590                           	bcf	3,2
  4591                           	endm
  4592                           setc	macro
  4593                           	bsf	3,0
  4594                           	endm
  4595                           setz	macro
  4596                           	bsf	3,2
  4597                           	endm
  4598                           skipc	macro
  4599                           	btfss	3,0
  4600                           	endm
  4601                           skipz	macro
  4602                           	btfss	3,2
  4603                           	endm
  4604                           skipnc	macro
  4605                           	btfsc	3,0
  4606                           	endm
  4607                           skipnz	macro
  4608                           	btfsc	3,2
  4609                           	endm
  4610                           indf	equ	0
  4611                           indf0	equ	0
  4612                           pc	equ	2
  4613                           pcl	equ	2
  4614                           status	equ	3
  4615                           fsr	equ	4
  4616  02B9                     __ptext361:	;psect for function ___ftpack
  4617                           opt subtitle "HI-TECH Software Omniscient Code Generator (Lite mode) build 49521"
  4618                           
  4619                           opt pagewidth 120
  4620                           
  4621  007B                     	__size_of___ftpack	equ	__end_of___ftpack-___ftpack
  4622                           opt subtitle "HI-TECH Software Omniscient Code Generator (Lite mode) build 49521"
  4623  02B9                     ___ftpack:	
  4624                           opt subtitle "HI-TECH Software Omniscient Code Generator (Lite mode) build 49521"
  4625                           
  4626                           opt pagewidth 120
  4627                           
  4628  02B9                     l1281:	
  4629  02B9  0873               	movf	(___ftpack@exp),w
  4630  02BA  1D03               	skipz
  4631  02BB  2ABD               	goto	u890
  4632  02BC  2AC5               	goto	l1285
  4633  02BD                     u890:
  4634                           opt subtitle "HI-TECH Software Omniscient Code Generator (Lite mode) build 49521"
  4635  02BD                     l1283:	
  4636  02BD  0872               	movf	(___ftpack@arg+2),w
  4637  02BE  0471               	iorwf	(___ftpack@arg+1),w
  4638  02BF  0470               	iorwf	(___ftpack@arg),w
  4639  02C0  1D03               	skipz
  4640  02C1  2AC3               	goto	u901
  4641  02C2  2AC4               	goto	u900
  4642  02C3                     u901:
  4643  02C3  2ADB               	goto	l1291
  4644  02C4                     u900:
  4645  02C4  2AC5               	goto	l1285
  4646                           opt subtitle "HI-TECH Software Omniscient Code Generator (Lite mode) build 49521"
  4647  02C5                     l561:	
  4648                           opt subtitle "HI-TECH Software Omniscient Code Generator (Lite mode) build 49521"
  4649                           
  4650  02C5                     l1285:	
  4651  02C5  3000               	movlw	0x0
  4652  02C6  00F0               	movwf	(?___ftpack)
  4653  02C7  3000               	movlw	0x0
  4654  02C8  00F1               	movwf	(?___ftpack+1)
  4655  02C9  3000               	movlw	0x0
  4656  02CA  00F2               	movwf	(?___ftpack+2)
  4657  02CB  2B33               	goto	l562
  4658                           opt subtitle "HI-TECH Software Omniscient Code Generator (Lite mode) build 49521"
  4659  02CC                     l1287:	
  4660  02CC  2B33               	goto	l562
  4661                           opt subtitle "HI-TECH Software Omniscient Code Generator (Lite mode) build 49521"
  4662  02CD                     l559:	
  4663                           opt subtitle "HI-TECH Software Omniscient Code Generator (Lite mode) build 49521"
  4664  02CD  2ADB               	goto	l1291
  4665                           opt subtitle "HI-TECH Software Omniscient Code Generator (Lite mode) build 49521"
  4666  02CE                     l564:	
  4667                           opt subtitle "HI-TECH Software Omniscient Code Generator (Lite mode) build 49521"
  4668                           
  4669  02CE                     l1289:	
  4670  02CE  3001               	movlw	(01h)
  4671  02CF  00F5               	movwf	(??___ftpack+0)+0
  4672  02D0  0875               	movf	(??___ftpack+0)+0,w
  4673  02D1  07F3               	addwf	(___ftpack@exp),f
  4674                           opt subtitle "HI-TECH Software Omniscient Code Generator (Lite mode) build 49521"
  4675  02D2  3001               	movlw	01h
  4676  02D3                     u915:
  4677  02D3  1003               	clrc
  4678  02D4  0CF2               	rrf	(___ftpack@arg+2),f
  4679  02D5  0CF1               	rrf	(___ftpack@arg+1),f
  4680  02D6  0CF0               	rrf	(___ftpack@arg),f
  4681  02D7  3EFF               	addlw	-1
  4682  02D8  1D03               	skipz
  4683  02D9  2AD3               	goto	u915
  4684                           opt subtitle "HI-TECH Software Omniscient Code Generator (Lite mode) build 49521"
  4685  02DA  2ADB               	goto	l1291
  4686                           opt subtitle "HI-TECH Software Omniscient Code Generator (Lite mode) build 49521"
  4687                           
  4688  02DB                     l563:	
  4689                           opt subtitle "HI-TECH Software Omniscient Code Generator (Lite mode) build 49521"
  4690                           
  4691  02DB                     l1291:	
  4692  02DB  30FE               	movlw	low highword(0FE0000h)
  4693  02DC  0572               	andwf	(___ftpack@arg+2),w
  4694  02DD  1D03               	btfss	status,2
  4695  02DE  2AE0               	goto	u921
  4696  02DF  2AE1               	goto	u920
  4697  02E0                     u921:
  4698  02E0  2ACE               	goto	l1289
  4699  02E1                     u920:
  4700  02E1  2AF9               	goto	l566
  4701                           opt subtitle "HI-TECH Software Omniscient Code Generator (Lite mode) build 49521"
  4702  02E2                     l565:	
  4703                           opt subtitle "HI-TECH Software Omniscient Code Generator (Lite mode) build 49521"
  4704  02E2  2AF9               	goto	l566
  4705                           opt subtitle "HI-TECH Software Omniscient Code Generator (Lite mode) build 49521"
  4706  02E3                     l567:	
  4707                           opt subtitle "HI-TECH Software Omniscient Code Generator (Lite mode) build 49521"
  4708                           
  4709  02E3                     l1293:	
  4710  02E3  3001               	movlw	(01h)
  4711  02E4  00F5               	movwf	(??___ftpack+0)+0
  4712  02E5  0875               	movf	(??___ftpack+0)+0,w
  4713  02E6  07F3               	addwf	(___ftpack@exp),f
  4714                           opt subtitle "HI-TECH Software Omniscient Code Generator (Lite mode) build 49521"
  4715                           
  4716  02E7                     l1295:	
  4717  02E7  3001               	movlw	01h
  4718  02E8  07F0               	addwf	(___ftpack@arg),f
  4719  02E9  3000               	movlw	0
  4720  02EA  1803               	skipnc
  4721  02EB  3001               movlw 1
  4722  02EC  07F1               	addwf	(___ftpack@arg+1),f
  4723  02ED  3000               	movlw	0
  4724  02EE  1803               	skipnc
  4725  02EF  3001               movlw 1
  4726  02F0  07F2               	addwf	(___ftpack@arg+2),f
  4727                           opt subtitle "HI-TECH Software Omniscient Code Generator (Lite mode) build 49521"
  4728                           
  4729  02F1                     l1297:	
  4730  02F1  3001               	movlw	01h
  4731  02F2                     u935:
  4732  02F2  1003               	clrc
  4733  02F3  0CF2               	rrf	(___ftpack@arg+2),f
  4734  02F4  0CF1               	rrf	(___ftpack@arg+1),f
  4735  02F5  0CF0               	rrf	(___ftpack@arg),f
  4736  02F6  3EFF               	addlw	-1
  4737  02F7  1D03               	skipz
  4738  02F8  2AF2               	goto	u935
  4739                           opt subtitle "HI-TECH Software Omniscient Code Generator (Lite mode) build 49521"
  4740                           
  4741                           opt pagewidth 120
  4742  02F9                     l566:	
  4743                           opt subtitle "HI-TECH Software Omniscient Code Generator (Lite mode) build 49521"
  4744  02F9  30FF               	movlw	low highword(0FF0000h)
  4745  02FA  0572               	andwf	(___ftpack@arg+2),w
  4746  02FB  1D03               	btfss	status,2
  4747  02FC  2AFE               	goto	u941
  4748  02FD  2AFF               	goto	u940
  4749  02FE                     u941:
  4750  02FE  2AE3               	goto	l1293
  4751  02FF                     u940:
  4752  02FF  2B0C               	goto	l1301
  4753                           opt subtitle "HI-TECH Software Omniscient Code Generator (Lite mode) build 49521"
  4754  0300                     l568:	
  4755                           opt subtitle "HI-TECH Software Omniscient Code Generator (Lite mode) build 49521"
  4756  0300  2B0C               	goto	l1301
  4757                           opt subtitle "HI-TECH Software Omniscient Code Generator (Lite mode) build 49521"
  4758  0301                     l570:	
  4759                           opt subtitle "HI-TECH Software Omniscient Code Generator (Lite mode) build 49521"
  4760                           
  4761  0301                     l1299:	
  4762  0301  3001               	movlw	low(01h)
  4763  0302  02F3               	subwf	(___ftpack@exp),f
  4764                           opt subtitle "HI-TECH Software Omniscient Code Generator (Lite mode) build 49521"
  4765  0303  3001               	movlw	01h
  4766  0304                     u955:
  4767  0304  1003               	clrc
  4768  0305  0DF0               	rlf	(___ftpack@arg),f
  4769  0306  0DF1               	rlf	(___ftpack@arg+1),f
  4770  0307  0DF2               	rlf	(___ftpack@arg+2),f
  4771  0308  3EFF               	addlw	-1
  4772  0309  1D03               	skipz
  4773  030A  2B04               	goto	u955
  4774  030B  2B0C               	goto	l1301
  4775                           opt subtitle "HI-TECH Software Omniscient Code Generator (Lite mode) build 49521"
  4776                           
  4777  030C                     l569:	
  4778                           opt subtitle "HI-TECH Software Omniscient Code Generator (Lite mode) build 49521"
  4779                           
  4780  030C                     l1301:	
  4781  030C  1FF1               	btfss	(___ftpack@arg+1),(15)&7
  4782  030D  2B0F               	goto	u961
  4783  030E  2B10               	goto	u960
  4784  030F                     u961:
  4785  030F  2B01               	goto	l1299
  4786  0310                     u960:
  4787                           opt subtitle "HI-TECH Software Omniscient Code Generator (Lite mode) build 49521"
  4788  0310                     l571:	
  4789                           opt subtitle "HI-TECH Software Omniscient Code Generator (Lite mode) build 49521"
  4790  0310  1873               	btfsc	(___ftpack@exp),(0)&7
  4791  0311  2B13               	goto	u971
  4792  0312  2B14               	goto	u970
  4793  0313                     u971:
  4794  0313  2B1A               	goto	l572
  4795  0314                     u970:
  4796                           opt subtitle "HI-TECH Software Omniscient Code Generator (Lite mode) build 49521"
  4797                           
  4798  0314                     l1303:	
  4799  0314  30FF               	movlw	0FFh
  4800  0315  05F0               	andwf	(___ftpack@arg),f
  4801  0316  307F               	movlw	07Fh
  4802  0317  05F1               	andwf	(___ftpack@arg+1),f
  4803  0318  30FF               	movlw	0FFh
  4804  0319  05F2               	andwf	(___ftpack@arg+2),f
  4805                           opt subtitle "HI-TECH Software Omniscient Code Generator (Lite mode) build 49521"
  4806  031A                     l572:	
  4807                           opt subtitle "HI-TECH Software Omniscient Code Generator (Lite mode) build 49521"
  4808  031A  1003               	clrc
  4809  031B  0CF3               	rrf	(___ftpack@exp),f
  4810                           opt subtitle "HI-TECH Software Omniscient Code Generator (Lite mode) build 49521"
  4811                           
  4812                           opt pagewidth 120
  4813  031C                     l1305:	
  4814  031C  0873               	movf	(___ftpack@exp),w
  4815  031D  00F5               	movwf	((??___ftpack+0)+0)
  4816  031E  01F6               	clrf	((??___ftpack+0)+0+1)
  4817  031F  01F7               	clrf	((??___ftpack+0)+0+2)
  4818  0320  3010               	movlw	010h
  4819  0321                     u985:
  4820  0321  1003               	clrc
  4821  0322  0DF5               	rlf	(??___ftpack+0)+0,f
  4822  0323  0DF6               	rlf	(??___ftpack+0)+1,f
  4823  0324  0DF7               	rlf	(??___ftpack+0)+2,f
  4824  0325                     u980:
  4825  0325  3EFF               	addlw	-1
  4826  0326  1D03               	skipz
  4827  0327  2B21               	goto	u985
  4828  0328  0875               	movf	0+(??___ftpack+0)+0,w
  4829  0329  04F0               	iorwf	(___ftpack@arg),f
  4830  032A  0876               	movf	1+(??___ftpack+0)+0,w
  4831  032B  04F1               	iorwf	(___ftpack@arg+1),f
  4832  032C  0877               	movf	2+(??___ftpack+0)+0,w
  4833  032D  04F2               	iorwf	(___ftpack@arg+2),f
  4834                           opt subtitle "HI-TECH Software Omniscient Code Generator (Lite mode) build 49521"
  4835                           
  4836  032E                     l1307:	
  4837  032E  0874               	movf	(___ftpack@sign),w
  4838  032F  1D03               	skipz
  4839  0330  2B32               	goto	u990
  4840  0331  2B33               	goto	l573
  4841  0332                     u990:
  4842                           opt subtitle "HI-TECH Software Omniscient Code Generator (Lite mode) build 49521"
  4843                           
  4844  0332                     l1309:	
  4845  0332  17F2               	bsf	(___ftpack@arg)+(23/8),(23)&7
  4846                           opt subtitle "HI-TECH Software Omniscient Code Generator (Lite mode) build 49521"
  4847  0333                     l573:	
  4848                           opt subtitle "HI-TECH Software Omniscient Code Generator (Lite mode) build 49521"
  4849                           
  4850                           opt pagewidth 120
  4851  0333                     l562:	
  4852  0333  0008               	return
  4853                           opt subtitle "HI-TECH Software Omniscient Code Generator (Lite mode) build 49521"
  4854                           
  4855  0334                     	__end_of___ftpack:
  4856                           opt subtitle "HI-TECH Software Omniscient Code Generator (Lite mode) build 49521"
  4857                           
  4858                           opt pagewidth 120
  4859                           
  4860                           	opt lm
  4861                           
  4862                           	processor	16F877A
  4863                           clrc	macro
  4864                           	bcf	3,0
  4865                           	endm
  4866                           clrz	macro
  4867                           	bcf	3,2
  4868                           	endm
  4869                           setc	macro
  4870                           	bsf	3,0
  4871                           	endm
  4872                           setz	macro
  4873                           	bsf	3,2
  4874                           	endm
  4875                           skipc	macro
  4876                           	btfss	3,0
  4877                           	endm
  4878                           skipz	macro
  4879                           	btfss	3,2
  4880                           	endm
  4881                           skipnc	macro
  4882                           	btfsc	3,0
  4883                           	endm
  4884                           skipnz	macro
  4885                           	btfsc	3,2
  4886                           	endm
  4887                           indf	equ	0
  4888                           indf0	equ	0
  4889                           pc	equ	2
  4890                           pcl	equ	2
  4891                           status	equ	3
  4892  01D4                     __ptext362:	;psect for function ___awdiv
  4893                           opt subtitle "HI-TECH Software Omniscient Code Generator (Lite mode) build 49521"
  4894                           
  4895                           opt pagewidth 120
  4896                           
  4897  0072                     	__size_of___awdiv	equ	__end_of___awdiv-___awdiv
  4898                           opt subtitle "HI-TECH Software Omniscient Code Generator (Lite mode) build 49521"
  4899  01D4                     ___awdiv:	
  4900                           opt subtitle "HI-TECH Software Omniscient Code Generator (Lite mode) build 49521"
  4901                           
  4902                           opt pagewidth 120
  4903                           
  4904  01D4                     l1311:	
  4905  01D4  01F6               	clrf	(___awdiv@sign)
  4906                           opt subtitle "HI-TECH Software Omniscient Code Generator (Lite mode) build 49521"
  4907  01D5  1FF1               	btfss	(___awdiv@divisor+1),7
  4908  01D6  29D8               	goto	u1001
  4909  01D7  29D9               	goto	u1000
  4910  01D8                     u1001:
  4911  01D8  29E1               	goto	l1317
  4912  01D9                     u1000:
  4913                           opt subtitle "HI-TECH Software Omniscient Code Generator (Lite mode) build 49521"
  4914                           
  4915  01D9                     l1313:	
  4916  01D9  09F0               	comf	(___awdiv@divisor),f
  4917  01DA  09F1               	comf	(___awdiv@divisor+1),f
  4918  01DB  0AF0               	incf	(___awdiv@divisor),f
  4919  01DC  1903               	skipnz
  4920  01DD  0AF1               	incf	(___awdiv@divisor+1),f
  4921                           opt subtitle "HI-TECH Software Omniscient Code Generator (Lite mode) build 49521"
  4922                           
  4923  01DE                     l1315:	
  4924  01DE  01F6               	clrf	(___awdiv@sign)
  4925  01DF  0AF6               	incf	(___awdiv@sign),f
  4926  01E0  29E1               	goto	l1317
  4927                           opt subtitle "HI-TECH Software Omniscient Code Generator (Lite mode) build 49521"
  4928                           
  4929  01E1                     l367:	
  4930                           opt subtitle "HI-TECH Software Omniscient Code Generator (Lite mode) build 49521"
  4931                           
  4932  01E1                     l1317:	
  4933  01E1  1FF3               	btfss	(___awdiv@dividend+1),7
  4934  01E2  29E4               	goto	u1011
  4935  01E3  29E5               	goto	u1010
  4936  01E4                     u1011:
  4937  01E4  29EF               	goto	l1323
  4938  01E5                     u1010:
  4939                           opt subtitle "HI-TECH Software Omniscient Code Generator (Lite mode) build 49521"
  4940                           
  4941  01E5                     l1319:	
  4942  01E5  09F2               	comf	(___awdiv@dividend),f
  4943  01E6  09F3               	comf	(___awdiv@dividend+1),f
  4944  01E7  0AF2               	incf	(___awdiv@dividend),f
  4945  01E8  1903               	skipnz
  4946  01E9  0AF3               	incf	(___awdiv@dividend+1),f
  4947                           opt subtitle "HI-TECH Software Omniscient Code Generator (Lite mode) build 49521"
  4948                           
  4949  01EA                     l1321:	
  4950  01EA  3001               	movlw	(01h)
  4951  01EB  00F4               	movwf	(??___awdiv+0)+0
  4952  01EC  0874               	movf	(??___awdiv+0)+0,w
  4953  01ED  06F6               	xorwf	(___awdiv@sign),f
  4954  01EE  29EF               	goto	l1323
  4955                           opt subtitle "HI-TECH Software Omniscient Code Generator (Lite mode) build 49521"
  4956                           
  4957  01EF                     l368:	
  4958                           opt subtitle "HI-TECH Software Omniscient Code Generator (Lite mode) build 49521"
  4959                           
  4960  01EF                     l1323:	
  4961  01EF  01F7               	clrf	(___awdiv@quotient)
  4962  01F0  01F8               	clrf	(___awdiv@quotient+1)
  4963                           opt subtitle "HI-TECH Software Omniscient Code Generator (Lite mode) build 49521"
  4964                           
  4965  01F1                     l1325:	
  4966  01F1  0871               	movf	(___awdiv@divisor+1),w
  4967  01F2  0470               	iorwf	(___awdiv@divisor),w
  4968  01F3  1903               	skipnz
  4969  01F4  29F6               	goto	u1021
  4970  01F5  29F7               	goto	u1020
  4971  01F6                     u1021:
  4972  01F6  2A34               	goto	l1345
  4973  01F7                     u1020:
  4974                           opt subtitle "HI-TECH Software Omniscient Code Generator (Lite mode) build 49521"
  4975                           
  4976  01F7                     l1327:	
  4977  01F7  01F5               	clrf	(___awdiv@counter)
  4978  01F8  0AF5               	incf	(___awdiv@counter),f
  4979                           opt subtitle "HI-TECH Software Omniscient Code Generator (Lite mode) build 49521"
  4980  01F9  2A06               	goto	l1333
  4981                           opt subtitle "HI-TECH Software Omniscient Code Generator (Lite mode) build 49521"
  4982  01FA                     l371:	
  4983                           opt subtitle "HI-TECH Software Omniscient Code Generator (Lite mode) build 49521"
  4984                           
  4985  01FA                     l1329:	
  4986  01FA  3001               	movlw	01h
  4987                           opt subtitle "HI-TECH Software Omniscient Code Generator (Lite mode) build 49521"
  4988  01FB                     u1035:
  4989  01FB  1003               	clrc
  4990  01FC  0DF0               	rlf	(___awdiv@divisor),f
  4991  01FD  0DF1               	rlf	(___awdiv@divisor+1),f
  4992  01FE  3EFF               	addlw	-1
  4993  01FF  1D03               	skipz
  4994  0200  29FB               	goto	u1035
  4995                           opt subtitle "HI-TECH Software Omniscient Code Generator (Lite mode) build 49521"
  4996                           
  4997  0201                     l1331:	
  4998  0201  3001               	movlw	(01h)
  4999  0202  00F4               	movwf	(??___awdiv+0)+0
  5000  0203  0874               	movf	(??___awdiv+0)+0,w
  5001  0204  07F5               	addwf	(___awdiv@counter),f
  5002  0205  2A06               	goto	l1333
  5003                           opt subtitle "HI-TECH Software Omniscient Code Generator (Lite mode) build 49521"
  5004                           
  5005  0206                     l370:	
  5006                           opt subtitle "HI-TECH Software Omniscient Code Generator (Lite mode) build 49521"
  5007                           
  5008  0206                     l1333:	
  5009  0206  1FF1               	btfss	(___awdiv@divisor+1),(15)&7
  5010  0207  2A09               	goto	u1041
  5011  0208  2A0A               	goto	u1040
  5012  0209                     u1041:
  5013  0209  29FA               	goto	l1329
  5014  020A                     u1040:
  5015  020A  2A0C               	goto	l1335
  5016                           opt subtitle "HI-TECH Software Omniscient Code Generator (Lite mode) build 49521"
  5017  020B                     l372:	
  5018  020B  2A0C               	goto	l1335
  5019                           opt subtitle "HI-TECH Software Omniscient Code Generator (Lite mode) build 49521"
  5020                           
  5021  020C                     l373:	
  5022                           opt subtitle "HI-TECH Software Omniscient Code Generator (Lite mode) build 49521"
  5023                           
  5024  020C                     l1335:	
  5025  020C  3001               	movlw	01h
  5026                           opt subtitle "HI-TECH Software Omniscient Code Generator (Lite mode) build 49521"
  5027  020D                     u1055:
  5028  020D  1003               	clrc
  5029  020E  0DF7               	rlf	(___awdiv@quotient),f
  5030  020F  0DF8               	rlf	(___awdiv@quotient+1),f
  5031  0210  3EFF               	addlw	-1
  5032  0211  1D03               	skipz
  5033  0212  2A0D               	goto	u1055
  5034                           opt subtitle "HI-TECH Software Omniscient Code Generator (Lite mode) build 49521"
  5035  0213  0871               	movf	(___awdiv@divisor+1),w
  5036  0214  0273               	subwf	(___awdiv@dividend+1),w
  5037  0215  1D03               	skipz
  5038  0216  2A19               	goto	u1065
  5039  0217  0870               	movf	(___awdiv@divisor),w
  5040  0218  0272               	subwf	(___awdiv@dividend),w
  5041  0219                     u1065:
  5042  0219  1C03               	skipc
  5043  021A  2A1C               	goto	u1061
  5044  021B  2A1D               	goto	u1060
  5045  021C                     u1061:
  5046  021C  2A25               	goto	l1341
  5047  021D                     u1060:
  5048                           opt subtitle "HI-TECH Software Omniscient Code Generator (Lite mode) build 49521"
  5049                           
  5050  021D                     l1337:	
  5051  021D  0870               	movf	(___awdiv@divisor),w
  5052  021E  02F2               	subwf	(___awdiv@dividend),f
  5053  021F  0871               	movf	(___awdiv@divisor+1),w
  5054  0220  1C03               	skipc
  5055  0221  03F3               	decf	(___awdiv@dividend+1),f
  5056  0222  02F3               	subwf	(___awdiv@dividend+1),f
  5057                           opt subtitle "HI-TECH Software Omniscient Code Generator (Lite mode) build 49521"
  5058                           
  5059  0223                     l1339:	
  5060  0223  1477               	bsf	(___awdiv@quotient)+(0/8),(0)&7
  5061  0224  2A25               	goto	l1341
  5062                           opt subtitle "HI-TECH Software Omniscient Code Generator (Lite mode) build 49521"
  5063                           
  5064  0225                     l374:	
  5065                           opt subtitle "HI-TECH Software Omniscient Code Generator (Lite mode) build 49521"
  5066                           
  5067  0225                     l1341:	
  5068  0225  3001               	movlw	01h
  5069                           opt subtitle "HI-TECH Software Omniscient Code Generator (Lite mode) build 49521"
  5070  0226                     u1075:
  5071  0226  1003               	clrc
  5072  0227  0CF1               	rrf	(___awdiv@divisor+1),f
  5073  0228  0CF0               	rrf	(___awdiv@divisor),f
  5074  0229  3EFF               	addlw	-1
  5075  022A  1D03               	skipz
  5076  022B  2A26               	goto	u1075
  5077                           opt subtitle "HI-TECH Software Omniscient Code Generator (Lite mode) build 49521"
  5078                           
  5079  022C                     l1343:	
  5080  022C  3001               	movlw	low(01h)
  5081  022D  02F5               	subwf	(___awdiv@counter),f
  5082  022E  1D03               	btfss	status,2
  5083  022F  2A31               	goto	u1081
  5084  0230  2A32               	goto	u1080
  5085  0231                     u1081:
  5086  0231  2A0C               	goto	l1335
  5087  0232                     u1080:
  5088  0232  2A34               	goto	l1345
  5089                           opt subtitle "HI-TECH Software Omniscient Code Generator (Lite mode) build 49521"
  5090  0233                     l375:	
  5091  0233  2A34               	goto	l1345
  5092                           opt subtitle "HI-TECH Software Omniscient Code Generator (Lite mode) build 49521"
  5093                           
  5094  0234                     l369:	
  5095                           opt subtitle "HI-TECH Software Omniscient Code Generator (Lite mode) build 49521"
  5096                           
  5097  0234                     l1345:	
  5098  0234  0876               	movf	(___awdiv@sign),w
  5099  0235  1D03               	skipz
  5100  0236  2A38               	goto	u1090
  5101  0237  2A3E               	goto	l1349
  5102  0238                     u1090:
  5103                           opt subtitle "HI-TECH Software Omniscient Code Generator (Lite mode) build 49521"
  5104                           
  5105  0238                     l1347:	
  5106  0238  09F7               	comf	(___awdiv@quotient),f
  5107  0239  09F8               	comf	(___awdiv@quotient+1),f
  5108  023A  0AF7               	incf	(___awdiv@quotient),f
  5109  023B  1903               	skipnz
  5110  023C  0AF8               	incf	(___awdiv@quotient+1),f
  5111  023D  2A3E               	goto	l1349
  5112                           opt subtitle "HI-TECH Software Omniscient Code Generator (Lite mode) build 49521"
  5113  023E                     l376:	
  5114                           opt subtitle "HI-TECH Software Omniscient Code Generator (Lite mode) build 49521"
  5115                           
  5116  023E                     l1349:	
  5117  023E  0878               	movf	(___awdiv@quotient+1),w
  5118  023F  01F1               	clrf	(?___awdiv+1)
  5119  0240  07F1               	addwf	(?___awdiv+1)
  5120  0241  0877               	movf	(___awdiv@quotient),w
  5121  0242  01F0               	clrf	(?___awdiv)
  5122  0243  07F0               	addwf	(?___awdiv)
  5123                           opt subtitle "HI-TECH Software Omniscient Code Generator (Lite mode) build 49521"
  5124  0244  2A45               	goto	l377
  5125                           opt subtitle "HI-TECH Software Omniscient Code Generator (Lite mode) build 49521"
  5126  0245                     l1351:	
  5127                           opt subtitle "HI-TECH Software Omniscient Code Generator (Lite mode) build 49521"
  5128                           
  5129  0245                     l377:	
  5130  0245  0008               	return
  5131                           opt subtitle "HI-TECH Software Omniscient Code Generator (Lite mode) build 49521"
  5132                           
  5133  0246                     	__end_of___awdiv:
  5134                           opt subtitle "HI-TECH Software Omniscient Code Generator (Lite mode) build 49521"
  5135                           
  5136                           opt pagewidth 120
  5137                           
  5138                           	opt lm
  5139                           
  5140                           	processor	16F877A
  5141                           clrc	macro
  5142                           	bcf	3,0
  5143                           	endm
  5144                           clrz	macro
  5145                           	bcf	3,2
  5146                           	endm
  5147                           setc	macro
  5148                           	bsf	3,0
  5149                           	endm
  5150                           setz	macro
  5151                           	bsf	3,2
  5152                           	endm
  5153                           skipc	macro
  5154                           	btfss	3,0
  5155                           	endm
  5156                           skipz	macro
  5157                           	btfss	3,2
  5158                           	endm
  5159                           skipnc	macro
  5160                           	btfsc	3,0
  5161                           	endm
  5162                           skipnz	macro
  5163                           	btfsc	3,2
  5164                           	endm
  5165                           indf	equ	0
  5166                           indf0	equ	0
  5167                           pc	equ	2
  5168                           pcl	equ	2
  5169  0103                     __ptext363:	;psect for function ___awmod
  5170                           opt subtitle "HI-TECH Software Omniscient Code Generator (Lite mode) build 49521"
  5171                           
  5172                           opt pagewidth 120
  5173                           
  5174  0064                     	__size_of___awmod	equ	__end_of___awmod-___awmod
  5175                           opt subtitle "HI-TECH Software Omniscient Code Generator (Lite mode) build 49521"
  5176  0103                     ___awmod:	
  5177                           opt subtitle "HI-TECH Software Omniscient Code Generator (Lite mode) build 49521"
  5178                           
  5179                           opt pagewidth 120
  5180                           
  5181  0103                     l1353:	
  5182  0103  01F6               	clrf	(___awmod@sign)
  5183                           opt subtitle "HI-TECH Software Omniscient Code Generator (Lite mode) build 49521"
  5184  0104  1FF3               	btfss	(___awmod@dividend+1),7
  5185  0105  2907               	goto	u1101
  5186  0106  2908               	goto	u1100
  5187  0107                     u1101:
  5188  0107  2910               	goto	l1359
  5189  0108                     u1100:
  5190                           opt subtitle "HI-TECH Software Omniscient Code Generator (Lite mode) build 49521"
  5191                           
  5192  0108                     l1355:	
  5193  0108  09F2               	comf	(___awmod@dividend),f
  5194  0109  09F3               	comf	(___awmod@dividend+1),f
  5195  010A  0AF2               	incf	(___awmod@dividend),f
  5196  010B  1903               	skipnz
  5197  010C  0AF3               	incf	(___awmod@dividend+1),f
  5198                           opt subtitle "HI-TECH Software Omniscient Code Generator (Lite mode) build 49521"
  5199                           
  5200  010D                     l1357:	
  5201  010D  01F6               	clrf	(___awmod@sign)
  5202  010E  0AF6               	incf	(___awmod@sign),f
  5203  010F  2910               	goto	l1359
  5204                           opt subtitle "HI-TECH Software Omniscient Code Generator (Lite mode) build 49521"
  5205                           
  5206  0110                     l435:	
  5207                           opt subtitle "HI-TECH Software Omniscient Code Generator (Lite mode) build 49521"
  5208                           
  5209  0110                     l1359:	
  5210  0110  1FF1               	btfss	(___awmod@divisor+1),7
  5211  0111  2913               	goto	u1111
  5212  0112  2914               	goto	u1110
  5213  0113                     u1111:
  5214  0113  291A               	goto	l1363
  5215  0114                     u1110:
  5216                           opt subtitle "HI-TECH Software Omniscient Code Generator (Lite mode) build 49521"
  5217                           
  5218  0114                     l1361:	
  5219  0114  09F0               	comf	(___awmod@divisor),f
  5220  0115  09F1               	comf	(___awmod@divisor+1),f
  5221  0116  0AF0               	incf	(___awmod@divisor),f
  5222  0117  1903               	skipnz
  5223  0118  0AF1               	incf	(___awmod@divisor+1),f
  5224  0119  291A               	goto	l1363
  5225                           opt subtitle "HI-TECH Software Omniscient Code Generator (Lite mode) build 49521"
  5226  011A                     l436:	
  5227                           opt subtitle "HI-TECH Software Omniscient Code Generator (Lite mode) build 49521"
  5228                           
  5229  011A                     l1363:	
  5230  011A  0871               	movf	(___awmod@divisor+1),w
  5231  011B  0470               	iorwf	(___awmod@divisor),w
  5232  011C  1903               	skipnz
  5233  011D  291F               	goto	u1121
  5234  011E  2920               	goto	u1120
  5235  011F                     u1121:
  5236  011F  2955               	goto	l1381
  5237  0120                     u1120:
  5238                           opt subtitle "HI-TECH Software Omniscient Code Generator (Lite mode) build 49521"
  5239                           
  5240  0120                     l1365:	
  5241  0120  01F5               	clrf	(___awmod@counter)
  5242  0121  0AF5               	incf	(___awmod@counter),f
  5243                           opt subtitle "HI-TECH Software Omniscient Code Generator (Lite mode) build 49521"
  5244  0122  292F               	goto	l1371
  5245                           opt subtitle "HI-TECH Software Omniscient Code Generator (Lite mode) build 49521"
  5246  0123                     l439:	
  5247                           opt subtitle "HI-TECH Software Omniscient Code Generator (Lite mode) build 49521"
  5248                           
  5249  0123                     l1367:	
  5250  0123  3001               	movlw	01h
  5251                           opt subtitle "HI-TECH Software Omniscient Code Generator (Lite mode) build 49521"
  5252  0124                     u1135:
  5253  0124  1003               	clrc
  5254  0125  0DF0               	rlf	(___awmod@divisor),f
  5255  0126  0DF1               	rlf	(___awmod@divisor+1),f
  5256  0127  3EFF               	addlw	-1
  5257  0128  1D03               	skipz
  5258  0129  2924               	goto	u1135
  5259                           opt subtitle "HI-TECH Software Omniscient Code Generator (Lite mode) build 49521"
  5260                           
  5261  012A                     l1369:	
  5262  012A  3001               	movlw	(01h)
  5263  012B  00F4               	movwf	(??___awmod+0)+0
  5264  012C  0874               	movf	(??___awmod+0)+0,w
  5265  012D  07F5               	addwf	(___awmod@counter),f
  5266  012E  292F               	goto	l1371
  5267                           opt subtitle "HI-TECH Software Omniscient Code Generator (Lite mode) build 49521"
  5268                           
  5269  012F                     l438:	
  5270                           opt subtitle "HI-TECH Software Omniscient Code Generator (Lite mode) build 49521"
  5271                           
  5272  012F                     l1371:	
  5273  012F  1FF1               	btfss	(___awmod@divisor+1),(15)&7
  5274  0130  2932               	goto	u1141
  5275  0131  2933               	goto	u1140
  5276  0132                     u1141:
  5277  0132  2923               	goto	l1367
  5278  0133                     u1140:
  5279  0133  2935               	goto	l1373
  5280                           opt subtitle "HI-TECH Software Omniscient Code Generator (Lite mode) build 49521"
  5281  0134                     l440:	
  5282  0134  2935               	goto	l1373
  5283                           opt subtitle "HI-TECH Software Omniscient Code Generator (Lite mode) build 49521"
  5284                           
  5285  0135                     l441:	
  5286                           opt subtitle "HI-TECH Software Omniscient Code Generator (Lite mode) build 49521"
  5287                           
  5288  0135                     l1373:	
  5289  0135  0871               	movf	(___awmod@divisor+1),w
  5290  0136  0273               	subwf	(___awmod@dividend+1),w
  5291  0137  1D03               	skipz
  5292  0138  293B               	goto	u1155
  5293  0139  0870               	movf	(___awmod@divisor),w
  5294  013A  0272               	subwf	(___awmod@dividend),w
  5295  013B                     u1155:
  5296  013B  1C03               	skipc
  5297  013C  293E               	goto	u1151
  5298  013D  293F               	goto	u1150
  5299  013E                     u1151:
  5300  013E  2946               	goto	l1377
  5301  013F                     u1150:
  5302                           opt subtitle "HI-TECH Software Omniscient Code Generator (Lite mode) build 49521"
  5303                           
  5304  013F                     l1375:	
  5305  013F  0870               	movf	(___awmod@divisor),w
  5306  0140  02F2               	subwf	(___awmod@dividend),f
  5307  0141  0871               	movf	(___awmod@divisor+1),w
  5308  0142  1C03               	skipc
  5309  0143  03F3               	decf	(___awmod@dividend+1),f
  5310  0144  02F3               	subwf	(___awmod@dividend+1),f
  5311  0145  2946               	goto	l1377
  5312                           opt subtitle "HI-TECH Software Omniscient Code Generator (Lite mode) build 49521"
  5313  0146                     l442:	
  5314                           opt subtitle "HI-TECH Software Omniscient Code Generator (Lite mode) build 49521"
  5315                           
  5316  0146                     l1377:	
  5317  0146  3001               	movlw	01h
  5318                           opt subtitle "HI-TECH Software Omniscient Code Generator (Lite mode) build 49521"
  5319  0147                     u1165:
  5320  0147  1003               	clrc
  5321  0148  0CF1               	rrf	(___awmod@divisor+1),f
  5322  0149  0CF0               	rrf	(___awmod@divisor),f
  5323  014A  3EFF               	addlw	-1
  5324  014B  1D03               	skipz
  5325  014C  2947               	goto	u1165
  5326                           opt subtitle "HI-TECH Software Omniscient Code Generator (Lite mode) build 49521"
  5327                           
  5328  014D                     l1379:	
  5329  014D  3001               	movlw	low(01h)
  5330  014E  02F5               	subwf	(___awmod@counter),f
  5331  014F  1D03               	btfss	status,2
  5332  0150  2952               	goto	u1171
  5333  0151  2953               	goto	u1170
  5334  0152                     u1171:
  5335  0152  2935               	goto	l1373
  5336  0153                     u1170:
  5337  0153  2955               	goto	l1381
  5338                           opt subtitle "HI-TECH Software Omniscient Code Generator (Lite mode) build 49521"
  5339  0154                     l443:	
  5340  0154  2955               	goto	l1381
  5341                           opt subtitle "HI-TECH Software Omniscient Code Generator (Lite mode) build 49521"
  5342                           
  5343  0155                     l437:	
  5344                           opt subtitle "HI-TECH Software Omniscient Code Generator (Lite mode) build 49521"
  5345                           
  5346  0155                     l1381:	
  5347  0155  0876               	movf	(___awmod@sign),w
  5348  0156  1D03               	skipz
  5349  0157  2959               	goto	u1180
  5350  0158  295F               	goto	l1385
  5351  0159                     u1180:
  5352                           opt subtitle "HI-TECH Software Omniscient Code Generator (Lite mode) build 49521"
  5353                           
  5354  0159                     l1383:	
  5355  0159  09F2               	comf	(___awmod@dividend),f
  5356  015A  09F3               	comf	(___awmod@dividend+1),f
  5357  015B  0AF2               	incf	(___awmod@dividend),f
  5358  015C  1903               	skipnz
  5359  015D  0AF3               	incf	(___awmod@dividend+1),f
  5360  015E  295F               	goto	l1385
  5361                           opt subtitle "HI-TECH Software Omniscient Code Generator (Lite mode) build 49521"
  5362  015F                     l444:	
  5363                           opt subtitle "HI-TECH Software Omniscient Code Generator (Lite mode) build 49521"
  5364                           
  5365  015F                     l1385:	
  5366  015F  0873               	movf	(___awmod@dividend+1),w
  5367  0160  01F1               	clrf	(?___awmod+1)
  5368  0161  07F1               	addwf	(?___awmod+1)
  5369  0162  0872               	movf	(___awmod@dividend),w
  5370  0163  01F0               	clrf	(?___awmod)
  5371  0164  07F0               	addwf	(?___awmod)
  5372                           opt subtitle "HI-TECH Software Omniscient Code Generator (Lite mode) build 49521"
  5373  0165  2966               	goto	l445
  5374                           opt subtitle "HI-TECH Software Omniscient Code Generator (Lite mode) build 49521"
  5375  0166                     l1387:	
  5376                           opt subtitle "HI-TECH Software Omniscient Code Generator (Lite mode) build 49521"
  5377                           
  5378  0166                     l445:	
  5379  0166  0008               	return
  5380                           opt subtitle "HI-TECH Software Omniscient Code Generator (Lite mode) build 49521"
  5381                           
  5382  0167                     	__end_of___awmod:
  5383                           opt subtitle "HI-TECH Software Omniscient Code Generator (Lite mode) build 49521"
  5384                           
  5385                           opt pagewidth 120
  5386                           
  5387                           	opt lm
  5388                           
  5389                           	processor	16F877A
  5390                           clrc	macro
  5391                           	bcf	3,0
  5392                           	endm
  5393                           clrz	macro
  5394                           	bcf	3,2
  5395                           	endm
  5396                           setc	macro
  5397                           	bsf	3,0
  5398                           	endm
  5399                           setz	macro
  5400                           	bsf	3,2
  5401                           	endm
  5402                           skipc	macro
  5403                           	btfss	3,0
  5404                           	endm
  5405                           skipz	macro
  5406                           	btfss	3,2
  5407                           	endm
  5408                           skipnc	macro
  5409                           	btfsc	3,0
  5410                           	endm
  5411                           skipnz	macro
  5412                           	btfsc	3,2
  5413                           	endm
  5414                           indf	equ	0
  5415                           indf0	equ	0
  5416                           pc	equ	2
  5417  0F88                     __ptext364:	;psect for function ___lltoft
  5418                           opt subtitle "HI-TECH Software Omniscient Code Generator (Lite mode) build 49521"
  5419                           
  5420                           opt pagewidth 120
  5421                           
  5422  0038                     	__size_of___lltoft	equ	__end_of___lltoft-___lltoft
  5423                           opt subtitle "HI-TECH Software Omniscient Code Generator (Lite mode) build 49521"
  5424  0F88                     ___lltoft:	
  5425                           opt subtitle "HI-TECH Software Omniscient Code Generator (Lite mode) build 49521"
  5426                           
  5427                           opt pagewidth 120
  5428                           
  5429  0F88                     l1493:	
  5430  0F88  308E               	movlw	(08Eh)
  5431  0F89  00FC               	movwf	(??___lltoft+0)+0
  5432  0F8A  087C               	movf	(??___lltoft+0)+0,w
  5433  0F8B  00FD               	movwf	(___lltoft@exp)
  5434                           opt subtitle "HI-TECH Software Omniscient Code Generator (Lite mode) build 49521"
  5435  0F8C  2F9D               	goto	l1497
  5436                           opt subtitle "HI-TECH Software Omniscient Code Generator (Lite mode) build 49521"
  5437  0F8D                     l465:	
  5438                           opt subtitle "HI-TECH Software Omniscient Code Generator (Lite mode) build 49521"
  5439                           
  5440  0F8D                     l1495:	
  5441  0F8D  3001               	movlw	01h
  5442  0F8E                     u1325:
  5443  0F8E  1003               	clrc
  5444  0F8F  1283               	bcf	status, 5	;RP0=0, select bank0
  5445  0F90  1303               	bcf	status, 6	;RP1=0, select bank0
  5446  0F91  0CAD               	rrf	(___lltoft@c+3),f
  5447  0F92  0CAC               	rrf	(___lltoft@c+2),f
  5448  0F93  0CAB               	rrf	(___lltoft@c+1),f
  5449  0F94  0CAA               	rrf	(___lltoft@c),f
  5450  0F95  3EFF               	addlw	-1
  5451  0F96  1D03               	skipz
  5452  0F97  2F8E               	goto	u1325
  5453                           opt subtitle "HI-TECH Software Omniscient Code Generator (Lite mode) build 49521"
  5454                           
  5455  0F98  3001               	movlw	(01h)
  5456  0F99  00FC               	movwf	(??___lltoft+0)+0
  5457  0F9A  087C               	movf	(??___lltoft+0)+0,w
  5458  0F9B  07FD               	addwf	(___lltoft@exp),f
  5459  0F9C  2F9D               	goto	l1497
  5460                           opt subtitle "HI-TECH Software Omniscient Code Generator (Lite mode) build 49521"
  5461                           
  5462  0F9D                     l464:	
  5463                           opt subtitle "HI-TECH Software Omniscient Code Generator (Lite mode) build 49521"
  5464                           
  5465  0F9D                     l1497:	
  5466  0F9D  30FF               	movlw	high highword(-16777216)
  5467  0F9E  1283               	bcf	status, 5	;RP0=0, select bank0
  5468  0F9F  1303               	bcf	status, 6	;RP1=0, select bank0
  5469  0FA0  052D               	andwf	(___lltoft@c+3),w
  5470  0FA1  1D03               	btfss	status,2
  5471  0FA2  2FA4               	goto	u1331
  5472  0FA3  2FA5               	goto	u1330
  5473  0FA4                     u1331:
  5474  0FA4  2F8D               	goto	l1495
  5475  0FA5                     u1330:
  5476  0FA5  2FA6               	goto	l1499
  5477                           opt subtitle "HI-TECH Software Omniscient Code Generator (Lite mode) build 49521"
  5478  0FA6                     l466:	
  5479                           opt subtitle "HI-TECH Software Omniscient Code Generator (Lite mode) build 49521"
  5480                           
  5481  0FA6                     l1499:	
  5482  0FA6  082A               	movf	(___lltoft@c),w
  5483  0FA7  00F0               	movwf	(?___ftpack)
  5484  0FA8  082B               	movf	(___lltoft@c+1),w
  5485  0FA9  00F1               	movwf	(?___ftpack+1)
  5486  0FAA  082C               	movf	(___lltoft@c+2),w
  5487  0FAB  00F2               	movwf	(?___ftpack+2)
  5488  0FAC  087D               	movf	(___lltoft@exp),w
  5489  0FAD  00FC               	movwf	(??___lltoft+0)+0
  5490  0FAE  087C               	movf	(??___lltoft+0)+0,w
  5491  0FAF  00F3               	movwf	0+(?___ftpack)+03h
  5492  0FB0  01F4               	clrf	0+(?___ftpack)+04h
  5493  0FB1  120A  118A  22B9   	fcall	___ftpack
              120A  158A         
  5494  0FB6  0870               	movf	(0+(?___ftpack)),w
  5495  0FB7  1283               	bcf	status, 5	;RP0=0, select bank0
  5496  0FB8  1303               	bcf	status, 6	;RP1=0, select bank0
  5497  0FB9  00AA               	movwf	(?___lltoft)
  5498  0FBA  0871               	movf	(1+(?___ftpack)),w
  5499  0FBB  00AB               	movwf	(?___lltoft+1)
  5500  0FBC  0872               	movf	(2+(?___ftpack)),w
  5501  0FBD  00AC               	movwf	(?___lltoft+2)
  5502  0FBE  2FBF               	goto	l467
  5503                           opt subtitle "HI-TECH Software Omniscient Code Generator (Lite mode) build 49521"
  5504  0FBF                     l1501:	
  5505                           opt subtitle "HI-TECH Software Omniscient Code Generator (Lite mode) build 49521"
  5506                           
  5507  0FBF                     l467:	
  5508  0FBF  0008               	return
  5509                           opt subtitle "HI-TECH Software Omniscient Code Generator (Lite mode) build 49521"
  5510                           
  5511  0FC0                     	__end_of___lltoft:
  5512                           opt subtitle "HI-TECH Software Omniscient Code Generator (Lite mode) build 49521"
  5513                           
  5514                           opt pagewidth 120
  5515  0000                     __ptext365:	;psect for function ___lltoft
  5516                           opt subtitle "HI-TECH Software Omniscient Code Generator (Lite mode) build 49521"
  5517  007E                     	btemp set 07Eh
  5518                           opt subtitle "HI-TECH Software Omniscient Code Generator (Lite mode) build 49521"
  5519                           
  5520                           opt pagewidth 120
  5521  007E                     	wtemp0 set btemp


Data Sizes:
    Strings     72
    Constant    0
    Data        64
    BSS         5
    Persistent  0
    Stack       0

Auto Spaces:
    Space          Size  Autos    Used
    COMMON           14     14      14
    BANK0            80     47      52
    BANK1            80      0      64
    BANK3            96      0       0
    BANK2            96      0       0

Pointer List with Targets:

    ?___ftpack	float  size(1) Largest target is 0

    ?___awtoft	float  size(1) Largest target is 0

    ?___fttol	long  size(1) Largest target is 0

    ?_GetPulseWidth	int  size(1) Largest target is 0

    ?___ftmul	float  size(1) Largest target is 0

    ?___lltoft	float  size(1) Largest target is 0

    ?___awdiv	int  size(1) Largest target is 0

    ?___awmod	int  size(1) Largest target is 2
		 -> LCDWriteInt@val(BANK0[2]), 

    LCDWriteString@msg	PTR const unsigned char  size(1) Largest target is 14
		 -> STR_7(CODE[4]), STR_6(CODE[10]), STR_5(CODE[10]), STR_4(CODE[9]), 
		 -> STR_3(CODE[13]), STR_2(CODE[14]), STR_1(CODE[12]), 


Critical Paths under _main in COMMON

    _main->_LCDInit
    _main->_LCDGotoXY
    _main->___awtoft
    _main->_LCDWriteInt
    _LCDInit->_LCDByte
    _LCDWriteString->_LCDByte
    _LCDWriteInt->_LCDByte
    _LCDGotoXY->_LCDByte
    _LCDByte->_LCDBusyLoop
    _GetPulseWidth->___lltoft
    ___ftmul->___awtoft
    ___ftmul->___lltoft
    ___fttol->___ftpack
    ___awtoft->___fttol
    ___lltoft->___fttol

Critical Paths under _main in BANK0

    _main->_GetPulseWidth
    _GetPulseWidth->___ftmul
    ___ftmul->___awtoft
    ___ftmul->___lltoft
    ___awtoft->___fttol
    ___lltoft->___fttol

Critical Paths under _main in BANK1

    None.

Critical Paths under _main in BANK3

    None.

Critical Paths under _main in BANK2

    None.

Call Graph Tables:

 ---------------------------------------------------------------------------------
 (Depth) Function   	        Calls       Base Space   Used Autos Params    Refs
 ---------------------------------------------------------------------------------
 (0) _main                                                 7     7      0    5260
                                             40 BANK0      7     7      0
                            _LCDInit
                            _LCDByte
                         _HCSR04Init
                          _LCDGotoXY
                     _LCDWriteString
                      _HCSR04Trigger
                      _GetPulseWidth
                           ___awtoft
                            ___ftmul
                            ___fttol
                        _LCDWriteInt
 ---------------------------------------------------------------------------------
 (1) _LCDInit                                              4     4      0     482
                                             12 COMMON     2     2      0
                                              0 BANK0      2     2      0
                        _LCDBusyLoop
                            _LCDByte
 ---------------------------------------------------------------------------------
 (1) _LCDWriteString                                       3     3      0     454
                                             12 COMMON     1     1      0
                                              0 BANK0      2     2      0
                            _LCDByte
 ---------------------------------------------------------------------------------
 (1) _LCDWriteInt                                         14    11      3    1281
                                             12 COMMON     2     2      0
                                              0 BANK0     12     9      3
                            _LCDByte
                            ___awmod
                            ___awdiv
 ---------------------------------------------------------------------------------
 (1) _LCDGotoXY                                            3     2      1     345
                                             12 COMMON     2     1      1
                                              0 BANK0      1     1      0
                            _LCDByte
 ---------------------------------------------------------------------------------
 (2) _LCDByte                                              7     6      1     275
                                              5 COMMON     7     6      1
                        _LCDBusyLoop
 ---------------------------------------------------------------------------------
 (3) _LCDBusyLoop                                          5     5      0     117
                                              0 COMMON     5     5      0
 ---------------------------------------------------------------------------------
 (1) _HCSR04Init                                           1     1      0       0
                                              0 COMMON     1     1      0
 ---------------------------------------------------------------------------------
 (1) _HCSR04Trigger                                        1     1      0       0
                                              0 COMMON     1     1      0
 ---------------------------------------------------------------------------------
 (1) _GetPulseWidth                                       10     8      2    1246
                                             30 BANK0     10     8      2
                           ___lltoft
                            ___ftmul
                            ___fttol
 ---------------------------------------------------------------------------------
 (1) ___ftmul                                             16    10      6     535
                                             14 BANK0     16    10      6
                           ___ftpack
                           ___awtoft (ARG)
                            ___fttol (ARG)
                           ___lltoft (ARG)
 ---------------------------------------------------------------------------------
 (1) ___fttol                                             14    10      4     252
                                              8 COMMON     4     0      4
                                              0 BANK0     10    10      0
                           ___ftpack (ARG)
 ---------------------------------------------------------------------------------
 (1) ___awtoft                                             6     3      3     300
                                             12 COMMON     2     2      0
                                             10 BANK0      4     1      3
                           ___ftpack
                            ___fttol (ARG)
 ---------------------------------------------------------------------------------
 (2) ___ftpack                                             8     3      5     209
                                              0 COMMON     8     3      5
 ---------------------------------------------------------------------------------
 (2) ___awdiv                                              9     5      4     300
                                              0 COMMON     9     5      4
 ---------------------------------------------------------------------------------
 (2) ___awmod                                              7     3      4     296
                                              0 COMMON     7     3      4
 ---------------------------------------------------------------------------------
 (2) ___lltoft                                             6     2      4     278
                                             12 COMMON     2     2      0
                                             10 BANK0      4     0      4
                           ___ftpack
                            ___fttol (ARG)
 ---------------------------------------------------------------------------------
 Estimated maximum stack depth 3
 ---------------------------------------------------------------------------------

 Call Graph Graphs:

 _main (ROOT)
   _LCDInit
     _LCDBusyLoop
     _LCDByte
       _LCDBusyLoop
   _LCDByte
     _LCDBusyLoop
   _HCSR04Init
   _LCDGotoXY
     _LCDByte
       _LCDBusyLoop
   _LCDWriteString
     _LCDByte
       _LCDBusyLoop
   _HCSR04Trigger
   _GetPulseWidth
     ___lltoft
       ___ftpack
       ___fttol (ARG)
         ___ftpack (ARG)
     ___ftmul
       ___ftpack
       ___awtoft (ARG)
         ___ftpack
         ___fttol (ARG)
           ___ftpack (ARG)
       ___fttol (ARG)
         ___ftpack (ARG)
       ___lltoft (ARG)
         ___ftpack
         ___fttol (ARG)
           ___ftpack (ARG)
     ___fttol
       ___ftpack (ARG)
   ___awtoft
     ___ftpack
     ___fttol (ARG)
       ___ftpack (ARG)
   ___ftmul
     ___ftpack
     ___awtoft (ARG)
       ___ftpack
       ___fttol (ARG)
         ___ftpack (ARG)
     ___fttol (ARG)
       ___ftpack (ARG)
     ___lltoft (ARG)
       ___ftpack
       ___fttol (ARG)
         ___ftpack (ARG)
   ___fttol
     ___ftpack (ARG)
   _LCDWriteInt
     _LCDByte
       _LCDBusyLoop
     ___awmod
     ___awdiv

 Address spaces:
Name               Size   Autos  Total    Cost      Usage
BANK3               60      0       0       9        0.0%
BITBANK3            60      0       0       8        0.0%
SFR3                 0      0       0       4        0.0%
BITSFR3              0      0       0       4        0.0%
BANK2               60      0       0      11        0.0%
BITBANK2            60      0       0      10        0.0%
SFR2                 0      0       0       5        0.0%
BITSFR2              0      0       0       5        0.0%
BANK1               50      0      40       7       80.0%
BITBANK1            50      0       0       6        0.0%
SFR1                 0      0       0       2        0.0%
BITSFR1              0      0       0       2        0.0%
BANK0               50     2F      34       5       65.0%
BITBANK0            50      0       0       4        0.0%
SFR0                 0      0       0       1        0.0%
BITSFR0              0      0       0       1        0.0%
COMMON               E      E       E       1      100.0%
BITCOMMON            E      0       0       0        0.0%
CODE                 0      0       0       0        0.0%
DATA                 0      0      85      12        0.0%
ABS                  0      0      82       3        0.0%
NULL                 0      0       0       0        0.0%
STACK                0      0       3       2        0.0%
EEDATA             100      0       0       0        0.0%


Microchip Technology PIC Macro Assembler V1.12 build 49521 
Symbol Table                                                                                   Sun Jun 07 09:27:59 2015

           ?_LCDBusyLoop 0070                        pc 0002              __CFG_CP$OFF 0000  
                     l30 0102                       l23 0078                       l24 007B  
                     l40 0293                       l25 00A9                       l41 0279  
                     l33 01BA                       l50 04F5                       l42 0292  
                     l34 01D3                       l51 04FE                       l43 02A4  
                     l35 01D3                       l28 00B7                       l60 0573  
                     l52 0517                       l44 02B8                       l29 00F9  
                     l61 0586                       l53 05C0                       l45 02B8  
                     l70 0F7F                       l62 059B                       l54 0551  
                     l38 02AB                       l71 0F64                       l63 05C0  
                     l55 0518                       l39 024A                       l72 0F66  
                     l56 055A                       l73 0F6B                       l57 0574  
                     l66 0F62                       l58 0569                       l67 0F87  
                     l59 0562                       l68 0F71                       l69 0F63  
           ___awdiv@sign 0076                       fsr 0004                      l120 0790  
                    l112 06F9                      l121 076D                      l113 0723  
                    l122 076B                      l114 0700                      l106 005C  
                    l123 076C                      l115 0702                      l131 0607  
                    l124 076F                      l116 0701                      l132 0648  
                    l125 076E                      l117 073B                      l109 0F01  
                    l133 06C7                      l126 07A8                      l118 07FF  
                    l134 0663                      l127 07C8                      l119 075B  
                    l135 06C6                      l128 07FF                      l136 06D7  
                    l137 06D8                      l330 047A                      l138 06D8  
                    l331 047F                      l340 0389                      l332 0494  
                    l341 039B                      l333 04AB                      l325 03F5  
                    l342 03C0                      l326 04C7                      l343 03AC  
                    l327 040E                      l440 0134                      l344 03B9  
                    l336 0351                      l328 044E                      l441 0135  
                    l345 03AD                      l337 03D9                      l329 0463  
                    l442 0146                      l370 0206                      l346 03BF  
                    l338 039C                      l443 0154                      l435 0110  
                    l371 01FA                      l363 0F3B                      l347 03D0  
                    l339 0388                      l444 015F                      l436 011A  
                    l372 020B                      l364 0F56                      l445 0166  
                    l437 0155                      l373 020C                      l438 012F  
                    l374 0225                      l439 0123                      l375 0233  
                    l367 01E1                      l464 0F9D                      l376 023E  
                    l368 01EF                      l465 0F8D                      l377 0245  
                    l369 0234                      l561 02C5                      l466 0FA6  
                    l570 0301                      l562 0333                      l467 0FBF  
                    l571 0310                      l563 02DB                      l572 031A  
                    l564 02CE                      l573 0333                      l565 02E2  
                    l566 02F9                      l567 02E3                      l559 02CD  
                    l568 0300                      l569 030C                      _RB2 0032  
                    _RB3 0033                      _RD4 0044             __CFG_CPD$OFF 0000  
                    u900 02C4                      u901 02C3                      u920 02E1  
                    u921 02E0                      u915 02D3                      u940 02FF  
                    u941 02FE                      u935 02F2                      u960 0310  
                    u961 030F                      u970 0314                      u890 02BD  
                    u971 0313                      u955 0304                      u980 0325  
                    u990 0332                      u985 0321                      fsr0 0004  
                    indf 0000             ___awmod@sign 0076             __CFG_FOSC$HS 0000  
LCDWriteInt@field_length 0022          __end_of_LCDByte 00AA          __end_of_LCDInit 01D4  
           __CFG_LVP$OFF 0000             ?_LCDWriteInt 0020              LCDByte@temp 007B  
                   l1301 030C                     l1311 01D4                     l1303 0314  
                   l1321 01EA                     l1313 01D9                     l1305 031C  
                   l1401 00BA                     l1331 0201                     l1323 01EF  
                   l1315 01DE                     l1307 032E                     l1411 00D2  
                   l1403 00BB                     l1501 0FBF                     l1341 0225  
                   l1333 0206                     l1325 01F1                     l1317 01E1  
                   l1309 0332                     l1421 00E8                     l1413 00D5  
                   l1405 00C1                     l1351 0245                     l1343 022C  
                   l1335 020C                     l1327 01F7                     l1319 01E5  
                   l1431 00FC                     l1423 00ED                     l1415 00D8  
                   l1407 00CE                     l1511 007F                     l1503 005E  
                   l1361 0114                     l1353 0103                     l1337 021D  
                   l1329 01FA                     l1345 0234                     l1281 02B9  
                   l1441 0347                     l1433 0EF3                     l1425 00EE  
                   l1417 00DF                     l1409 00CF                     l1521 0090  
                   l1513 0085                     l1505 006A                     l1601 0184  
                   l1371 012F                     l1363 011A                     l1355 0108  
                   l1347 0238                     l1339 0223                     l1291 02DB  
                   l1283 02BD                     l1451 036A                     l1443 0350  
                   l1435 0EF6                     l1427 00F1                     l1419 00E3  
                   l1531 00A4                     l1523 0093                     l1515 0087  
                   l1507 006F                     l1611 018F                     l1603 0185  
                   l1373 0135                     l1365 0120                     l1381 0155  
                   l1357 010D                     l1349 023E                     l1293 02E3  
                   l1285 02C5                     l1461 0387                     l1453 0371  
                   l1445 0351                     l1541 0406                     l1533 03DA  
                   l1437 0EFB                     l1429 00F4                     l1525 009B  
                   l1517 008A                     l1509 0074                     l1701 05AA  
                   l1621 01AF                     l1613 0192                     l1605 0188  
                   l1383 0159                     l1375 013F                     l1367 0123  
                   l1359 0110                     l1295 02E7                     l1287 02CC  
                   l1471 03AD                     l1463 0389                     l1455 0373  
                   l1447 0363                     l1439 0334                     l1551 043D  
                   l1543 040D                     l1535 03ED                     l1279 0056  
                   l1391 00AB                     l1527 009E                     l1519 008D  
                   l1711 0F6B                     l1703 05B2                     l1631 0249  
                   l1623 01B9                     l1615 0197                     l1607 0189  
                   l1385 015F                     l1377 0146                     l1369 012A  
                   l1297 02F1                     l1289 02CE                     l1481 03D9  
                   l1473 03B9                     l1457 0377                     l1465 039C  
                   l1449 0364                     l1561 0463                     l1553 0443  
                   l1545 040E                     l1537 03F4                     l1721 06F8  
                   l1393 00B1                     l1529 00A1                     l1713 0F70  
                   l1705 0F5A                     l1641 0269                     l1633 024A  
                   l1625 01BA                     l1617 019E                     l1609 018C  
                   l1801 0648                     l1387 0166                     l1379 014D  
                   l1299 0301                     l1491 0F56                     l1483 0F2C  
                   l1467 03A2                     l1475 03C0                     l1459 037E  
                   l1571 0483                     l1563 046B                     l1555 0449  
                   l1547 043B                     l1539 03F5                     l1731 0735  
                   l1723 06FE                     l1395 00B4                     l1707 0F61  
                   l1715 0F71                     l1651 02A4                     l1643 0270  
                   l1635 0256                     l1627 01C6                     l1619 01A8  
                   l1811 06A6                     l1803 0654                     l1493 0F88  
                   l1485 0F33                     l1477 03C4                     l1469 03AB  
                   l1581 04C7                     l1573 0494                     l1565 0473  
                   l1557 044E                     l1549 043C                     l1741 0747  
                   l1733 073A                     l1725 06FF                     l1397 00B5  
                   l1389 00AA                     l1717 0F80                     l1709 0F66  
                   l1661 04E1                     l1645 0279                     l1637 025A  
                   l1653 02AB                     l1629 01CC                     l1813 06AE  
                   l1805 0663                     l1495 0F8D                     l1487 0F38  
                   l1479 03D0                     l1575 049C                     l1567 047A  
                   l1559 0452                     l1751 076F                     l1743 075A  
                   l1735 073C                     l1727 0702                     l1719 06DB  
                   l1399 00B7                     l1671 0506                     l1663 04E5  
                   l1655 04C8                     l1647 0281                     l1639 0265  
                   l1591 017A                     l1583 016A                     l1815 06BF  
                   l1807 0698                     l1497 0F9D                     l1489 0F3B  
                   l1577 04A4                     l1569 047F                     l1761 07AE  
                   l1745 075F                     l1753 0790                     l1737 073E  
                   l1729 0723                     l1681 054A                     l1673 050D  
                   l1665 04ED                     l1657 04DB                     l1649 0293  
                   l1593 017B                     l1585 0172                     l1809 06A0  
                   l1817 06C7                     l1499 0FA6                     l1579 04AB  
                   l1771 07FE                     l1763 07C1                     l1755 07A2  
                   l1747 0769                     l1739 073F                     l1691 0569  
                   l1675 0516                     l1683 0551                     l1667 04F5  
                   l1659 04DF                     l1595 0181                     l1587 0178  
                   l1765 07C6                     l1757 07A7                     l1749 076A  
                   l1693 0574                     l1685 055A                     l1677 0518  
                   l1669 04FE                     l1597 0182                     l1589 0179  
                   l1781 05D1                     l1773 05C1                     l1767 07C7  
                   l1759 07A8                     l1695 058C                     l1687 0561  
                   l1679 0533                     l1599 0183                     l1791 0619  
                   l1783 05D8                     l1775 05C5                     l1769 07C8  
                   l1697 059A                     l1689 0562                     l1793 0620  
                   l1785 05F8                     l1777 05CB                     l1699 059B  
                   l1795 0627                     l1787 0607                     l1779 05CE  
                   l1797 062D                     l1789 060C                     l1799 0639  
                   STR_1 0024                     STR_2 0009                     STR_3 0017  
                   STR_4 0044                     STR_5 0030                     STR_6 003A  
                   STR_7 004D                     u1000 01D9                     u1001 01D8  
                   u1010 01E5                     u1011 01E4                     u1100 0108  
                   u1020 01F7                     u1101 0107                     u1021 01F6  
                   u1110 0114                     u1111 0113                     u1120 0120  
                   u1040 020A                     u1200 00F9                     u1121 011F  
                   u1041 0209                     u1201 00F8                     u1210 0347  
                   u1035 01FB                     u1211 0346                     u1140 0133  
                   u1060 021D                     u1300 03C4                     u1220 035C  
                   u1141 0132                     u1061 021C                     u1150 013F  
                   u1310 0F33                     u1230 0377                     u1151 013E  
                   u1135 0124                     u1055 020D                     u1311 0F32  
                   u1231 0376                     u1080 0232                     u1240 037E  
                   u1400 0452                     u1081 0231                     u1065 0219  
                   u1241 037D                     u1225 0358                     u1401 0451  
                   u1330 0FA5                     u1170 0153                     u1090 0238  
                   u1331 0FA4                     u1171 0152                     u1155 013B  
                   u1075 0226                     u1411 045B                     u1180 0159  
                   u1260 039A                     u1412 0462                     u1500 01B8  
                   u1325 0F8E                     u1165 0147                     u1261 0399  
                   u1501 01B7                     u1270 03A2                     u1350 0074  
                   u1510 01D2                     u1271 03A1                     u1255 038A  
                   u1351 0073                     u1511 01D1                     u1440 0479  
                   u1360 03ED                     u1600 0560                     u1520 0256  
                   u1441 0478                     u1425 0464                     u1361 03EC  
                   u1345 0061                     u1601 055F                     u1521 0255  
                   u1290 03BE                     u1450 0483                     u1370 0406  
                   u1610 0572                     u1530 0269                     u1291 03BD  
                   u1451 0482                     u1435 046C                     u1371 0405  
                   u1195 00C4                     u1611 0571                     u1531 0268  
                   u1380 041E                     u1700 075F                     u1620 0599  
                   u1540 0270                     u1285 03AF                     u1461 048C  
                   u1701 075E                     u1621 0598                     u1541 026F  
                   u1462 0493                     u1390 0430                     u1710 0768  
                   u1630 05BF                     u1550 02B7                     u1711 0767  
                   u1631 05BE                     u1551 02B6                     u1720 078F  
                   u1640 0F60                     u1560 04E5                     u1385 041A  
                   u1721 078E                     u1641 0F5F                     u1625 0595  
                   u1561 04E4                     u1490 04AA                     u1730 07A2  
                   u1650 06F7                     u1570 0506                     u1491 04A9  
                   u1475 0495                     u1395 042C                     u1731 07A1  
                   u1651 06F6                     u1635 05BB                     u1571 0505  
                   u1740 07C1                     u1660 06FD                     u1580 050D  
                   u1485 049D                     u1741 07C0                     u1725 078B  
                   u1661 06FC                     u1581 050C                     u1670 0722  
                   u1590 0559                     u1750 0639                     u1735 079E  
                   u1671 0721                     u1655 06F3                     u1807 0EF8  
                   u1591 0558                     u1751 0638                     u1680 0735  
                   u1760 0654                     u1745 07BD                     u1681 0734  
                   u1761 0653                     u1690 0759                     u1691 0758  
                   u1675 071E                     u1755 0635                     u1685 0731  
                   u1765 0650                     u1695 0755                     u1777 0600  
                   u1787 06CF                     u1797 016E                     _TMR1 000E  
           __CFG_WRT$OFF 0000                     _main 05C1             ___ftpack@arg 0070  
     __size_of_LCDGotoXY 0031             ___ftpack@exp 0073                     btemp 007E  
          __CFG_BOREN$ON 0000                     start 0000      __size_of_HCSR04Init 0007  
           ___ftmul@cntr 003C             ___ftmul@sign 003D             ___fttol@exp1 0029  
           ___fttol@lval 0025                    ?_main 0070          __end_of___awdiv 0246  
          __CFG_WDTE$OFF 0000          __end_of___awmod 0167             LCDInit@style 0020  
        __end_of___ftmul 04C8          ___awdiv@divisor 0070          __end_of___fttol 03DA  
                  _PCFG1 04F9                    _PCFG2 04FA          ___awdiv@counter 0075  
                  _PORTA 0005                    _PORTD 0008                    _TRISA 0085  
                  _TRISD 0088             ___lltoft@exp 007D            ___awtoft@sign 002D  
          ___ftpack@sign 0074                    main@d 004B                    main@r 004D  
                  pclath 000A                    status 0003                    wtemp0 007E  
        __initialization 0F15             __end_of_main 06DB                   ??_main 0048  
          ___fttol@sign1 0024    __end_of_HCSR04Trigger 0F02        __end_of_LCDGotoXY 0F88  
          LCDByte@isdata 0075                ??_LCDByte 0076                ??_LCDInit 007C  
       ___awdiv@dividend 0072         __end_of___awtoft 0F57         __end_of___ftpack 0334  
       __end_of___lltoft 0FC0                   _TMR1ON 0080           __CFG_PWRTE$OFF 0000  
         _LCDWriteString 0246                ??___awdiv 0074                ??___awmod 0074  
              ??___ftmul 0034                ??___fttol 0020    __end_of_GetPulseWidth 0800  
   __size_of_LCDBusyLoop 0059         ___awdiv@quotient 0077          ___awmod@divisor 0070  
        ___awmod@counter 0075    ___ftmul@f3_as_product 0039             ??_HCSR04Init 0070  
           LCDWriteInt@i 002A             LCDWriteInt@j 0028     __size_of_LCDWriteInt 00F9  
__end_of__initialization 0F28   __end_of_LCDWriteString 02B9                LCDByte@hn 0078  
              LCDByte@ln 0079               ___awtoft@c 002A               ___ftmul@f1 002E  
             ___ftmul@f2 0031           GetPulseWidth@i 0044       __end_of_HCSR04Init 005D  
             ___fttol@f1 0078           __pcstackCOMMON 0070             __pidataBANK1 0FC0  
             ___lltoft@c 002A               __pbssBANK0 004F          ?_LCDWriteString 0070  
             __pmaintext 05C1                ?___awtoft 002A                ?___ftpack 0070  
              ?___lltoft 002A                  _T1CKPS0 0084                  _LCDByte 005D  
                _LCDInit 0167               __stringtab 0003                  ___cgram 00A0  
                ___awdiv 01D4                  ___awmod 0103                  ___ftmul 03DA  
                ___fttol 0334               ??___awtoft 007C               ??___ftpack 0075  
             ??___lltoft 007C         ___awmod@dividend 0072                _LCDGotoXY 0F57  
   end_of_initialization 0F28                  init_ram 0F06                _PORTCbits 0007  
      LCDWriteString@msg 0021                _TRISBbits 0086                _TRISCbits 0087  
              _TRISDbits 0088               ?_LCDGotoXY 007C               LCDInit@__i 0021  
             LCDGotoXY@x 0020               LCDGotoXY@y 007C   __size_of_HCSR04Trigger 000F  
            ___ftmul@exp 0038            ??_LCDBusyLoop 0070      GetPulseWidth@result 0040  
    start_initialization 0F15            ??_LCDWriteInt 007C         ??_LCDWriteString 007C  
 __size_of_GetPulseWidth 0125              __pdataBANK1 00A0      __end_of_LCDBusyLoop 0103  
          _HCSR04Trigger 0EF3                 ?_LCDByte 0075        __size_of___awtoft 002B  
               ?_LCDInit 0070        __size_of___ftpack 007B        __size_of___lltoft 0038  
               LCDByte@c 007A            __pcstackBANK0 0020              ??_LCDGotoXY 007D  
    __end_of__stringdata 0051         LCDWriteInt@F1160 004F      __end_of_LCDWriteInt 05C1  
               ?___awdiv 0070                __ptext350 0246                __ptext351 04C8  
              __ptext360 0F2C                __ptext352 0F57                __ptext361 02B9  
              __ptext353 005D                __ptext362 01D4                __ptext354 00AA  
              __ptext363 0103                __ptext355 0056                 ?___awmod 0070  
              __ptext364 0F88                __ptext356 0EF3                __ptext365 0000  
              __ptext357 06DB                __ptext349 0167                __ptext358 03DA  
              __ptext359 0334                 ?___ftmul 002E                 ?___fttol 0078  
          _GetPulseWidth 06DB                __pstrings 0003           ?_HCSR04Trigger 0070  
        LCDBusyLoop@busy 0072          LCDBusyLoop@temp 0073              _LCDBusyLoop 00AA  
         ?_GetPulseWidth 003E         LCDWriteString@cc 0020              __stringbase 0008  
            __stringdata 0009         __size_of_LCDByte 004D         __size_of_LCDInit 006D  
            _LCDWriteInt 04C8                init_fetch 0F02         __size_of___awdiv 0072  
       __size_of___awmod 0064         __size_of___ftmul 00EE         __size_of___fttol 00A6  
        ??_HCSR04Trigger 0070        LCDBusyLoop@status 0074                 ___awtoft 0F2C  
               ___ftpack 02B9       __end_of__stringtab 0009                 ___lltoft 0F88  
             _HCSR04Init 0056            __size_of_main 011A          ??_GetPulseWidth 007E  
         LCDWriteInt@val 0020           LCDWriteInt@str 0023                stringcode 0003  
            ?_HCSR04Init 0070                 stringdir 0003                 stringtab 0003  
__size_of_LCDWriteString 0073  
