

Microchip Technology PIC18 LITE Macro Assembler V1.33 build 59893 
                                                                                               Mon Jul 11 15:21:16 2016

Microchip Technology Omniscient Code Generator (Lite mode) build 59893
     1                           	processor	18F452
     2                           	fnconf	rparam,??,?,0
     3                           	opt	pw 120
     4                           	opt	lm
     5                           	psect	text0,global,reloc=2,class=CODE,delta=1
     6                           	psect	cinit,global,reloc=2,class=CODE,delta=1
     7                           	psect	bssCOMRAM,global,class=COMRAM,space=1,delta=1
     8                           	psect	cstackCOMRAM,global,class=COMRAM,space=1,delta=1
     9                           	psect	text1,global,reloc=2,class=CODE,delta=1
    10                           	psect	text2,global,reloc=2,class=CODE,delta=1
    11                           	psect	text3,global,reloc=2,class=CODE,delta=1
    12                           	psect	text4,global,reloc=2,class=CODE,delta=1
    13                           	psect	text5,global,reloc=2,class=CODE,delta=1
    14                           	psect	text6,global,reloc=2,class=CODE,delta=1
    15                           	psect	text7,global,reloc=2,class=CODE,delta=1
    16                           	psect	text8,global,reloc=2,class=CODE,delta=1
    17                           	psect	text9,global,reloc=2,class=CODE,delta=1
    18                           	psect	text10,global,reloc=2,class=CODE,delta=1
    19                           	psect	text11,global,reloc=2,class=CODE,delta=1
    20                           	psect	text12,global,reloc=2,class=CODE,delta=1
    21                           	psect	text13,global,reloc=2,class=CODE,delta=1
    22                           	psect	text14,global,reloc=2,class=CODE,delta=1
    23                           	psect	text15,global,reloc=2,class=CODE,delta=1
    24                           	psect	text16,global,reloc=2,class=CODE,delta=1
    25                           	psect	text17,global,reloc=2,class=CODE,delta=1
    26                           	psect	text18,global,reloc=2,class=CODE,delta=1
    27                           	psect	intsave_regs,global,class=BIGRAM,space=1,delta=1
    28                           	psect	rparam,global,class=COMRAM,space=1,delta=1
    29  0000                     _ADCON1	set	4033
    30  0000                     _PIR1bits	set	3998
    31  0000                     _RCREG	set	4014
    32  0000                     _RCSTAbits	set	4011
    33  0000                     _SPBRG	set	4015
    34  0000                     _TRISA	set	3986
    35  0000                     _TRISB	set	3987
    36  0000                     _TRISC	set	3988
    37  0000                     _TRISCbits	set	3988
    38  0000                     _TXREG	set	4013
    39  0000                     _TXSTAbits	set	4012
    40  0000                     _CARRY	set	32448
    41  0000                     _RA0	set	31744
    42  0000                     _RA1	set	31745
    43  0000                     _RA2	set	31746
    44  0000                     _RA3	set	31747
    45  0000                     _RA4	set	31748
    46  0000                     _RA5	set	31749
    47  0000                     _RB1	set	31753
    48  0000                     _RB2	set	31754
    49  0000                     _RB3	set	31755
    50  0000                     _RB4	set	31756
    51  0000                     _RB5	set	31757
    52  0000                     _RB6	set	31758
    53  0000                     _RB7	set	31759
    54  0000                     _RC0	set	31760
    55  0000                     _RC1	set	31761
    56                           
    57 ;;
    58 ;;Main: autosize = 0, tempsize = 1, incstack = 0, save=0
    59 ;;
    60 ;; *************** function _main *****************
    61 ;; Defined at:
    62 ;;		line 12 in file "E:\Study Material\XC8 PROJECTS\Android Cautery\Android_Cautery.c"
    63 ;; Parameters:    Size  Location     Type
    64 ;;		None
    65 ;; Auto vars:     Size  Location     Type
    66 ;;  addition        2   76[COMRAM] int 
    67 ;;  milis           2   73[COMRAM] int 
    68 ;;  value           1   82[COMRAM] unsigned char 
    69 ;;  count           1   81[COMRAM] unsigned char 
    70 ;;  multiplier      1   80[COMRAM] unsigned char 
    71 ;;  data_flag       1   79[COMRAM] unsigned char 
    72 ;;  e_enable        1   78[COMRAM] unsigned char 
    73 ;;  inact_flag      1   75[COMRAM] unsigned char 
    74 ;;  communicatio    1   72[COMRAM] unsigned char 
    75 ;; Return value:  Size  Location     Type
    76 ;;		None               void
    77 ;; Registers used:
    78 ;;		wreg, status,2, status,0, prodl, prodh, cstack
    79 ;; Tracked objects:
    80 ;;		On entry : 0/0
    81 ;;		On exit  : 0/0
    82 ;;		Unchanged: 0/0
    83 ;; Data sizes:     COMRAM   BANK0   BANK1   BANK2   BANK3   BANK4   BANK5
    84 ;;      Params:         0       0       0       0       0       0       0
    85 ;;      Locals:        11       0       0       0       0       0       0
    86 ;;      Temps:          1       0       0       0       0       0       0
    87 ;;      Totals:        12       0       0       0       0       0       0
    88 ;;Total ram usage:       12 bytes
    89 ;; Hardware stack levels required when called:    6
    90 ;; This function calls:
    91 ;;		_MY_DELAY
    92 ;;		_USARTInit
    93 ;;		_bi_Operation
    94 ;;		_coag_Operation
    95 ;;		_cut_Operation
    96 ;;		_get_char
    97 ;;		_init_Values
    98 ;;		_liga_Operation
    99 ;;		_load_Digipot
   100 ;;		_put_char
   101 ;; This function is called by:
   102 ;;		Startup code after reset
   103 ;; This function uses a non-reentrant model
   104 ;;
   105                           
   106                           	psect	text0
   107  003B18                     __ptext0:
   108                           	opt stack 0
   109  003B18                     _main:
   110                           	opt stack 25
   111                           
   112                           ;incstack = 0
   113  003B18  FFFF               	dw	65535
   114                           
   115                           ;Android_Cautery.c: 14: TRISA = 0xFF;
   116  003B1A  6892               	setf	3986,c	;volatile
   117                           
   118                           ;Android_Cautery.c: 15: TRISB = 0x00;
   119  003B1C  0E00               	movlw	0
   120  003B1E  6E93               	movwf	3987,c	;volatile
   121                           
   122                           ;Android_Cautery.c: 16: TRISC = 0x80;
   123  003B20  0E80               	movlw	128
   124  003B22  6E94               	movwf	3988,c	;volatile
   125                           
   126                           ;Android_Cautery.c: 17: ADCON1 = 0x06;
   127  003B24  0E06               	movlw	6
   128  003B26  6EC1               	movwf	4033,c	;volatile
   129                           
   130                           ;Android_Cautery.c: 19: init_Values();
   131  003B28  EC5D  F018         	call	_init_Values	;wreg free
   132                           
   133                           ;Android_Cautery.c: 21: RB1 = 0;
   134  003B2C  9281               	bcf	3969,1,c	;volatile
   135                           
   136                           ;Android_Cautery.c: 22: RB2 = 1;
   137  003B2E  8481               	bsf	3969,2,c	;volatile
   138                           
   139                           ;Android_Cautery.c: 23: RB3 = 0;
   140  003B30  9681               	bcf	3969,3,c	;volatile
   141                           
   142                           ;Android_Cautery.c: 24: RB4 = 0;
   143  003B32  9881               	bcf	3969,4,c	;volatile
   144                           
   145                           ;Android_Cautery.c: 25: RB5 = 0;
   146  003B34  9A81               	bcf	3969,5,c	;volatile
   147                           
   148                           ;Android_Cautery.c: 26: RB6 = 0;
   149  003B36  9C81               	bcf	3969,6,c	;volatile
   150                           
   151                           ;Android_Cautery.c: 27: RC0 = 0;
   152  003B38  9082               	bcf	3970,0,c	;volatile
   153                           
   154                           ;Android_Cautery.c: 28: RC1 = 0;
   155  003B3A  9282               	bcf	3970,1,c	;volatile
   156                           
   157                           ;Android_Cautery.c: 30: int addition = 0;
   158  003B3C  0E00               	movlw	0
   159  003B3E  6E4E               	movwf	main@addition+1,c
   160  003B40  0E00               	movlw	0
   161  003B42  6E4D               	movwf	main@addition,c
   162                           
   163                           ;Android_Cautery.c: 31: unsigned char inact_flag = 0;
   164  003B44  0E00               	movlw	0
   165  003B46  6E4C               	movwf	main@inact_flag,c
   166                           
   167                           ;Android_Cautery.c: 32: char value = 0, multiplier = 1;
   168  003B48  0E00               	movlw	0
   169  003B4A  6E53               	movwf	main@value,c
   170  003B4C  0E01               	movlw	1
   171  003B4E  6E51               	movwf	main@multiplier,c
   172                           
   173                           ;Android_Cautery.c: 33: char count;
   174                           ;Android_Cautery.c: 34: char communication;
   175                           ;Android_Cautery.c: 35: int milis = 0;
   176  003B50  0E00               	movlw	0
   177  003B52  6E4B               	movwf	main@milis+1,c
   178  003B54  0E00               	movlw	0
   179  003B56  6E4A               	movwf	main@milis,c
   180                           
   181                           ;Android_Cautery.c: 36: unsigned char data_flag = 0;
   182  003B58  0E00               	movlw	0
   183  003B5A  6E50               	movwf	main@data_flag,c
   184                           
   185                           ;Android_Cautery.c: 37: unsigned char e_enable = 0;
   186  003B5C  0E00               	movlw	0
   187  003B5E  6E4F               	movwf	main@e_enable,c
   188                           
   189                           ;Android_Cautery.c: 39: for(count = 0; count < 5; count++)
   190  003B60  0E00               	movlw	0
   191  003B62  6E52               	movwf	main@count,c
   192  003B64  D00F               	goto	L1
   193  003B66                     l75:
   194                           
   195                           ;Android_Cautery.c: 40: {
   196                           ;Android_Cautery.c: 41: RB7 = 1;
   197  003B66  8E81               	bsf	3969,7,c	;volatile
   198                           
   199                           ;Android_Cautery.c: 42: MY_DELAY(1000);
   200  003B68  0E03               	movlw	3
   201  003B6A  6E02               	movwf	MY_DELAY@ms+1,c
   202  003B6C  0EE8               	movlw	232
   203  003B6E  6E01               	movwf	MY_DELAY@ms,c
   204  003B70  EC25  F018         	call	_MY_DELAY	;wreg free
   205                           
   206                           ;Android_Cautery.c: 43: RB7 = 0;
   207  003B74  9E81               	bcf	3969,7,c	;volatile
   208                           
   209                           ;Android_Cautery.c: 44: MY_DELAY(1000);
   210  003B76  0E03               	movlw	3
   211  003B78  6E02               	movwf	MY_DELAY@ms+1,c
   212  003B7A  0EE8               	movlw	232
   213  003B7C  6E01               	movwf	MY_DELAY@ms,c
   214  003B7E  EC25  F018         	call	_MY_DELAY	;wreg free
   215  003B82  2A52               	incf	main@count,f,c
   216  003B84                     L1:
   217  003B84  0E04               	movlw	4
   218  003B86  6452               	cpfsgt	main@count,c
   219  003B88  D7EE               	goto	l75
   220                           
   221                           ;Android_Cautery.c: 45: }
   222                           ;Android_Cautery.c: 46: count = 0;
   223  003B8A  0E00               	movlw	0
   224  003B8C  6E52               	movwf	main@count,c
   225                           
   226                           ;Android_Cautery.c: 48: USARTInit();
   227  003B8E  EC18  F018         	call	_USARTInit	;wreg free
   228  003B92                     l1363:
   229                           
   230                           ;Android_Cautery.c: 51: {
   231                           ;Android_Cautery.c: 52: _delay((unsigned long)((1)*(40000000/4000.0)));
   232  003B92  0E0A               	movlw	10
   233  003B94  6E48               	movwf	??_main& (0+255),c
   234  003B96  0EBE               	movlw	190
   235  003B98                     u1257:
   236  003B98  2EE8               	decfsz	wreg,f,c
   237  003B9A  D7FE               	goto	u1257
   238  003B9C  2E48               	decfsz	??_main& (0+255),f,c
   239  003B9E  D7FC               	goto	u1257
   240  003BA0  D000               	nop2	
   241                           
   242                           ;Android_Cautery.c: 53: milis++;
   243  003BA2  4A4A               	infsnz	main@milis,f,c
   244  003BA4  2A4B               	incf	main@milis+1,f,c
   245                           
   246                           ;Android_Cautery.c: 54: if(inact_flag == 0 && e_enable == 1)
   247  003BA6  664C               	tstfsz	main@inact_flag,c
   248  003BA8  D01C               	goto	l78
   249  003BAA  044F               	decf	main@e_enable,w,c
   250  003BAC  A4D8               	btfss	status,2,c
   251  003BAE  D019               	goto	l78
   252                           
   253                           ;Android_Cautery.c: 55: {
   254                           ;Android_Cautery.c: 56: if(milis >= 2000)
   255  003BB0  504B               	movf	main@milis+1,w,c
   256  003BB2  0A80               	xorlw	128
   257  003BB4  0F79               	addlw	-135
   258  003BB6  0ED0               	movlw	208
   259  003BB8  B4D8               	btfsc	status,2,c
   260  003BBA  5C4A               	subwf	main@milis,w,c
   261  003BBC  A0D8               	btfss	status,0,c
   262  003BBE  D011               	goto	l78
   263                           
   264                           ;Android_Cautery.c: 57: {
   265                           ;Android_Cautery.c: 58: milis = 0;
   266  003BC0  0E00               	movlw	0
   267  003BC2  6E4B               	movwf	main@milis+1,c
   268  003BC4  0E00               	movlw	0
   269  003BC6  6E4A               	movwf	main@milis,c
   270                           
   271                           ;Android_Cautery.c: 60: put_char('N');
   272  003BC8  0E4E               	movlw	78
   273  003BCA  EC07  F018         	call	_put_char
   274                           
   275                           ;Android_Cautery.c: 61: RB7 = ~RB7;
   276  003BCE  7E81               	btg	3969,7,c	;volatile
   277                           
   278                           ;Android_Cautery.c: 62: communication = 'X';
   279  003BD0  0E58               	movlw	88
   280  003BD2  6E49               	movwf	main@communication,c
   281                           
   282                           ;Android_Cautery.c: 63: communication = get_char();
   283  003BD4  EC7A  F018         	call	_get_char	;wreg free
   284  003BD8  6E49               	movwf	main@communication,c
   285                           
   286                           ;Android_Cautery.c: 64: if(communication == 'S')
   287  003BDA  5049               	movf	main@communication,w,c
   288  003BDC  0A53               	xorlw	83
   289  003BDE  B4D8               	btfsc	status,2,c
   290                           
   291                           ;Android_Cautery.c: 65: RC0 = ~RC0;
   292  003BE0  7082               	btg	3970,0,c	;volatile
   293  003BE2                     l78:
   294                           
   295                           ;Android_Cautery.c: 66: }
   296                           ;Android_Cautery.c: 67: }
   297                           ;Android_Cautery.c: 68: if(RA4 == 1)
   298  003BE2  A880               	btfss	3968,4,c	;volatile
   299  003BE4  D00E               	goto	l1395
   300                           
   301                           ;Android_Cautery.c: 69: {
   302                           ;Android_Cautery.c: 70: if(inact_flag == 1)
   303  003BE6  044C               	decf	main@inact_flag,w,c
   304  003BE8  A4D8               	btfss	status,2,c
   305  003BEA  D005               	goto	l1393
   306                           
   307                           ;Android_Cautery.c: 71: {
   308                           ;Android_Cautery.c: 72: put_char('K');
   309  003BEC  0E4B               	movlw	75
   310  003BEE  EC07  F018         	call	_put_char
   311                           
   312                           ;Android_Cautery.c: 73: inact_flag = 0;
   313  003BF2  0E00               	movlw	0
   314  003BF4  6E4C               	movwf	main@inact_flag,c
   315  003BF6                     l1393:
   316                           
   317                           ;Android_Cautery.c: 74: }
   318                           ;Android_Cautery.c: 75: MY_DELAY(1);
   319  003BF6  0E00               	movlw	0
   320  003BF8  6E02               	movwf	MY_DELAY@ms+1,c
   321  003BFA  0E01               	movlw	1
   322  003BFC  6E01               	movwf	MY_DELAY@ms,c
   323  003BFE  EC25  F018         	call	_MY_DELAY	;wreg free
   324  003C02                     l1395:
   325                           
   326                           ;Android_Cautery.c: 76: }
   327                           ;Android_Cautery.c: 77: if(RA0 == 0)
   328  003C02  B080               	btfsc	3968,0,c	;volatile
   329  003C04  D080               	goto	l1471
   330                           
   331                           ;Android_Cautery.c: 78: {
   332                           ;Android_Cautery.c: 79: _delay((unsigned long)((10)*(40000000/4000.0)));
   333  003C06  0E62               	movlw	98
   334  003C08  6E48               	movwf	??_main& (0+255),c
   335  003C0A  0E76               	movlw	118
   336  003C0C                     u1267:
   337  003C0C  2EE8               	decfsz	wreg,f,c
   338  003C0E  D7FE               	goto	u1267
   339  003C10  2E48               	decfsz	??_main& (0+255),f,c
   340  003C12  D7FC               	goto	u1267
   341  003C14  D000               	nop2	
   342                           
   343                           ;Android_Cautery.c: 80: if(RA0 == 0)
   344  003C16  B080               	btfsc	3968,0,c	;volatile
   345  003C18  D076               	goto	l1471
   346                           
   347                           ;Android_Cautery.c: 81: {
   348                           ;Android_Cautery.c: 82: if(RA4 == 0)
   349  003C1A  B880               	btfsc	3968,4,c	;volatile
   350  003C1C  D00E               	goto	l1411
   351                           
   352                           ;Android_Cautery.c: 83: {
   353                           ;Android_Cautery.c: 84: if(inact_flag == 0)
   354  003C1E  664C               	tstfsz	main@inact_flag,c
   355  003C20  D005               	goto	l1409
   356                           
   357                           ;Android_Cautery.c: 85: {
   358                           ;Android_Cautery.c: 86: put_char('I');
   359  003C22  0E49               	movlw	73
   360  003C24  EC07  F018         	call	_put_char
   361                           
   362                           ;Android_Cautery.c: 87: inact_flag = 1;
   363  003C28  0E01               	movlw	1
   364  003C2A  6E4C               	movwf	main@inact_flag,c
   365  003C2C                     l1409:
   366                           
   367                           ;Android_Cautery.c: 88: }
   368                           ;Android_Cautery.c: 89: MY_DELAY(500);
   369  003C2C  0E01               	movlw	1
   370  003C2E  6E02               	movwf	MY_DELAY@ms+1,c
   371  003C30  0EF4               	movlw	244
   372  003C32  6E01               	movwf	MY_DELAY@ms,c
   373  003C34  EC25  F018         	call	_MY_DELAY	;wreg free
   374                           
   375                           ;Android_Cautery.c: 90: }
   376  003C38  D066               	goto	l1471
   377  003C3A                     l1411:
   378                           
   379                           ;Android_Cautery.c: 91: else
   380                           ;Android_Cautery.c: 92: {
   381                           ;Android_Cautery.c: 93: data_flag = 0;
   382  003C3A  0E00               	movlw	0
   383  003C3C  6E50               	movwf	main@data_flag,c
   384                           
   385                           ;Android_Cautery.c: 95: put_char('A');
   386  003C3E  0E41               	movlw	65
   387  003C40  EC07  F018         	call	_put_char
   388                           
   389                           ;Android_Cautery.c: 96: multiplier = 1;
   390  003C44  0E01               	movlw	1
   391  003C46  6E51               	movwf	main@multiplier,c
   392                           
   393                           ;Android_Cautery.c: 98: for(count = 0; count < 3; count++)
   394  003C48  0E00               	movlw	0
   395  003C4A  6E52               	movwf	main@count,c
   396  003C4C  D024               	goto	L2
   397  003C4E                     l1423:
   398                           
   399                           ;Android_Cautery.c: 99: {
   400                           ;Android_Cautery.c: 100: value = 0;
   401  003C4E  0E00               	movlw	0
   402  003C50  6E53               	movwf	main@value,c
   403                           
   404                           ;Android_Cautery.c: 101: addition = 0;
   405  003C52  0E00               	movlw	0
   406  003C54  6E4E               	movwf	main@addition+1,c
   407  003C56  0E00               	movlw	0
   408  003C58  6E4D               	movwf	main@addition,c
   409                           
   410                           ;Android_Cautery.c: 102: value = get_char();
   411  003C5A  EC7A  F018         	call	_get_char	;wreg free
   412  003C5E  6E53               	movwf	main@value,c
   413                           
   414                           ;Android_Cautery.c: 103: value = value - 48;
   415  003C60  5053               	movf	main@value,w,c
   416  003C62  0FD0               	addlw	208
   417  003C64  6E53               	movwf	main@value,c
   418                           
   419                           ;Android_Cautery.c: 104: if(value >= 0 && value <= 9)
   420  003C66  0E0A               	movlw	10
   421  003C68  5C53               	subwf	main@value,w,c
   422  003C6A  B0D8               	btfsc	status,0,c
   423  003C6C  D011               	goto	l1437
   424                           
   425                           ;Android_Cautery.c: 105: {
   426                           ;Android_Cautery.c: 107: addition = value * multiplier;
   427  003C6E  5053               	movf	main@value,w,c
   428  003C70  0251               	mulwf	main@multiplier,c
   429  003C72  CFF3 F04D          	movff	prodl,main@addition
   430  003C76  CFF4 F04E          	movff	prodh,main@addition+1
   431                           
   432                           ;Android_Cautery.c: 108: Cut_Power = Cut_Power + addition;
   433  003C7A  504D               	movf	main@addition,w,c
   434  003C7C  2458               	addwf	_Cut_Power,w,c
   435  003C7E  6E58               	movwf	_Cut_Power,c
   436  003C80  504E               	movf	main@addition+1,w,c
   437  003C82  2059               	addwfc	_Cut_Power+1,w,c
   438  003C84  6E59               	movwf	_Cut_Power+1,c
   439                           
   440                           ;Android_Cautery.c: 109: multiplier = multiplier * 10;
   441  003C86  5051               	movf	main@multiplier,w,c
   442  003C88  0D0A               	mullw	10
   443  003C8A  CFF3 F051          	movff	prodl,main@multiplier
   444                           
   445                           ;Android_Cautery.c: 110: }
   446  003C8E  D002               	goto	l1439
   447  003C90                     l1437:
   448                           
   449                           ;Android_Cautery.c: 111: else
   450                           ;Android_Cautery.c: 112: data_flag = 1;
   451  003C90  0E01               	movlw	1
   452  003C92  6E50               	movwf	main@data_flag,c
   453  003C94                     l1439:
   454  003C94  2A52               	incf	main@count,f,c
   455  003C96                     L2:
   456  003C96  0E02               	movlw	2
   457  003C98  6452               	cpfsgt	main@count,c
   458  003C9A  D7D9               	goto	l1423
   459                           
   460                           ;Android_Cautery.c: 113: }
   461                           ;Android_Cautery.c: 115: Cut_Mode = get_char();
   462  003C9C  EC7A  F018         	call	_get_char	;wreg free
   463  003CA0  6E5E               	movwf	_Cut_Mode,c
   464                           
   465                           ;Android_Cautery.c: 116: if(Cut_Mode != 'X')
   466  003CA2  505E               	movf	_Cut_Mode,w,c
   467  003CA4  0A58               	xorlw	88
   468  003CA6  B4D8               	btfsc	status,2,c
   469  003CA8  D004               	goto	l1449
   470                           
   471                           ;Android_Cautery.c: 117: Cut_Mode = Cut_Mode - 48;
   472  003CAA  505E               	movf	_Cut_Mode,w,c
   473  003CAC  0FD0               	addlw	208
   474  003CAE  6E5E               	movwf	_Cut_Mode,c
   475  003CB0  D002               	goto	l1451
   476  003CB2                     l1449:
   477                           
   478                           ;Android_Cautery.c: 118: else
   479                           ;Android_Cautery.c: 119: data_flag = 1;
   480  003CB2  0E01               	movlw	1
   481  003CB4  6E50               	movwf	main@data_flag,c
   482  003CB6                     l1451:
   483                           
   484                           ;Android_Cautery.c: 120: if(data_flag == 0)
   485  003CB6  6650               	tstfsz	main@data_flag,c
   486  003CB8  D00D               	goto	l1459
   487                           
   488                           ;Android_Cautery.c: 121: {
   489                           ;Android_Cautery.c: 123: load_Digipot(Cut_Power, 1);
   490  003CBA  C058  F03D         	movff	_Cut_Power,load_Digipot@Power
   491  003CBE  C059  F03E         	movff	_Cut_Power+1,load_Digipot@Power+1
   492  003CC2  0E01               	movlw	1
   493  003CC4  6E3F               	movwf	load_Digipot@Mode,c
   494  003CC6  EC3A  F01B         	call	_load_Digipot	;wreg free
   495                           
   496                           ;Android_Cautery.c: 125: put_char('D');
   497  003CCA  0E44               	movlw	68
   498  003CCC  EC07  F018         	call	_put_char
   499                           
   500                           ;Android_Cautery.c: 127: cut_Operation();
   501  003CD0  ECEB  F018         	call	_cut_Operation	;wreg free
   502  003CD4                     l1459:
   503                           
   504                           ;Android_Cautery.c: 128: }
   505                           ;Android_Cautery.c: 130: init_Values();
   506  003CD4  EC5D  F018         	call	_init_Values	;wreg free
   507                           
   508                           ;Android_Cautery.c: 131: MY_DELAY(50);
   509  003CD8  0E00               	movlw	0
   510  003CDA  6E02               	movwf	MY_DELAY@ms+1,c
   511  003CDC  0E32               	movlw	50
   512  003CDE  6E01               	movwf	MY_DELAY@ms,c
   513  003CE0  EC25  F018         	call	_MY_DELAY	;wreg free
   514                           
   515                           ;Android_Cautery.c: 133: put_char('E');
   516  003CE4  0E45               	movlw	69
   517  003CE6  EC07  F018         	call	_put_char
   518                           
   519                           ;Android_Cautery.c: 134: MY_DELAY(50);
   520  003CEA  0E00               	movlw	0
   521  003CEC  6E02               	movwf	MY_DELAY@ms+1,c
   522  003CEE  0E32               	movlw	50
   523  003CF0  6E01               	movwf	MY_DELAY@ms,c
   524  003CF2  EC25  F018         	call	_MY_DELAY	;wreg free
   525                           
   526                           ;Android_Cautery.c: 135: if(e_enable == 0)
   527  003CF6  664F               	tstfsz	main@e_enable,c
   528  003CF8  D002               	goto	l95
   529                           
   530                           ;Android_Cautery.c: 136: e_enable = 1;
   531  003CFA  0E01               	movlw	1
   532  003CFC  6E4F               	movwf	main@e_enable,c
   533  003CFE                     l95:
   534                           
   535                           ;Android_Cautery.c: 137: milis = 0;
   536  003CFE  0E00               	movlw	0
   537  003D00  6E4B               	movwf	main@milis+1,c
   538  003D02  0E00               	movlw	0
   539  003D04  6E4A               	movwf	main@milis,c
   540  003D06                     l1471:
   541                           
   542                           ;Android_Cautery.c: 139: }
   543                           ;Android_Cautery.c: 140: }
   544                           ;Android_Cautery.c: 141: }
   545                           ;Android_Cautery.c: 143: if(RA1 == 0)
   546  003D06  B280               	btfsc	3968,1,c	;volatile
   547  003D08  D086               	goto	l1553
   548                           
   549                           ;Android_Cautery.c: 144: {
   550                           ;Android_Cautery.c: 145: _delay((unsigned long)((10)*(40000000/4000.0)));
   551  003D0A  0E62               	movlw	98
   552  003D0C  6E48               	movwf	??_main& (0+255),c
   553  003D0E  0E76               	movlw	118
   554  003D10                     u1277:
   555  003D10  2EE8               	decfsz	wreg,f,c
   556  003D12  D7FE               	goto	u1277
   557  003D14  2E48               	decfsz	??_main& (0+255),f,c
   558  003D16  D7FC               	goto	u1277
   559  003D18  D000               	nop2	
   560                           
   561                           ;Android_Cautery.c: 146: if(RA1 == 0)
   562  003D1A  B280               	btfsc	3968,1,c	;volatile
   563  003D1C  D07C               	goto	l1553
   564                           
   565                           ;Android_Cautery.c: 147: {
   566                           ;Android_Cautery.c: 148: if(RA4 == 0)
   567  003D1E  B880               	btfsc	3968,4,c	;volatile
   568  003D20  D00E               	goto	l1487
   569                           
   570                           ;Android_Cautery.c: 149: {
   571                           ;Android_Cautery.c: 150: if(inact_flag == 0)
   572  003D22  664C               	tstfsz	main@inact_flag,c
   573  003D24  D005               	goto	l1485
   574                           
   575                           ;Android_Cautery.c: 151: {
   576                           ;Android_Cautery.c: 152: put_char('I');
   577  003D26  0E49               	movlw	73
   578  003D28  EC07  F018         	call	_put_char
   579                           
   580                           ;Android_Cautery.c: 153: inact_flag = 1;
   581  003D2C  0E01               	movlw	1
   582  003D2E  6E4C               	movwf	main@inact_flag,c
   583  003D30                     l1485:
   584                           
   585                           ;Android_Cautery.c: 154: }
   586                           ;Android_Cautery.c: 155: MY_DELAY(500);
   587  003D30  0E01               	movlw	1
   588  003D32  6E02               	movwf	MY_DELAY@ms+1,c
   589  003D34  0EF4               	movlw	244
   590  003D36  6E01               	movwf	MY_DELAY@ms,c
   591  003D38  EC25  F018         	call	_MY_DELAY	;wreg free
   592                           
   593                           ;Android_Cautery.c: 156: }
   594  003D3C  D06C               	goto	l1553
   595  003D3E                     l1487:
   596                           
   597                           ;Android_Cautery.c: 157: else
   598                           ;Android_Cautery.c: 158: {
   599                           ;Android_Cautery.c: 159: data_flag = 0;
   600  003D3E  0E00               	movlw	0
   601  003D40  6E50               	movwf	main@data_flag,c
   602                           
   603                           ;Android_Cautery.c: 161: put_char('B');
   604  003D42  0E42               	movlw	66
   605  003D44  EC07  F018         	call	_put_char
   606                           
   607                           ;Android_Cautery.c: 162: multiplier = 1;
   608  003D48  0E01               	movlw	1
   609  003D4A  6E51               	movwf	main@multiplier,c
   610                           
   611                           ;Android_Cautery.c: 164: for(count = 0; count < 3; count++)
   612  003D4C  0E00               	movlw	0
   613  003D4E  6E52               	movwf	main@count,c
   614  003D50  D024               	goto	L3
   615  003D52                     l1499:
   616                           
   617                           ;Android_Cautery.c: 165: {
   618                           ;Android_Cautery.c: 166: value = 0;
   619  003D52  0E00               	movlw	0
   620  003D54  6E53               	movwf	main@value,c
   621                           
   622                           ;Android_Cautery.c: 167: addition = 0;
   623  003D56  0E00               	movlw	0
   624  003D58  6E4E               	movwf	main@addition+1,c
   625  003D5A  0E00               	movlw	0
   626  003D5C  6E4D               	movwf	main@addition,c
   627                           
   628                           ;Android_Cautery.c: 168: value = get_char();
   629  003D5E  EC7A  F018         	call	_get_char	;wreg free
   630  003D62  6E53               	movwf	main@value,c
   631                           
   632                           ;Android_Cautery.c: 169: value = value - 48;
   633  003D64  5053               	movf	main@value,w,c
   634  003D66  0FD0               	addlw	208
   635  003D68  6E53               	movwf	main@value,c
   636                           
   637                           ;Android_Cautery.c: 170: if(value >= 0 && value <= 9)
   638  003D6A  0E0A               	movlw	10
   639  003D6C  5C53               	subwf	main@value,w,c
   640  003D6E  B0D8               	btfsc	status,0,c
   641  003D70  D011               	goto	l1513
   642                           
   643                           ;Android_Cautery.c: 171: {
   644                           ;Android_Cautery.c: 173: addition = value * multiplier;
   645  003D72  5053               	movf	main@value,w,c
   646  003D74  0251               	mulwf	main@multiplier,c
   647  003D76  CFF3 F04D          	movff	prodl,main@addition
   648  003D7A  CFF4 F04E          	movff	prodh,main@addition+1
   649                           
   650                           ;Android_Cautery.c: 174: Coag_Power = Coag_Power + addition;
   651  003D7E  504D               	movf	main@addition,w,c
   652  003D80  2456               	addwf	_Coag_Power,w,c
   653  003D82  6E56               	movwf	_Coag_Power,c
   654  003D84  504E               	movf	main@addition+1,w,c
   655  003D86  2057               	addwfc	_Coag_Power+1,w,c
   656  003D88  6E57               	movwf	_Coag_Power+1,c
   657                           
   658                           ;Android_Cautery.c: 175: multiplier = multiplier * 10;
   659  003D8A  5051               	movf	main@multiplier,w,c
   660  003D8C  0D0A               	mullw	10
   661  003D8E  CFF3 F051          	movff	prodl,main@multiplier
   662                           
   663                           ;Android_Cautery.c: 176: }
   664  003D92  D002               	goto	l1515
   665  003D94                     l1513:
   666                           
   667                           ;Android_Cautery.c: 177: else
   668                           ;Android_Cautery.c: 178: data_flag = 1;
   669  003D94  0E01               	movlw	1
   670  003D96  6E50               	movwf	main@data_flag,c
   671  003D98                     l1515:
   672  003D98  2A52               	incf	main@count,f,c
   673  003D9A                     L3:
   674  003D9A  0E02               	movlw	2
   675  003D9C  6452               	cpfsgt	main@count,c
   676  003D9E  D7D9               	goto	l1499
   677                           
   678                           ;Android_Cautery.c: 179: }
   679                           ;Android_Cautery.c: 181: Coag_Mode = get_char();
   680  003DA0  EC7A  F018         	call	_get_char	;wreg free
   681  003DA4  6E5D               	movwf	_Coag_Mode,c
   682                           
   683                           ;Android_Cautery.c: 182: if(Coag_Mode != 'X')
   684  003DA6  505D               	movf	_Coag_Mode,w,c
   685  003DA8  0A58               	xorlw	88
   686  003DAA  B4D8               	btfsc	status,2,c
   687  003DAC  D004               	goto	l1525
   688                           
   689                           ;Android_Cautery.c: 183: Coag_Mode = Coag_Mode - 48;
   690  003DAE  505D               	movf	_Coag_Mode,w,c
   691  003DB0  0FD0               	addlw	208
   692  003DB2  6E5D               	movwf	_Coag_Mode,c
   693  003DB4  D002               	goto	l1527
   694  003DB6                     l1525:
   695                           
   696                           ;Android_Cautery.c: 184: else
   697                           ;Android_Cautery.c: 185: data_flag = 1;
   698  003DB6  0E01               	movlw	1
   699  003DB8  6E50               	movwf	main@data_flag,c
   700  003DBA                     l1527:
   701                           
   702                           ;Android_Cautery.c: 186: if(data_flag == 0)
   703  003DBA  6650               	tstfsz	main@data_flag,c
   704  003DBC  D012               	goto	l1539
   705                           
   706                           ;Android_Cautery.c: 187: {
   707                           ;Android_Cautery.c: 189: load_Digipot(Coag_Power, 2);
   708  003DBE  C056  F03D         	movff	_Coag_Power,load_Digipot@Power
   709  003DC2  C057  F03E         	movff	_Coag_Power+1,load_Digipot@Power+1
   710  003DC6  0E02               	movlw	2
   711  003DC8  6E3F               	movwf	load_Digipot@Mode,c
   712  003DCA  EC3A  F01B         	call	_load_Digipot	;wreg free
   713                           
   714                           ;Android_Cautery.c: 191: put_char('D');
   715  003DCE  0E44               	movlw	68
   716  003DD0  EC07  F018         	call	_put_char
   717                           
   718                           ;Android_Cautery.c: 193: RB6 = 1;
   719  003DD4  8C81               	bsf	3969,6,c	;volatile
   720                           
   721                           ;Android_Cautery.c: 194: _delay(25);
   722  003DD6  0E05               	movlw	5
   723  003DD8                     u1287:
   724  003DD8  F000               	nop	
   725  003DDA  2EE8               	decfsz	wreg,f,c
   726  003DDC  D7FD               	goto	u1287
   727                           
   728                           ;Android_Cautery.c: 195: coag_Operation();
   729  003DDE  ECFC  F019         	call	_coag_Operation	;wreg free
   730  003DE2                     l1539:
   731                           
   732                           ;Android_Cautery.c: 196: }
   733                           ;Android_Cautery.c: 198: init_Values();
   734  003DE2  EC5D  F018         	call	_init_Values	;wreg free
   735                           
   736                           ;Android_Cautery.c: 200: RB6 = 0;
   737  003DE6  9C81               	bcf	3969,6,c	;volatile
   738                           
   739                           ;Android_Cautery.c: 201: MY_DELAY(50);
   740  003DE8  0E00               	movlw	0
   741  003DEA  6E02               	movwf	MY_DELAY@ms+1,c
   742  003DEC  0E32               	movlw	50
   743  003DEE  6E01               	movwf	MY_DELAY@ms,c
   744  003DF0  EC25  F018         	call	_MY_DELAY	;wreg free
   745                           
   746                           ;Android_Cautery.c: 203: put_char('E');
   747  003DF4  0E45               	movlw	69
   748  003DF6  EC07  F018         	call	_put_char
   749                           
   750                           ;Android_Cautery.c: 204: MY_DELAY(50);
   751  003DFA  0E00               	movlw	0
   752  003DFC  6E02               	movwf	MY_DELAY@ms+1,c
   753  003DFE  0E32               	movlw	50
   754  003E00  6E01               	movwf	MY_DELAY@ms,c
   755  003E02  EC25  F018         	call	_MY_DELAY	;wreg free
   756                           
   757                           ;Android_Cautery.c: 205: if(e_enable == 0)
   758  003E06  664F               	tstfsz	main@e_enable,c
   759  003E08  D002               	goto	l108
   760                           
   761                           ;Android_Cautery.c: 206: e_enable = 1;
   762  003E0A  0E01               	movlw	1
   763  003E0C  6E4F               	movwf	main@e_enable,c
   764  003E0E                     l108:
   765                           
   766                           ;Android_Cautery.c: 207: milis = 0;
   767  003E0E  0E00               	movlw	0
   768  003E10  6E4B               	movwf	main@milis+1,c
   769  003E12  0E00               	movlw	0
   770  003E14  6E4A               	movwf	main@milis,c
   771  003E16                     l1553:
   772                           
   773                           ;Android_Cautery.c: 209: }
   774                           ;Android_Cautery.c: 210: }
   775                           ;Android_Cautery.c: 211: }
   776                           ;Android_Cautery.c: 213: if(RA2 == 0)
   777  003E16  B480               	btfsc	3968,2,c	;volatile
   778  003E18  D07C               	goto	l1627
   779                           
   780                           ;Android_Cautery.c: 214: {
   781                           ;Android_Cautery.c: 215: _delay((unsigned long)((10)*(40000000/4000.0)));
   782  003E1A  0E62               	movlw	98
   783  003E1C  6E48               	movwf	??_main& (0+255),c
   784  003E1E  0E76               	movlw	118
   785  003E20                     u1297:
   786  003E20  2EE8               	decfsz	wreg,f,c
   787  003E22  D7FE               	goto	u1297
   788  003E24  2E48               	decfsz	??_main& (0+255),f,c
   789  003E26  D7FC               	goto	u1297
   790  003E28  D000               	nop2	
   791                           
   792                           ;Android_Cautery.c: 216: if(RA2 == 0)
   793  003E2A  B480               	btfsc	3968,2,c	;volatile
   794  003E2C  D072               	goto	l1627
   795                           
   796                           ;Android_Cautery.c: 217: {
   797                           ;Android_Cautery.c: 218: data_flag = 0;
   798  003E2E  0E00               	movlw	0
   799  003E30  6E50               	movwf	main@data_flag,c
   800                           
   801                           ;Android_Cautery.c: 220: put_char('C');
   802  003E32  0E43               	movlw	67
   803  003E34  EC07  F018         	call	_put_char
   804                           
   805                           ;Android_Cautery.c: 221: multiplier = 1;
   806  003E38  0E01               	movlw	1
   807  003E3A  6E51               	movwf	main@multiplier,c
   808                           
   809                           ;Android_Cautery.c: 223: for(count = 0; count < 3; count++)
   810  003E3C  0E00               	movlw	0
   811  003E3E  6E52               	movwf	main@count,c
   812  003E40  D024               	goto	L4
   813  003E42                     l1571:
   814                           
   815                           ;Android_Cautery.c: 224: {
   816                           ;Android_Cautery.c: 225: value = 0;
   817  003E42  0E00               	movlw	0
   818  003E44  6E53               	movwf	main@value,c
   819                           
   820                           ;Android_Cautery.c: 226: addition = 0;
   821  003E46  0E00               	movlw	0
   822  003E48  6E4E               	movwf	main@addition+1,c
   823  003E4A  0E00               	movlw	0
   824  003E4C  6E4D               	movwf	main@addition,c
   825                           
   826                           ;Android_Cautery.c: 227: value = get_char();
   827  003E4E  EC7A  F018         	call	_get_char	;wreg free
   828  003E52  6E53               	movwf	main@value,c
   829                           
   830                           ;Android_Cautery.c: 228: value = value - 48;
   831  003E54  5053               	movf	main@value,w,c
   832  003E56  0FD0               	addlw	208
   833  003E58  6E53               	movwf	main@value,c
   834                           
   835                           ;Android_Cautery.c: 229: if(value >= 0 && value <= 9)
   836  003E5A  0E0A               	movlw	10
   837  003E5C  5C53               	subwf	main@value,w,c
   838  003E5E  B0D8               	btfsc	status,0,c
   839  003E60  D011               	goto	l1585
   840                           
   841                           ;Android_Cautery.c: 230: {
   842                           ;Android_Cautery.c: 232: addition = value * multiplier;
   843  003E62  5053               	movf	main@value,w,c
   844  003E64  0251               	mulwf	main@multiplier,c
   845  003E66  CFF3 F04D          	movff	prodl,main@addition
   846  003E6A  CFF4 F04E          	movff	prodh,main@addition+1
   847                           
   848                           ;Android_Cautery.c: 233: Bi_Power = Bi_Power + addition;
   849  003E6E  504D               	movf	main@addition,w,c
   850  003E70  2454               	addwf	_Bi_Power,w,c
   851  003E72  6E54               	movwf	_Bi_Power,c
   852  003E74  504E               	movf	main@addition+1,w,c
   853  003E76  2055               	addwfc	_Bi_Power+1,w,c
   854  003E78  6E55               	movwf	_Bi_Power+1,c
   855                           
   856                           ;Android_Cautery.c: 234: multiplier = multiplier * 10;
   857  003E7A  5051               	movf	main@multiplier,w,c
   858  003E7C  0D0A               	mullw	10
   859  003E7E  CFF3 F051          	movff	prodl,main@multiplier
   860                           
   861                           ;Android_Cautery.c: 235: }
   862  003E82  D002               	goto	l1587
   863  003E84                     l1585:
   864                           
   865                           ;Android_Cautery.c: 236: else
   866                           ;Android_Cautery.c: 237: data_flag = 1;
   867  003E84  0E01               	movlw	1
   868  003E86  6E50               	movwf	main@data_flag,c
   869  003E88                     l1587:
   870  003E88  2A52               	incf	main@count,f,c
   871  003E8A                     L4:
   872  003E8A  0E02               	movlw	2
   873  003E8C  6452               	cpfsgt	main@count,c
   874  003E8E  D7D9               	goto	l1571
   875                           
   876                           ;Android_Cautery.c: 238: }
   877                           ;Android_Cautery.c: 240: Bi_Mode = get_char();
   878  003E90  EC7A  F018         	call	_get_char	;wreg free
   879  003E94  6E5C               	movwf	_Bi_Mode,c
   880                           
   881                           ;Android_Cautery.c: 241: if(Bi_Mode != 'X')
   882  003E96  505C               	movf	_Bi_Mode,w,c
   883  003E98  0A58               	xorlw	88
   884  003E9A  B4D8               	btfsc	status,2,c
   885  003E9C  D00A               	goto	l1599
   886                           
   887                           ;Android_Cautery.c: 242: {
   888                           ;Android_Cautery.c: 243: Bi_Mode = Bi_Mode - 48;
   889  003E9E  505C               	movf	_Bi_Mode,w,c
   890  003EA0  0FD0               	addlw	208
   891  003EA2  6E5C               	movwf	_Bi_Mode,c
   892                           
   893                           ;Android_Cautery.c: 244: if(Bi_Mode == 2)
   894  003EA4  505C               	movf	_Bi_Mode,w,c
   895  003EA6  0A02               	xorlw	2
   896  003EA8  A4D8               	btfss	status,2,c
   897  003EAA  D005               	goto	l1601
   898                           
   899                           ;Android_Cautery.c: 245: Bi_Mode = 0;
   900  003EAC  0E00               	movlw	0
   901  003EAE  6E5C               	movwf	_Bi_Mode,c
   902  003EB0  D002               	goto	l1601
   903  003EB2                     l1599:
   904                           
   905                           ;Android_Cautery.c: 247: else
   906                           ;Android_Cautery.c: 248: data_flag = 1;
   907  003EB2  0E01               	movlw	1
   908  003EB4  6E50               	movwf	main@data_flag,c
   909  003EB6                     l1601:
   910                           
   911                           ;Android_Cautery.c: 249: if(data_flag == 0)
   912  003EB6  6650               	tstfsz	main@data_flag,c
   913  003EB8  D012               	goto	l1613
   914                           
   915                           ;Android_Cautery.c: 250: {
   916                           ;Android_Cautery.c: 252: load_Digipot(Bi_Power, 3);
   917  003EBA  C054  F03D         	movff	_Bi_Power,load_Digipot@Power
   918  003EBE  C055  F03E         	movff	_Bi_Power+1,load_Digipot@Power+1
   919  003EC2  0E03               	movlw	3
   920  003EC4  6E3F               	movwf	load_Digipot@Mode,c
   921  003EC6  EC3A  F01B         	call	_load_Digipot	;wreg free
   922                           
   923                           ;Android_Cautery.c: 254: put_char('D');
   924  003ECA  0E44               	movlw	68
   925  003ECC  EC07  F018         	call	_put_char
   926                           
   927                           ;Android_Cautery.c: 256: RB5 = 1;
   928  003ED0  8A81               	bsf	3969,5,c	;volatile
   929                           
   930                           ;Android_Cautery.c: 257: _delay(25);
   931  003ED2  0E05               	movlw	5
   932  003ED4                     u1307:
   933  003ED4  F000               	nop	
   934  003ED6  2EE8               	decfsz	wreg,f,c
   935  003ED8  D7FD               	goto	u1307
   936                           
   937                           ;Android_Cautery.c: 258: bi_Operation();
   938  003EDA  ECC3  F018         	call	_bi_Operation	;wreg free
   939  003EDE                     l1613:
   940                           
   941                           ;Android_Cautery.c: 259: }
   942                           ;Android_Cautery.c: 261: init_Values();
   943  003EDE  EC5D  F018         	call	_init_Values	;wreg free
   944                           
   945                           ;Android_Cautery.c: 263: RB5 = 0;
   946  003EE2  9A81               	bcf	3969,5,c	;volatile
   947                           
   948                           ;Android_Cautery.c: 264: MY_DELAY(50);
   949  003EE4  0E00               	movlw	0
   950  003EE6  6E02               	movwf	MY_DELAY@ms+1,c
   951  003EE8  0E32               	movlw	50
   952  003EEA  6E01               	movwf	MY_DELAY@ms,c
   953  003EEC  EC25  F018         	call	_MY_DELAY	;wreg free
   954                           
   955                           ;Android_Cautery.c: 266: put_char('E');
   956  003EF0  0E45               	movlw	69
   957  003EF2  EC07  F018         	call	_put_char
   958                           
   959                           ;Android_Cautery.c: 267: MY_DELAY(50);
   960  003EF6  0E00               	movlw	0
   961  003EF8  6E02               	movwf	MY_DELAY@ms+1,c
   962  003EFA  0E32               	movlw	50
   963  003EFC  6E01               	movwf	MY_DELAY@ms,c
   964  003EFE  EC25  F018         	call	_MY_DELAY	;wreg free
   965                           
   966                           ;Android_Cautery.c: 268: if(e_enable == 0)
   967  003F02  664F               	tstfsz	main@e_enable,c
   968  003F04  D002               	goto	l119
   969                           
   970                           ;Android_Cautery.c: 269: e_enable = 1;
   971  003F06  0E01               	movlw	1
   972  003F08  6E4F               	movwf	main@e_enable,c
   973  003F0A                     l119:
   974                           
   975                           ;Android_Cautery.c: 270: milis = 0;
   976  003F0A  0E00               	movlw	0
   977  003F0C  6E4B               	movwf	main@milis+1,c
   978  003F0E  0E00               	movlw	0
   979  003F10  6E4A               	movwf	main@milis,c
   980  003F12                     l1627:
   981                           
   982                           ;Android_Cautery.c: 272: }
   983                           ;Android_Cautery.c: 273: }
   984                           ;Android_Cautery.c: 275: if(RA3 == 0)
   985  003F12  B680               	btfsc	3968,3,c	;volatile
   986  003F14  D63E               	goto	l1363
   987                           
   988                           ;Android_Cautery.c: 276: {
   989                           ;Android_Cautery.c: 277: _delay((unsigned long)((10)*(40000000/4000.0)));
   990  003F16  0E62               	movlw	98
   991  003F18  6E48               	movwf	??_main& (0+255),c
   992  003F1A  0E76               	movlw	118
   993  003F1C                     u1317:
   994  003F1C  2EE8               	decfsz	wreg,f,c
   995  003F1E  D7FE               	goto	u1317
   996  003F20  2E48               	decfsz	??_main& (0+255),f,c
   997  003F22  D7FC               	goto	u1317
   998  003F24  D000               	nop2	
   999                           
  1000                           ;Android_Cautery.c: 278: if(RA3 == 0)
  1001  003F26  B680               	btfsc	3968,3,c	;volatile
  1002  003F28  D634               	goto	l1363
  1003                           
  1004                           ;Android_Cautery.c: 279: {
  1005                           ;Android_Cautery.c: 280: data_flag = 0;
  1006  003F2A  0E00               	movlw	0
  1007  003F2C  6E50               	movwf	main@data_flag,c
  1008                           
  1009                           ;Android_Cautery.c: 282: put_char('L');
  1010  003F2E  0E4C               	movlw	76
  1011  003F30  EC07  F018         	call	_put_char
  1012                           
  1013                           ;Android_Cautery.c: 283: multiplier = 1;
  1014  003F34  0E01               	movlw	1
  1015  003F36  6E51               	movwf	main@multiplier,c
  1016                           
  1017                           ;Android_Cautery.c: 285: for(count = 0; count < 3; count++)
  1018  003F38  0E00               	movlw	0
  1019  003F3A  6E52               	movwf	main@count,c
  1020  003F3C  D024               	goto	L5
  1021  003F3E                     l1645:
  1022                           
  1023                           ;Android_Cautery.c: 286: {
  1024                           ;Android_Cautery.c: 287: value = 0;
  1025  003F3E  0E00               	movlw	0
  1026  003F40  6E53               	movwf	main@value,c
  1027                           
  1028                           ;Android_Cautery.c: 288: addition = 0;
  1029  003F42  0E00               	movlw	0
  1030  003F44  6E4E               	movwf	main@addition+1,c
  1031  003F46  0E00               	movlw	0
  1032  003F48  6E4D               	movwf	main@addition,c
  1033                           
  1034                           ;Android_Cautery.c: 289: value = get_char();
  1035  003F4A  EC7A  F018         	call	_get_char	;wreg free
  1036  003F4E  6E53               	movwf	main@value,c
  1037                           
  1038                           ;Android_Cautery.c: 290: value = value - 48;
  1039  003F50  5053               	movf	main@value,w,c
  1040  003F52  0FD0               	addlw	208
  1041  003F54  6E53               	movwf	main@value,c
  1042                           
  1043                           ;Android_Cautery.c: 291: if(value >= 0 && value <= 9)
  1044  003F56  0E0A               	movlw	10
  1045  003F58  5C53               	subwf	main@value,w,c
  1046  003F5A  B0D8               	btfsc	status,0,c
  1047  003F5C  D011               	goto	l1659
  1048                           
  1049                           ;Android_Cautery.c: 292: {
  1050                           ;Android_Cautery.c: 294: addition = value * multiplier;
  1051  003F5E  5053               	movf	main@value,w,c
  1052  003F60  0251               	mulwf	main@multiplier,c
  1053  003F62  CFF3 F04D          	movff	prodl,main@addition
  1054  003F66  CFF4 F04E          	movff	prodh,main@addition+1
  1055                           
  1056                           ;Android_Cautery.c: 295: Bi_Power = Bi_Power + addition;
  1057  003F6A  504D               	movf	main@addition,w,c
  1058  003F6C  2454               	addwf	_Bi_Power,w,c
  1059  003F6E  6E54               	movwf	_Bi_Power,c
  1060  003F70  504E               	movf	main@addition+1,w,c
  1061  003F72  2055               	addwfc	_Bi_Power+1,w,c
  1062  003F74  6E55               	movwf	_Bi_Power+1,c
  1063                           
  1064                           ;Android_Cautery.c: 296: multiplier = multiplier * 10;
  1065  003F76  5051               	movf	main@multiplier,w,c
  1066  003F78  0D0A               	mullw	10
  1067  003F7A  CFF3 F051          	movff	prodl,main@multiplier
  1068                           
  1069                           ;Android_Cautery.c: 297: }
  1070  003F7E  D002               	goto	l1661
  1071  003F80                     l1659:
  1072                           
  1073                           ;Android_Cautery.c: 298: else
  1074                           ;Android_Cautery.c: 299: data_flag = 1;
  1075  003F80  0E01               	movlw	1
  1076  003F82  6E50               	movwf	main@data_flag,c
  1077  003F84                     l1661:
  1078  003F84  2A52               	incf	main@count,f,c
  1079  003F86                     L5:
  1080  003F86  0E02               	movlw	2
  1081  003F88  6452               	cpfsgt	main@count,c
  1082  003F8A  D7D9               	goto	l1645
  1083                           
  1084                           ;Android_Cautery.c: 300: }
  1085                           ;Android_Cautery.c: 302: Bi_Mode = get_char();
  1086  003F8C  EC7A  F018         	call	_get_char	;wreg free
  1087  003F90  6E5C               	movwf	_Bi_Mode,c
  1088                           
  1089                           ;Android_Cautery.c: 303: Bi_Mode = 2;
  1090  003F92  0E02               	movlw	2
  1091  003F94  6E5C               	movwf	_Bi_Mode,c
  1092                           
  1093                           ;Android_Cautery.c: 304: if(data_flag == 0)
  1094  003F96  6650               	tstfsz	main@data_flag,c
  1095  003F98  D018               	goto	l1683
  1096                           
  1097                           ;Android_Cautery.c: 305: {
  1098                           ;Android_Cautery.c: 307: load_Digipot(Bi_Power, 4);
  1099  003F9A  C054  F03D         	movff	_Bi_Power,load_Digipot@Power
  1100  003F9E  C055  F03E         	movff	_Bi_Power+1,load_Digipot@Power+1
  1101  003FA2  0E04               	movlw	4
  1102  003FA4  6E3F               	movwf	load_Digipot@Mode,c
  1103  003FA6  EC3A  F01B         	call	_load_Digipot	;wreg free
  1104                           
  1105                           ;Android_Cautery.c: 309: put_char('D');
  1106  003FAA  0E44               	movlw	68
  1107  003FAC  EC07  F018         	call	_put_char
  1108                           
  1109                           ;Android_Cautery.c: 311: RB5 = 1;
  1110  003FB0  8A81               	bsf	3969,5,c	;volatile
  1111                           
  1112                           ;Android_Cautery.c: 312: _delay(25);
  1113  003FB2  0E05               	movlw	5
  1114  003FB4                     u1327:
  1115  003FB4  F000               	nop	
  1116  003FB6  2EE8               	decfsz	wreg,f,c
  1117  003FB8  D7FD               	goto	u1327
  1118                           
  1119                           ;Android_Cautery.c: 313: liga_Operation();
  1120  003FBA  EC21  F019         	call	_liga_Operation	;wreg free
  1121                           
  1122                           ;Android_Cautery.c: 314: MY_DELAY(50);
  1123  003FBE  0E00               	movlw	0
  1124  003FC0  6E02               	movwf	MY_DELAY@ms+1,c
  1125  003FC2  0E32               	movlw	50
  1126  003FC4  6E01               	movwf	MY_DELAY@ms,c
  1127  003FC6  EC25  F018         	call	_MY_DELAY	;wreg free
  1128  003FCA                     l1683:
  1129                           
  1130                           ;Android_Cautery.c: 315: }
  1131                           ;Android_Cautery.c: 317: init_Values();
  1132  003FCA  EC5D  F018         	call	_init_Values	;wreg free
  1133                           
  1134                           ;Android_Cautery.c: 319: RB5 = 0;
  1135  003FCE  9A81               	bcf	3969,5,c	;volatile
  1136                           
  1137                           ;Android_Cautery.c: 320: MY_DELAY(50);
  1138  003FD0  0E00               	movlw	0
  1139  003FD2  6E02               	movwf	MY_DELAY@ms+1,c
  1140  003FD4  0E32               	movlw	50
  1141  003FD6  6E01               	movwf	MY_DELAY@ms,c
  1142  003FD8  EC25  F018         	call	_MY_DELAY	;wreg free
  1143                           
  1144                           ;Android_Cautery.c: 322: put_char('E');
  1145  003FDC  0E45               	movlw	69
  1146  003FDE  EC07  F018         	call	_put_char
  1147                           
  1148                           ;Android_Cautery.c: 323: MY_DELAY(50);
  1149  003FE2  0E00               	movlw	0
  1150  003FE4  6E02               	movwf	MY_DELAY@ms+1,c
  1151  003FE6  0E32               	movlw	50
  1152  003FE8  6E01               	movwf	MY_DELAY@ms,c
  1153  003FEA  EC25  F018         	call	_MY_DELAY	;wreg free
  1154                           
  1155                           ;Android_Cautery.c: 324: if(e_enable == 0)
  1156  003FEE  664F               	tstfsz	main@e_enable,c
  1157  003FF0  D002               	goto	l127
  1158                           
  1159                           ;Android_Cautery.c: 325: e_enable = 1;
  1160  003FF2  0E01               	movlw	1
  1161  003FF4  6E4F               	movwf	main@e_enable,c
  1162  003FF6                     l127:
  1163                           
  1164                           ;Android_Cautery.c: 326: milis = 0;
  1165  003FF6  0E00               	movlw	0
  1166  003FF8  6E4B               	movwf	main@milis+1,c
  1167  003FFA  0E00               	movlw	0
  1168  003FFC  6E4A               	movwf	main@milis,c
  1169  003FFE  D5C9               	goto	l1363
  1170  004000                     __end_of_main:
  1171                           	opt stack 0
  1172                           prodh	equ	0xFF4
  1173                           prodl	equ	0xFF3
  1174                           wreg	equ	0xFE8
  1175                           status	equ	0xFD8
  1176                           
  1177                           	psect	cinit
  1178  00301E                     __pcinit:
  1179                           	opt stack 0
  1180  00301E                     start_initialization:
  1181                           	opt stack 0
  1182  00301E                     __initialization:
  1183                           	opt stack 0
  1184                           
  1185                           ; Clear objects allocated to COMRAM (12 bytes)
  1186  00301E  EE00  F054         	lfsr	0,__pbssCOMRAM
  1187  003022  0E0C               	movlw	12
  1188  003024                     clear_0:
  1189  003024  6AEE               	clrf	postinc0,c
  1190  003026  06E8               	decf	wreg,f,c
  1191  003028  E1FD               	bnz	clear_0
  1192  00302A                     end_of_initialization:
  1193                           	opt stack 0
  1194  00302A                     __end_of__initialization:
  1195                           	opt stack 0
  1196  00302A  0100               	movlb	0
  1197  00302C  EF8C  F01D         	goto	_main	;jump to C main() function
  1198                           prodh	equ	0xFF4
  1199                           prodl	equ	0xFF3
  1200                           postinc0	equ	0xFEE
  1201                           wreg	equ	0xFE8
  1202                           status	equ	0xFD8
  1203                           
  1204                           	psect	bssCOMRAM
  1205  000054                     __pbssCOMRAM:
  1206                           	opt stack 0
  1207  000054                     _Bi_Power:
  1208                           	opt stack 0
  1209  000054                     	ds	2
  1210  000056                     _Coag_Power:
  1211                           	opt stack 0
  1212  000056                     	ds	2
  1213  000058                     _Cut_Power:
  1214                           	opt stack 0
  1215  000058                     	ds	2
  1216  00005A                     _errno:
  1217                           	opt stack 0
  1218  00005A                     	ds	2
  1219  00005C                     _Bi_Mode:
  1220                           	opt stack 0
  1221  00005C                     	ds	1
  1222  00005D                     _Coag_Mode:
  1223                           	opt stack 0
  1224  00005D                     	ds	1
  1225  00005E                     _Cut_Mode:
  1226                           	opt stack 0
  1227  00005E                     	ds	1
  1228  00005F                     _train:
  1229                           	opt stack 0
  1230  00005F                     	ds	1
  1231                           prodh	equ	0xFF4
  1232                           prodl	equ	0xFF3
  1233                           postinc0	equ	0xFEE
  1234                           wreg	equ	0xFE8
  1235                           status	equ	0xFD8
  1236                           
  1237                           	psect	cstackCOMRAM
  1238  000001                     __pcstackCOMRAM:
  1239                           	opt stack 0
  1240  000001                     ?___ftpack:
  1241                           	opt stack 0
  1242  000001                     put_char@ch:
  1243                           	opt stack 0
  1244  000001                     get_char@data:
  1245                           	opt stack 0
  1246  000001                     MY_DELAY@ms:
  1247                           	opt stack 0
  1248  000001                     ___ftpack@arg:
  1249                           	opt stack 0
  1250  000001                     ___ftge@ff1:
  1251                           	opt stack 0
  1252                           
  1253                           ; 3 bytes @ 0x0
  1254  000001                     	ds	1
  1255  000002                     liga_Operation@dry_fl:
  1256                           	opt stack 0
  1257  000002                     get_char@rx_delay:
  1258                           	opt stack 0
  1259                           
  1260                           ; 2 bytes @ 0x1
  1261  000002                     	ds	1
  1262  000003                     ??_MY_DELAY:
  1263  000003                     liga_Operation@wait:
  1264                           	opt stack 0
  1265                           
  1266                           ; 2 bytes @ 0x2
  1267  000003                     	ds	1
  1268  000004                     ___ftpack@exp:
  1269                           	opt stack 0
  1270  000004                     ___ftge@ff2:
  1271                           	opt stack 0
  1272                           
  1273                           ; 3 bytes @ 0x3
  1274  000004                     	ds	1
  1275  000005                     ___ftpack@sign:
  1276                           	opt stack 0
  1277                           
  1278                           ; 1 bytes @ 0x4
  1279  000005                     	ds	1
  1280  000006                     ??___ftpack:
  1281                           
  1282                           ; 0 bytes @ 0x5
  1283  000006                     	ds	1
  1284  000007                     ??___ftge:
  1285                           
  1286                           ; 0 bytes @ 0x6
  1287  000007                     	ds	2
  1288  000009                     ?___ftadd:
  1289                           	opt stack 0
  1290  000009                     ?___ftmul:
  1291                           	opt stack 0
  1292  000009                     ?___awtoft:
  1293                           	opt stack 0
  1294  000009                     ___awtoft@c:
  1295                           	opt stack 0
  1296  000009                     ___ftadd@f1:
  1297                           	opt stack 0
  1298  000009                     ___ftmul@f1:
  1299                           	opt stack 0
  1300                           
  1301                           ; 3 bytes @ 0x8
  1302  000009                     	ds	3
  1303  00000C                     ___awtoft@sign:
  1304                           	opt stack 0
  1305  00000C                     ___ftadd@f2:
  1306                           	opt stack 0
  1307  00000C                     ___ftmul@f2:
  1308                           	opt stack 0
  1309                           
  1310                           ; 3 bytes @ 0xB
  1311  00000C                     	ds	3
  1312  00000F                     ??___ftadd:
  1313  00000F                     ??___ftmul:
  1314                           
  1315                           ; 0 bytes @ 0xE
  1316  00000F                     	ds	3
  1317  000012                     ___ftadd@sign:
  1318                           	opt stack 0
  1319  000012                     ___ftmul@f3_as_product:
  1320                           	opt stack 0
  1321                           
  1322                           ; 3 bytes @ 0x11
  1323  000012                     	ds	1
  1324  000013                     ___ftadd@exp2:
  1325                           	opt stack 0
  1326                           
  1327                           ; 1 bytes @ 0x12
  1328  000013                     	ds	1
  1329  000014                     ___ftadd@exp1:
  1330                           	opt stack 0
  1331                           
  1332                           ; 1 bytes @ 0x13
  1333  000014                     	ds	1
  1334  000015                     ?___ftsub:
  1335                           	opt stack 0
  1336  000015                     ___ftmul@exp:
  1337                           	opt stack 0
  1338  000015                     ___ftsub@f1:
  1339                           	opt stack 0
  1340                           
  1341                           ; 3 bytes @ 0x14
  1342  000015                     	ds	1
  1343  000016                     ___ftmul@cntr:
  1344                           	opt stack 0
  1345                           
  1346                           ; 1 bytes @ 0x15
  1347  000016                     	ds	1
  1348  000017                     ___ftmul@sign:
  1349                           	opt stack 0
  1350                           
  1351                           ; 1 bytes @ 0x16
  1352  000017                     	ds	1
  1353  000018                     ___ftsub@f2:
  1354                           	opt stack 0
  1355                           
  1356                           ; 3 bytes @ 0x17
  1357  000018                     	ds	3
  1358  00001B                     ?_sqrt:
  1359                           	opt stack 0
  1360  00001B                     sqrt@y:
  1361                           	opt stack 0
  1362                           
  1363                           ; 3 bytes @ 0x1A
  1364  00001B                     	ds	3
  1365  00001E                     ??_sqrt:
  1366                           
  1367                           ; 0 bytes @ 0x1D
  1368  00001E                     	ds	3
  1369  000021                     sqrt@og:
  1370                           	opt stack 0
  1371                           
  1372                           ; 3 bytes @ 0x20
  1373  000021                     	ds	3
  1374  000024                     sqrt@z:
  1375                           	opt stack 0
  1376                           
  1377                           ; 3 bytes @ 0x23
  1378  000024                     	ds	3
  1379  000027                     sqrt@i:
  1380                           	opt stack 0
  1381                           
  1382                           ; 1 bytes @ 0x26
  1383  000027                     	ds	1
  1384  000028                     sqrt@q:
  1385                           	opt stack 0
  1386                           
  1387                           ; 3 bytes @ 0x27
  1388  000028                     	ds	3
  1389  00002B                     sqrt@x:
  1390                           	opt stack 0
  1391                           
  1392                           ; 3 bytes @ 0x2A
  1393  00002B                     	ds	3
  1394  00002E                     ?___fttol:
  1395                           	opt stack 0
  1396  00002E                     ___fttol@f1:
  1397                           	opt stack 0
  1398                           
  1399                           ; 3 bytes @ 0x2D
  1400  00002E                     	ds	4
  1401  000032                     ??___fttol:
  1402                           
  1403                           ; 0 bytes @ 0x31
  1404  000032                     	ds	5
  1405  000037                     ___fttol@sign1:
  1406                           	opt stack 0
  1407                           
  1408                           ; 1 bytes @ 0x36
  1409  000037                     	ds	1
  1410  000038                     ___fttol@lval:
  1411                           	opt stack 0
  1412                           
  1413                           ; 4 bytes @ 0x37
  1414  000038                     	ds	4
  1415  00003C                     ___fttol@exp1:
  1416                           	opt stack 0
  1417                           
  1418                           ; 1 bytes @ 0x3B
  1419  00003C                     	ds	1
  1420  00003D                     load_Digipot@Power:
  1421                           	opt stack 0
  1422                           
  1423                           ; 2 bytes @ 0x3C
  1424  00003D                     	ds	2
  1425  00003F                     load_Digipot@Mode:
  1426                           	opt stack 0
  1427                           
  1428                           ; 1 bytes @ 0x3E
  1429  00003F                     	ds	1
  1430  000040                     ??_load_Digipot:
  1431                           
  1432                           ; 0 bytes @ 0x3F
  1433  000040                     	ds	4
  1434  000044                     load_Digipot@R1:
  1435                           	opt stack 0
  1436                           
  1437                           ; 1 bytes @ 0x43
  1438  000044                     	ds	1
  1439  000045                     load_Digipot@i:
  1440                           	opt stack 0
  1441                           
  1442                           ; 1 bytes @ 0x44
  1443  000045                     	ds	1
  1444  000046                     load_Digipot@j:
  1445                           	opt stack 0
  1446                           
  1447                           ; 1 bytes @ 0x45
  1448  000046                     	ds	1
  1449  000047                     load_Digipot@temp:
  1450                           	opt stack 0
  1451                           
  1452                           ; 1 bytes @ 0x46
  1453  000047                     	ds	1
  1454  000048                     ??_main:
  1455                           
  1456                           ; 0 bytes @ 0x47
  1457  000048                     	ds	1
  1458  000049                     main@communication:
  1459                           	opt stack 0
  1460                           
  1461                           ; 1 bytes @ 0x48
  1462  000049                     	ds	1
  1463  00004A                     main@milis:
  1464                           	opt stack 0
  1465                           
  1466                           ; 2 bytes @ 0x49
  1467  00004A                     	ds	2
  1468  00004C                     main@inact_flag:
  1469                           	opt stack 0
  1470                           
  1471                           ; 1 bytes @ 0x4B
  1472  00004C                     	ds	1
  1473  00004D                     main@addition:
  1474                           	opt stack 0
  1475                           
  1476                           ; 2 bytes @ 0x4C
  1477  00004D                     	ds	2
  1478  00004F                     main@e_enable:
  1479                           	opt stack 0
  1480                           
  1481                           ; 1 bytes @ 0x4E
  1482  00004F                     	ds	1
  1483  000050                     main@data_flag:
  1484                           	opt stack 0
  1485                           
  1486                           ; 1 bytes @ 0x4F
  1487  000050                     	ds	1
  1488  000051                     main@multiplier:
  1489                           	opt stack 0
  1490                           
  1491                           ; 1 bytes @ 0x50
  1492  000051                     	ds	1
  1493  000052                     main@count:
  1494                           	opt stack 0
  1495                           
  1496                           ; 1 bytes @ 0x51
  1497  000052                     	ds	1
  1498  000053                     main@value:
  1499                           	opt stack 0
  1500                           
  1501                           ; 1 bytes @ 0x52
  1502  000053                     	ds	1
  1503                           prodh	equ	0xFF4
  1504                           prodl	equ	0xFF3
  1505                           postinc0	equ	0xFEE
  1506                           wreg	equ	0xFE8
  1507                           status	equ	0xFD8
  1508                           
  1509 ;; *************** function _liga_Operation *****************
  1510 ;; Defined at:
  1511 ;;		line 208 in file "E:\Study Material\XC8 PROJECTS\Android Cautery\cautery.c"
  1512 ;; Parameters:    Size  Location     Type
  1513 ;;		None
  1514 ;; Auto vars:     Size  Location     Type
  1515 ;;  wait            2    2[COMRAM] unsigned int 
  1516 ;;  dry_fl          1    1[COMRAM] unsigned char 
  1517 ;; Return value:  Size  Location     Type
  1518 ;;		None               void
  1519 ;; Registers used:
  1520 ;;		wreg, status,2, status,0, cstack
  1521 ;; Tracked objects:
  1522 ;;		On entry : 0/0
  1523 ;;		On exit  : 0/0
  1524 ;;		Unchanged: 0/0
  1525 ;; Data sizes:     COMRAM   BANK0   BANK1   BANK2   BANK3   BANK4   BANK5
  1526 ;;      Params:         0       0       0       0       0       0       0
  1527 ;;      Locals:         3       0       0       0       0       0       0
  1528 ;;      Temps:          0       0       0       0       0       0       0
  1529 ;;      Totals:         3       0       0       0       0       0       0
  1530 ;;Total ram usage:        3 bytes
  1531 ;; Hardware stack levels used:    1
  1532 ;; Hardware stack levels required when called:    1
  1533 ;; This function calls:
  1534 ;;		_put_char
  1535 ;; This function is called by:
  1536 ;;		_main
  1537 ;; This function uses a non-reentrant model
  1538 ;;
  1539                           
  1540                           	psect	text1
  1541  003242                     __ptext1:
  1542                           	opt stack 0
  1543  003242                     _liga_Operation:
  1544                           	opt stack 29
  1545                           
  1546                           ;incstack = 0
  1547  003242  FFFF               	dw	65535
  1548                           
  1549                           ;cautery.c: 210: char dry_fl = 0;
  1550  003244  0E00               	movlw	0
  1551  003246  6E02               	movwf	liga_Operation@dry_fl,c
  1552                           
  1553                           ;cautery.c: 211: unsigned int wait = 0;
  1554  003248  0E00               	movlw	0
  1555  00324A  6E04               	movwf	liga_Operation@wait+1,c
  1556  00324C  0E00               	movlw	0
  1557  00324E  6E03               	movwf	liga_Operation@wait,c
  1558                           
  1559                           ;cautery.c: 212: while(RA3 == 0)
  1560  003250  D02E               	goto	l1307
  1561  003252                     l248:
  1562                           
  1563                           ;cautery.c: 213: {
  1564                           ;cautery.c: 214: if(dry_fl == 0)
  1565  003252  6602               	tstfsz	liga_Operation@dry_fl,c
  1566  003254  D028               	goto	l1303
  1567  003256  0E05               	movlw	5	;# 
  1568  003258  6F5F               	movwf	_train,b	;# 
  1569  00325A                     loop_5:
  1570                           
  1571                           ;# 
  1572  00325A  8281               	bsf	3969,1,c	;# 
  1573  00325C  F000               	nop		;# 
  1574  00325E  F000               	nop		;# 
  1575  003260  F000               	nop		;# 
  1576  003262  F000               	nop		;# 
  1577  003264  F000               	nop		;# 
  1578  003266  F000               	nop		;# 
  1579  003268  F000               	nop		;# 
  1580  00326A  F000               	nop		;# 
  1581  00326C  F000               	nop		;# 
  1582  00326E  9281               	bcf	3969,1,c	;# 
  1583  003270  F000               	nop		;# 
  1584  003272  F000               	nop		;# 
  1585  003274  F000               	nop		;# 
  1586  003276  F000               	nop		;# 
  1587  003278  F000               	nop		;# 
  1588  00327A  F000               	nop		;# 
  1589  00327C  2F5F               	decfsz	_train,f,b	;# 
  1590  00327E  EF2D  F019         	goto	loop_5	;# 
  1591                           
  1592                           ;cautery.c: 241: wait = wait + 1;
  1593  003282  0E01               	movlw	1
  1594  003284  2403               	addwf	liga_Operation@wait,w,c
  1595  003286  6E03               	movwf	liga_Operation@wait,c
  1596  003288  0E00               	movlw	0
  1597  00328A  2004               	addwfc	liga_Operation@wait+1,w,c
  1598  00328C  6E04               	movwf	liga_Operation@wait+1,c
  1599                           
  1600                           ;cautery.c: 242: if(wait > 50000)
  1601  00328E  0E51               	movlw	81
  1602  003290  5C03               	subwf	liga_Operation@wait,w,c
  1603  003292  0EC3               	movlw	195
  1604  003294  5804               	subwfb	liga_Operation@wait+1,w,c
  1605  003296  B0D8               	btfsc	status,0,c
  1606                           
  1607                           ;cautery.c: 243: {
  1608                           ;cautery.c: 244: if(RA5 == 1)
  1609  003298  AA80               	btfss	3968,5,c	;volatile
  1610  00329A  D005               	goto	l1303
  1611                           
  1612                           ;cautery.c: 245: {
  1613                           ;cautery.c: 246: dry_fl = 1;
  1614  00329C  0E01               	movlw	1
  1615  00329E  6E02               	movwf	liga_Operation@dry_fl,c
  1616                           
  1617                           ;cautery.c: 247: put_char('T');
  1618  0032A0  0E54               	movlw	84
  1619  0032A2  EC07  F018         	call	_put_char
  1620  0032A6                     l1303:
  1621                           
  1622                           ;cautery.c: 248: }
  1623                           ;cautery.c: 249: }
  1624                           ;cautery.c: 250: }
  1625                           ;cautery.c: 251: RB1 = 0;
  1626  0032A6  9281               	bcf	3969,1,c	;volatile
  1627                           
  1628                           ;cautery.c: 252: _delay(600);
  1629  0032A8  0E96               	movlw	150
  1630  0032AA                     u1337:
  1631  0032AA  2EE8               	decfsz	wreg,f,c
  1632  0032AC  D7FE               	goto	u1337
  1633  0032AE                     l1307:
  1634  0032AE  B680               	btfsc	3968,3,c	;volatile
  1635  0032B0  0012               	return	
  1636  0032B2  FFFF               	dw	65535	; assembler added errata NOP
  1637  0032B4  D7CE               	goto	l248
  1638  0032B6  FFFF               	dw	65535	; errata NOP
  1639  0032B8                     __end_of_liga_Operation:
  1640                           	opt stack 0
  1641                           prodh	equ	0xFF4
  1642                           prodl	equ	0xFF3
  1643                           postinc0	equ	0xFEE
  1644                           wreg	equ	0xFE8
  1645                           status	equ	0xFD8
  1646                           
  1647 ;; *************** function _put_char *****************
  1648 ;; Defined at:
  1649 ;;		line 27 in file "E:\Study Material\XC8 PROJECTS\Android Cautery\my_serial.c"
  1650 ;; Parameters:    Size  Location     Type
  1651 ;;  ch              1    wreg     unsigned char 
  1652 ;; Auto vars:     Size  Location     Type
  1653 ;;  ch              1    0[COMRAM] unsigned char 
  1654 ;; Return value:  Size  Location     Type
  1655 ;;		None               void
  1656 ;; Registers used:
  1657 ;;		wreg
  1658 ;; Tracked objects:
  1659 ;;		On entry : 0/0
  1660 ;;		On exit  : 0/0
  1661 ;;		Unchanged: 0/0
  1662 ;; Data sizes:     COMRAM   BANK0   BANK1   BANK2   BANK3   BANK4   BANK5
  1663 ;;      Params:         0       0       0       0       0       0       0
  1664 ;;      Locals:         1       0       0       0       0       0       0
  1665 ;;      Temps:          0       0       0       0       0       0       0
  1666 ;;      Totals:         1       0       0       0       0       0       0
  1667 ;;Total ram usage:        1 bytes
  1668 ;; Hardware stack levels used:    1
  1669 ;; This function calls:
  1670 ;;		Nothing
  1671 ;; This function is called by:
  1672 ;;		_main
  1673 ;;		_liga_Operation
  1674 ;; This function uses a non-reentrant model
  1675 ;;
  1676                           
  1677                           	psect	text2
  1678  00300E                     __ptext2:
  1679                           	opt stack 0
  1680  00300E                     _put_char:
  1681                           	opt stack 30
  1682                           
  1683                           ;incstack = 0
  1684  00300E  FFFF               	dw	65535
  1685                           
  1686                           ;put_char@ch stored from wreg
  1687  003010  6E01               	movwf	put_char@ch,c
  1688  003012                     l160:
  1689  003012  A89E               	btfss	3998,4,c	;volatile
  1690  003014  D7FE               	goto	l160
  1691                           
  1692                           ;my_serial.c: 30: TXREG=ch;
  1693  003016  C001  FFAD         	movff	put_char@ch,4013	;volatile
  1694  00301A  0012               	return	
  1695  00301C  FFFF               	dw	65535	; errata NOP
  1696  00301E                     __end_of_put_char:
  1697                           	opt stack 0
  1698                           prodh	equ	0xFF4
  1699                           prodl	equ	0xFF3
  1700                           postinc0	equ	0xFEE
  1701                           wreg	equ	0xFE8
  1702                           status	equ	0xFD8
  1703                           
  1704 ;; *************** function _init_Values *****************
  1705 ;; Defined at:
  1706 ;;		line 7 in file "E:\Study Material\XC8 PROJECTS\Android Cautery\cautery.c"
  1707 ;; Parameters:    Size  Location     Type
  1708 ;;		None
  1709 ;; Auto vars:     Size  Location     Type
  1710 ;;		None
  1711 ;; Return value:  Size  Location     Type
  1712 ;;		None               void
  1713 ;; Registers used:
  1714 ;;		wreg, status,2, status,0, prodl, prodh, cstack
  1715 ;; Tracked objects:
  1716 ;;		On entry : 0/0
  1717 ;;		On exit  : 0/0
  1718 ;;		Unchanged: 0/0
  1719 ;; Data sizes:     COMRAM   BANK0   BANK1   BANK2   BANK3   BANK4   BANK5
  1720 ;;      Params:         0       0       0       0       0       0       0
  1721 ;;      Locals:         0       0       0       0       0       0       0
  1722 ;;      Temps:          0       0       0       0       0       0       0
  1723 ;;      Totals:         0       0       0       0       0       0       0
  1724 ;;Total ram usage:        0 bytes
  1725 ;; Hardware stack levels used:    1
  1726 ;; Hardware stack levels required when called:    5
  1727 ;; This function calls:
  1728 ;;		_load_Digipot
  1729 ;; This function is called by:
  1730 ;;		_main
  1731 ;; This function uses a non-reentrant model
  1732 ;;
  1733                           
  1734                           	psect	text3
  1735  0030BA                     __ptext3:
  1736                           	opt stack 0
  1737  0030BA                     _init_Values:
  1738                           	opt stack 25
  1739                           
  1740                           ;incstack = 0
  1741  0030BA  FFFF               	dw	65535
  1742                           
  1743                           ;cautery.c: 9: Cut_Power = 0x0000;
  1744  0030BC  0E00               	movlw	0
  1745  0030BE  6E59               	movwf	_Cut_Power+1,c
  1746  0030C0  0E00               	movlw	0
  1747  0030C2  6E58               	movwf	_Cut_Power,c
  1748                           
  1749                           ;cautery.c: 10: Coag_Power = 0x0000;
  1750  0030C4  0E00               	movlw	0
  1751  0030C6  6E57               	movwf	_Coag_Power+1,c
  1752  0030C8  0E00               	movlw	0
  1753  0030CA  6E56               	movwf	_Coag_Power,c
  1754                           
  1755                           ;cautery.c: 11: Bi_Power = 0x0000;
  1756  0030CC  0E00               	movlw	0
  1757  0030CE  6E55               	movwf	_Bi_Power+1,c
  1758  0030D0  0E00               	movlw	0
  1759  0030D2  6E54               	movwf	_Bi_Power,c
  1760                           
  1761                           ;cautery.c: 13: Cut_Mode = 0x00;
  1762  0030D4  0E00               	movlw	0
  1763  0030D6  6E5E               	movwf	_Cut_Mode,c
  1764                           
  1765                           ;cautery.c: 14: Coag_Mode = 0x00;
  1766  0030D8  0E00               	movlw	0
  1767  0030DA  6E5D               	movwf	_Coag_Mode,c
  1768                           
  1769                           ;cautery.c: 15: Bi_Mode = 0x00;
  1770  0030DC  0E00               	movlw	0
  1771  0030DE  6E5C               	movwf	_Bi_Mode,c
  1772                           
  1773                           ;cautery.c: 17: load_Digipot(25, 2);
  1774  0030E0  0E00               	movlw	0
  1775  0030E2  6E3E               	movwf	load_Digipot@Power+1,c
  1776  0030E4  0E19               	movlw	25
  1777  0030E6  6E3D               	movwf	load_Digipot@Power,c
  1778  0030E8  0E02               	movlw	2
  1779  0030EA  6E3F               	movwf	load_Digipot@Mode,c
  1780  0030EC  EC3A  F01B         	call	_load_Digipot	;wreg free
  1781  0030F0  0012               	return	
  1782  0030F2  FFFF               	dw	65535	; errata NOP
  1783  0030F4                     __end_of_init_Values:
  1784                           	opt stack 0
  1785                           prodh	equ	0xFF4
  1786                           prodl	equ	0xFF3
  1787                           postinc0	equ	0xFEE
  1788                           wreg	equ	0xFE8
  1789                           status	equ	0xFD8
  1790                           
  1791 ;; *************** function _load_Digipot *****************
  1792 ;; Defined at:
  1793 ;;		line 256 in file "E:\Study Material\XC8 PROJECTS\Android Cautery\cautery.c"
  1794 ;; Parameters:    Size  Location     Type
  1795 ;;  Power           2   60[COMRAM] int 
  1796 ;;  Mode            1   62[COMRAM] unsigned char 
  1797 ;; Auto vars:     Size  Location     Type
  1798 ;;  temp            1   70[COMRAM] unsigned char 
  1799 ;;  j               1   69[COMRAM] unsigned char 
  1800 ;;  i               1   68[COMRAM] unsigned char 
  1801 ;;  R1              1   67[COMRAM] unsigned char 
  1802 ;; Return value:  Size  Location     Type
  1803 ;;		None               void
  1804 ;; Registers used:
  1805 ;;		wreg, status,2, status,0, prodl, prodh, cstack
  1806 ;; Tracked objects:
  1807 ;;		On entry : 0/0
  1808 ;;		On exit  : 0/0
  1809 ;;		Unchanged: 0/0
  1810 ;; Data sizes:     COMRAM   BANK0   BANK1   BANK2   BANK3   BANK4   BANK5
  1811 ;;      Params:         3       0       0       0       0       0       0
  1812 ;;      Locals:         4       0       0       0       0       0       0
  1813 ;;      Temps:          4       0       0       0       0       0       0
  1814 ;;      Totals:        11       0       0       0       0       0       0
  1815 ;;Total ram usage:       11 bytes
  1816 ;; Hardware stack levels used:    1
  1817 ;; Hardware stack levels required when called:    4
  1818 ;; This function calls:
  1819 ;;		___awtoft
  1820 ;;		___fttol
  1821 ;;		_sqrt
  1822 ;; This function is called by:
  1823 ;;		_main
  1824 ;;		_init_Values
  1825 ;; This function uses a non-reentrant model
  1826 ;;
  1827                           
  1828                           	psect	text4
  1829  003674                     __ptext4:
  1830                           	opt stack 0
  1831  003674                     _load_Digipot:
  1832                           	opt stack 26
  1833                           
  1834                           ;incstack = 0
  1835  003674  FFFF               	dw	65535
  1836                           
  1837                           ;cautery.c: 258: char temp;
  1838                           ;cautery.c: 259: char R1, i, j;
  1839                           ;cautery.c: 261: if(Mode == 1 || Mode == 3)
  1840  003676  043F               	decf	load_Digipot@Mode,w,c
  1841  003678  B4D8               	btfsc	status,2,c
  1842  00367A  D004               	goto	l1145
  1843  00367C  503F               	movf	load_Digipot@Mode,w,c
  1844  00367E  0A03               	xorlw	3
  1845  003680  A4D8               	btfss	status,2,c
  1846  003682  D023               	goto	l1151
  1847  003684                     l1145:
  1848                           
  1849                           ;cautery.c: 262: {
  1850                           ;cautery.c: 263: temp = (char)sqrt(Power);
  1851  003684  C03D  F009         	movff	load_Digipot@Power,___awtoft@c
  1852  003688  C03E  F00A         	movff	load_Digipot@Power+1,___awtoft@c+1
  1853  00368C  EC9D  F018         	call	___awtoft	;wreg free
  1854  003690  C009  F01B         	movff	?___awtoft,sqrt@y
  1855  003694  C00A  F01C         	movff	?___awtoft+1,sqrt@y+1
  1856  003698  C00B  F01D         	movff	?___awtoft+2,sqrt@y+2
  1857  00369C  ECE3  F01B         	call	_sqrt	;wreg free
  1858  0036A0  C01B  F02E         	movff	?_sqrt,___fttol@f1
  1859  0036A4  C01C  F02F         	movff	?_sqrt+1,___fttol@f1+1
  1860  0036A8  C01D  F030         	movff	?_sqrt+2,___fttol@f1+2
  1861  0036AC  EC5A  F01A         	call	___fttol	;wreg free
  1862  0036B0  C02E  F040         	movff	?___fttol,??_load_Digipot
  1863  0036B4  C02F  F041         	movff	?___fttol+1,??_load_Digipot+1
  1864  0036B8  C030  F042         	movff	?___fttol+2,??_load_Digipot+2
  1865  0036BC  C031  F043         	movff	?___fttol+3,??_load_Digipot+3
  1866  0036C0  5040               	movf	??_load_Digipot,w,c
  1867  0036C2  6E47               	movwf	load_Digipot@temp,c
  1868                           
  1869                           ;cautery.c: 264: temp = temp * 10;
  1870  0036C4  5047               	movf	load_Digipot@temp,w,c
  1871  0036C6  0D0A               	mullw	10
  1872  0036C8  D049               	goto	L7
  1873  0036CA                     l1151:
  1874                           
  1875                           ;cautery.c: 267: else if(Mode == 4)
  1876  0036CA  503F               	movf	load_Digipot@Mode,w,c
  1877  0036CC  0A04               	xorlw	4
  1878  0036CE  A4D8               	btfss	status,2,c
  1879  0036D0  D023               	goto	l1159
  1880                           
  1881                           ;cautery.c: 268: {
  1882                           ;cautery.c: 269: temp = (char)sqrt(Power);
  1883  0036D2  C03D  F009         	movff	load_Digipot@Power,___awtoft@c
  1884  0036D6  C03E  F00A         	movff	load_Digipot@Power+1,___awtoft@c+1
  1885  0036DA  EC9D  F018         	call	___awtoft	;wreg free
  1886  0036DE  C009  F01B         	movff	?___awtoft,sqrt@y
  1887  0036E2  C00A  F01C         	movff	?___awtoft+1,sqrt@y+1
  1888  0036E6  C00B  F01D         	movff	?___awtoft+2,sqrt@y+2
  1889  0036EA  ECE3  F01B         	call	_sqrt	;wreg free
  1890  0036EE  C01B  F02E         	movff	?_sqrt,___fttol@f1
  1891  0036F2  C01C  F02F         	movff	?_sqrt+1,___fttol@f1+1
  1892  0036F6  C01D  F030         	movff	?_sqrt+2,___fttol@f1+2
  1893  0036FA  EC5A  F01A         	call	___fttol	;wreg free
  1894  0036FE  C02E  F040         	movff	?___fttol,??_load_Digipot
  1895  003702  C02F  F041         	movff	?___fttol+1,??_load_Digipot+1
  1896  003706  C030  F042         	movff	?___fttol+2,??_load_Digipot+2
  1897  00370A  C031  F043         	movff	?___fttol+3,??_load_Digipot+3
  1898  00370E  5040               	movf	??_load_Digipot,w,c
  1899  003710  6E47               	movwf	load_Digipot@temp,c
  1900                           
  1901                           ;cautery.c: 270: temp = temp * 15;
  1902  003712  5047               	movf	load_Digipot@temp,w,c
  1903  003714  0D0F               	mullw	15
  1904  003716  D022               	goto	L7
  1905  003718                     l1159:
  1906                           
  1907                           ;cautery.c: 273: else
  1908                           ;cautery.c: 274: {
  1909                           ;cautery.c: 275: temp = (char)sqrt(Power);
  1910  003718  C03D  F009         	movff	load_Digipot@Power,___awtoft@c
  1911  00371C  C03E  F00A         	movff	load_Digipot@Power+1,___awtoft@c+1
  1912  003720  EC9D  F018         	call	___awtoft	;wreg free
  1913  003724  C009  F01B         	movff	?___awtoft,sqrt@y
  1914  003728  C00A  F01C         	movff	?___awtoft+1,sqrt@y+1
  1915  00372C  C00B  F01D         	movff	?___awtoft+2,sqrt@y+2
  1916  003730  ECE3  F01B         	call	_sqrt	;wreg free
  1917  003734  C01B  F02E         	movff	?_sqrt,___fttol@f1
  1918  003738  C01C  F02F         	movff	?_sqrt+1,___fttol@f1+1
  1919  00373C  C01D  F030         	movff	?_sqrt+2,___fttol@f1+2
  1920  003740  EC5A  F01A         	call	___fttol	;wreg free
  1921  003744  C02E  F040         	movff	?___fttol,??_load_Digipot
  1922  003748  C02F  F041         	movff	?___fttol+1,??_load_Digipot+1
  1923  00374C  C030  F042         	movff	?___fttol+2,??_load_Digipot+2
  1924  003750  C031  F043         	movff	?___fttol+3,??_load_Digipot+3
  1925  003754  5040               	movf	??_load_Digipot,w,c
  1926  003756  6E47               	movwf	load_Digipot@temp,c
  1927                           
  1928                           ;cautery.c: 276: temp = temp * 17;
  1929  003758  5047               	movf	load_Digipot@temp,w,c
  1930  00375A  0D11               	mullw	17
  1931  00375C                     L7:
  1932  00375C  CFF3 F047          	movff	prodl,load_Digipot@temp
  1933                           
  1934                           ;cautery.c: 277: temp = ~temp;
  1935  003760  1E47               	comf	load_Digipot@temp,f,c
  1936                           
  1937                           ;cautery.c: 278: }
  1938                           ;cautery.c: 280: RB2 = 0;
  1939  003762  9481               	bcf	3969,2,c	;volatile
  1940                           
  1941                           ;cautery.c: 281: _delay(25);
  1942  003764  0E05               	movlw	5
  1943  003766                     u1347:
  1944  003766  F000               	nop	
  1945  003768  2EE8               	decfsz	wreg,f,c
  1946  00376A  D7FD               	goto	u1347
  1947                           
  1948                           ;cautery.c: 282: R1 = 0x11;
  1949  00376C  0E11               	movlw	17
  1950  00376E  6E44               	movwf	load_Digipot@R1,c
  1951                           
  1952                           ;cautery.c: 283: for( j = 0;j <= 7;j ++ )
  1953  003770  0E00               	movlw	0
  1954  003772  6E46               	movwf	load_Digipot@j,c
  1955  003774  D00E               	goto	L9
  1956  003776                     l1177:
  1957                           
  1958                           ;cautery.c: 284: {
  1959                           ;cautery.c: 285: R1 = R1 << 1;
  1960  003776  5044               	movf	load_Digipot@R1,w,c
  1961  003778  2444               	addwf	load_Digipot@R1,w,c
  1962  00377A  6E44               	movwf	load_Digipot@R1,c
  1963                           
  1964                           ;cautery.c: 286: if(CARRY == 1)
  1965  00377C  B0D8               	btfsc	status,0,c	;volatile
  1966                           
  1967                           ;cautery.c: 287: {
  1968                           ;cautery.c: 288: RB4 = 1;
  1969  00377E  8881               	bsf	3969,4,c	;volatile
  1970                           
  1971                           ;cautery.c: 289: }
  1972                           ;cautery.c: 290: if(CARRY != 1)
  1973  003780  A0D8               	btfss	status,0,c	;volatile
  1974                           
  1975                           ;cautery.c: 291: {
  1976                           ;cautery.c: 292: RB4 = 0;
  1977  003782  9881               	bcf	3969,4,c	;volatile
  1978                           
  1979                           ;cautery.c: 293: }
  1980                           ;cautery.c: 295: RB3 = 1;
  1981  003784  8681               	bsf	3969,3,c	;volatile
  1982                           
  1983                           ;cautery.c: 296: _delay(5);
  1984  003786  F000               	nop	
  1985  003788  D000               	nop2		;2 cycle nop
  1986  00378A  D000               	nop2		;2 cycle nop
  1987                           
  1988                           ;cautery.c: 297: RB3 = 0;
  1989  00378C  9681               	bcf	3969,3,c	;volatile
  1990                           
  1991                           ;cautery.c: 298: RB4 = 0;
  1992  00378E  9881               	bcf	3969,4,c	;volatile
  1993  003790  2A46               	incf	load_Digipot@j,f,c
  1994  003792                     L9:
  1995  003792  0E07               	movlw	7
  1996  003794  6446               	cpfsgt	load_Digipot@j,c
  1997  003796  D7EF               	goto	l1177
  1998                           
  1999                           ;cautery.c: 299: }
  2000                           ;cautery.c: 300: for(i = 0;i <= 7;i ++ )
  2001  003798  0E00               	movlw	0
  2002  00379A  6E45               	movwf	load_Digipot@i,c
  2003  00379C  D00E               	goto	L8
  2004  00379E                     l1195:
  2005                           
  2006                           ;cautery.c: 301: {
  2007                           ;cautery.c: 302: temp = temp << 1;
  2008  00379E  5047               	movf	load_Digipot@temp,w,c
  2009  0037A0  2447               	addwf	load_Digipot@temp,w,c
  2010  0037A2  6E47               	movwf	load_Digipot@temp,c
  2011                           
  2012                           ;cautery.c: 303: if(CARRY == 1)
  2013  0037A4  B0D8               	btfsc	status,0,c	;volatile
  2014                           
  2015                           ;cautery.c: 304: {
  2016                           ;cautery.c: 305: RB4 = 1;
  2017  0037A6  8881               	bsf	3969,4,c	;volatile
  2018                           
  2019                           ;cautery.c: 306: }
  2020                           ;cautery.c: 307: if(CARRY != 1)
  2021  0037A8  A0D8               	btfss	status,0,c	;volatile
  2022                           
  2023                           ;cautery.c: 308: {
  2024                           ;cautery.c: 309: RB4 = 0;
  2025  0037AA  9881               	bcf	3969,4,c	;volatile
  2026                           
  2027                           ;cautery.c: 310: }
  2028                           ;cautery.c: 311: RB3 = 1;
  2029  0037AC  8681               	bsf	3969,3,c	;volatile
  2030                           
  2031                           ;cautery.c: 312: _delay(5);
  2032  0037AE  F000               	nop	
  2033  0037B0  D000               	nop2		;2 cycle nop
  2034  0037B2  D000               	nop2		;2 cycle nop
  2035                           
  2036                           ;cautery.c: 313: RB3 = 0;
  2037  0037B4  9681               	bcf	3969,3,c	;volatile
  2038                           
  2039                           ;cautery.c: 314: RB4 = 0;
  2040  0037B6  9881               	bcf	3969,4,c	;volatile
  2041  0037B8  2A45               	incf	load_Digipot@i,f,c
  2042  0037BA                     L8:
  2043  0037BA  0E07               	movlw	7
  2044  0037BC  6445               	cpfsgt	load_Digipot@i,c
  2045  0037BE  D7EF               	goto	l1195
  2046                           
  2047                           ;cautery.c: 315: }
  2048                           ;cautery.c: 316: RB2 = 1;
  2049  0037C0  8481               	bsf	3969,2,c	;volatile
  2050  0037C2  0012               	return	
  2051  0037C4  FFFF               	dw	65535	; errata NOP
  2052  0037C6                     __end_of_load_Digipot:
  2053                           	opt stack 0
  2054                           prodh	equ	0xFF4
  2055                           prodl	equ	0xFF3
  2056                           postinc0	equ	0xFEE
  2057                           wreg	equ	0xFE8
  2058                           status	equ	0xFD8
  2059                           
  2060 ;; *************** function _sqrt *****************
  2061 ;; Defined at:
  2062 ;;		line 13 in file "C:\Program Files (x86)\Microchip\xc8\v1.33\sources\common\sqrt.c"
  2063 ;; Parameters:    Size  Location     Type
  2064 ;;  y               3   26[COMRAM] unsigned char 
  2065 ;; Auto vars:     Size  Location     Type
  2066 ;;  x               3   42[COMRAM] unsigned char 
  2067 ;;  q               3   39[COMRAM] unsigned char 
  2068 ;;  z               3   35[COMRAM] unsigned char 
  2069 ;;  og              3   32[COMRAM] unsigned char 
  2070 ;;  i               1   38[COMRAM] unsigned char 
  2071 ;; Return value:  Size  Location     Type
  2072 ;;                  3   26[COMRAM] unsigned char 
  2073 ;; Registers used:
  2074 ;;		wreg, status,2, status,0, cstack
  2075 ;; Tracked objects:
  2076 ;;		On entry : 0/0
  2077 ;;		On exit  : 0/0
  2078 ;;		Unchanged: 0/0
  2079 ;; Data sizes:     COMRAM   BANK0   BANK1   BANK2   BANK3   BANK4   BANK5
  2080 ;;      Params:         3       0       0       0       0       0       0
  2081 ;;      Locals:        13       0       0       0       0       0       0
  2082 ;;      Temps:          3       0       0       0       0       0       0
  2083 ;;      Totals:        19       0       0       0       0       0       0
  2084 ;;Total ram usage:       19 bytes
  2085 ;; Hardware stack levels used:    1
  2086 ;; Hardware stack levels required when called:    3
  2087 ;; This function calls:
  2088 ;;		___ftge
  2089 ;;		___ftmul
  2090 ;;		___ftsub
  2091 ;; This function is called by:
  2092 ;;		_load_Digipot
  2093 ;; This function uses a non-reentrant model
  2094 ;;
  2095                           
  2096                           	psect	text5
  2097  0037C6                     __ptext5:
  2098                           	opt stack 0
  2099  0037C6                     _sqrt:
  2100                           	opt stack 26
  2101                           
  2102                           ;incstack = 0
  2103  0037C6  FFFF               	dw	65535
  2104  0037C8  0E00               	movlw	0
  2105  0037CA  6E01               	movwf	___ftge@ff1,c
  2106  0037CC  0E00               	movlw	0
  2107  0037CE  6E02               	movwf	___ftge@ff1+1,c
  2108  0037D0  0E00               	movlw	0
  2109  0037D2  6E03               	movwf	___ftge@ff1+2,c
  2110  0037D4  C01B  F004         	movff	sqrt@y,___ftge@ff2
  2111  0037D8  C01C  F005         	movff	sqrt@y+1,___ftge@ff2+1
  2112  0037DC  C01D  F006         	movff	sqrt@y+2,___ftge@ff2+2
  2113  0037E0  EC5C  F019         	call	___ftge	;wreg free
  2114  0037E4  A0D8               	btfss	status,0,c
  2115  0037E6  D016               	goto	l817
  2116  0037E8  501D               	movf	sqrt@y+2,w,c
  2117  0037EA  0A80               	xorlw	128
  2118  0037EC  0F80               	addlw	128
  2119  0037EE  E105               	bnz	u395
  2120  0037F0  0E00               	movlw	0
  2121  0037F2  5C1C               	subwf	sqrt@y+1,w,c
  2122  0037F4  E102               	bnz	u395
  2123  0037F6  0E00               	movlw	0
  2124  0037F8  5C1B               	subwf	sqrt@y,w,c
  2125  0037FA                     u395:
  2126  0037FA  B0D8               	btfsc	status,0,c
  2127  0037FC  D004               	goto	l818
  2128  0037FE  0E00               	movlw	0
  2129  003800  6E5B               	movwf	_errno+1,c
  2130  003802  0E21               	movlw	33
  2131  003804  6E5A               	movwf	_errno,c
  2132  003806                     l818:
  2133  003806  0E00               	movlw	0
  2134  003808  6E1B               	movwf	?_sqrt,c
  2135  00380A  0E00               	movlw	0
  2136  00380C  6E1C               	movwf	?_sqrt+1,c
  2137  00380E  0E00               	movlw	0
  2138  003810  6E1D               	movwf	?_sqrt+2,c
  2139  003812  D0A8               	goto	l819
  2140  003814                     l817:
  2141  003814  C01B  F024         	movff	sqrt@y,sqrt@z
  2142  003818  C01C  F025         	movff	sqrt@y+1,sqrt@z+1
  2143  00381C  C01D  F026         	movff	sqrt@y+2,sqrt@z+2
  2144  003820  C01B  F01E         	movff	sqrt@y,??_sqrt
  2145  003824  C01C  F01F         	movff	sqrt@y+1,??_sqrt+1
  2146  003828  C01D  F020         	movff	sqrt@y+2,??_sqrt+2
  2147  00382C  1E1E               	comf	??_sqrt,f,c
  2148  00382E  1E1F               	comf	??_sqrt+1,f,c
  2149  003830  1E20               	comf	??_sqrt+2,f,c
  2150  003832  2A1E               	incf	??_sqrt,f,c
  2151  003834  0E00               	movlw	0
  2152  003836  221F               	addwfc	??_sqrt+1,f,c
  2153  003838  2220               	addwfc	??_sqrt+2,f,c
  2154  00383A  0EC8               	movlw	200
  2155  00383C  241E               	addwf	??_sqrt,w,c
  2156  00383E  6E2B               	movwf	sqrt@x,c
  2157  003840  0E6E               	movlw	110
  2158  003842  201F               	addwfc	??_sqrt+1,w,c
  2159  003844  6E2C               	movwf	sqrt@x+1,c
  2160  003846  0EBE               	movlw	190
  2161  003848  2020               	addwfc	??_sqrt+2,w,c
  2162  00384A  6E2D               	movwf	sqrt@x+2,c
  2163  00384C  90D8               	bcf	status,0,c
  2164  00384E  322D               	rrcf	sqrt@x+2,f,c
  2165  003850  322C               	rrcf	sqrt@x+1,f,c
  2166  003852  322B               	rrcf	sqrt@x,f,c
  2167  003854  0E00               	movlw	0
  2168  003856  5E24               	subwf	sqrt@z,f,c
  2169  003858  0E80               	movlw	128
  2170  00385A  5A25               	subwfb	sqrt@z+1,f,c
  2171  00385C  0E00               	movlw	0
  2172  00385E  5A26               	subwfb	sqrt@z+2,f,c
  2173  003860  0E04               	movlw	4
  2174  003862  6E27               	movwf	sqrt@i,c
  2175  003864                     l1061:
  2176  003864  C02B  F021         	movff	sqrt@x,sqrt@og
  2177  003868  C02C  F022         	movff	sqrt@x+1,sqrt@og+1
  2178  00386C  C02D  F023         	movff	sqrt@x+2,sqrt@og+2
  2179  003870  C02B  F009         	movff	sqrt@x,___ftmul@f1
  2180  003874  C02C  F00A         	movff	sqrt@x+1,___ftmul@f1+1
  2181  003878  C02D  F00B         	movff	sqrt@x+2,___ftmul@f1+2
  2182  00387C  C024  F00C         	movff	sqrt@z,___ftmul@f2
  2183  003880  C025  F00D         	movff	sqrt@z+1,___ftmul@f2+1
  2184  003884  C026  F00E         	movff	sqrt@z+2,___ftmul@f2+2
  2185  003888  ECC6  F01A         	call	___ftmul	;wreg free
  2186  00388C  C009  F028         	movff	?___ftmul,sqrt@q
  2187  003890  C00A  F029         	movff	?___ftmul+1,sqrt@q+1
  2188  003894  C00B  F02A         	movff	?___ftmul+2,sqrt@q+2
  2189  003898  C028  F009         	movff	sqrt@q,___ftmul@f1
  2190  00389C  C029  F00A         	movff	sqrt@q+1,___ftmul@f1+1
  2191  0038A0  C02A  F00B         	movff	sqrt@q+2,___ftmul@f1+2
  2192  0038A4  C02B  F00C         	movff	sqrt@x,___ftmul@f2
  2193  0038A8  C02C  F00D         	movff	sqrt@x+1,___ftmul@f2+1
  2194  0038AC  C02D  F00E         	movff	sqrt@x+2,___ftmul@f2+2
  2195  0038B0  ECC6  F01A         	call	___ftmul	;wreg free
  2196  0038B4  C009  F028         	movff	?___ftmul,sqrt@q
  2197  0038B8  C00A  F029         	movff	?___ftmul+1,sqrt@q+1
  2198  0038BC  C00B  F02A         	movff	?___ftmul+2,sqrt@q+2
  2199  0038C0  C028  F009         	movff	sqrt@q,___ftmul@f1
  2200  0038C4  C029  F00A         	movff	sqrt@q+1,___ftmul@f1+1
  2201  0038C8  C02A  F00B         	movff	sqrt@q+2,___ftmul@f1+2
  2202  0038CC  C02B  F00C         	movff	sqrt@x,___ftmul@f2
  2203  0038D0  C02C  F00D         	movff	sqrt@x+1,___ftmul@f2+1
  2204  0038D4  C02D  F00E         	movff	sqrt@x+2,___ftmul@f2+2
  2205  0038D8  ECC6  F01A         	call	___ftmul	;wreg free
  2206  0038DC  C009  F028         	movff	?___ftmul,sqrt@q
  2207  0038E0  C00A  F029         	movff	?___ftmul+1,sqrt@q+1
  2208  0038E4  C00B  F02A         	movff	?___ftmul+2,sqrt@q+2
  2209  0038E8  C02B  F009         	movff	sqrt@x,___ftmul@f1
  2210  0038EC  C02C  F00A         	movff	sqrt@x+1,___ftmul@f1+1
  2211  0038F0  C02D  F00B         	movff	sqrt@x+2,___ftmul@f1+2
  2212  0038F4  0E00               	movlw	0
  2213  0038F6  6E0C               	movwf	___ftmul@f2,c
  2214  0038F8  0EC0               	movlw	192
  2215  0038FA  6E0D               	movwf	___ftmul@f2+1,c
  2216  0038FC  0E3F               	movlw	63
  2217  0038FE  6E0E               	movwf	___ftmul@f2+2,c
  2218  003900  ECC6  F01A         	call	___ftmul	;wreg free
  2219  003904  C009  F02B         	movff	?___ftmul,sqrt@x
  2220  003908  C00A  F02C         	movff	?___ftmul+1,sqrt@x+1
  2221  00390C  C00B  F02D         	movff	?___ftmul+2,sqrt@x+2
  2222  003910  C02B  F015         	movff	sqrt@x,___ftsub@f1
  2223  003914  C02C  F016         	movff	sqrt@x+1,___ftsub@f1+1
  2224  003918  C02D  F017         	movff	sqrt@x+2,___ftsub@f1+2
  2225  00391C  C028  F018         	movff	sqrt@q,___ftsub@f2
  2226  003920  C029  F019         	movff	sqrt@q+1,___ftsub@f2+1
  2227  003924  C02A  F01A         	movff	sqrt@q+2,___ftsub@f2+2
  2228  003928  EC40  F018         	call	___ftsub	;wreg free
  2229  00392C  C015  F02B         	movff	?___ftsub,sqrt@x
  2230  003930  C016  F02C         	movff	?___ftsub+1,sqrt@x+1
  2231  003934  C017  F02D         	movff	?___ftsub+2,sqrt@x+2
  2232  003938  2E27               	decfsz	sqrt@i,f,c
  2233  00393A  D794               	goto	l1061
  2234  00393C  C02B  F009         	movff	sqrt@x,___ftmul@f1
  2235  003940  C02C  F00A         	movff	sqrt@x+1,___ftmul@f1+1
  2236  003944  C02D  F00B         	movff	sqrt@x+2,___ftmul@f1+2
  2237  003948  C01B  F00C         	movff	sqrt@y,___ftmul@f2
  2238  00394C  C01C  F00D         	movff	sqrt@y+1,___ftmul@f2+1
  2239  003950  C01D  F00E         	movff	sqrt@y+2,___ftmul@f2+2
  2240  003954  ECC6  F01A         	call	___ftmul	;wreg free
  2241  003958  C009  F01B         	movff	?___ftmul,?_sqrt
  2242  00395C  C00A  F01C         	movff	?___ftmul+1,?_sqrt+1
  2243  003960  C00B  F01D         	movff	?___ftmul+2,?_sqrt+2
  2244  003964                     l819:
  2245  003964  0012               	return	
  2246  003966  FFFF               	dw	65535	; errata NOP
  2247  003968                     __end_of_sqrt:
  2248                           	opt stack 0
  2249                           prodh	equ	0xFF4
  2250                           prodl	equ	0xFF3
  2251                           postinc0	equ	0xFEE
  2252                           wreg	equ	0xFE8
  2253                           status	equ	0xFD8
  2254                           
  2255 ;; *************** function ___ftsub *****************
  2256 ;; Defined at:
  2257 ;;		line 20 in file "C:\Program Files (x86)\Microchip\xc8\v1.33\sources\common\ftsub.c"
  2258 ;; Parameters:    Size  Location     Type
  2259 ;;  f1              3   20[COMRAM] float 
  2260 ;;  f2              3   23[COMRAM] float 
  2261 ;; Auto vars:     Size  Location     Type
  2262 ;;		None
  2263 ;; Return value:  Size  Location     Type
  2264 ;;                  3   20[COMRAM] float 
  2265 ;; Registers used:
  2266 ;;		wreg, status,2, status,0, cstack
  2267 ;; Tracked objects:
  2268 ;;		On entry : 0/0
  2269 ;;		On exit  : 0/0
  2270 ;;		Unchanged: 0/0
  2271 ;; Data sizes:     COMRAM   BANK0   BANK1   BANK2   BANK3   BANK4   BANK5
  2272 ;;      Params:         6       0       0       0       0       0       0
  2273 ;;      Locals:         0       0       0       0       0       0       0
  2274 ;;      Temps:          0       0       0       0       0       0       0
  2275 ;;      Totals:         6       0       0       0       0       0       0
  2276 ;;Total ram usage:        6 bytes
  2277 ;; Hardware stack levels used:    1
  2278 ;; Hardware stack levels required when called:    2
  2279 ;; This function calls:
  2280 ;;		___ftadd
  2281 ;; This function is called by:
  2282 ;;		_sqrt
  2283 ;; This function uses a non-reentrant model
  2284 ;;
  2285                           
  2286                           	psect	text6
  2287  003080                     __ptext6:
  2288                           	opt stack 0
  2289  003080                     ___ftsub:
  2290                           	opt stack 26
  2291                           
  2292                           ;incstack = 0
  2293  003080  FFFF               	dw	65535
  2294  003082  0E00               	movlw	0
  2295  003084  1A18               	xorwf	___ftsub@f2,f,c
  2296  003086  0E00               	movlw	0
  2297  003088  1A19               	xorwf	___ftsub@f2+1,f,c
  2298  00308A  0E80               	movlw	128
  2299  00308C  1A1A               	xorwf	___ftsub@f2+2,f,c
  2300  00308E  C015  F009         	movff	___ftsub@f1,___ftadd@f1
  2301  003092  C016  F00A         	movff	___ftsub@f1+1,___ftadd@f1+1
  2302  003096  C017  F00B         	movff	___ftsub@f1+2,___ftadd@f1+2
  2303  00309A  C018  F00C         	movff	___ftsub@f2,___ftadd@f2
  2304  00309E  C019  F00D         	movff	___ftsub@f2+1,___ftadd@f2+1
  2305  0030A2  C01A  F00E         	movff	___ftsub@f2+2,___ftadd@f2+2
  2306  0030A6  ECB4  F01C         	call	___ftadd	;wreg free
  2307  0030AA  C009  F015         	movff	?___ftadd,?___ftsub
  2308  0030AE  C00A  F016         	movff	?___ftadd+1,?___ftsub+1
  2309  0030B2  C00B  F017         	movff	?___ftadd+2,?___ftsub+2
  2310  0030B6  0012               	return	
  2311  0030B8  FFFF               	dw	65535	; errata NOP
  2312  0030BA                     __end_of___ftsub:
  2313                           	opt stack 0
  2314                           prodh	equ	0xFF4
  2315                           prodl	equ	0xFF3
  2316                           postinc0	equ	0xFEE
  2317                           wreg	equ	0xFE8
  2318                           status	equ	0xFD8
  2319                           
  2320 ;; *************** function ___ftadd *****************
  2321 ;; Defined at:
  2322 ;;		line 86 in file "C:\Program Files (x86)\Microchip\xc8\v1.33\sources\common\ftadd.c"
  2323 ;; Parameters:    Size  Location     Type
  2324 ;;  f1              3    8[COMRAM] float 
  2325 ;;  f2              3   11[COMRAM] float 
  2326 ;; Auto vars:     Size  Location     Type
  2327 ;;  exp1            1   19[COMRAM] unsigned char 
  2328 ;;  exp2            1   18[COMRAM] unsigned char 
  2329 ;;  sign            1   17[COMRAM] unsigned char 
  2330 ;; Return value:  Size  Location     Type
  2331 ;;                  3    8[COMRAM] float 
  2332 ;; Registers used:
  2333 ;;		wreg, status,2, status,0, cstack
  2334 ;; Tracked objects:
  2335 ;;		On entry : 0/0
  2336 ;;		On exit  : 0/0
  2337 ;;		Unchanged: 0/0
  2338 ;; Data sizes:     COMRAM   BANK0   BANK1   BANK2   BANK3   BANK4   BANK5
  2339 ;;      Params:         6       0       0       0       0       0       0
  2340 ;;      Locals:         3       0       0       0       0       0       0
  2341 ;;      Temps:          3       0       0       0       0       0       0
  2342 ;;      Totals:        12       0       0       0       0       0       0
  2343 ;;Total ram usage:       12 bytes
  2344 ;; Hardware stack levels used:    1
  2345 ;; Hardware stack levels required when called:    1
  2346 ;; This function calls:
  2347 ;;		___ftpack
  2348 ;; This function is called by:
  2349 ;;		___ftsub
  2350 ;; This function uses a non-reentrant model
  2351 ;;
  2352                           
  2353                           	psect	text7
  2354  003968                     __ptext7:
  2355                           	opt stack 0
  2356  003968                     ___ftadd:
  2357                           	opt stack 26
  2358                           
  2359                           ;incstack = 0
  2360  003968  FFFF               	dw	65535
  2361  00396A  C00B  F00F         	movff	___ftadd@f1+2,??___ftadd
  2362  00396E  6A10               	clrf	(??___ftadd+1)& (0+255),c
  2363  003970  6A11               	clrf	(??___ftadd+2)& (0+255),c
  2364  003972  340A               	rlcf	___ftadd@f1+1,w,c
  2365  003974  360F               	rlcf	??___ftadd& (0+255),f,c
  2366  003976  E301               	bnc	u81
  2367  003978  8010               	bsf	(??___ftadd+1)& (0+255),0,c
  2368  00397A                     u81:
  2369  00397A  500F               	movf	??___ftadd,w,c
  2370  00397C  6E14               	movwf	___ftadd@exp1,c
  2371  00397E  C00E  F00F         	movff	___ftadd@f2+2,??___ftadd
  2372  003982  6A10               	clrf	(??___ftadd+1)& (0+255),c
  2373  003984  6A11               	clrf	(??___ftadd+2)& (0+255),c
  2374  003986  340D               	rlcf	___ftadd@f2+1,w,c
  2375  003988  360F               	rlcf	??___ftadd& (0+255),f,c
  2376  00398A  E301               	bnc	u91
  2377  00398C  8010               	bsf	(??___ftadd+1)& (0+255),0,c
  2378  00398E                     u91:
  2379  00398E  500F               	movf	??___ftadd,w,c
  2380  003990  6E13               	movwf	___ftadd@exp2,c
  2381  003992  5014               	movf	___ftadd@exp1,w,c
  2382  003994  B4D8               	btfsc	status,2,c
  2383  003996  D00C               	goto	l616
  2384  003998  5013               	movf	___ftadd@exp2,w,c
  2385  00399A  5C14               	subwf	___ftadd@exp1,w,c
  2386  00399C  B0D8               	btfsc	status,0,c
  2387  00399E  D00F               	goto	l911
  2388  0039A0  5014               	movf	___ftadd@exp1,w,c
  2389  0039A2  0800               	sublw	0
  2390  0039A4  2413               	addwf	___ftadd@exp2,w,c
  2391  0039A6  6E0F               	movwf	??___ftadd& (0+255),c
  2392  0039A8  0E19               	movlw	25
  2393  0039AA  5C0F               	subwf	??___ftadd,w,c
  2394  0039AC  A0D8               	btfss	status,0,c
  2395  0039AE  D007               	goto	l911
  2396  0039B0                     l616:
  2397  0039B0  C00C  F009         	movff	___ftadd@f2,?___ftadd
  2398  0039B4  C00D  F00A         	movff	___ftadd@f2+1,?___ftadd+1
  2399  0039B8  C00E  F00B         	movff	___ftadd@f2+2,?___ftadd+2
  2400  0039BC  D0AB               	goto	l617
  2401  0039BE                     l911:
  2402  0039BE  5013               	movf	___ftadd@exp2,w,c
  2403  0039C0  B4D8               	btfsc	status,2,c
  2404  0039C2  D00C               	goto	l620
  2405  0039C4  5014               	movf	___ftadd@exp1,w,c
  2406  0039C6  5C13               	subwf	___ftadd@exp2,w,c
  2407  0039C8  B0D8               	btfsc	status,0,c
  2408  0039CA  D00F               	goto	l917
  2409  0039CC  5013               	movf	___ftadd@exp2,w,c
  2410  0039CE  0800               	sublw	0
  2411  0039D0  2414               	addwf	___ftadd@exp1,w,c
  2412  0039D2  6E0F               	movwf	??___ftadd& (0+255),c
  2413  0039D4  0E19               	movlw	25
  2414  0039D6  5C0F               	subwf	??___ftadd,w,c
  2415  0039D8  A0D8               	btfss	status,0,c
  2416  0039DA  D007               	goto	l917
  2417  0039DC                     l620:
  2418  0039DC  C009  F009         	movff	___ftadd@f1,?___ftadd
  2419  0039E0  C00A  F00A         	movff	___ftadd@f1+1,?___ftadd+1
  2420  0039E4  C00B  F00B         	movff	___ftadd@f1+2,?___ftadd+2
  2421  0039E8  D095               	goto	l617
  2422  0039EA                     l917:
  2423  0039EA  0E06               	movlw	6
  2424  0039EC  6E12               	movwf	___ftadd@sign,c
  2425  0039EE  BE0B               	btfsc	___ftadd@f1+2,7,c
  2426  0039F0  8E12               	bsf	___ftadd@sign,7,c
  2427  0039F2  BE0E               	btfsc	___ftadd@f2+2,7,c
  2428  0039F4  8C12               	bsf	___ftadd@sign,6,c
  2429  0039F6  8E0A               	bsf	___ftadd@f1+1,7,c
  2430  0039F8  0EFF               	movlw	255
  2431  0039FA  1609               	andwf	___ftadd@f1,f,c
  2432  0039FC  0EFF               	movlw	255
  2433  0039FE  160A               	andwf	___ftadd@f1+1,f,c
  2434  003A00  0E00               	movlw	0
  2435  003A02  160B               	andwf	___ftadd@f1+2,f,c
  2436  003A04  8E0D               	bsf	___ftadd@f2+1,7,c
  2437  003A06  0EFF               	movlw	255
  2438  003A08  160C               	andwf	___ftadd@f2,f,c
  2439  003A0A  0EFF               	movlw	255
  2440  003A0C  160D               	andwf	___ftadd@f2+1,f,c
  2441  003A0E  0E00               	movlw	0
  2442  003A10  160E               	andwf	___ftadd@f2+2,f,c
  2443  003A12  5013               	movf	___ftadd@exp2,w,c
  2444  003A14  5C14               	subwf	___ftadd@exp1,w,c
  2445  003A16  B0D8               	btfsc	status,0,c
  2446  003A18  D01A               	goto	l943
  2447  003A1A                     l933:
  2448  003A1A  90D8               	bcf	status,0,c
  2449  003A1C  360C               	rlcf	___ftadd@f2,f,c
  2450  003A1E  360D               	rlcf	___ftadd@f2+1,f,c
  2451  003A20  360E               	rlcf	___ftadd@f2+2,f,c
  2452  003A22  0613               	decf	___ftadd@exp2,f,c
  2453  003A24  5013               	movf	___ftadd@exp2,w,c
  2454  003A26  1814               	xorwf	___ftadd@exp1,w,c
  2455  003A28  B4D8               	btfsc	status,2,c
  2456  003A2A  D00D               	goto	l941
  2457  003A2C  0612               	decf	___ftadd@sign,f,c
  2458  003A2E  C012  F00F         	movff	___ftadd@sign,??___ftadd
  2459  003A32  0E07               	movlw	7
  2460  003A34  160F               	andwf	??___ftadd,f,c
  2461  003A36  B4D8               	btfsc	status,2,c
  2462  003A38  D006               	goto	l941
  2463  003A3A  D7EF               	goto	l933
  2464  003A3C                     l939:
  2465  003A3C  90D8               	bcf	status,0,c
  2466  003A3E  320B               	rrcf	___ftadd@f1+2,f,c
  2467  003A40  320A               	rrcf	___ftadd@f1+1,f,c
  2468  003A42  3209               	rrcf	___ftadd@f1,f,c
  2469  003A44  2A14               	incf	___ftadd@exp1,f,c
  2470  003A46                     l941:
  2471  003A46  5013               	movf	___ftadd@exp2,w,c
  2472  003A48  6214               	cpfseq	___ftadd@exp1,c
  2473  003A4A  D7F8               	goto	l939
  2474  003A4C  D01D               	goto	l631
  2475  003A4E                     l943:
  2476  003A4E  5014               	movf	___ftadd@exp1,w,c
  2477  003A50  5C13               	subwf	___ftadd@exp2,w,c
  2478  003A52  B0D8               	btfsc	status,0,c
  2479  003A54  D019               	goto	l631
  2480  003A56                     l945:
  2481  003A56  90D8               	bcf	status,0,c
  2482  003A58  3609               	rlcf	___ftadd@f1,f,c
  2483  003A5A  360A               	rlcf	___ftadd@f1+1,f,c
  2484  003A5C  360B               	rlcf	___ftadd@f1+2,f,c
  2485  003A5E  0614               	decf	___ftadd@exp1,f,c
  2486  003A60  5013               	movf	___ftadd@exp2,w,c
  2487  003A62  1814               	xorwf	___ftadd@exp1,w,c
  2488  003A64  B4D8               	btfsc	status,2,c
  2489  003A66  D00D               	goto	l953
  2490  003A68  0612               	decf	___ftadd@sign,f,c
  2491  003A6A  C012  F00F         	movff	___ftadd@sign,??___ftadd
  2492  003A6E  0E07               	movlw	7
  2493  003A70  160F               	andwf	??___ftadd,f,c
  2494  003A72  B4D8               	btfsc	status,2,c
  2495  003A74  D006               	goto	l953
  2496  003A76  D7EF               	goto	l945
  2497  003A78                     l951:
  2498  003A78  90D8               	bcf	status,0,c
  2499  003A7A  320E               	rrcf	___ftadd@f2+2,f,c
  2500  003A7C  320D               	rrcf	___ftadd@f2+1,f,c
  2501  003A7E  320C               	rrcf	___ftadd@f2,f,c
  2502  003A80  2A13               	incf	___ftadd@exp2,f,c
  2503  003A82                     l953:
  2504  003A82  5013               	movf	___ftadd@exp2,w,c
  2505  003A84  6214               	cpfseq	___ftadd@exp1,c
  2506  003A86  D7F8               	goto	l951
  2507  003A88                     l631:
  2508  003A88  AE12               	btfss	___ftadd@sign,7,c
  2509  003A8A  D00C               	goto	l640
  2510  003A8C  0EFF               	movlw	255
  2511  003A8E  1A09               	xorwf	___ftadd@f1,f,c
  2512  003A90  0EFF               	movlw	255
  2513  003A92  1A0A               	xorwf	___ftadd@f1+1,f,c
  2514  003A94  0EFF               	movlw	255
  2515  003A96  1A0B               	xorwf	___ftadd@f1+2,f,c
  2516  003A98  0E01               	movlw	1
  2517  003A9A  2609               	addwf	___ftadd@f1,f,c
  2518  003A9C  0E00               	movlw	0
  2519  003A9E  220A               	addwfc	___ftadd@f1+1,f,c
  2520  003AA0  0E00               	movlw	0
  2521  003AA2  220B               	addwfc	___ftadd@f1+2,f,c
  2522  003AA4                     l640:
  2523  003AA4  AC12               	btfss	___ftadd@sign,6,c
  2524  003AA6  D00C               	goto	l959
  2525  003AA8  0EFF               	movlw	255
  2526  003AAA  1A0C               	xorwf	___ftadd@f2,f,c
  2527  003AAC  0EFF               	movlw	255
  2528  003AAE  1A0D               	xorwf	___ftadd@f2+1,f,c
  2529  003AB0  0EFF               	movlw	255
  2530  003AB2  1A0E               	xorwf	___ftadd@f2+2,f,c
  2531  003AB4  0E01               	movlw	1
  2532  003AB6  260C               	addwf	___ftadd@f2,f,c
  2533  003AB8  0E00               	movlw	0
  2534  003ABA  220D               	addwfc	___ftadd@f2+1,f,c
  2535  003ABC  0E00               	movlw	0
  2536  003ABE  220E               	addwfc	___ftadd@f2+2,f,c
  2537  003AC0                     l959:
  2538  003AC0  0E00               	movlw	0
  2539  003AC2  6E12               	movwf	___ftadd@sign,c
  2540  003AC4  5009               	movf	___ftadd@f1,w,c
  2541  003AC6  260C               	addwf	___ftadd@f2,f,c
  2542  003AC8  500A               	movf	___ftadd@f1+1,w,c
  2543  003ACA  220D               	addwfc	___ftadd@f2+1,f,c
  2544  003ACC  500B               	movf	___ftadd@f1+2,w,c
  2545  003ACE  220E               	addwfc	___ftadd@f2+2,f,c
  2546  003AD0  AE0E               	btfss	___ftadd@f2+2,7,c
  2547  003AD2  D00E               	goto	l969
  2548  003AD4  0EFF               	movlw	255
  2549  003AD6  1A0C               	xorwf	___ftadd@f2,f,c
  2550  003AD8  0EFF               	movlw	255
  2551  003ADA  1A0D               	xorwf	___ftadd@f2+1,f,c
  2552  003ADC  0EFF               	movlw	255
  2553  003ADE  1A0E               	xorwf	___ftadd@f2+2,f,c
  2554  003AE0  0E01               	movlw	1
  2555  003AE2  260C               	addwf	___ftadd@f2,f,c
  2556  003AE4  0E00               	movlw	0
  2557  003AE6  220D               	addwfc	___ftadd@f2+1,f,c
  2558  003AE8  0E00               	movlw	0
  2559  003AEA  220E               	addwfc	___ftadd@f2+2,f,c
  2560  003AEC  0E01               	movlw	1
  2561  003AEE  6E12               	movwf	___ftadd@sign,c
  2562  003AF0                     l969:
  2563  003AF0  C00C  F001         	movff	___ftadd@f2,___ftpack@arg
  2564  003AF4  C00D  F002         	movff	___ftadd@f2+1,___ftpack@arg+1
  2565  003AF8  C00E  F003         	movff	___ftadd@f2+2,___ftpack@arg+2
  2566  003AFC  C014  F004         	movff	___ftadd@exp1,___ftpack@exp
  2567  003B00  C012  F005         	movff	___ftadd@sign,___ftpack@sign
  2568  003B04  ECA6  F019         	call	___ftpack	;wreg free
  2569  003B08  C001  F009         	movff	?___ftpack,?___ftadd
  2570  003B0C  C002  F00A         	movff	?___ftpack+1,?___ftadd+1
  2571  003B10  C003  F00B         	movff	?___ftpack+2,?___ftadd+2
  2572  003B14                     l617:
  2573  003B14  0012               	return	
  2574  003B16  FFFF               	dw	65535	; errata NOP
  2575  003B18                     __end_of___ftadd:
  2576                           	opt stack 0
  2577                           prodh	equ	0xFF4
  2578                           prodl	equ	0xFF3
  2579                           postinc0	equ	0xFEE
  2580                           wreg	equ	0xFE8
  2581                           status	equ	0xFD8
  2582                           
  2583 ;; *************** function ___ftmul *****************
  2584 ;; Defined at:
  2585 ;;		line 62 in file "C:\Program Files (x86)\Microchip\xc8\v1.33\sources\common\ftmul.c"
  2586 ;; Parameters:    Size  Location     Type
  2587 ;;  f1              3    8[COMRAM] float 
  2588 ;;  f2              3   11[COMRAM] float 
  2589 ;; Auto vars:     Size  Location     Type
  2590 ;;  f3_as_produc    3   17[COMRAM] unsigned um
  2591 ;;  sign            1   22[COMRAM] unsigned char 
  2592 ;;  cntr            1   21[COMRAM] unsigned char 
  2593 ;;  exp             1   20[COMRAM] unsigned char 
  2594 ;; Return value:  Size  Location     Type
  2595 ;;                  3    8[COMRAM] float 
  2596 ;; Registers used:
  2597 ;;		wreg, status,2, status,0, cstack
  2598 ;; Tracked objects:
  2599 ;;		On entry : 0/0
  2600 ;;		On exit  : 0/0
  2601 ;;		Unchanged: 0/0
  2602 ;; Data sizes:     COMRAM   BANK0   BANK1   BANK2   BANK3   BANK4   BANK5
  2603 ;;      Params:         6       0       0       0       0       0       0
  2604 ;;      Locals:         6       0       0       0       0       0       0
  2605 ;;      Temps:          3       0       0       0       0       0       0
  2606 ;;      Totals:        15       0       0       0       0       0       0
  2607 ;;Total ram usage:       15 bytes
  2608 ;; Hardware stack levels used:    1
  2609 ;; Hardware stack levels required when called:    1
  2610 ;; This function calls:
  2611 ;;		___ftpack
  2612 ;; This function is called by:
  2613 ;;		_sqrt
  2614 ;; This function uses a non-reentrant model
  2615 ;;
  2616                           
  2617                           	psect	text8
  2618  00358C                     __ptext8:
  2619                           	opt stack 0
  2620  00358C                     ___ftmul:
  2621                           	opt stack 27
  2622                           
  2623                           ;incstack = 0
  2624  00358C  FFFF               	dw	65535
  2625  00358E  C00B  F00F         	movff	___ftmul@f1+2,??___ftmul
  2626  003592  6A10               	clrf	(??___ftmul+1)& (0+255),c
  2627  003594  6A11               	clrf	(??___ftmul+2)& (0+255),c
  2628  003596  340A               	rlcf	___ftmul@f1+1,w,c
  2629  003598  360F               	rlcf	??___ftmul& (0+255),f,c
  2630  00359A  E301               	bnc	u291
  2631  00359C  8010               	bsf	(??___ftmul+1)& (0+255),0,c
  2632  00359E                     u291:
  2633  00359E  500F               	movf	??___ftmul,w,c
  2634  0035A0  6E15               	movwf	___ftmul@exp,c
  2635  0035A2  6615               	tstfsz	___ftmul@exp& (0+255),c
  2636  0035A4  D001               	goto	l979
  2637  0035A6  D00C               	goto	u320
  2638  0035A8                     l979:
  2639  0035A8  C00E  F00F         	movff	___ftmul@f2+2,??___ftmul
  2640  0035AC  6A10               	clrf	(??___ftmul+1)& (0+255),c
  2641  0035AE  6A11               	clrf	(??___ftmul+2)& (0+255),c
  2642  0035B0  340D               	rlcf	___ftmul@f2+1,w,c
  2643  0035B2  360F               	rlcf	??___ftmul& (0+255),f,c
  2644  0035B4  E301               	bnc	u311
  2645  0035B6  8010               	bsf	(??___ftmul+1)& (0+255),0,c
  2646  0035B8                     u311:
  2647  0035B8  500F               	movf	??___ftmul,w,c
  2648  0035BA  6E17               	movwf	___ftmul@sign,c
  2649  0035BC  6617               	tstfsz	___ftmul@sign& (0+255),c
  2650  0035BE  D007               	goto	l985
  2651  0035C0                     u320:
  2652  0035C0  0E00               	movlw	0
  2653  0035C2  6E09               	movwf	?___ftmul,c
  2654  0035C4  0E00               	movlw	0
  2655  0035C6  6E0A               	movwf	?___ftmul+1,c
  2656  0035C8  0E00               	movlw	0
  2657  0035CA  6E0B               	movwf	?___ftmul+2,c
  2658  0035CC  D051               	goto	l663
  2659  0035CE                     l985:
  2660  0035CE  5017               	movf	___ftmul@sign,w,c
  2661  0035D0  0F7B               	addlw	123
  2662  0035D2  2615               	addwf	___ftmul@exp,f,c
  2663  0035D4  C00B  F017         	movff	___ftmul@f1+2,___ftmul@sign
  2664  0035D8  500E               	movf	___ftmul@f2+2,w,c
  2665  0035DA  1A17               	xorwf	___ftmul@sign,f,c
  2666  0035DC  0E80               	movlw	128
  2667  0035DE  1617               	andwf	___ftmul@sign,f,c
  2668  0035E0  8E0A               	bsf	___ftmul@f1+1,7,c
  2669  0035E2  8E0D               	bsf	___ftmul@f2+1,7,c
  2670  0035E4  0EFF               	movlw	255
  2671  0035E6  160C               	andwf	___ftmul@f2,f,c
  2672  0035E8  0EFF               	movlw	255
  2673  0035EA  160D               	andwf	___ftmul@f2+1,f,c
  2674  0035EC  0E00               	movlw	0
  2675  0035EE  160E               	andwf	___ftmul@f2+2,f,c
  2676  0035F0  0E00               	movlw	0
  2677  0035F2  6E12               	movwf	___ftmul@f3_as_product,c
  2678  0035F4  0E00               	movlw	0
  2679  0035F6  6E13               	movwf	___ftmul@f3_as_product+1,c
  2680  0035F8  0E00               	movlw	0
  2681  0035FA  6E14               	movwf	___ftmul@f3_as_product+2,c
  2682  0035FC  0E07               	movlw	7
  2683  0035FE  6E16               	movwf	___ftmul@cntr,c
  2684  003600                     l999:
  2685  003600  A009               	btfss	___ftmul@f1,0,c
  2686  003602  D006               	goto	l1003
  2687  003604  500C               	movf	___ftmul@f2,w,c
  2688  003606  2612               	addwf	___ftmul@f3_as_product,f,c
  2689  003608  500D               	movf	___ftmul@f2+1,w,c
  2690  00360A  2213               	addwfc	___ftmul@f3_as_product+1,f,c
  2691  00360C  500E               	movf	___ftmul@f2+2,w,c
  2692  00360E  2214               	addwfc	___ftmul@f3_as_product+2,f,c
  2693  003610                     l1003:
  2694  003610  90D8               	bcf	status,0,c
  2695  003612  320B               	rrcf	___ftmul@f1+2,f,c
  2696  003614  320A               	rrcf	___ftmul@f1+1,f,c
  2697  003616  3209               	rrcf	___ftmul@f1,f,c
  2698  003618  90D8               	bcf	status,0,c
  2699  00361A  360C               	rlcf	___ftmul@f2,f,c
  2700  00361C  360D               	rlcf	___ftmul@f2+1,f,c
  2701  00361E  360E               	rlcf	___ftmul@f2+2,f,c
  2702  003620  2E16               	decfsz	___ftmul@cntr,f,c
  2703  003622  D7EE               	goto	l999
  2704  003624  0E09               	movlw	9
  2705  003626  6E16               	movwf	___ftmul@cntr,c
  2706  003628                     l1009:
  2707  003628  A009               	btfss	___ftmul@f1,0,c
  2708  00362A  D006               	goto	l1013
  2709  00362C  500C               	movf	___ftmul@f2,w,c
  2710  00362E  2612               	addwf	___ftmul@f3_as_product,f,c
  2711  003630  500D               	movf	___ftmul@f2+1,w,c
  2712  003632  2213               	addwfc	___ftmul@f3_as_product+1,f,c
  2713  003634  500E               	movf	___ftmul@f2+2,w,c
  2714  003636  2214               	addwfc	___ftmul@f3_as_product+2,f,c
  2715  003638                     l1013:
  2716  003638  90D8               	bcf	status,0,c
  2717  00363A  320B               	rrcf	___ftmul@f1+2,f,c
  2718  00363C  320A               	rrcf	___ftmul@f1+1,f,c
  2719  00363E  3209               	rrcf	___ftmul@f1,f,c
  2720  003640  90D8               	bcf	status,0,c
  2721  003642  3214               	rrcf	___ftmul@f3_as_product+2,f,c
  2722  003644  3213               	rrcf	___ftmul@f3_as_product+1,f,c
  2723  003646  3212               	rrcf	___ftmul@f3_as_product,f,c
  2724  003648  2E16               	decfsz	___ftmul@cntr,f,c
  2725  00364A  D7EE               	goto	l1009
  2726  00364C  C012  F001         	movff	___ftmul@f3_as_product,___ftpack@arg
  2727  003650  C013  F002         	movff	___ftmul@f3_as_product+1,___ftpack@arg+1
  2728  003654  C014  F003         	movff	___ftmul@f3_as_product+2,___ftpack@arg+2
  2729  003658  C015  F004         	movff	___ftmul@exp,___ftpack@exp
  2730  00365C  C017  F005         	movff	___ftmul@sign,___ftpack@sign
  2731  003660  ECA6  F019         	call	___ftpack	;wreg free
  2732  003664  C001  F009         	movff	?___ftpack,?___ftmul
  2733  003668  C002  F00A         	movff	?___ftpack+1,?___ftmul+1
  2734  00366C  C003  F00B         	movff	?___ftpack+2,?___ftmul+2
  2735  003670                     l663:
  2736  003670  0012               	return	
  2737  003672  FFFF               	dw	65535	; errata NOP
  2738  003674                     __end_of___ftmul:
  2739                           	opt stack 0
  2740                           prodh	equ	0xFF4
  2741                           prodl	equ	0xFF3
  2742                           postinc0	equ	0xFEE
  2743                           wreg	equ	0xFE8
  2744                           status	equ	0xFD8
  2745                           
  2746 ;; *************** function ___ftge *****************
  2747 ;; Defined at:
  2748 ;;		line 4 in file "C:\Program Files (x86)\Microchip\xc8\v1.33\sources\common\ftge.c"
  2749 ;; Parameters:    Size  Location     Type
  2750 ;;  ff1             3    0[COMRAM] float 
  2751 ;;  ff2             3    3[COMRAM] float 
  2752 ;; Auto vars:     Size  Location     Type
  2753 ;;		None
  2754 ;; Return value:  Size  Location     Type
  2755 ;;		None               void
  2756 ;; Registers used:
  2757 ;;		wreg, status,2, status,0
  2758 ;; Tracked objects:
  2759 ;;		On entry : 0/0
  2760 ;;		On exit  : 0/0
  2761 ;;		Unchanged: 0/0
  2762 ;; Data sizes:     COMRAM   BANK0   BANK1   BANK2   BANK3   BANK4   BANK5
  2763 ;;      Params:         6       0       0       0       0       0       0
  2764 ;;      Locals:         0       0       0       0       0       0       0
  2765 ;;      Temps:          3       0       0       0       0       0       0
  2766 ;;      Totals:         9       0       0       0       0       0       0
  2767 ;;Total ram usage:        9 bytes
  2768 ;; Hardware stack levels used:    1
  2769 ;; This function calls:
  2770 ;;		Nothing
  2771 ;; This function is called by:
  2772 ;;		_sqrt
  2773 ;; This function uses a non-reentrant model
  2774 ;;
  2775                           
  2776                           	psect	text9
  2777  0032B8                     __ptext9:
  2778                           	opt stack 0
  2779  0032B8                     ___ftge:
  2780                           	opt stack 28
  2781                           
  2782                           ;incstack = 0
  2783  0032B8  FFFF               	dw	65535
  2784  0032BA  AE03               	btfss	___ftge@ff1+2,7,c
  2785  0032BC  D016               	goto	l1031
  2786  0032BE  C001  F007         	movff	___ftge@ff1,??___ftge
  2787  0032C2  C002  F008         	movff	___ftge@ff1+1,??___ftge+1
  2788  0032C6  C003  F009         	movff	___ftge@ff1+2,??___ftge+2
  2789  0032CA  1E07               	comf	??___ftge,f,c
  2790  0032CC  1E08               	comf	??___ftge+1,f,c
  2791  0032CE  1E09               	comf	??___ftge+2,f,c
  2792  0032D0  2A07               	incf	??___ftge,f,c
  2793  0032D2  0E00               	movlw	0
  2794  0032D4  2208               	addwfc	??___ftge+1,f,c
  2795  0032D6  2209               	addwfc	??___ftge+2,f,c
  2796  0032D8  0E00               	movlw	0
  2797  0032DA  2407               	addwf	??___ftge,w,c
  2798  0032DC  6E01               	movwf	___ftge@ff1,c
  2799  0032DE  0E00               	movlw	0
  2800  0032E0  2008               	addwfc	??___ftge+1,w,c
  2801  0032E2  6E02               	movwf	___ftge@ff1+1,c
  2802  0032E4  0E80               	movlw	128
  2803  0032E6  2009               	addwfc	??___ftge+2,w,c
  2804  0032E8  6E03               	movwf	___ftge@ff1+2,c
  2805  0032EA                     l1031:
  2806  0032EA  AE06               	btfss	___ftge@ff2+2,7,c
  2807  0032EC  D016               	goto	l1035
  2808  0032EE  C004  F007         	movff	___ftge@ff2,??___ftge
  2809  0032F2  C005  F008         	movff	___ftge@ff2+1,??___ftge+1
  2810  0032F6  C006  F009         	movff	___ftge@ff2+2,??___ftge+2
  2811  0032FA  1E07               	comf	??___ftge,f,c
  2812  0032FC  1E08               	comf	??___ftge+1,f,c
  2813  0032FE  1E09               	comf	??___ftge+2,f,c
  2814  003300  2A07               	incf	??___ftge,f,c
  2815  003302  0E00               	movlw	0
  2816  003304  2208               	addwfc	??___ftge+1,f,c
  2817  003306  2209               	addwfc	??___ftge+2,f,c
  2818  003308  0E00               	movlw	0
  2819  00330A  2407               	addwf	??___ftge,w,c
  2820  00330C  6E04               	movwf	___ftge@ff2,c
  2821  00330E  0E00               	movlw	0
  2822  003310  2008               	addwfc	??___ftge+1,w,c
  2823  003312  6E05               	movwf	___ftge@ff2+1,c
  2824  003314  0E80               	movlw	128
  2825  003316  2009               	addwfc	??___ftge+2,w,c
  2826  003318  6E06               	movwf	___ftge@ff2+2,c
  2827  00331A                     l1035:
  2828  00331A  0E00               	movlw	0
  2829  00331C  1A01               	xorwf	___ftge@ff1,f,c
  2830  00331E  0E00               	movlw	0
  2831  003320  1A02               	xorwf	___ftge@ff1+1,f,c
  2832  003322  0E80               	movlw	128
  2833  003324  1A03               	xorwf	___ftge@ff1+2,f,c
  2834  003326  0E00               	movlw	0
  2835  003328  1A04               	xorwf	___ftge@ff2,f,c
  2836  00332A  0E00               	movlw	0
  2837  00332C  1A05               	xorwf	___ftge@ff2+1,f,c
  2838  00332E  0E80               	movlw	128
  2839  003330  1A06               	xorwf	___ftge@ff2+2,f,c
  2840  003332  5004               	movf	___ftge@ff2,w,c
  2841  003334  5C01               	subwf	___ftge@ff1,w,c
  2842  003336  5005               	movf	___ftge@ff2+1,w,c
  2843  003338  5802               	subwfb	___ftge@ff1+1,w,c
  2844  00333A  5006               	movf	___ftge@ff2+2,w,c
  2845  00333C  5803               	subwfb	___ftge@ff1+2,w,c
  2846  00333E  B0D8               	btfsc	status,0,c
  2847  003340  D002               	goto	l1041
  2848  003342  90D8               	bcf	status,0,c
  2849  003344  D001               	goto	l657
  2850  003346                     l1041:
  2851  003346  80D8               	bsf	status,0,c
  2852  003348                     l657:
  2853  003348  0012               	return	
  2854  00334A  FFFF               	dw	65535	; errata NOP
  2855  00334C                     __end_of___ftge:
  2856                           	opt stack 0
  2857                           prodh	equ	0xFF4
  2858                           prodl	equ	0xFF3
  2859                           postinc0	equ	0xFEE
  2860                           wreg	equ	0xFE8
  2861                           status	equ	0xFD8
  2862                           
  2863 ;; *************** function ___fttol *****************
  2864 ;; Defined at:
  2865 ;;		line 44 in file "C:\Program Files (x86)\Microchip\xc8\v1.33\sources\common\fttol.c"
  2866 ;; Parameters:    Size  Location     Type
  2867 ;;  f1              3   45[COMRAM] float 
  2868 ;; Auto vars:     Size  Location     Type
  2869 ;;  lval            4   55[COMRAM] unsigned long 
  2870 ;;  exp1            1   59[COMRAM] unsigned char 
  2871 ;;  sign1           1   54[COMRAM] unsigned char 
  2872 ;; Return value:  Size  Location     Type
  2873 ;;                  4   45[COMRAM] long 
  2874 ;; Registers used:
  2875 ;;		wreg, status,2, status,0
  2876 ;; Tracked objects:
  2877 ;;		On entry : 0/0
  2878 ;;		On exit  : 0/0
  2879 ;;		Unchanged: 0/0
  2880 ;; Data sizes:     COMRAM   BANK0   BANK1   BANK2   BANK3   BANK4   BANK5
  2881 ;;      Params:         4       0       0       0       0       0       0
  2882 ;;      Locals:         6       0       0       0       0       0       0
  2883 ;;      Temps:          5       0       0       0       0       0       0
  2884 ;;      Totals:        15       0       0       0       0       0       0
  2885 ;;Total ram usage:       15 bytes
  2886 ;; Hardware stack levels used:    1
  2887 ;; This function calls:
  2888 ;;		Nothing
  2889 ;; This function is called by:
  2890 ;;		_load_Digipot
  2891 ;; This function uses a non-reentrant model
  2892 ;;
  2893                           
  2894                           	psect	text10
  2895  0034B4                     __ptext10:
  2896                           	opt stack 0
  2897  0034B4                     ___fttol:
  2898                           	opt stack 29
  2899                           
  2900                           ;incstack = 0
  2901  0034B4  FFFF               	dw	65535
  2902  0034B6  C030  F032         	movff	___fttol@f1+2,??___fttol
  2903  0034BA  6A33               	clrf	(??___fttol+1)& (0+255),c
  2904  0034BC  6A34               	clrf	(??___fttol+2)& (0+255),c
  2905  0034BE  342F               	rlcf	___fttol@f1+1,w,c
  2906  0034C0  3632               	rlcf	??___fttol& (0+255),f,c
  2907  0034C2  E301               	bnc	u411
  2908  0034C4  8033               	bsf	(??___fttol+1)& (0+255),0,c
  2909  0034C6                     u411:
  2910  0034C6  5032               	movf	??___fttol,w,c
  2911  0034C8  6E3C               	movwf	___fttol@exp1,c
  2912  0034CA  663C               	tstfsz	___fttol@exp1& (0+255),c
  2913  0034CC  D001               	goto	l1097
  2914  0034CE  D038               	goto	u460
  2915  0034D0                     l1097:
  2916  0034D0  0E17               	movlw	23
  2917  0034D2  6E32               	movwf	??___fttol& (0+255),c
  2918  0034D4  C02E  F033         	movff	___fttol@f1,??___fttol+1
  2919  0034D8  C02F  F034         	movff	___fttol@f1+1,??___fttol+2
  2920  0034DC  C030  F035         	movff	___fttol@f1+2,??___fttol+3
  2921  0034E0  2832               	incf	??___fttol,w,c
  2922  0034E2  6E36               	movwf	(??___fttol+4)& (0+255),c
  2923  0034E4  D004               	goto	u430
  2924  0034E6                     u435:
  2925  0034E6  90D8               	bcf	status,0,c
  2926  0034E8  3235               	rrcf	??___fttol+3,f,c
  2927  0034EA  3234               	rrcf	??___fttol+2,f,c
  2928  0034EC  3233               	rrcf	??___fttol+1,f,c
  2929  0034EE                     u430:
  2930  0034EE  2E36               	decfsz	(??___fttol+4)& (0+255),f,c
  2931  0034F0  D7FA               	goto	u435
  2932  0034F2  5033               	movf	??___fttol+1,w,c
  2933  0034F4  6E37               	movwf	___fttol@sign1,c
  2934  0034F6  8E2F               	bsf	___fttol@f1+1,7,c
  2935  0034F8  0EFF               	movlw	255
  2936  0034FA  162E               	andwf	___fttol@f1,f,c
  2937  0034FC  0EFF               	movlw	255
  2938  0034FE  162F               	andwf	___fttol@f1+1,f,c
  2939  003500  0E00               	movlw	0
  2940  003502  1630               	andwf	___fttol@f1+2,f,c
  2941  003504  502E               	movf	___fttol@f1,w,c
  2942  003506  6E38               	movwf	___fttol@lval,c
  2943  003508  502F               	movf	___fttol@f1+1,w,c
  2944  00350A  6E39               	movwf	___fttol@lval+1,c
  2945  00350C  5030               	movf	___fttol@f1+2,w,c
  2946  00350E  6E3A               	movwf	___fttol@lval+2,c
  2947  003510  6A3B               	clrf	___fttol@lval+3,c
  2948  003512  0E8E               	movlw	142
  2949  003514  5E3C               	subwf	___fttol@exp1,f,c
  2950  003516  AE3C               	btfss	___fttol@exp1,7,c
  2951  003518  D010               	goto	l1119
  2952  00351A  503C               	movf	___fttol@exp1,w,c
  2953  00351C  0A80               	xorlw	128
  2954  00351E  6E32               	movwf	??___fttol& (0+255),c
  2955  003520  0EF1               	movlw	241
  2956  003522  0A80               	xorlw	128
  2957  003524  5C32               	subwf	??___fttol,w,c
  2958  003526  A0D8               	btfss	status,0,c
  2959  003528  D00B               	goto	u460
  2960  00352A                     l1115:
  2961  00352A  90D8               	bcf	status,0,c
  2962  00352C  323B               	rrcf	___fttol@lval+3,f,c
  2963  00352E  323A               	rrcf	___fttol@lval+2,f,c
  2964  003530  3239               	rrcf	___fttol@lval+1,f,c
  2965  003532  3238               	rrcf	___fttol@lval,f,c
  2966  003534  3E3C               	incfsz	___fttol@exp1,f,c
  2967  003536  D7F9               	goto	l1115
  2968  003538  D014               	goto	l1129
  2969  00353A                     l1119:
  2970  00353A  0E17               	movlw	23
  2971  00353C  643C               	cpfsgt	___fttol@exp1,c
  2972  00353E  D00F               	goto	l1127
  2973  003540                     u460:
  2974  003540  0E00               	movlw	0
  2975  003542  6E2E               	movwf	?___fttol,c
  2976  003544  0E00               	movlw	0
  2977  003546  6E2F               	movwf	?___fttol+1,c
  2978  003548  0E00               	movlw	0
  2979  00354A  6E30               	movwf	?___fttol+2,c
  2980  00354C  0E00               	movlw	0
  2981  00354E  6E31               	movwf	?___fttol+3,c
  2982  003550  D01B               	goto	l683
  2983  003552                     l1125:
  2984  003552  90D8               	bcf	status,0,c
  2985  003554  3638               	rlcf	___fttol@lval,f,c
  2986  003556  3639               	rlcf	___fttol@lval+1,f,c
  2987  003558  363A               	rlcf	___fttol@lval+2,f,c
  2988  00355A  363B               	rlcf	___fttol@lval+3,f,c
  2989  00355C  063C               	decf	___fttol@exp1,f,c
  2990  00355E                     l1127:
  2991  00355E  663C               	tstfsz	___fttol@exp1,c
  2992  003560  D7F8               	goto	l1125
  2993  003562                     l1129:
  2994  003562  5037               	movf	___fttol@sign1,w,c
  2995  003564  B4D8               	btfsc	status,2,c
  2996  003566  D008               	goto	l1133
  2997  003568  1E3B               	comf	___fttol@lval+3,f,c
  2998  00356A  1E3A               	comf	___fttol@lval+2,f,c
  2999  00356C  1E39               	comf	___fttol@lval+1,f,c
  3000  00356E  6C38               	negf	___fttol@lval,c
  3001  003570  0E00               	movlw	0
  3002  003572  2239               	addwfc	___fttol@lval+1,f,c
  3003  003574  223A               	addwfc	___fttol@lval+2,f,c
  3004  003576  223B               	addwfc	___fttol@lval+3,f,c
  3005  003578                     l1133:
  3006  003578  C038  F02E         	movff	___fttol@lval,?___fttol
  3007  00357C  C039  F02F         	movff	___fttol@lval+1,?___fttol+1
  3008  003580  C03A  F030         	movff	___fttol@lval+2,?___fttol+2
  3009  003584  C03B  F031         	movff	___fttol@lval+3,?___fttol+3
  3010  003588                     l683:
  3011  003588  0012               	return	
  3012  00358A  FFFF               	dw	65535	; errata NOP
  3013  00358C                     __end_of___fttol:
  3014                           	opt stack 0
  3015                           prodh	equ	0xFF4
  3016                           prodl	equ	0xFF3
  3017                           postinc0	equ	0xFEE
  3018                           wreg	equ	0xFE8
  3019                           status	equ	0xFD8
  3020                           
  3021 ;; *************** function ___awtoft *****************
  3022 ;; Defined at:
  3023 ;;		line 32 in file "C:\Program Files (x86)\Microchip\xc8\v1.33\sources\common\awtoft.c"
  3024 ;; Parameters:    Size  Location     Type
  3025 ;;  c               2    8[COMRAM] int 
  3026 ;; Auto vars:     Size  Location     Type
  3027 ;;  sign            1   11[COMRAM] unsigned char 
  3028 ;; Return value:  Size  Location     Type
  3029 ;;                  3    8[COMRAM] float 
  3030 ;; Registers used:
  3031 ;;		wreg, status,2, status,0, prodl, cstack
  3032 ;; Tracked objects:
  3033 ;;		On entry : 0/0
  3034 ;;		On exit  : 0/0
  3035 ;;		Unchanged: 0/0
  3036 ;; Data sizes:     COMRAM   BANK0   BANK1   BANK2   BANK3   BANK4   BANK5
  3037 ;;      Params:         3       0       0       0       0       0       0
  3038 ;;      Locals:         1       0       0       0       0       0       0
  3039 ;;      Temps:          0       0       0       0       0       0       0
  3040 ;;      Totals:         4       0       0       0       0       0       0
  3041 ;;Total ram usage:        4 bytes
  3042 ;; Hardware stack levels used:    1
  3043 ;; Hardware stack levels required when called:    1
  3044 ;; This function calls:
  3045 ;;		___ftpack
  3046 ;; This function is called by:
  3047 ;;		_load_Digipot
  3048 ;; This function uses a non-reentrant model
  3049 ;;
  3050                           
  3051                           	psect	text11
  3052  00313A                     __ptext11:
  3053                           	opt stack 0
  3054  00313A                     ___awtoft:
  3055                           	opt stack 28
  3056                           
  3057                           ;incstack = 0
  3058  00313A  FFFF               	dw	65535
  3059  00313C  0E00               	movlw	0
  3060  00313E  6E0C               	movwf	___awtoft@sign,c
  3061  003140  500A               	movf	___awtoft@c+1,w,c
  3062  003142  0A80               	xorlw	128
  3063  003144  6EF3               	movwf	prodl,c
  3064  003146  0E80               	movlw	128
  3065  003148  5CF3               	subwf	prodl,w,c
  3066  00314A  0E00               	movlw	0
  3067  00314C  B4D8               	btfsc	status,2,c
  3068  00314E  5C09               	subwf	___awtoft@c,w,c
  3069  003150  B0D8               	btfsc	status,0,c
  3070  003152  D006               	goto	l1087
  3071  003154  6C09               	negf	___awtoft@c,c
  3072  003156  1E0A               	comf	___awtoft@c+1,f,c
  3073  003158  B0D8               	btfsc	status,0,c
  3074  00315A  2A0A               	incf	___awtoft@c+1,f,c
  3075  00315C  0E01               	movlw	1
  3076  00315E  6E0C               	movwf	___awtoft@sign,c
  3077  003160                     l1087:
  3078  003160  C009  F001         	movff	___awtoft@c,___ftpack@arg
  3079  003164  C00A  F002         	movff	___awtoft@c+1,___ftpack@arg+1
  3080  003168  6A03               	clrf	___ftpack@arg+2,c
  3081  00316A  0E8E               	movlw	142
  3082  00316C  6E04               	movwf	___ftpack@exp,c
  3083  00316E  C00C  F005         	movff	___awtoft@sign,___ftpack@sign
  3084  003172  ECA6  F019         	call	___ftpack	;wreg free
  3085  003176  C001  F009         	movff	?___ftpack,?___awtoft
  3086  00317A  C002  F00A         	movff	?___ftpack+1,?___awtoft+1
  3087  00317E  C003  F00B         	movff	?___ftpack+2,?___awtoft+2
  3088  003182  0012               	return	
  3089  003184  FFFF               	dw	65535	; errata NOP
  3090  003186                     __end_of___awtoft:
  3091                           	opt stack 0
  3092                           prodh	equ	0xFF4
  3093                           prodl	equ	0xFF3
  3094                           postinc0	equ	0xFEE
  3095                           wreg	equ	0xFE8
  3096                           status	equ	0xFD8
  3097                           
  3098 ;; *************** function ___ftpack *****************
  3099 ;; Defined at:
  3100 ;;		line 62 in file "C:\Program Files (x86)\Microchip\xc8\v1.33\sources\common\float.c"
  3101 ;; Parameters:    Size  Location     Type
  3102 ;;  arg             3    0[COMRAM] unsigned um
  3103 ;;  exp             1    3[COMRAM] unsigned char 
  3104 ;;  sign            1    4[COMRAM] unsigned char 
  3105 ;; Auto vars:     Size  Location     Type
  3106 ;;		None
  3107 ;; Return value:  Size  Location     Type
  3108 ;;                  3    0[COMRAM] float 
  3109 ;; Registers used:
  3110 ;;		wreg, status,2, status,0
  3111 ;; Tracked objects:
  3112 ;;		On entry : 0/0
  3113 ;;		On exit  : 0/0
  3114 ;;		Unchanged: 0/0
  3115 ;; Data sizes:     COMRAM   BANK0   BANK1   BANK2   BANK3   BANK4   BANK5
  3116 ;;      Params:         5       0       0       0       0       0       0
  3117 ;;      Locals:         0       0       0       0       0       0       0
  3118 ;;      Temps:          3       0       0       0       0       0       0
  3119 ;;      Totals:         8       0       0       0       0       0       0
  3120 ;;Total ram usage:        8 bytes
  3121 ;; Hardware stack levels used:    1
  3122 ;; This function calls:
  3123 ;;		Nothing
  3124 ;; This function is called by:
  3125 ;;		___awtoft
  3126 ;;		___ftadd
  3127 ;;		___ftmul
  3128 ;; This function uses a non-reentrant model
  3129 ;;
  3130                           
  3131                           	psect	text12
  3132  00334C                     __ptext12:
  3133                           	opt stack 0
  3134  00334C                     ___ftpack:
  3135                           	opt stack 26
  3136                           
  3137                           ;incstack = 0
  3138  00334C  FFFF               	dw	65535
  3139  00334E  5004               	movf	___ftpack@exp,w,c
  3140  003350  B4D8               	btfsc	status,2,c
  3141  003352  D005               	goto	l873
  3142  003354  5001               	movf	___ftpack@arg,w,c
  3143  003356  1002               	iorwf	___ftpack@arg+1,w,c
  3144  003358  1003               	iorwf	___ftpack@arg+2,w,c
  3145  00335A  A4D8               	btfss	status,2,c
  3146  00335C  D00C               	goto	l879
  3147  00335E                     l873:
  3148  00335E  0E00               	movlw	0
  3149  003360  6E01               	movwf	?___ftpack,c
  3150  003362  0E00               	movlw	0
  3151  003364  6E02               	movwf	?___ftpack+1,c
  3152  003366  0E00               	movlw	0
  3153  003368  6E03               	movwf	?___ftpack+2,c
  3154  00336A  D044               	goto	l579
  3155  00336C                     l877:
  3156  00336C  2A04               	incf	___ftpack@exp,f,c
  3157  00336E  90D8               	bcf	status,0,c
  3158  003370  3203               	rrcf	___ftpack@arg+2,f,c
  3159  003372  3202               	rrcf	___ftpack@arg+1,f,c
  3160  003374  3201               	rrcf	___ftpack@arg,f,c
  3161  003376                     l879:
  3162  003376  0E00               	movlw	0
  3163  003378  1401               	andwf	___ftpack@arg,w,c
  3164  00337A  6E06               	movwf	??___ftpack& (0+255),c
  3165  00337C  0E00               	movlw	0
  3166  00337E  1402               	andwf	___ftpack@arg+1,w,c
  3167  003380  6E07               	movwf	(??___ftpack+1)& (0+255),c
  3168  003382  0EFE               	movlw	254
  3169  003384  1403               	andwf	___ftpack@arg+2,w,c
  3170  003386  6E08               	movwf	(??___ftpack+2)& (0+255),c
  3171  003388  5006               	movf	??___ftpack,w,c
  3172  00338A  1007               	iorwf	??___ftpack+1,w,c
  3173  00338C  1008               	iorwf	??___ftpack+2,w,c
  3174  00338E  B4D8               	btfsc	status,2,c
  3175  003390  D00C               	goto	l885
  3176  003392  D7EC               	goto	l877
  3177  003394                     l881:
  3178  003394  2A04               	incf	___ftpack@exp,f,c
  3179  003396  0E01               	movlw	1
  3180  003398  2601               	addwf	___ftpack@arg,f,c
  3181  00339A  0E00               	movlw	0
  3182  00339C  2202               	addwfc	___ftpack@arg+1,f,c
  3183  00339E  0E00               	movlw	0
  3184  0033A0  2203               	addwfc	___ftpack@arg+2,f,c
  3185  0033A2  90D8               	bcf	status,0,c
  3186  0033A4  3203               	rrcf	___ftpack@arg+2,f,c
  3187  0033A6  3202               	rrcf	___ftpack@arg+1,f,c
  3188  0033A8  3201               	rrcf	___ftpack@arg,f,c
  3189  0033AA                     l885:
  3190  0033AA  0E00               	movlw	0
  3191  0033AC  1401               	andwf	___ftpack@arg,w,c
  3192  0033AE  6E06               	movwf	??___ftpack& (0+255),c
  3193  0033B0  0E00               	movlw	0
  3194  0033B2  1402               	andwf	___ftpack@arg+1,w,c
  3195  0033B4  6E07               	movwf	(??___ftpack+1)& (0+255),c
  3196  0033B6  0EFF               	movlw	255
  3197  0033B8  1403               	andwf	___ftpack@arg+2,w,c
  3198  0033BA  6E08               	movwf	(??___ftpack+2)& (0+255),c
  3199  0033BC  5006               	movf	??___ftpack,w,c
  3200  0033BE  1007               	iorwf	??___ftpack+1,w,c
  3201  0033C0  1008               	iorwf	??___ftpack+2,w,c
  3202  0033C2  B4D8               	btfsc	status,2,c
  3203  0033C4  D006               	goto	l889
  3204  0033C6  D7E6               	goto	l881
  3205  0033C8                     l887:
  3206  0033C8  0604               	decf	___ftpack@exp,f,c
  3207  0033CA  90D8               	bcf	status,0,c
  3208  0033CC  3601               	rlcf	___ftpack@arg,f,c
  3209  0033CE  3602               	rlcf	___ftpack@arg+1,f,c
  3210  0033D0  3603               	rlcf	___ftpack@arg+2,f,c
  3211  0033D2                     l889:
  3212  0033D2  AE02               	btfss	___ftpack@arg+1,7,c
  3213  0033D4  D7F9               	goto	l887
  3214  0033D6  A004               	btfss	___ftpack@exp,0,c
  3215  0033D8  9E02               	bcf	___ftpack@arg+1,7,c
  3216  0033DA  90D8               	bcf	status,0,c
  3217  0033DC  3204               	rrcf	___ftpack@exp,f,c
  3218  0033DE  5004               	movf	___ftpack@exp,w,c
  3219  0033E0  1203               	iorwf	___ftpack@arg+2,f,c
  3220  0033E2  5005               	movf	___ftpack@sign,w,c
  3221  0033E4  A4D8               	btfss	status,2,c
  3222  0033E6  8E03               	bsf	___ftpack@arg+2,7,c
  3223  0033E8  C001  F001         	movff	___ftpack@arg,?___ftpack
  3224  0033EC  C002  F002         	movff	___ftpack@arg+1,?___ftpack+1
  3225  0033F0  C003  F003         	movff	___ftpack@arg+2,?___ftpack+2
  3226  0033F4                     l579:
  3227  0033F4  0012               	return	
  3228  0033F6  FFFF               	dw	65535	; errata NOP
  3229  0033F8                     __end_of___ftpack:
  3230                           	opt stack 0
  3231                           prodh	equ	0xFF4
  3232                           prodl	equ	0xFF3
  3233                           postinc0	equ	0xFEE
  3234                           wreg	equ	0xFE8
  3235                           status	equ	0xFD8
  3236                           
  3237 ;; *************** function _get_char *****************
  3238 ;; Defined at:
  3239 ;;		line 33 in file "E:\Study Material\XC8 PROJECTS\Android Cautery\my_serial.c"
  3240 ;; Parameters:    Size  Location     Type
  3241 ;;		None
  3242 ;; Auto vars:     Size  Location     Type
  3243 ;;  rx_delay        2    1[COMRAM] unsigned int 
  3244 ;;  data            1    0[COMRAM] unsigned char 
  3245 ;; Return value:  Size  Location     Type
  3246 ;;                  1    wreg      unsigned char 
  3247 ;; Registers used:
  3248 ;;		wreg, status,2, status,0
  3249 ;; Tracked objects:
  3250 ;;		On entry : 0/0
  3251 ;;		On exit  : 0/0
  3252 ;;		Unchanged: 0/0
  3253 ;; Data sizes:     COMRAM   BANK0   BANK1   BANK2   BANK3   BANK4   BANK5
  3254 ;;      Params:         0       0       0       0       0       0       0
  3255 ;;      Locals:         3       0       0       0       0       0       0
  3256 ;;      Temps:          0       0       0       0       0       0       0
  3257 ;;      Totals:         3       0       0       0       0       0       0
  3258 ;;Total ram usage:        3 bytes
  3259 ;; Hardware stack levels used:    1
  3260 ;; This function calls:
  3261 ;;		Nothing
  3262 ;; This function is called by:
  3263 ;;		_main
  3264 ;; This function uses a non-reentrant model
  3265 ;;
  3266                           
  3267                           	psect	text13
  3268  0030F4                     __ptext13:
  3269                           	opt stack 0
  3270  0030F4                     _get_char:
  3271                           	opt stack 30
  3272                           
  3273                           ;incstack = 0
  3274  0030F4  FFFF               	dw	65535
  3275                           
  3276                           ;my_serial.c: 35: char data;
  3277                           ;my_serial.c: 36: unsigned int rx_delay = 0;
  3278  0030F6  0E00               	movlw	0
  3279  0030F8  6E03               	movwf	get_char@rx_delay+1,c
  3280  0030FA  0E00               	movlw	0
  3281  0030FC  6E02               	movwf	get_char@rx_delay,c
  3282                           
  3283                           ;my_serial.c: 37: while(!PIR1bits.RCIF && rx_delay < 50000)
  3284  0030FE  D006               	goto	l1227
  3285  003100                     l1223:
  3286                           
  3287                           ;my_serial.c: 38: {
  3288                           ;my_serial.c: 39: _delay((unsigned long)((5)*(40000000/4000000.0)));
  3289  003100  0E0A               	movlw	10
  3290  003102                     u1357:
  3291  003102  F000               	nop	
  3292  003104  2EE8               	decfsz	wreg,f,c
  3293  003106  D7FD               	goto	u1357
  3294                           
  3295                           ;my_serial.c: 40: rx_delay++;
  3296  003108  4A02               	infsnz	get_char@rx_delay,f,c
  3297  00310A  2A03               	incf	get_char@rx_delay+1,f,c
  3298  00310C                     l1227:
  3299  00310C  BA9E               	btfsc	3998,5,c	;volatile
  3300  00310E  D006               	goto	l1231
  3301  003110  0E50               	movlw	80
  3302  003112  5C02               	subwf	get_char@rx_delay,w,c
  3303  003114  0EC3               	movlw	195
  3304  003116  5803               	subwfb	get_char@rx_delay+1,w,c
  3305  003118  A0D8               	btfss	status,0,c
  3306  00311A  D7F2               	goto	l1223
  3307  00311C                     l1231:
  3308                           
  3309                           ;my_serial.c: 41: }
  3310                           ;my_serial.c: 42: if(rx_delay >= 50000)
  3311  00311C  0E50               	movlw	80
  3312  00311E  5C02               	subwf	get_char@rx_delay,w,c
  3313  003120  0EC3               	movlw	195
  3314  003122  5803               	subwfb	get_char@rx_delay+1,w,c
  3315  003124  A0D8               	btfss	status,0,c
  3316  003126  D003               	goto	l171
  3317                           
  3318                           ;my_serial.c: 43: {
  3319                           ;my_serial.c: 44: RC1 = 1;
  3320  003128  8282               	bsf	3970,1,c	;volatile
  3321                           
  3322                           ;my_serial.c: 45: return 'X';
  3323  00312A  0E58               	movlw	88
  3324  00312C  D004               	goto	l172
  3325  00312E                     l171:
  3326                           
  3327                           ;my_serial.c: 46: }
  3328                           ;my_serial.c: 47: RC1 = 0;
  3329  00312E  9282               	bcf	3970,1,c	;volatile
  3330                           
  3331                           ;my_serial.c: 48: data = RCREG;
  3332  003130  CFAE F001          	movff	4014,get_char@data	;volatile
  3333                           
  3334                           ;my_serial.c: 49: return data;
  3335  003134  5001               	movf	get_char@data,w,c
  3336  003136                     l172:
  3337  003136  0012               	return	
  3338  003138  FFFF               	dw	65535	; errata NOP
  3339  00313A                     __end_of_get_char:
  3340                           	opt stack 0
  3341                           prodh	equ	0xFF4
  3342                           prodl	equ	0xFF3
  3343                           postinc0	equ	0xFEE
  3344                           wreg	equ	0xFE8
  3345                           status	equ	0xFD8
  3346                           
  3347 ;; *************** function _cut_Operation *****************
  3348 ;; Defined at:
  3349 ;;		line 20 in file "E:\Study Material\XC8 PROJECTS\Android Cautery\cautery.c"
  3350 ;; Parameters:    Size  Location     Type
  3351 ;;		None
  3352 ;; Auto vars:     Size  Location     Type
  3353 ;;		None
  3354 ;; Return value:  Size  Location     Type
  3355 ;;		None               void
  3356 ;; Registers used:
  3357 ;;		wreg, status,2, status,0
  3358 ;; Tracked objects:
  3359 ;;		On entry : 0/0
  3360 ;;		On exit  : 0/0
  3361 ;;		Unchanged: 0/0
  3362 ;; Data sizes:     COMRAM   BANK0   BANK1   BANK2   BANK3   BANK4   BANK5
  3363 ;;      Params:         0       0       0       0       0       0       0
  3364 ;;      Locals:         0       0       0       0       0       0       0
  3365 ;;      Temps:          0       0       0       0       0       0       0
  3366 ;;      Totals:         0       0       0       0       0       0       0
  3367 ;;Total ram usage:        0 bytes
  3368 ;; Hardware stack levels used:    1
  3369 ;; This function calls:
  3370 ;;		Nothing
  3371 ;; This function is called by:
  3372 ;;		_main
  3373 ;; This function uses a non-reentrant model
  3374 ;;
  3375                           
  3376                           	psect	text14
  3377  0031D6                     __ptext14:
  3378                           	opt stack 0
  3379  0031D6                     _cut_Operation:
  3380                           	opt stack 30
  3381                           
  3382                           ;incstack = 0
  3383  0031D6  FFFF               	dw	65535
  3384                           
  3385                           ;cautery.c: 22: while(RA0 == 0)
  3386  0031D8  D02F               	goto	l1259
  3387  0031DA                     l221:
  3388  0031DA  0E0A               	movlw	10	;# 
  3389  0031DC  6F5F               	movwf	_train,b	;# 
  3390  0031DE                     loop:
  3391                           
  3392                           ;# 
  3393  0031DE  8281               	bsf	3969,1,c	;# 
  3394  0031E0  F000               	nop		;# 
  3395  0031E2  F000               	nop		;# 
  3396  0031E4  F000               	nop		;# 
  3397  0031E6  F000               	nop		;# 
  3398  0031E8  F000               	nop		;# 
  3399  0031EA  F000               	nop		;# 
  3400  0031EC  F000               	nop		;# 
  3401  0031EE  F000               	nop		;# 
  3402  0031F0  F000               	nop		;# 
  3403  0031F2  9281               	bcf	3969,1,c	;# 
  3404  0031F4  F000               	nop		;# 
  3405  0031F6  F000               	nop		;# 
  3406  0031F8  F000               	nop		;# 
  3407  0031FA  F000               	nop		;# 
  3408  0031FC  F000               	nop		;# 
  3409  0031FE  F000               	nop		;# 
  3410  003200  2F5F               	decfsz	_train,f,b	;# 
  3411  003202  EFEF  F018         	goto	loop	;# 
  3412                           
  3413                           ;cautery.c: 50: if( Cut_Mode == 0 )
  3414  003206  665E               	tstfsz	_Cut_Mode,c
  3415  003208  D003               	goto	l1247
  3416                           
  3417                           ;cautery.c: 51: {
  3418                           ;cautery.c: 52: _delay(5);
  3419  00320A  F000               	nop	
  3420  00320C  D000               	nop2		;2 cycle nop
  3421  00320E  D000               	nop2		;2 cycle nop
  3422  003210                     l1247:
  3423                           
  3424                           ;cautery.c: 53: }
  3425                           ;cautery.c: 55: if( Cut_Mode == 1 )
  3426  003210  045E               	decf	_Cut_Mode,w,c
  3427  003212  A4D8               	btfss	status,2,c
  3428  003214  D003               	goto	l1251
  3429                           
  3430                           ;cautery.c: 56: {
  3431                           ;cautery.c: 57: _delay(40);
  3432  003216  0E0A               	movlw	10
  3433  003218                     u1367:
  3434  003218  2EE8               	decfsz	wreg,f,c
  3435  00321A  D7FE               	goto	u1367
  3436  00321C                     l1251:
  3437                           
  3438                           ;cautery.c: 58: }
  3439                           ;cautery.c: 60: if( Cut_Mode == 2 )
  3440  00321C  505E               	movf	_Cut_Mode,w,c
  3441  00321E  0A02               	xorlw	2
  3442  003220  A4D8               	btfss	status,2,c
  3443  003222  D003               	goto	l1255
  3444                           
  3445                           ;cautery.c: 61: {
  3446                           ;cautery.c: 62: _delay(60);
  3447  003224  0E0F               	movlw	15
  3448  003226                     u1377:
  3449  003226  2EE8               	decfsz	wreg,f,c
  3450  003228  D7FE               	goto	u1377
  3451  00322A                     l1255:
  3452                           
  3453                           ;cautery.c: 63: }
  3454                           ;cautery.c: 65: if( Cut_Mode == 3 )
  3455  00322A  505E               	movf	_Cut_Mode,w,c
  3456  00322C  0A03               	xorlw	3
  3457  00322E  A4D8               	btfss	status,2,c
  3458  003230  D003               	goto	l1259
  3459                           
  3460                           ;cautery.c: 66: {
  3461                           ;cautery.c: 67: _delay(100);
  3462  003232  0E19               	movlw	25
  3463  003234                     u1387:
  3464  003234  2EE8               	decfsz	wreg,f,c
  3465  003236  D7FE               	goto	u1387
  3466  003238                     l1259:
  3467  003238  A080               	btfss	3968,0,c	;volatile
  3468  00323A  D7CF               	goto	l221
  3469                           
  3470                           ;cautery.c: 68: }
  3471                           ;cautery.c: 69: }
  3472                           ;cautery.c: 70: RB1 = 0;
  3473  00323C  9281               	bcf	3969,1,c	;volatile
  3474  00323E  0012               	return	
  3475  003240  FFFF               	dw	65535	; errata NOP
  3476  003242                     __end_of_cut_Operation:
  3477                           	opt stack 0
  3478                           prodh	equ	0xFF4
  3479                           prodl	equ	0xFF3
  3480                           postinc0	equ	0xFEE
  3481                           wreg	equ	0xFE8
  3482                           status	equ	0xFD8
  3483                           
  3484 ;; *************** function _coag_Operation *****************
  3485 ;; Defined at:
  3486 ;;		line 73 in file "E:\Study Material\XC8 PROJECTS\Android Cautery\cautery.c"
  3487 ;; Parameters:    Size  Location     Type
  3488 ;;		None
  3489 ;; Auto vars:     Size  Location     Type
  3490 ;;		None
  3491 ;; Return value:  Size  Location     Type
  3492 ;;		None               void
  3493 ;; Registers used:
  3494 ;;		wreg, status,2, status,0
  3495 ;; Tracked objects:
  3496 ;;		On entry : 0/0
  3497 ;;		On exit  : 0/0
  3498 ;;		Unchanged: 0/0
  3499 ;; Data sizes:     COMRAM   BANK0   BANK1   BANK2   BANK3   BANK4   BANK5
  3500 ;;      Params:         0       0       0       0       0       0       0
  3501 ;;      Locals:         0       0       0       0       0       0       0
  3502 ;;      Temps:          0       0       0       0       0       0       0
  3503 ;;      Totals:         0       0       0       0       0       0       0
  3504 ;;Total ram usage:        0 bytes
  3505 ;; Hardware stack levels used:    1
  3506 ;; This function calls:
  3507 ;;		Nothing
  3508 ;; This function is called by:
  3509 ;;		_main
  3510 ;; This function uses a non-reentrant model
  3511 ;;
  3512                           
  3513                           	psect	text15
  3514  0033F8                     __ptext15:
  3515                           	opt stack 0
  3516  0033F8                     _coag_Operation:
  3517                           	opt stack 30
  3518                           
  3519                           ;incstack = 0
  3520  0033F8  FFFF               	dw	65535
  3521                           
  3522                           ;cautery.c: 75: while(RA1 == 0)
  3523  0033FA  D057               	goto	l1279
  3524  0033FC                     l231:
  3525                           
  3526                           ;cautery.c: 76: {
  3527                           ;cautery.c: 77: if(Coag_Mode == 0)
  3528  0033FC  665D               	tstfsz	_Coag_Mode,c
  3529  0033FE  D01A               	goto	l1267
  3530  003400  0E01               	movlw	1	;# 
  3531  003402  6F5F               	movwf	_train,b	;# 
  3532  003404                     loop_1:
  3533                           
  3534                           ;# 
  3535  003404  8281               	bsf	3969,1,c	;# 
  3536  003406  F000               	nop		;# 
  3537  003408  F000               	nop		;# 
  3538  00340A  F000               	nop		;# 
  3539  00340C  F000               	nop		;# 
  3540  00340E  F000               	nop		;# 
  3541  003410  F000               	nop		;# 
  3542  003412  F000               	nop		;# 
  3543  003414  F000               	nop		;# 
  3544  003416  F000               	nop		;# 
  3545  003418  9281               	bcf	3969,1,c	;# 
  3546  00341A  F000               	nop		;# 
  3547  00341C  F000               	nop		;# 
  3548  00341E  F000               	nop		;# 
  3549  003420  F000               	nop		;# 
  3550  003422  F000               	nop		;# 
  3551  003424  F000               	nop		;# 
  3552  003426  2F5F               	decfsz	_train,f,b	;# 
  3553  003428  EF02  F01A         	goto	loop_1	;# 
  3554                           
  3555                           ;cautery.c: 103: _delay(50);
  3556  00342C  0E0A               	movlw	10
  3557  00342E                     u1397:
  3558  00342E  F000               	nop	
  3559  003430  2EE8               	decfsz	wreg,f,c
  3560  003432  D7FD               	goto	u1397
  3561  003434                     l1267:
  3562                           
  3563                           ;cautery.c: 104: }
  3564                           ;cautery.c: 106: if( Coag_Mode == 1 )
  3565  003434  045D               	decf	_Coag_Mode,w,c
  3566  003436  A4D8               	btfss	status,2,c
  3567  003438  D01A               	goto	l1273
  3568  00343A  0E03               	movlw	3	;# 
  3569  00343C  6F5F               	movwf	_train,b	;# 
  3570  00343E                     loop_2:
  3571                           
  3572                           ;# 
  3573  00343E  8281               	bsf	3969,1,c	;# 
  3574  003440  F000               	nop		;# 
  3575  003442  F000               	nop		;# 
  3576  003444  F000               	nop		;# 
  3577  003446  F000               	nop		;# 
  3578  003448  F000               	nop		;# 
  3579  00344A  F000               	nop		;# 
  3580  00344C  F000               	nop		;# 
  3581  00344E  F000               	nop		;# 
  3582  003450  F000               	nop		;# 
  3583  003452  9281               	bcf	3969,1,c	;# 
  3584  003454  F000               	nop		;# 
  3585  003456  F000               	nop		;# 
  3586  003458  F000               	nop		;# 
  3587  00345A  F000               	nop		;# 
  3588  00345C  F000               	nop		;# 
  3589  00345E  F000               	nop		;# 
  3590  003460  2F5F               	decfsz	_train,f,b	;# 
  3591  003462  EF1F  F01A         	goto	loop_2	;# 
  3592                           
  3593                           ;cautery.c: 132: _delay(50);
  3594  003466  0E0A               	movlw	10
  3595  003468                     u1407:
  3596  003468  F000               	nop	
  3597  00346A  2EE8               	decfsz	wreg,f,c
  3598  00346C  D7FD               	goto	u1407
  3599  00346E                     l1273:
  3600                           
  3601                           ;cautery.c: 133: }
  3602                           ;cautery.c: 135: if( Coag_Mode == 2 )
  3603  00346E  505D               	movf	_Coag_Mode,w,c
  3604  003470  0A02               	xorlw	2
  3605  003472  A4D8               	btfss	status,2,c
  3606  003474  D01A               	goto	l1279
  3607  003476  0E03               	movlw	3	;# 
  3608  003478  6F5F               	movwf	_train,b	;# 
  3609  00347A                     loop_3:
  3610                           
  3611                           ;# 
  3612  00347A  8281               	bsf	3969,1,c	;# 
  3613  00347C  F000               	nop		;# 
  3614  00347E  F000               	nop		;# 
  3615  003480  F000               	nop		;# 
  3616  003482  F000               	nop		;# 
  3617  003484  F000               	nop		;# 
  3618  003486  F000               	nop		;# 
  3619  003488  F000               	nop		;# 
  3620  00348A  F000               	nop		;# 
  3621  00348C  F000               	nop		;# 
  3622  00348E  9281               	bcf	3969,1,c	;# 
  3623  003490  F000               	nop		;# 
  3624  003492  F000               	nop		;# 
  3625  003494  F000               	nop		;# 
  3626  003496  F000               	nop		;# 
  3627  003498  F000               	nop		;# 
  3628  00349A  F000               	nop		;# 
  3629  00349C  2F5F               	decfsz	_train,f,b	;# 
  3630  00349E  EF3D  F01A         	goto	loop_3	;# 
  3631                           
  3632                           ;cautery.c: 161: _delay(50);
  3633  0034A2  0E0A               	movlw	10
  3634  0034A4                     u1417:
  3635  0034A4  F000               	nop	
  3636  0034A6  2EE8               	decfsz	wreg,f,c
  3637  0034A8  D7FD               	goto	u1417
  3638  0034AA                     l1279:
  3639  0034AA  A280               	btfss	3968,1,c	;volatile
  3640  0034AC  D7A7               	goto	l231
  3641                           
  3642                           ;cautery.c: 162: }
  3643                           ;cautery.c: 163: }
  3644                           ;cautery.c: 164: RB1 = 0;
  3645  0034AE  9281               	bcf	3969,1,c	;volatile
  3646  0034B0  0012               	return	
  3647  0034B2  FFFF               	dw	65535	; errata NOP
  3648  0034B4                     __end_of_coag_Operation:
  3649                           	opt stack 0
  3650                           prodh	equ	0xFF4
  3651                           prodl	equ	0xFF3
  3652                           postinc0	equ	0xFEE
  3653                           wreg	equ	0xFE8
  3654                           status	equ	0xFD8
  3655                           
  3656 ;; *************** function _bi_Operation *****************
  3657 ;; Defined at:
  3658 ;;		line 167 in file "E:\Study Material\XC8 PROJECTS\Android Cautery\cautery.c"
  3659 ;; Parameters:    Size  Location     Type
  3660 ;;		None
  3661 ;; Auto vars:     Size  Location     Type
  3662 ;;		None
  3663 ;; Return value:  Size  Location     Type
  3664 ;;		None               void
  3665 ;; Registers used:
  3666 ;;		wreg, status,2, status,0
  3667 ;; Tracked objects:
  3668 ;;		On entry : 0/0
  3669 ;;		On exit  : 0/0
  3670 ;;		Unchanged: 0/0
  3671 ;; Data sizes:     COMRAM   BANK0   BANK1   BANK2   BANK3   BANK4   BANK5
  3672 ;;      Params:         0       0       0       0       0       0       0
  3673 ;;      Locals:         0       0       0       0       0       0       0
  3674 ;;      Temps:          0       0       0       0       0       0       0
  3675 ;;      Totals:         0       0       0       0       0       0       0
  3676 ;;Total ram usage:        0 bytes
  3677 ;; Hardware stack levels used:    1
  3678 ;; This function calls:
  3679 ;;		Nothing
  3680 ;; This function is called by:
  3681 ;;		_main
  3682 ;; This function uses a non-reentrant model
  3683 ;;
  3684                           
  3685                           	psect	text16
  3686  003186                     __ptext16:
  3687                           	opt stack 0
  3688  003186                     _bi_Operation:
  3689                           	opt stack 30
  3690                           
  3691                           ;incstack = 0
  3692  003186  FFFF               	dw	65535
  3693                           
  3694                           ;cautery.c: 169: while(RA2 == 0)
  3695  003188  D021               	goto	l1289
  3696  00318A                     l240:
  3697  00318A  0E0A               	movlw	10	;# 
  3698  00318C  6F5F               	movwf	_train,b	;# 
  3699  00318E                     loop_4:
  3700                           
  3701                           ;# 
  3702  00318E  8281               	bsf	3969,1,c	;# 
  3703  003190  F000               	nop		;# 
  3704  003192  F000               	nop		;# 
  3705  003194  F000               	nop		;# 
  3706  003196  F000               	nop		;# 
  3707  003198  F000               	nop		;# 
  3708  00319A  F000               	nop		;# 
  3709  00319C  F000               	nop		;# 
  3710  00319E  F000               	nop		;# 
  3711  0031A0  F000               	nop		;# 
  3712  0031A2  9281               	bcf	3969,1,c	;# 
  3713  0031A4  F000               	nop		;# 
  3714  0031A6  F000               	nop		;# 
  3715  0031A8  F000               	nop		;# 
  3716  0031AA  F000               	nop		;# 
  3717  0031AC  F000               	nop		;# 
  3718  0031AE  F000               	nop		;# 
  3719  0031B0  2F5F               	decfsz	_train,f,b	;# 
  3720  0031B2  EFC7  F018         	goto	loop_4	;# 
  3721                           
  3722                           ;cautery.c: 196: if(Bi_Mode == 0)
  3723  0031B6  665C               	tstfsz	_Bi_Mode,c
  3724  0031B8  D003               	goto	l1285
  3725                           
  3726                           ;cautery.c: 197: {
  3727                           ;cautery.c: 198: _delay(100);
  3728  0031BA  0E19               	movlw	25
  3729  0031BC                     u1427:
  3730  0031BC  2EE8               	decfsz	wreg,f,c
  3731  0031BE  D7FE               	goto	u1427
  3732  0031C0                     l1285:
  3733                           
  3734                           ;cautery.c: 199: }
  3735                           ;cautery.c: 200: if(Bi_Mode == 1)
  3736  0031C0  045C               	decf	_Bi_Mode,w,c
  3737  0031C2  A4D8               	btfss	status,2,c
  3738  0031C4  D003               	goto	l1289
  3739                           
  3740                           ;cautery.c: 201: {
  3741                           ;cautery.c: 202: _delay(600);
  3742  0031C6  0E96               	movlw	150
  3743  0031C8                     u1437:
  3744  0031C8  2EE8               	decfsz	wreg,f,c
  3745  0031CA  D7FE               	goto	u1437
  3746  0031CC                     l1289:
  3747  0031CC  A480               	btfss	3968,2,c	;volatile
  3748  0031CE  D7DD               	goto	l240
  3749                           
  3750                           ;cautery.c: 203: }
  3751                           ;cautery.c: 204: }
  3752                           ;cautery.c: 205: RB1 = 0;
  3753  0031D0  9281               	bcf	3969,1,c	;volatile
  3754  0031D2  0012               	return	
  3755  0031D4  FFFF               	dw	65535	; errata NOP
  3756  0031D6                     __end_of_bi_Operation:
  3757                           	opt stack 0
  3758                           prodh	equ	0xFF4
  3759                           prodl	equ	0xFF3
  3760                           postinc0	equ	0xFEE
  3761                           wreg	equ	0xFE8
  3762                           status	equ	0xFD8
  3763                           
  3764 ;; *************** function _USARTInit *****************
  3765 ;; Defined at:
  3766 ;;		line 7 in file "E:\Study Material\XC8 PROJECTS\Android Cautery\my_serial.c"
  3767 ;; Parameters:    Size  Location     Type
  3768 ;;		None
  3769 ;; Auto vars:     Size  Location     Type
  3770 ;;		None
  3771 ;; Return value:  Size  Location     Type
  3772 ;;		None               void
  3773 ;; Registers used:
  3774 ;;		None
  3775 ;; Tracked objects:
  3776 ;;		On entry : 0/0
  3777 ;;		On exit  : 0/0
  3778 ;;		Unchanged: 0/0
  3779 ;; Data sizes:     COMRAM   BANK0   BANK1   BANK2   BANK3   BANK4   BANK5
  3780 ;;      Params:         0       0       0       0       0       0       0
  3781 ;;      Locals:         0       0       0       0       0       0       0
  3782 ;;      Temps:          0       0       0       0       0       0       0
  3783 ;;      Totals:         0       0       0       0       0       0       0
  3784 ;;Total ram usage:        0 bytes
  3785 ;; Hardware stack levels used:    1
  3786 ;; This function calls:
  3787 ;;		Nothing
  3788 ;; This function is called by:
  3789 ;;		_main
  3790 ;; This function uses a non-reentrant model
  3791 ;;
  3792                           
  3793                           	psect	text17
  3794  003030                     __ptext17:
  3795                           	opt stack 0
  3796  003030                     _USARTInit:
  3797                           	opt stack 30
  3798                           
  3799                           ;incstack = 0
  3800  003030  FFFF               	dw	65535
  3801                           
  3802                           ;my_serial.c: 10: TRISCbits.RC6 = 0;
  3803  003032  9C94               	bcf	3988,6,c	;volatile
  3804                           
  3805                           ;my_serial.c: 11: TRISCbits.RC7 = 1;
  3806  003034  8E94               	bsf	3988,7,c	;volatile
  3807                           
  3808                           ;my_serial.c: 14: TXSTAbits.SYNC = 0;
  3809  003036  98AC               	bcf	4012,4,c	;volatile
  3810                           
  3811                           ;my_serial.c: 15: TXSTAbits.TX9 = 0;
  3812  003038  9CAC               	bcf	4012,6,c	;volatile
  3813                           
  3814                           ;my_serial.c: 16: TXSTAbits.BRGH = 1;
  3815  00303A  84AC               	bsf	4012,2,c	;volatile
  3816                           
  3817                           ;my_serial.c: 17: TXSTAbits.TXEN = 1;
  3818  00303C  8AAC               	bsf	4012,5,c	;volatile
  3819                           
  3820                           ;my_serial.c: 20: RCSTAbits.SPEN = 1;
  3821  00303E  8EAB               	bsf	4011,7,c	;volatile
  3822                           
  3823                           ;my_serial.c: 21: RCSTAbits.RX9 = 0;
  3824  003040  9CAB               	bcf	4011,6,c	;volatile
  3825                           
  3826                           ;my_serial.c: 22: RCSTAbits.CREN = 1;
  3827  003042  88AB               	bsf	4011,4,c	;volatile
  3828                           
  3829                           ;my_serial.c: 24: SPBRG = 255;
  3830  003044  68AF               	setf	4015,c	;volatile
  3831  003046  0012               	return	
  3832  003048  FFFF               	dw	65535	; errata NOP
  3833  00304A                     __end_of_USARTInit:
  3834                           	opt stack 0
  3835                           prodh	equ	0xFF4
  3836                           prodl	equ	0xFF3
  3837                           postinc0	equ	0xFEE
  3838                           wreg	equ	0xFE8
  3839                           status	equ	0xFD8
  3840                           
  3841 ;; *************** function _MY_DELAY *****************
  3842 ;; Defined at:
  3843 ;;		line 333 in file "E:\Study Material\XC8 PROJECTS\Android Cautery\Android_Cautery.c"
  3844 ;; Parameters:    Size  Location     Type
  3845 ;;  ms              2    0[COMRAM] int 
  3846 ;; Auto vars:     Size  Location     Type
  3847 ;;		None
  3848 ;; Return value:  Size  Location     Type
  3849 ;;		None               void
  3850 ;; Registers used:
  3851 ;;		wreg, status,2, status,0, prodl
  3852 ;; Tracked objects:
  3853 ;;		On entry : 0/0
  3854 ;;		On exit  : 0/0
  3855 ;;		Unchanged: 0/0
  3856 ;; Data sizes:     COMRAM   BANK0   BANK1   BANK2   BANK3   BANK4   BANK5
  3857 ;;      Params:         2       0       0       0       0       0       0
  3858 ;;      Locals:         0       0       0       0       0       0       0
  3859 ;;      Temps:          1       0       0       0       0       0       0
  3860 ;;      Totals:         3       0       0       0       0       0       0
  3861 ;;Total ram usage:        3 bytes
  3862 ;; Hardware stack levels used:    1
  3863 ;; This function calls:
  3864 ;;		Nothing
  3865 ;; This function is called by:
  3866 ;;		_main
  3867 ;; This function uses a non-reentrant model
  3868 ;;
  3869                           
  3870                           	psect	text18
  3871  00304A                     __ptext18:
  3872                           	opt stack 0
  3873  00304A                     _MY_DELAY:
  3874                           	opt stack 30
  3875                           
  3876                           ;incstack = 0
  3877  00304A  FFFF               	dw	65535
  3878                           
  3879                           ;Android_Cautery.c: 335: while(ms > 0)
  3880  00304C  D00B               	goto	l1217
  3881  00304E                     l1213:
  3882                           
  3883                           ;Android_Cautery.c: 336: {
  3884                           ;Android_Cautery.c: 337: _delay((unsigned long)((1)*(40000000/4000.0)));
  3885  00304E  0E0A               	movlw	10
  3886  003050  6E03               	movwf	??_MY_DELAY& (0+255),c
  3887  003052  0EBE               	movlw	190
  3888  003054                     u1447:
  3889  003054  2EE8               	decfsz	wreg,f,c
  3890  003056  D7FE               	goto	u1447
  3891  003058  2E03               	decfsz	??_MY_DELAY& (0+255),f,c
  3892  00305A  D7FC               	goto	u1447
  3893  00305C  D000               	nop2	
  3894                           
  3895                           ;Android_Cautery.c: 338: ms--;
  3896  00305E  0601               	decf	MY_DELAY@ms,f,c
  3897  003060  A0D8               	btfss	status,0,c
  3898  003062  0602               	decf	MY_DELAY@ms+1,f,c
  3899  003064                     l1217:
  3900  003064  5002               	movf	MY_DELAY@ms+1,w,c
  3901  003066  0A80               	xorlw	128
  3902  003068  6EF3               	movwf	prodl,c
  3903  00306A  0E80               	movlw	128
  3904  00306C  5CF3               	subwf	prodl,w,c
  3905  00306E  0E01               	movlw	1
  3906  003070  B4D8               	btfsc	status,2,c
  3907  003072  5C01               	subwf	MY_DELAY@ms,w,c
  3908  003074  A0D8               	btfss	status,0,c
  3909                           
  3910                           ;Android_Cautery.c: 339: }
  3911                           ;Android_Cautery.c: 340: return;
  3912  003076  0012               	return	
  3913  003078  FFFF               	dw	65535	; assembler added errata NOP
  3914  00307A  D7E9               	goto	l1213
  3915  00307C  FFFF               	dw	65535	; errata NOP
  3916  00307E                     __end_of_MY_DELAY:
  3917                           	opt stack 0
  3918  00307E  FFFF               	dw	65535	; assembler added errata NOP
  3919                           prodh	equ	0xFF4
  3920                           prodl	equ	0xFF3
  3921                           postinc0	equ	0xFEE
  3922                           wreg	equ	0xFE8
  3923                           status	equ	0xFD8
  3924                           prodh	equ	0xFF4
  3925                           prodl	equ	0xFF3
  3926                           postinc0	equ	0xFEE
  3927                           wreg	equ	0xFE8
  3928                           status	equ	0xFD8
  3929                           
  3930                           	psect	rparam
  3931  0000                     prodh	equ	0xFF4
  3932                           prodl	equ	0xFF3
  3933                           postinc0	equ	0xFEE
  3934                           wreg	equ	0xFE8
  3935                           status	equ	0xFD8


Data Sizes:
    Strings     0
    Constant    0
    Data        0
    BSS         12
    Persistent  0
    Stack       0

Auto Spaces:
    Space          Size  Autos    Used
    COMRAM          127     83      95
    BANK0           128      0       0
    BANK1           256      0       0
    BANK2           256      0       0
    BANK3           256      0       0
    BANK4           256      0       0
    BANK5           256      0       0

Pointer List with Targets:

    None.

Critical Paths under _main in COMRAM

    _main->_load_Digipot
    _liga_Operation->_put_char
    _init_Values->_load_Digipot
    _load_Digipot->___fttol
    _sqrt->___ftsub
    ___ftsub->___ftadd
    ___ftadd->___ftpack
    ___ftmul->___ftpack
    ___fttol->_sqrt
    ___awtoft->___ftpack

Critical Paths under _main in BANK0

    None.

Critical Paths under _main in BANK1

    None.

Critical Paths under _main in BANK2

    None.

Critical Paths under _main in BANK3

    None.

Critical Paths under _main in BANK4

    None.

Critical Paths under _main in BANK5

    None.

Call Graph Tables:

 ---------------------------------------------------------------------------------
 (Depth) Function   	        Calls       Base Space   Used Autos Params    Refs
 ---------------------------------------------------------------------------------
 (0) _main                                                12    12      0   13698
                                             71 COMRAM    12    12      0
                           _MY_DELAY
                          _USARTInit
                       _bi_Operation
                     _coag_Operation
                      _cut_Operation
                           _get_char
                        _init_Values
                     _liga_Operation
                       _load_Digipot
                           _put_char
 ---------------------------------------------------------------------------------
 (1) _liga_Operation                                       3     3      0      60
                                              1 COMRAM     3     3      0
                           _put_char
 ---------------------------------------------------------------------------------
 (1) _put_char                                             1     1      0      15
                                              0 COMRAM     1     1      0
 ---------------------------------------------------------------------------------
 (1) _init_Values                                          0     0      0    6176
                       _load_Digipot
 ---------------------------------------------------------------------------------
 (1) _load_Digipot                                        11     8      3    6176
                                             60 COMRAM    11     8      3
                           ___awtoft
                            ___fttol
                               _sqrt
 ---------------------------------------------------------------------------------
 (2) _sqrt                                                19    16      3    4072
                                             26 COMRAM    19    16      3
                           ___awtoft (ARG)
                             ___ftge
                            ___ftmul
                            ___ftsub
 ---------------------------------------------------------------------------------
 (3) ___ftsub                                              6     0      6    1890
                                             20 COMRAM     6     0      6
                            ___ftadd
 ---------------------------------------------------------------------------------
 (4) ___ftadd                                             12     6      6    1740
                                              8 COMRAM    12     6      6
                           ___ftpack
 ---------------------------------------------------------------------------------
 (3) ___ftmul                                             15     9      6    1667
                                              8 COMRAM    15     9      6
                           ___ftpack
 ---------------------------------------------------------------------------------
 (3) ___ftge                                               9     3      6     158
                                              0 COMRAM     9     3      6
 ---------------------------------------------------------------------------------
 (2) ___fttol                                             15    11      4     267
                                             45 COMRAM    15    11      4
                           ___awtoft (ARG)
                               _sqrt (ARG)
 ---------------------------------------------------------------------------------
 (2) ___awtoft                                             4     1      3    1227
                                              8 COMRAM     4     1      3
                           ___ftpack
 ---------------------------------------------------------------------------------
 (5) ___ftpack                                             8     3      5    1065
                                              0 COMRAM     8     3      5
 ---------------------------------------------------------------------------------
 (1) _get_char                                             3     3      0      45
                                              0 COMRAM     3     3      0
 ---------------------------------------------------------------------------------
 (1) _cut_Operation                                        0     0      0       0
 ---------------------------------------------------------------------------------
 (1) _coag_Operation                                       0     0      0       0
 ---------------------------------------------------------------------------------
 (1) _bi_Operation                                         0     0      0       0
 ---------------------------------------------------------------------------------
 (1) _USARTInit                                            0     0      0       0
 ---------------------------------------------------------------------------------
 (1) _MY_DELAY                                             3     1      2     491
                                              0 COMRAM     3     1      2
 ---------------------------------------------------------------------------------
 Estimated maximum stack depth 5
 ---------------------------------------------------------------------------------

 Call Graph Graphs:

 _main (ROOT)
   _MY_DELAY
   _USARTInit
   _bi_Operation
   _coag_Operation
   _cut_Operation
   _get_char
   _init_Values
     _load_Digipot
       ___awtoft
         ___ftpack
       ___fttol
         ___awtoft (ARG)
           ___ftpack
         _sqrt (ARG)
           ___awtoft (ARG)
             ___ftpack
           ___ftge (ARG)
           ___ftmul (ARG)
             ___ftpack
           ___ftsub (ARG)
             ___ftadd
               ___ftpack
       _sqrt
         ___awtoft (ARG)
           ___ftpack
         ___ftge (ARG)
         ___ftmul (ARG)
           ___ftpack
         ___ftsub (ARG)
           ___ftadd
             ___ftpack
   _liga_Operation
     _put_char
   _load_Digipot
     ___awtoft
       ___ftpack
     ___fttol
       ___awtoft (ARG)
         ___ftpack
       _sqrt (ARG)
         ___awtoft (ARG)
           ___ftpack
         ___ftge (ARG)
         ___ftmul (ARG)
           ___ftpack
         ___ftsub (ARG)
           ___ftadd
             ___ftpack
     _sqrt
       ___awtoft (ARG)
         ___ftpack
       ___ftge (ARG)
       ___ftmul (ARG)
         ___ftpack
       ___ftsub (ARG)
         ___ftadd
           ___ftpack
   _put_char

 Address spaces:
Name               Size   Autos  Total    Cost      Usage
BIGRAM             5FF      0       0      17        0.0%
EEDATA             100      0       0       0        0.0%
BITBANK5           100      0       0      16        0.0%
BANK5              100      0       0      14        0.0%
BITBANK4           100      0       0      12        0.0%
BANK4              100      0       0      13        0.0%
BITBANK3           100      0       0      10        0.0%
BANK3              100      0       0      11        0.0%
BITBANK2           100      0       0       8        0.0%
BANK2              100      0       0       9        0.0%
BITBANK1           100      0       0       6        0.0%
BANK1              100      0       0       7        0.0%
BITBANK0            80      0       0       4        0.0%
BANK0               80      0       0       5        0.0%
BITCOMRAM           7F      0       0       0        0.0%
COMRAM              7F     53      5F       1       74.8%
BITSFR               0      0       0      40        0.0%
SFR                  0      0       0      40        0.0%
STACK                0      0       0       2        0.0%
NULL                 0      0       0       0        0.0%
ABS                  0      0      5F      15        0.0%
DATA                 0      0      5F       3        0.0%
CODE                 0      0       0       0        0.0%


Microchip Technology PIC18 Macro Assembler V1.33 build 59893 
Symbol Table                                                                                   Mon Jul 11 15:21:16 2016

                     get_char@data 0001                                 l75 3B66  
                               l78 3BE2                                 l95 3CFE  
                               u81 397A                                 u91 398E  
                     ___ftadd@exp1 0014                       ___ftadd@exp2 0013  
                     ___ftadd@sign 0012                                l108 3E0E  
                              l221 31DA                                l231 33FC  
                              l127 3FF6                                l119 3F0A  
                              l240 318A                                l160 3012  
                              l171 312E                                l172 3136  
                              l248 3252                                l620 39DC  
                              l631 3A88                                l640 3AA4  
                              l616 39B0                                l617 3B14  
                              l663 3670                                l911 39BE  
                              l657 3348                                l817 3814  
                              l818 3806                                l579 33F4  
                              l683 3588                                l819 3964  
                              l941 3A46                                l933 3A1A  
                              l917 39EA                                l951 3A78  
                              l943 3A4E                                l881 3394  
                              l873 335E                                l953 3A82  
                              l945 3A56                                l939 3A3C  
                              l885 33AA                                l877 336C  
                              l887 33C8                                l879 3376  
                              l959 3AC0                                l889 33D2  
                              l985 35CE                                l969 3AF0  
                              l979 35A8                                l999 3600  
                              _RA0 007C00                                _RA1 007C01  
                              _RA2 007C02                                _RB1 007C09  
                              _RA3 007C03                                _RC0 007C10  
                              _RB2 007C0A                                _RA4 007C04  
                              _RC1 007C11                                _RB3 007C0B  
                              _RA5 007C05                                _RB4 007C0C  
                              _RB5 007C0D                                _RB6 007C0E  
                              _RB7 007C0F                                u311 35B8  
                              u320 35C0                                u411 34C6  
                              u430 34EE                                u435 34E6  
                              u291 359E                                u460 3540  
                              u395 37FA                       __CFG_BOR$OFF 000000  
                              loop 31DE                                wreg 000FE8  
                     __CFG_LVP$OFF 000000                       __CFG_WDT$OFF 000000  
                             l1003 3610                               l1013 3638  
                             l1031 32EA                               l1041 3346  
                             l1009 3628                               l1115 352A  
                             l1035 331A                               l1213 304E  
                             l1133 3578                               l1125 3552  
                             l1061 3864                               l1231 311C  
                             l1223 3100                               l1127 355E  
                             l1119 353A                               l1151 36CA  
                             l1303 32A6                               l1217 3064  
                             l1129 3562                               l1145 3684  
                             PORTB 000F81                               l1251 321C  
                             l1227 310C                               l1307 32AE  
                             l1411 3C3A                               l1255 322A  
                             l1247 3210                               l1087 3160  
                             l1159 3718                               l1423 3C4E  
                             l1273 346E                               l1097 34D0  
                             l1177 3776                               l1601 3EB6  
                             l1513 3D94                               l1409 3C2C  
                             l1267 3434                               l1259 3238  
                             l1195 379E                               l1515 3D98  
                             l1451 3CB6                               l1363 3B92  
                             l1285 31C0                               l1613 3EDE  
                             l1525 3DB6                               l1437 3C90  
                             l1279 34AA                               l1527 3DBA  
                             l1439 3C94                               l1471 3D06  
                             l1289 31CC                               l1553 3E16  
                             l1449 3CB2                               l1393 3BF6  
                             l1571 3E42                               l1627 3F12  
                             l1539 3DE2                               l1459 3CD4  
                             l1395 3C02                               l1661 3F84  
                             l1645 3F3E                               l1485 3D30  
                             l1487 3D3E                               l1585 3E84  
                             l1683 3FCA                               l1659 3F80  
                             l1587 3E88                               l1499 3D52  
                             l1599 3EB2                               u1307 3ED4  
                             u1317 3F1C                               u1407 3468  
                             u1327 3FB4                               u1417 34A4  
                             u1337 32AA                               u1257 3B98  
                             u1427 31BC                               u1347 3766  
                             u1267 3C0C                               u1437 31C8  
                             u1357 3102                               u1277 3D10  
                             u1447 3054                               u1367 3218  
                             u1287 3DD8                               u1377 3226  
                             u1297 3E20                               u1387 3234  
                             u1397 342E                               _main 3B18  
                     ___ftpack@arg 0001                       ___ftpack@exp 0004  
                             _sqrt 37C6                               prodh 000FF4  
                             prodl 000FF3                               start 0002  
                       _Coag_Power 0056               liga_Operation@dry_fl 0002  
                     main@addition 004D                       main@e_enable 004F  
                     ___ftmul@cntr 0016                       ___ftmul@sign 0017  
                     ___fttol@exp1 003C              __size_of_bi_Operation 0050  
                     ___fttol@lval 0038            __size_of_coag_Operation 00BC  
                     ?_init_Values 0001                      __CFG_OSCS$OFF 000000  
                            ?_main 0001                    __end_of___ftadd 3B18  
                            _CARRY 007EC0                              ?_sqrt 001B  
                  __end_of___ftmul 3674                    __end_of___ftsub 30BA  
                  __end_of___fttol 358C                      _cut_Operation 31D6  
                            _RCREG 000FAE                              _SPBRG 000FAF  
                            _TRISA 000F92                              _TRISB 000F93  
                            _TRISC 000F94                              _TXREG 000FAD  
                    __CFG_PWRT$OFF 000000                      ___awtoft@sign 000C  
                            _errno 005A                   __end_of_MY_DELAY 307E  
                    ___ftpack@sign 0005                              _train 005F  
                            loop_1 3404                              loop_2 343E  
                            loop_3 347A                              loop_4 318E  
                            loop_5 325A                 __size_of_USARTInit 001A  
                            sqrt@i 0027                              sqrt@q 0028  
                            sqrt@x 002B                              sqrt@y 001B  
                            sqrt@z 0024                              status 000FD8  
                     _bi_Operation 3186                      ?_load_Digipot 003D  
                  __initialization 301E                       __end_of_main 4000  
                     __end_of_sqrt 3968                      main@data_flag 0050  
                   __CFG_OSC$HSPLL 000000                             ??_main 0048  
                    ___fttol@sign1 0037                   get_char@rx_delay 0002  
                   ?_cut_Operation 0001                             ??_sqrt 001E  
                    __activetblptr 000000                             _ADCON1 000FC1  
                 __end_of___awtoft 3186                   __end_of___ftpack 33F8  
                   ??_load_Digipot 0040                     _liga_Operation 3242  
                 __end_of_get_char 313A                             ___ftge 32B8  
                        ??___ftadd 000F                          ??___ftmul 000F  
                        ??___ftsub 001B                          ??___fttol 0032  
                           clear_0 3024                  __end_of_USARTInit 304A  
            ___ftmul@f3_as_product 0012                   load_Digipot@Mode 003F  
                 load_Digipot@temp 0047                   __end_of_put_char 301E  
                           sqrt@og 0021             __end_of_liga_Operation 32B8  
                       __accesstop 0080            __end_of__initialization 302A  
                       ___ftadd@f1 0009                         ___ftadd@f2 000C  
                       ___ftge@ff1 0001                         ___ftge@ff2 0004  
                       ___awtoft@c 0009                         ___ftmul@f1 0009  
                       ___ftmul@f2 000C                         ___ftsub@f1 0015  
                       ___ftsub@f2 0018                         ___fttol@f1 002E  
                   __pcstackCOMRAM 0001                     _coag_Operation 33F8  
                  ??_cut_Operation 0001                          ?_MY_DELAY 0001  
             __size_of_init_Values 003A                     load_Digipot@R1 0044  
                  ?_liga_Operation 0001             __end_of_coag_Operation 34B4  
                          ?___ftge 0001                         ??_MY_DELAY 0003  
                        ?___awtoft 0009                          ?___ftpack 0001  
                   main@inact_flag 004C               __end_of_load_Digipot 37C6  
                        ?_get_char 0001                            _Bi_Mode 005C  
                          __Hparam 0000                            __Lparam 0000  
                  ?_coag_Operation 0001                    __size_of___ftge 0094  
                          ___ftadd 3968                            ___ftmul 358C  
                          ___ftsub 3080                            ___fttol 34B4  
                        ?_put_char 0001                            __pcinit 301E  
                       ??___awtoft 000C                         ??___ftpack 0006  
                          __ramtop 0600                            __ptext0 3B18  
                          __ptext1 3242                            __ptext2 300E  
                          __ptext3 30BA                            __ptext4 3674  
                          __ptext5 37C6                            __ptext6 3080  
                          __ptext7 3968                            __ptext8 358C  
                          __ptext9 32B8                         ??_get_char 0001  
             end_of_initialization 302A                     main@multiplier 0051  
                load_Digipot@Power 003D                          _RCSTAbits 000FAB  
                          postinc0 000FEE                         ??_put_char 0001  
                        _USARTInit 3030                          _TRISCbits 000F94  
                        _TXSTAbits 000FAC                          _Coag_Mode 005D  
                      ___ftmul@exp 0015                     __end_of___ftge 334C  
            __size_of_load_Digipot 0152                  __size_of_MY_DELAY 0034  
                        _Cut_Power 0058                start_initialization 301E  
                       ?_USARTInit 0001                   ??_liga_Operation 0002  
                     _load_Digipot 3674                           ??___ftge 0007  
                    ??_init_Values 0048              __end_of_cut_Operation 3242  
                __size_of___awtoft 004C                  __size_of___ftpack 00AC  
                      __pbssCOMRAM 0054                  __size_of_get_char 0046  
                    load_Digipot@i 0045                      load_Digipot@j 0046  
                 ??_coag_Operation 0001                      ?_bi_Operation 0001  
                         ?___ftadd 0009                           ?___ftmul 0009  
                         ?___ftsub 0015                           ?___fttol 002E  
                __size_of_put_char 0010                        ??_USARTInit 0001  
              __end_of_init_Values 30F4                     ??_bi_Operation 0001  
                         _PIR1bits 000F9E                           _MY_DELAY 304A  
                         _Bi_Power 0054                         MY_DELAY@ms 0001  
                        main@count 0052                          main@milis 004A  
                        main@value 0053                 liga_Operation@wait 0003  
                main@communication 0049                           _Cut_Mode 005E  
                       put_char@ch 0001                           __Hrparam 0000  
                         __Lrparam 0000                   __size_of___ftadd 01B0  
                 __size_of___ftmul 00E8                   __size_of___ftsub 003A  
                 __size_of___fttol 00D8                        _init_Values 30BA  
                         ___awtoft 313A                           ___ftpack 334C  
                         __ptext10 34B4                           __ptext11 313A  
                         __ptext12 334C                           __ptext13 30F4  
                         __ptext14 31D6                           __ptext15 33F8  
                         __ptext16 3186                           __ptext17 3030  
                         __ptext18 304A                           _get_char 30F4  
                    __size_of_main 04E8                      __size_of_sqrt 01A2  
                         _put_char 300E               __end_of_bi_Operation 31D6  
           __size_of_cut_Operation 006C            __size_of_liga_Operation 0076  
