opt subtitle "Microchip Technology Omniscient Code Generator (Lite mode) build 58300"

opt pagewidth 120

	opt lm

	processor	16F870
clrc	macro
	bcf	3,0
	endm
clrz	macro
	bcf	3,2
	endm
setc	macro
	bsf	3,0
	endm
setz	macro
	bsf	3,2
	endm
skipc	macro
	btfss	3,0
	endm
skipz	macro
	btfss	3,2
	endm
skipnc	macro
	btfsc	3,0
	endm
skipnz	macro
	btfsc	3,2
	endm
indf	equ	0
indf0	equ	0
pc	equ	2
pcl	equ	2
status	equ	3
fsr	equ	4
fsr0	equ	4
c	equ	1
z	equ	0
pclath	equ	10
# 49 "C:\Program Files (x86)\Microchip\xc8\v1.32\include\pic16f870.h"
INDF equ 00h ;# 
# 55 "C:\Program Files (x86)\Microchip\xc8\v1.32\include\pic16f870.h"
TMR0 equ 01h ;# 
# 61 "C:\Program Files (x86)\Microchip\xc8\v1.32\include\pic16f870.h"
PCL equ 02h ;# 
# 67 "C:\Program Files (x86)\Microchip\xc8\v1.32\include\pic16f870.h"
STATUS equ 03h ;# 
# 154 "C:\Program Files (x86)\Microchip\xc8\v1.32\include\pic16f870.h"
FSR equ 04h ;# 
# 160 "C:\Program Files (x86)\Microchip\xc8\v1.32\include\pic16f870.h"
PORTA equ 05h ;# 
# 209 "C:\Program Files (x86)\Microchip\xc8\v1.32\include\pic16f870.h"
PORTB equ 06h ;# 
# 270 "C:\Program Files (x86)\Microchip\xc8\v1.32\include\pic16f870.h"
PORTC equ 07h ;# 
# 331 "C:\Program Files (x86)\Microchip\xc8\v1.32\include\pic16f870.h"
PCLATH equ 0Ah ;# 
# 350 "C:\Program Files (x86)\Microchip\xc8\v1.32\include\pic16f870.h"
INTCON equ 0Bh ;# 
# 427 "C:\Program Files (x86)\Microchip\xc8\v1.32\include\pic16f870.h"
PIR1 equ 0Ch ;# 
# 477 "C:\Program Files (x86)\Microchip\xc8\v1.32\include\pic16f870.h"
PIR2 equ 0Dh ;# 
# 497 "C:\Program Files (x86)\Microchip\xc8\v1.32\include\pic16f870.h"
TMR1 equ 0Eh ;# 
# 503 "C:\Program Files (x86)\Microchip\xc8\v1.32\include\pic16f870.h"
TMR1L equ 0Eh ;# 
# 509 "C:\Program Files (x86)\Microchip\xc8\v1.32\include\pic16f870.h"
TMR1H equ 0Fh ;# 
# 515 "C:\Program Files (x86)\Microchip\xc8\v1.32\include\pic16f870.h"
T1CON equ 010h ;# 
# 591 "C:\Program Files (x86)\Microchip\xc8\v1.32\include\pic16f870.h"
TMR2 equ 011h ;# 
# 597 "C:\Program Files (x86)\Microchip\xc8\v1.32\include\pic16f870.h"
T2CON equ 012h ;# 
# 667 "C:\Program Files (x86)\Microchip\xc8\v1.32\include\pic16f870.h"
CCPR1 equ 015h ;# 
# 673 "C:\Program Files (x86)\Microchip\xc8\v1.32\include\pic16f870.h"
CCPR1L equ 015h ;# 
# 679 "C:\Program Files (x86)\Microchip\xc8\v1.32\include\pic16f870.h"
CCPR1H equ 016h ;# 
# 685 "C:\Program Files (x86)\Microchip\xc8\v1.32\include\pic16f870.h"
CCP1CON equ 017h ;# 
# 742 "C:\Program Files (x86)\Microchip\xc8\v1.32\include\pic16f870.h"
RCSTA equ 018h ;# 
# 836 "C:\Program Files (x86)\Microchip\xc8\v1.32\include\pic16f870.h"
TXREG equ 019h ;# 
# 842 "C:\Program Files (x86)\Microchip\xc8\v1.32\include\pic16f870.h"
RCREG equ 01Ah ;# 
# 848 "C:\Program Files (x86)\Microchip\xc8\v1.32\include\pic16f870.h"
ADRESH equ 01Eh ;# 
# 854 "C:\Program Files (x86)\Microchip\xc8\v1.32\include\pic16f870.h"
ADCON0 equ 01Fh ;# 
# 949 "C:\Program Files (x86)\Microchip\xc8\v1.32\include\pic16f870.h"
OPTION_REG equ 081h ;# 
# 1018 "C:\Program Files (x86)\Microchip\xc8\v1.32\include\pic16f870.h"
TRISA equ 085h ;# 
# 1067 "C:\Program Files (x86)\Microchip\xc8\v1.32\include\pic16f870.h"
TRISB equ 086h ;# 
# 1128 "C:\Program Files (x86)\Microchip\xc8\v1.32\include\pic16f870.h"
TRISC equ 087h ;# 
# 1189 "C:\Program Files (x86)\Microchip\xc8\v1.32\include\pic16f870.h"
PIE1 equ 08Ch ;# 
# 1239 "C:\Program Files (x86)\Microchip\xc8\v1.32\include\pic16f870.h"
PIE2 equ 08Dh ;# 
# 1259 "C:\Program Files (x86)\Microchip\xc8\v1.32\include\pic16f870.h"
PCON equ 08Eh ;# 
# 1292 "C:\Program Files (x86)\Microchip\xc8\v1.32\include\pic16f870.h"
PR2 equ 092h ;# 
# 1298 "C:\Program Files (x86)\Microchip\xc8\v1.32\include\pic16f870.h"
TXSTA equ 098h ;# 
# 1378 "C:\Program Files (x86)\Microchip\xc8\v1.32\include\pic16f870.h"
SPBRG equ 099h ;# 
# 1384 "C:\Program Files (x86)\Microchip\xc8\v1.32\include\pic16f870.h"
ADRESL equ 09Eh ;# 
# 1390 "C:\Program Files (x86)\Microchip\xc8\v1.32\include\pic16f870.h"
ADCON1 equ 09Fh ;# 
# 1442 "C:\Program Files (x86)\Microchip\xc8\v1.32\include\pic16f870.h"
EEDATA equ 010Ch ;# 
# 1448 "C:\Program Files (x86)\Microchip\xc8\v1.32\include\pic16f870.h"
EEADR equ 010Dh ;# 
# 1454 "C:\Program Files (x86)\Microchip\xc8\v1.32\include\pic16f870.h"
EEDATH equ 010Eh ;# 
# 1460 "C:\Program Files (x86)\Microchip\xc8\v1.32\include\pic16f870.h"
EEADRH equ 010Fh ;# 
# 1466 "C:\Program Files (x86)\Microchip\xc8\v1.32\include\pic16f870.h"
EECON1 equ 018Ch ;# 
# 1510 "C:\Program Files (x86)\Microchip\xc8\v1.32\include\pic16f870.h"
EECON2 equ 018Dh ;# 
# 49 "C:\Program Files (x86)\Microchip\xc8\v1.32\include\pic16f870.h"
INDF equ 00h ;# 
# 55 "C:\Program Files (x86)\Microchip\xc8\v1.32\include\pic16f870.h"
TMR0 equ 01h ;# 
# 61 "C:\Program Files (x86)\Microchip\xc8\v1.32\include\pic16f870.h"
PCL equ 02h ;# 
# 67 "C:\Program Files (x86)\Microchip\xc8\v1.32\include\pic16f870.h"
STATUS equ 03h ;# 
# 154 "C:\Program Files (x86)\Microchip\xc8\v1.32\include\pic16f870.h"
FSR equ 04h ;# 
# 160 "C:\Program Files (x86)\Microchip\xc8\v1.32\include\pic16f870.h"
PORTA equ 05h ;# 
# 209 "C:\Program Files (x86)\Microchip\xc8\v1.32\include\pic16f870.h"
PORTB equ 06h ;# 
# 270 "C:\Program Files (x86)\Microchip\xc8\v1.32\include\pic16f870.h"
PORTC equ 07h ;# 
# 331 "C:\Program Files (x86)\Microchip\xc8\v1.32\include\pic16f870.h"
PCLATH equ 0Ah ;# 
# 350 "C:\Program Files (x86)\Microchip\xc8\v1.32\include\pic16f870.h"
INTCON equ 0Bh ;# 
# 427 "C:\Program Files (x86)\Microchip\xc8\v1.32\include\pic16f870.h"
PIR1 equ 0Ch ;# 
# 477 "C:\Program Files (x86)\Microchip\xc8\v1.32\include\pic16f870.h"
PIR2 equ 0Dh ;# 
# 497 "C:\Program Files (x86)\Microchip\xc8\v1.32\include\pic16f870.h"
TMR1 equ 0Eh ;# 
# 503 "C:\Program Files (x86)\Microchip\xc8\v1.32\include\pic16f870.h"
TMR1L equ 0Eh ;# 
# 509 "C:\Program Files (x86)\Microchip\xc8\v1.32\include\pic16f870.h"
TMR1H equ 0Fh ;# 
# 515 "C:\Program Files (x86)\Microchip\xc8\v1.32\include\pic16f870.h"
T1CON equ 010h ;# 
# 591 "C:\Program Files (x86)\Microchip\xc8\v1.32\include\pic16f870.h"
TMR2 equ 011h ;# 
# 597 "C:\Program Files (x86)\Microchip\xc8\v1.32\include\pic16f870.h"
T2CON equ 012h ;# 
# 667 "C:\Program Files (x86)\Microchip\xc8\v1.32\include\pic16f870.h"
CCPR1 equ 015h ;# 
# 673 "C:\Program Files (x86)\Microchip\xc8\v1.32\include\pic16f870.h"
CCPR1L equ 015h ;# 
# 679 "C:\Program Files (x86)\Microchip\xc8\v1.32\include\pic16f870.h"
CCPR1H equ 016h ;# 
# 685 "C:\Program Files (x86)\Microchip\xc8\v1.32\include\pic16f870.h"
CCP1CON equ 017h ;# 
# 742 "C:\Program Files (x86)\Microchip\xc8\v1.32\include\pic16f870.h"
RCSTA equ 018h ;# 
# 836 "C:\Program Files (x86)\Microchip\xc8\v1.32\include\pic16f870.h"
TXREG equ 019h ;# 
# 842 "C:\Program Files (x86)\Microchip\xc8\v1.32\include\pic16f870.h"
RCREG equ 01Ah ;# 
# 848 "C:\Program Files (x86)\Microchip\xc8\v1.32\include\pic16f870.h"
ADRESH equ 01Eh ;# 
# 854 "C:\Program Files (x86)\Microchip\xc8\v1.32\include\pic16f870.h"
ADCON0 equ 01Fh ;# 
# 949 "C:\Program Files (x86)\Microchip\xc8\v1.32\include\pic16f870.h"
OPTION_REG equ 081h ;# 
# 1018 "C:\Program Files (x86)\Microchip\xc8\v1.32\include\pic16f870.h"
TRISA equ 085h ;# 
# 1067 "C:\Program Files (x86)\Microchip\xc8\v1.32\include\pic16f870.h"
TRISB equ 086h ;# 
# 1128 "C:\Program Files (x86)\Microchip\xc8\v1.32\include\pic16f870.h"
TRISC equ 087h ;# 
# 1189 "C:\Program Files (x86)\Microchip\xc8\v1.32\include\pic16f870.h"
PIE1 equ 08Ch ;# 
# 1239 "C:\Program Files (x86)\Microchip\xc8\v1.32\include\pic16f870.h"
PIE2 equ 08Dh ;# 
# 1259 "C:\Program Files (x86)\Microchip\xc8\v1.32\include\pic16f870.h"
PCON equ 08Eh ;# 
# 1292 "C:\Program Files (x86)\Microchip\xc8\v1.32\include\pic16f870.h"
PR2 equ 092h ;# 
# 1298 "C:\Program Files (x86)\Microchip\xc8\v1.32\include\pic16f870.h"
TXSTA equ 098h ;# 
# 1378 "C:\Program Files (x86)\Microchip\xc8\v1.32\include\pic16f870.h"
SPBRG equ 099h ;# 
# 1384 "C:\Program Files (x86)\Microchip\xc8\v1.32\include\pic16f870.h"
ADRESL equ 09Eh ;# 
# 1390 "C:\Program Files (x86)\Microchip\xc8\v1.32\include\pic16f870.h"
ADCON1 equ 09Fh ;# 
# 1442 "C:\Program Files (x86)\Microchip\xc8\v1.32\include\pic16f870.h"
EEDATA equ 010Ch ;# 
# 1448 "C:\Program Files (x86)\Microchip\xc8\v1.32\include\pic16f870.h"
EEADR equ 010Dh ;# 
# 1454 "C:\Program Files (x86)\Microchip\xc8\v1.32\include\pic16f870.h"
EEDATH equ 010Eh ;# 
# 1460 "C:\Program Files (x86)\Microchip\xc8\v1.32\include\pic16f870.h"
EEADRH equ 010Fh ;# 
# 1466 "C:\Program Files (x86)\Microchip\xc8\v1.32\include\pic16f870.h"
EECON1 equ 018Ch ;# 
# 1510 "C:\Program Files (x86)\Microchip\xc8\v1.32\include\pic16f870.h"
EECON2 equ 018Dh ;# 
# 49 "C:\Program Files (x86)\Microchip\xc8\v1.32\include\pic16f870.h"
INDF equ 00h ;# 
# 55 "C:\Program Files (x86)\Microchip\xc8\v1.32\include\pic16f870.h"
TMR0 equ 01h ;# 
# 61 "C:\Program Files (x86)\Microchip\xc8\v1.32\include\pic16f870.h"
PCL equ 02h ;# 
# 67 "C:\Program Files (x86)\Microchip\xc8\v1.32\include\pic16f870.h"
STATUS equ 03h ;# 
# 154 "C:\Program Files (x86)\Microchip\xc8\v1.32\include\pic16f870.h"
FSR equ 04h ;# 
# 160 "C:\Program Files (x86)\Microchip\xc8\v1.32\include\pic16f870.h"
PORTA equ 05h ;# 
# 209 "C:\Program Files (x86)\Microchip\xc8\v1.32\include\pic16f870.h"
PORTB equ 06h ;# 
# 270 "C:\Program Files (x86)\Microchip\xc8\v1.32\include\pic16f870.h"
PORTC equ 07h ;# 
# 331 "C:\Program Files (x86)\Microchip\xc8\v1.32\include\pic16f870.h"
PCLATH equ 0Ah ;# 
# 350 "C:\Program Files (x86)\Microchip\xc8\v1.32\include\pic16f870.h"
INTCON equ 0Bh ;# 
# 427 "C:\Program Files (x86)\Microchip\xc8\v1.32\include\pic16f870.h"
PIR1 equ 0Ch ;# 
# 477 "C:\Program Files (x86)\Microchip\xc8\v1.32\include\pic16f870.h"
PIR2 equ 0Dh ;# 
# 497 "C:\Program Files (x86)\Microchip\xc8\v1.32\include\pic16f870.h"
TMR1 equ 0Eh ;# 
# 503 "C:\Program Files (x86)\Microchip\xc8\v1.32\include\pic16f870.h"
TMR1L equ 0Eh ;# 
# 509 "C:\Program Files (x86)\Microchip\xc8\v1.32\include\pic16f870.h"
TMR1H equ 0Fh ;# 
# 515 "C:\Program Files (x86)\Microchip\xc8\v1.32\include\pic16f870.h"
T1CON equ 010h ;# 
# 591 "C:\Program Files (x86)\Microchip\xc8\v1.32\include\pic16f870.h"
TMR2 equ 011h ;# 
# 597 "C:\Program Files (x86)\Microchip\xc8\v1.32\include\pic16f870.h"
T2CON equ 012h ;# 
# 667 "C:\Program Files (x86)\Microchip\xc8\v1.32\include\pic16f870.h"
CCPR1 equ 015h ;# 
# 673 "C:\Program Files (x86)\Microchip\xc8\v1.32\include\pic16f870.h"
CCPR1L equ 015h ;# 
# 679 "C:\Program Files (x86)\Microchip\xc8\v1.32\include\pic16f870.h"
CCPR1H equ 016h ;# 
# 685 "C:\Program Files (x86)\Microchip\xc8\v1.32\include\pic16f870.h"
CCP1CON equ 017h ;# 
# 742 "C:\Program Files (x86)\Microchip\xc8\v1.32\include\pic16f870.h"
RCSTA equ 018h ;# 
# 836 "C:\Program Files (x86)\Microchip\xc8\v1.32\include\pic16f870.h"
TXREG equ 019h ;# 
# 842 "C:\Program Files (x86)\Microchip\xc8\v1.32\include\pic16f870.h"
RCREG equ 01Ah ;# 
# 848 "C:\Program Files (x86)\Microchip\xc8\v1.32\include\pic16f870.h"
ADRESH equ 01Eh ;# 
# 854 "C:\Program Files (x86)\Microchip\xc8\v1.32\include\pic16f870.h"
ADCON0 equ 01Fh ;# 
# 949 "C:\Program Files (x86)\Microchip\xc8\v1.32\include\pic16f870.h"
OPTION_REG equ 081h ;# 
# 1018 "C:\Program Files (x86)\Microchip\xc8\v1.32\include\pic16f870.h"
TRISA equ 085h ;# 
# 1067 "C:\Program Files (x86)\Microchip\xc8\v1.32\include\pic16f870.h"
TRISB equ 086h ;# 
# 1128 "C:\Program Files (x86)\Microchip\xc8\v1.32\include\pic16f870.h"
TRISC equ 087h ;# 
# 1189 "C:\Program Files (x86)\Microchip\xc8\v1.32\include\pic16f870.h"
PIE1 equ 08Ch ;# 
# 1239 "C:\Program Files (x86)\Microchip\xc8\v1.32\include\pic16f870.h"
PIE2 equ 08Dh ;# 
# 1259 "C:\Program Files (x86)\Microchip\xc8\v1.32\include\pic16f870.h"
PCON equ 08Eh ;# 
# 1292 "C:\Program Files (x86)\Microchip\xc8\v1.32\include\pic16f870.h"
PR2 equ 092h ;# 
# 1298 "C:\Program Files (x86)\Microchip\xc8\v1.32\include\pic16f870.h"
TXSTA equ 098h ;# 
# 1378 "C:\Program Files (x86)\Microchip\xc8\v1.32\include\pic16f870.h"
SPBRG equ 099h ;# 
# 1384 "C:\Program Files (x86)\Microchip\xc8\v1.32\include\pic16f870.h"
ADRESL equ 09Eh ;# 
# 1390 "C:\Program Files (x86)\Microchip\xc8\v1.32\include\pic16f870.h"
ADCON1 equ 09Fh ;# 
# 1442 "C:\Program Files (x86)\Microchip\xc8\v1.32\include\pic16f870.h"
EEDATA equ 010Ch ;# 
# 1448 "C:\Program Files (x86)\Microchip\xc8\v1.32\include\pic16f870.h"
EEADR equ 010Dh ;# 
# 1454 "C:\Program Files (x86)\Microchip\xc8\v1.32\include\pic16f870.h"
EEDATH equ 010Eh ;# 
# 1460 "C:\Program Files (x86)\Microchip\xc8\v1.32\include\pic16f870.h"
EEADRH equ 010Fh ;# 
# 1466 "C:\Program Files (x86)\Microchip\xc8\v1.32\include\pic16f870.h"
EECON1 equ 018Ch ;# 
# 1510 "C:\Program Files (x86)\Microchip\xc8\v1.32\include\pic16f870.h"
EECON2 equ 018Dh ;# 
# 49 "C:\Program Files (x86)\Microchip\xc8\v1.32\include\pic16f870.h"
INDF equ 00h ;# 
# 55 "C:\Program Files (x86)\Microchip\xc8\v1.32\include\pic16f870.h"
TMR0 equ 01h ;# 
# 61 "C:\Program Files (x86)\Microchip\xc8\v1.32\include\pic16f870.h"
PCL equ 02h ;# 
# 67 "C:\Program Files (x86)\Microchip\xc8\v1.32\include\pic16f870.h"
STATUS equ 03h ;# 
# 154 "C:\Program Files (x86)\Microchip\xc8\v1.32\include\pic16f870.h"
FSR equ 04h ;# 
# 160 "C:\Program Files (x86)\Microchip\xc8\v1.32\include\pic16f870.h"
PORTA equ 05h ;# 
# 209 "C:\Program Files (x86)\Microchip\xc8\v1.32\include\pic16f870.h"
PORTB equ 06h ;# 
# 270 "C:\Program Files (x86)\Microchip\xc8\v1.32\include\pic16f870.h"
PORTC equ 07h ;# 
# 331 "C:\Program Files (x86)\Microchip\xc8\v1.32\include\pic16f870.h"
PCLATH equ 0Ah ;# 
# 350 "C:\Program Files (x86)\Microchip\xc8\v1.32\include\pic16f870.h"
INTCON equ 0Bh ;# 
# 427 "C:\Program Files (x86)\Microchip\xc8\v1.32\include\pic16f870.h"
PIR1 equ 0Ch ;# 
# 477 "C:\Program Files (x86)\Microchip\xc8\v1.32\include\pic16f870.h"
PIR2 equ 0Dh ;# 
# 497 "C:\Program Files (x86)\Microchip\xc8\v1.32\include\pic16f870.h"
TMR1 equ 0Eh ;# 
# 503 "C:\Program Files (x86)\Microchip\xc8\v1.32\include\pic16f870.h"
TMR1L equ 0Eh ;# 
# 509 "C:\Program Files (x86)\Microchip\xc8\v1.32\include\pic16f870.h"
TMR1H equ 0Fh ;# 
# 515 "C:\Program Files (x86)\Microchip\xc8\v1.32\include\pic16f870.h"
T1CON equ 010h ;# 
# 591 "C:\Program Files (x86)\Microchip\xc8\v1.32\include\pic16f870.h"
TMR2 equ 011h ;# 
# 597 "C:\Program Files (x86)\Microchip\xc8\v1.32\include\pic16f870.h"
T2CON equ 012h ;# 
# 667 "C:\Program Files (x86)\Microchip\xc8\v1.32\include\pic16f870.h"
CCPR1 equ 015h ;# 
# 673 "C:\Program Files (x86)\Microchip\xc8\v1.32\include\pic16f870.h"
CCPR1L equ 015h ;# 
# 679 "C:\Program Files (x86)\Microchip\xc8\v1.32\include\pic16f870.h"
CCPR1H equ 016h ;# 
# 685 "C:\Program Files (x86)\Microchip\xc8\v1.32\include\pic16f870.h"
CCP1CON equ 017h ;# 
# 742 "C:\Program Files (x86)\Microchip\xc8\v1.32\include\pic16f870.h"
RCSTA equ 018h ;# 
# 836 "C:\Program Files (x86)\Microchip\xc8\v1.32\include\pic16f870.h"
TXREG equ 019h ;# 
# 842 "C:\Program Files (x86)\Microchip\xc8\v1.32\include\pic16f870.h"
RCREG equ 01Ah ;# 
# 848 "C:\Program Files (x86)\Microchip\xc8\v1.32\include\pic16f870.h"
ADRESH equ 01Eh ;# 
# 854 "C:\Program Files (x86)\Microchip\xc8\v1.32\include\pic16f870.h"
ADCON0 equ 01Fh ;# 
# 949 "C:\Program Files (x86)\Microchip\xc8\v1.32\include\pic16f870.h"
OPTION_REG equ 081h ;# 
# 1018 "C:\Program Files (x86)\Microchip\xc8\v1.32\include\pic16f870.h"
TRISA equ 085h ;# 
# 1067 "C:\Program Files (x86)\Microchip\xc8\v1.32\include\pic16f870.h"
TRISB equ 086h ;# 
# 1128 "C:\Program Files (x86)\Microchip\xc8\v1.32\include\pic16f870.h"
TRISC equ 087h ;# 
# 1189 "C:\Program Files (x86)\Microchip\xc8\v1.32\include\pic16f870.h"
PIE1 equ 08Ch ;# 
# 1239 "C:\Program Files (x86)\Microchip\xc8\v1.32\include\pic16f870.h"
PIE2 equ 08Dh ;# 
# 1259 "C:\Program Files (x86)\Microchip\xc8\v1.32\include\pic16f870.h"
PCON equ 08Eh ;# 
# 1292 "C:\Program Files (x86)\Microchip\xc8\v1.32\include\pic16f870.h"
PR2 equ 092h ;# 
# 1298 "C:\Program Files (x86)\Microchip\xc8\v1.32\include\pic16f870.h"
TXSTA equ 098h ;# 
# 1378 "C:\Program Files (x86)\Microchip\xc8\v1.32\include\pic16f870.h"
SPBRG equ 099h ;# 
# 1384 "C:\Program Files (x86)\Microchip\xc8\v1.32\include\pic16f870.h"
ADRESL equ 09Eh ;# 
# 1390 "C:\Program Files (x86)\Microchip\xc8\v1.32\include\pic16f870.h"
ADCON1 equ 09Fh ;# 
# 1442 "C:\Program Files (x86)\Microchip\xc8\v1.32\include\pic16f870.h"
EEDATA equ 010Ch ;# 
# 1448 "C:\Program Files (x86)\Microchip\xc8\v1.32\include\pic16f870.h"
EEADR equ 010Dh ;# 
# 1454 "C:\Program Files (x86)\Microchip\xc8\v1.32\include\pic16f870.h"
EEDATH equ 010Eh ;# 
# 1460 "C:\Program Files (x86)\Microchip\xc8\v1.32\include\pic16f870.h"
EEADRH equ 010Fh ;# 
# 1466 "C:\Program Files (x86)\Microchip\xc8\v1.32\include\pic16f870.h"
EECON1 equ 018Ch ;# 
# 1510 "C:\Program Files (x86)\Microchip\xc8\v1.32\include\pic16f870.h"
EECON2 equ 018Dh ;# 
	FNCALL	_main,_SIM300Cmd
	FNCALL	_main,_SIM300Init
	FNCALL	_main,_SIM300SendMsg
	FNCALL	_main,_USARTFlushBuffer
	FNCALL	_SIM300SendMsg,_SIM300Cmd
	FNCALL	_SIM300SendMsg,_SIM300DeleteMsg
	FNCALL	_SIM300SendMsg,_SIM300WaitForResponse
	FNCALL	_SIM300SendMsg,_USARTDataAvailable
	FNCALL	_SIM300SendMsg,_USARTFlushBuffer
	FNCALL	_SIM300SendMsg,_USARTReadBuffer
	FNCALL	_SIM300SendMsg,_USARTWriteChar
	FNCALL	_SIM300SendMsg,_USARTWriteString
	FNCALL	_SIM300SendMsg,_atoi
	FNCALL	_SIM300SendMsg,_sprintf
	FNCALL	_SIM300SendMsg,_strlen
	FNCALL	_SIM300SendMsg,_strnicmp
	FNCALL	_atoi,___wmul
	FNCALL	_atoi,_isdigit
	FNCALL	_SIM300DeleteMsg,_SIM300Cmd
	FNCALL	_SIM300DeleteMsg,_SIM300WaitForResponse
	FNCALL	_SIM300DeleteMsg,_USARTFlushBuffer
	FNCALL	_SIM300DeleteMsg,_sprintf
	FNCALL	_SIM300DeleteMsg,_strnicmp
	FNCALL	_strnicmp,_toupper
	FNCALL	_sprintf,___lwdiv
	FNCALL	_sprintf,___lwmod
	FNCALL	_SIM300WaitForResponse,_USARTDataAvailable
	FNCALL	_SIM300WaitForResponse,_USARTFlushBuffer
	FNCALL	_SIM300WaitForResponse,_USARTReadData
	FNCALL	_USARTFlushBuffer,_USARTDataAvailable
	FNCALL	_USARTFlushBuffer,_USARTReadData
	FNCALL	_SIM300Init,_SIM300CheckResponse
	FNCALL	_SIM300Init,_SIM300Cmd
	FNCALL	_SIM300Init,_USARTDataAvailable
	FNCALL	_SIM300Init,_USARTInit
	FNCALL	_SIM300Init,_USARTReadBuffer
	FNCALL	_SIM300Cmd,_USARTDataAvailable
	FNCALL	_SIM300Cmd,_USARTReadBuffer
	FNCALL	_SIM300Cmd,_USARTWriteChar
	FNCALL	_SIM300Cmd,_USARTWriteString
	FNCALL	_SIM300Cmd,___wmul
	FNCALL	_SIM300Cmd,_strlen
	FNCALL	_USARTWriteString,_USARTWriteChar
	FNCALL	_USARTReadBuffer,_USARTReadData
	FNROOT	_main
	FNCALL	_ISR,_USARTHandleRxInt
	FNCALL	intlevel1,_ISR
	global	intlevel1
	FNROOT	intlevel1
	global	_dpowers
psect	strings,class=STRING,delta=2,noexec
global __pstrings
__pstrings:
stringtab:
	global    __stringtab
__stringtab:
;	String table - string pointers are 1 byte each
	btfsc	(btemp+1),7
	ljmp	stringcode
	bcf	status,7
	btfsc	(btemp+1),0
	bsf	status,7
	movf	indf,w
	incf fsr
skipnz
incf btemp+1
	return
stringcode:stringdir:
movlw high(stringdir)
movwf pclath
movf fsr,w
incf fsr
	addwf pc
	global __stringbase
__stringbase:
	retlw	0
psect	strings
	global    __end_of__stringtab
__end_of__stringtab:
	file	"C:\Program Files (x86)\Microchip\xc8\v1.32\sources\common\doprnt.c"
	line	354
_dpowers:
	retlw	01h
	retlw	0

	retlw	0Ah
	retlw	0

	retlw	064h
	retlw	0

	retlw	0E8h
	retlw	03h

	retlw	010h
	retlw	027h

	global __end_of_dpowers
__end_of_dpowers:
	global	_dpowers
	global	_UQEnd
	global	_UQFront
	global	USARTWriteInt@F769
	global	_URBuff
	global	_sim300_buffer
	global	_PIR1bits
_PIR1bits	set	0xC
	global	_RCREG
_RCREG	set	0x1A
	global	_RCSTAbits
_RCSTAbits	set	0x18
	global	_TXREG
_TXREG	set	0x19
	global	_GIE
_GIE	set	0x5F
	global	_PEIE
_PEIE	set	0x5E
	global	_RB0
_RB0	set	0x30
	global	_RB1
_RB1	set	0x31
	global	_RC5
_RC5	set	0x3D
	global	_RCIF
_RCIF	set	0x65
	global	_SPBRG
_SPBRG	set	0x99
	global	_TRISB
_TRISB	set	0x86
	global	_TRISC
_TRISC	set	0x87
	global	_TXSTAbits
_TXSTAbits	set	0x98
	global	_RCIE
_RCIE	set	0x465
	global __stringdata
__stringdata:
	
STR_6:	
	retlw	83	;'S'
	retlw	79	;'O'
	retlw	77	;'M'
	retlw	69	;'E'
	retlw	66	;'B'
	retlw	79	;'O'
	retlw	68	;'D'
	retlw	89	;'Y'
	retlw	32	;' '
	retlw	72	;'H'
	retlw	65	;'A'
	retlw	83	;'S'
	retlw	32	;' '
	retlw	69	;'E'
	retlw	78	;'N'
	retlw	84	;'T'
	retlw	69	;'E'
	retlw	82	;'R'
	retlw	69	;'E'
	retlw	68	;'D'
	retlw	32	;' '
	retlw	73	;'I'
	retlw	78	;'N'
	retlw	84	;'T'
	retlw	79	;'O'
	retlw	32	;' '
	retlw	72	;'H'
	retlw	79	;'O'
	retlw	85	;'U'
	retlw	83	;'S'
	retlw	69	;'E'
	retlw	33	;'!'
	retlw	0
psect	strings
	
STR_3:	
	retlw	65	;'A'
	retlw	84	;'T'
	retlw	68	;'D'
	retlw	57	;'9'
	retlw	52	;'4'
	retlw	48	;'0'
	retlw	51	;'3'
	retlw	53	;'5'
	retlw	56	;'8'
	retlw	53	;'5'
	retlw	52	;'4'
	retlw	51	;'3'
	retlw	54	;'6'
	retlw	59	;';'
	retlw	0
psect	strings
	
STR_11:	
	retlw	65	;'A'
	retlw	84	;'T'
	retlw	43	;'+'
	retlw	67	;'C'
	retlw	77	;'M'
	retlw	71	;'G'
	retlw	83	;'S'
	retlw	61	;'='
	retlw	32	;' '
	retlw	37	;'%'
	retlw	115	;'s'
	retlw	0
psect	strings
	
STR_9:	
	retlw	65	;'A'
	retlw	84	;'T'
	retlw	43	;'+'
	retlw	67	;'C'
	retlw	77	;'M'
	retlw	71	;'G'
	retlw	68	;'D'
	retlw	61	;'='
	retlw	37	;'%'
	retlw	100	;'d'
	retlw	0
psect	strings
	
STR_5:	
	retlw	57	;'9'
	retlw	52	;'4'
	retlw	48	;'0'
	retlw	51	;'3'
	retlw	53	;'5'
	retlw	56	;'8'
	retlw	53	;'5'
	retlw	52	;'4'
	retlw	51	;'3'
	retlw	54	;'6'
	retlw	0
psect	strings
	
STR_2:	
	retlw	65	;'A'
	retlw	84	;'T'
	retlw	43	;'+'
	retlw	67	;'C'
	retlw	77	;'M'
	retlw	71	;'G'
	retlw	68	;'D'
	retlw	61	;'='
	retlw	49	;'1'
	retlw	0
psect	strings
	
STR_1:	
	retlw	65	;'A'
	retlw	84	;'T'
	retlw	43	;'+'
	retlw	67	;'C'
	retlw	77	;'M'
	retlw	71	;'G'
	retlw	70	;'F'
	retlw	61	;'='
	retlw	49	;'1'
	retlw	0
psect	strings
	
STR_13:	
	retlw	40	;'('
	retlw	110	;'n'
	retlw	117	;'u'
	retlw	108	;'l'
	retlw	108	;'l'
	retlw	41	;')'
	retlw	0
psect	strings
	
STR_12:	
	retlw	67	;'C'
	retlw	77	;'M'
	retlw	71	;'G'
	retlw	83	;'S'
	retlw	58	;':'
	retlw	0
psect	strings
	
STR_4:	
	retlw	65	;'A'
	retlw	84	;'T'
	retlw	72	;'H'
	retlw	0
psect	strings
	
STR_8:	
	retlw	79	;'O'
	retlw	75	;'K'
	retlw	0
psect	strings
	
STR_7:	
	retlw	65	;'A'
	retlw	84	;'T'
	retlw	0
psect	strings
STR_10	equ	STR_8+0
	global __end_of__stringdata
__end_of__stringdata:
; #config settings
	file	"Security.as"
	line	#
psect cinit,class=CODE,delta=2
global start_initialization
start_initialization:

global __initialization
__initialization:
psect	bssCOMMON,class=COMMON,space=1,noexec
global __pbssCOMMON
__pbssCOMMON:
_UQEnd:
       ds      1

_UQFront:
       ds      1

psect	bssBANK0,class=BANK0,space=1,noexec
global __pbssBANK0
__pbssBANK0:
USARTWriteInt@F769:
       ds      5

_URBuff:
       ds      5

_sim300_buffer:
       ds      5

	line	#
psect clrtext,class=CODE,delta=2
global clear_ram0
;	Called with FSR containing the base address, and
;	W with the last address+1
clear_ram0:
	clrwdt			;clear the watchdog before getting into this loop
clrloop0:
	clrf	indf		;clear RAM location pointed to by FSR
	incf	fsr,f		;increment pointer
	xorwf	fsr,w		;XOR with final address
	btfsc	status,2	;have we reached the end yet?
	retlw	0		;all done for this memory range, return
	xorwf	fsr,w		;XOR again to restore value
	goto	clrloop0		;do the next byte

; Clear objects allocated to COMMON
psect cinit,class=CODE,delta=2,merge=1
	clrf	((__pbssCOMMON)+0)&07Fh
	clrf	((__pbssCOMMON)+1)&07Fh
; Clear objects allocated to BANK0
psect cinit,class=CODE,delta=2,merge=1
	bcf	status, 7	;select IRP bank0
	movlw	low(__pbssBANK0)
	movwf	fsr
	movlw	low((__pbssBANK0)+0Fh)
	fcall	clear_ram0
psect cinit,class=CODE,delta=2,merge=1
global end_of_initialization,__end_of__initialization

;End of C runtime variable initialization code

end_of_initialization:
__end_of__initialization:clrf status
ljmp _main	;jump to C main() function
psect	cstackBANK1,class=BANK1,space=1,noexec
global __pcstackBANK1
__pcstackBANK1:
	global	SIM300SendMsg@cmd
SIM300SendMsg@cmd:	; 25 bytes @ 0x0
	ds	25
	global	SIM300SendMsg@num
SIM300SendMsg@num:	; 1 bytes @ 0x19
	ds	1
	global	SIM300SendMsg@len
SIM300SendMsg@len:	; 1 bytes @ 0x1A
	ds	1
	global	SIM300SendMsg@n
SIM300SendMsg@n:	; 1 bytes @ 0x1B
	ds	1
psect	cstackCOMMON,class=COMMON,space=1,noexec
global __pcstackCOMMON
__pcstackCOMMON:
?_USARTHandleRxInt:	; 0 bytes @ 0x0
??_USARTHandleRxInt:	; 0 bytes @ 0x0
?_USARTWriteChar:	; 0 bytes @ 0x0
?_isdigit:	; 1 bit 
?_ISR:	; 0 bytes @ 0x0
?_main:	; 0 bytes @ 0x0
?_SIM300Init:	; 1 bytes @ 0x0
?_USARTDataAvailable:	; 1 bytes @ 0x0
?_USARTReadData:	; 1 bytes @ 0x0
?_toupper:	; 1 bytes @ 0x0
?_SIM300DeleteMsg:	; 1 bytes @ 0x0
?_USARTFlushBuffer:	; 2 bytes @ 0x0
	ds	4
	global	USARTHandleRxInt@data
USARTHandleRxInt@data:	; 1 bytes @ 0x4
	ds	1
??_ISR:	; 0 bytes @ 0x5
	ds	4
psect	cstackBANK0,class=BANK0,space=1,noexec
global __pcstackBANK0
__pcstackBANK0:
?_USARTInit:	; 0 bytes @ 0x0
??_USARTDataAvailable:	; 0 bytes @ 0x0
??_USARTWriteChar:	; 0 bytes @ 0x0
??_USARTReadData:	; 0 bytes @ 0x0
??_isdigit:	; 0 bytes @ 0x0
??_toupper:	; 0 bytes @ 0x0
?_SIM300CheckResponse:	; 1 bytes @ 0x0
	global	?_strlen
?_strlen:	; 2 bytes @ 0x0
	global	?___wmul
?___wmul:	; 2 bytes @ 0x0
	global	?___lwdiv
?___lwdiv:	; 2 bytes @ 0x0
	global	SIM300CheckResponse@check
SIM300CheckResponse@check:	; 1 bytes @ 0x0
	global	USARTWriteChar@ch
USARTWriteChar@ch:	; 1 bytes @ 0x0
	global	_isdigit$559
_isdigit$559:	; 1 bytes @ 0x0
	global	USARTInit@baud_rate
USARTInit@baud_rate:	; 2 bytes @ 0x0
	global	___wmul@multiplier
___wmul@multiplier:	; 2 bytes @ 0x0
	global	___lwdiv@divisor
___lwdiv@divisor:	; 2 bytes @ 0x0
	global	strlen@s
strlen@s:	; 2 bytes @ 0x0
	ds	1
?_USARTWriteString:	; 0 bytes @ 0x1
	global	SIM300CheckResponse@len
SIM300CheckResponse@len:	; 1 bytes @ 0x1
	global	USARTReadData@data
USARTReadData@data:	; 1 bytes @ 0x1
	global	isdigit@c
isdigit@c:	; 1 bytes @ 0x1
	global	toupper@c
toupper@c:	; 1 bytes @ 0x1
	global	USARTWriteString@str
USARTWriteString@str:	; 2 bytes @ 0x1
	ds	1
??_USARTFlushBuffer:	; 0 bytes @ 0x2
??_USARTInit:	; 0 bytes @ 0x2
??_SIM300CheckResponse:	; 0 bytes @ 0x2
??_strlen:	; 0 bytes @ 0x2
?_SIM300WaitForResponse:	; 1 bytes @ 0x2
	global	?_strnicmp
?_strnicmp:	; 2 bytes @ 0x2
	global	strnicmp@s2
strnicmp@s2:	; 1 bytes @ 0x2
	global	SIM300WaitForResponse@timeout
SIM300WaitForResponse@timeout:	; 2 bytes @ 0x2
	global	___wmul@multiplicand
___wmul@multiplicand:	; 2 bytes @ 0x2
	global	___lwdiv@dividend
___lwdiv@dividend:	; 2 bytes @ 0x2
	ds	1
??_USARTWriteString:	; 0 bytes @ 0x3
	global	strnicmp@len
strnicmp@len:	; 2 bytes @ 0x3
	ds	1
??_SIM300WaitForResponse:	; 0 bytes @ 0x4
??___wmul:	; 0 bytes @ 0x4
??___lwdiv:	; 0 bytes @ 0x4
	global	SIM300CheckResponse@i
SIM300CheckResponse@i:	; 1 bytes @ 0x4
	global	___wmul@product
___wmul@product:	; 2 bytes @ 0x4
	global	strlen@cp
strlen@cp:	; 2 bytes @ 0x4
	ds	1
??_strnicmp:	; 0 bytes @ 0x5
	global	SIM300CheckResponse@response
SIM300CheckResponse@response:	; 1 bytes @ 0x5
	global	SIM300WaitForResponse@n
SIM300WaitForResponse@n:	; 2 bytes @ 0x5
	global	___lwdiv@quotient
___lwdiv@quotient:	; 2 bytes @ 0x5
	ds	1
?_USARTReadBuffer:	; 0 bytes @ 0x6
	global	?_atoi
?_atoi:	; 2 bytes @ 0x6
	global	USARTReadBuffer@len
USARTReadBuffer@len:	; 2 bytes @ 0x6
	ds	1
	global	SIM300WaitForResponse@i
SIM300WaitForResponse@i:	; 1 bytes @ 0x7
	global	___lwdiv@counter
___lwdiv@counter:	; 1 bytes @ 0x7
	global	strnicmp@r
strnicmp@r:	; 1 bytes @ 0x7
	ds	1
??_USARTReadBuffer:	; 0 bytes @ 0x8
??_atoi:	; 0 bytes @ 0x8
	global	?___lwmod
?___lwmod:	; 2 bytes @ 0x8
	global	strnicmp@s1
strnicmp@s1:	; 1 bytes @ 0x8
	global	___lwmod@divisor
___lwmod@divisor:	; 2 bytes @ 0x8
	ds	2
	global	USARTReadBuffer@buff
USARTReadBuffer@buff:	; 1 bytes @ 0xA
	global	atoi@sign
atoi@sign:	; 1 bytes @ 0xA
	global	___lwmod@dividend
___lwmod@dividend:	; 2 bytes @ 0xA
	ds	1
	global	USARTReadBuffer@i
USARTReadBuffer@i:	; 2 bytes @ 0xB
	global	atoi@a
atoi@a:	; 2 bytes @ 0xB
	ds	1
??___lwmod:	; 0 bytes @ 0xC
	ds	1
?_SIM300Cmd:	; 1 bytes @ 0xD
	global	atoi@s
atoi@s:	; 1 bytes @ 0xD
	global	___lwmod@counter
___lwmod@counter:	; 1 bytes @ 0xD
	global	SIM300Cmd@cmd
SIM300Cmd@cmd:	; 2 bytes @ 0xD
	ds	1
	global	?_sprintf
?_sprintf:	; 2 bytes @ 0xE
	global	sprintf@f
sprintf@f:	; 1 bytes @ 0xE
	ds	1
??_SIM300Cmd:	; 0 bytes @ 0xF
	ds	2
??_sprintf:	; 0 bytes @ 0x11
	global	SIM300Cmd@i
SIM300Cmd@i:	; 2 bytes @ 0x11
	ds	2
	global	SIM300Cmd@len
SIM300Cmd@len:	; 1 bytes @ 0x13
	ds	1
??_SIM300Init:	; 0 bytes @ 0x14
	global	sprintf@flag
sprintf@flag:	; 1 bytes @ 0x14
	ds	1
	global	sprintf@prec
sprintf@prec:	; 1 bytes @ 0x15
	ds	1
	global	sprintf@ap
sprintf@ap:	; 1 bytes @ 0x16
	global	SIM300Init@i
SIM300Init@i:	; 2 bytes @ 0x16
	ds	1
	global	sprintf@sp
sprintf@sp:	; 1 bytes @ 0x17
	ds	1
	global	sprintf@_val
sprintf@_val:	; 3 bytes @ 0x18
	ds	3
	global	sprintf@c
sprintf@c:	; 1 bytes @ 0x1B
	ds	1
??_SIM300DeleteMsg:	; 0 bytes @ 0x1C
	ds	3
	global	SIM300DeleteMsg@cmd
SIM300DeleteMsg@cmd:	; 16 bytes @ 0x1F
	ds	16
	global	SIM300DeleteMsg@i
SIM300DeleteMsg@i:	; 1 bytes @ 0x2F
	ds	1
	global	SIM300DeleteMsg@len
SIM300DeleteMsg@len:	; 1 bytes @ 0x30
	ds	1
?_SIM300SendMsg:	; 1 bytes @ 0x31
	global	SIM300SendMsg@msg
SIM300SendMsg@msg:	; 1 bytes @ 0x31
	ds	1
	global	SIM300SendMsg@msg_ref
SIM300SendMsg@msg_ref:	; 1 bytes @ 0x32
	ds	1
??_SIM300SendMsg:	; 0 bytes @ 0x33
	ds	4
??_main:	; 0 bytes @ 0x37
	ds	3
	global	main@result
main@result:	; 1 bytes @ 0x3A
	ds	1
	global	main@r
main@r:	; 1 bytes @ 0x3B
	ds	1
	global	main@ref
main@ref:	; 1 bytes @ 0x3C
	ds	1
	global	main@SMS_Sent
main@SMS_Sent:	; 1 bytes @ 0x3D
	ds	1
	global	main@count
main@count:	; 1 bytes @ 0x3E
	ds	1
;!
;!Data Sizes:
;!    Strings     125
;!    Constant    10
;!    Data        0
;!    BSS         17
;!    Persistent  0
;!    Stack       0
;!
;!Auto Spaces:
;!    Space          Size  Autos    Used
;!    COMMON           14      9      11
;!    BANK0            80     63      78
;!    BANK1            32     28      28

;!
;!Pointer List with Targets:
;!
;!    strnicmp@s2	PTR const unsigned char  size(1) Largest target is 6
;!		 -> STR_12(CODE[6]), STR_10(CODE[3]), 
;!
;!    strnicmp@s1	PTR const unsigned char  size(1) Largest target is 5
;!		 -> sim300_buffer(BANK0[5]), 
;!
;!    strlen@s	PTR const unsigned char  size(2) Largest target is 33
;!		 -> SIM300SendMsg@cmd(BANK1[25]), SIM300DeleteMsg@cmd(BANK0[16]), STR_7(CODE[3]), STR_6(CODE[33]), 
;!		 -> STR_4(CODE[4]), STR_3(CODE[15]), STR_2(CODE[10]), STR_1(CODE[10]), 
;!
;!    strlen@cp	PTR const unsigned char  size(2) Largest target is 33
;!		 -> SIM300SendMsg@cmd(BANK1[25]), SIM300DeleteMsg@cmd(BANK0[16]), STR_7(CODE[3]), STR_6(CODE[33]), 
;!		 -> STR_4(CODE[4]), STR_3(CODE[15]), STR_2(CODE[10]), STR_1(CODE[10]), 
;!
;!    atoi@s	PTR const unsigned char  size(1) Largest target is 5
;!		 -> sim300_buffer(BANK0[5]), 
;!
;!    sprintf@f	PTR const unsigned char  size(1) Largest target is 12
;!		 -> STR_11(CODE[12]), STR_9(CODE[11]), 
;!
;!    sprintf@_val._cp	PTR const unsigned char  size(1) Largest target is 11
;!		 -> STR_13(CODE[7]), STR_5(CODE[11]), 
;!
;!    sprintf@sp	PTR unsigned char  size(1) Largest target is 25
;!		 -> SIM300SendMsg@cmd(BANK1[25]), SIM300DeleteMsg@cmd(BANK0[16]), 
;!
;!    sprintf@ap	PTR void [1] size(1) Largest target is 2
;!		 -> ?_sprintf(BANK0[2]), 
;!
;!    S350$_cp	PTR const unsigned char  size(1) Largest target is 11
;!		 -> STR_13(CODE[7]), STR_5(CODE[11]), 
;!
;!    _val._str._cp	PTR const unsigned char  size(1) Largest target is 11
;!		 -> STR_13(CODE[7]), STR_5(CODE[11]), 
;!
;!    USARTReadBuffer@buff	PTR unsigned char  size(1) Largest target is 5
;!		 -> sim300_buffer(BANK0[5]), 
;!
;!    USARTWriteString@str	PTR const unsigned char  size(2) Largest target is 33
;!		 -> SIM300SendMsg@cmd(BANK1[25]), SIM300DeleteMsg@cmd(BANK0[16]), STR_7(CODE[3]), STR_6(CODE[33]), 
;!		 -> STR_4(CODE[4]), STR_3(CODE[15]), STR_2(CODE[10]), STR_1(CODE[10]), 
;!
;!    SIM300SendMsg@msg_ref	PTR unsigned char  size(1) Largest target is 1
;!		 -> main@ref(BANK0[1]), 
;!
;!    SIM300SendMsg@msg	PTR const unsigned char  size(1) Largest target is 33
;!		 -> STR_6(CODE[33]), 
;!
;!    SIM300SendMsg@num	PTR const unsigned char  size(1) Largest target is 11
;!		 -> STR_5(CODE[11]), 
;!
;!    SIM300CheckResponse@check	PTR const unsigned char  size(1) Largest target is 3
;!		 -> STR_8(CODE[3]), 
;!
;!    SIM300CheckResponse@response	PTR const unsigned char  size(1) Largest target is 5
;!		 -> sim300_buffer(BANK0[5]), 
;!
;!    SIM300Cmd@cmd	PTR const unsigned char  size(2) Largest target is 25
;!		 -> SIM300SendMsg@cmd(BANK1[25]), SIM300DeleteMsg@cmd(BANK0[16]), STR_7(CODE[3]), STR_4(CODE[4]), 
;!		 -> STR_3(CODE[15]), STR_2(CODE[10]), STR_1(CODE[10]), 
;!


;!
;!Critical Paths under _main in COMMON
;!
;!    None.
;!
;!Critical Paths under _ISR in COMMON
;!
;!    _ISR->_USARTHandleRxInt
;!
;!Critical Paths under _main in BANK0
;!
;!    _main->_SIM300SendMsg
;!    _SIM300SendMsg->_SIM300DeleteMsg
;!    _atoi->___wmul
;!    _SIM300DeleteMsg->_sprintf
;!    _strnicmp->_toupper
;!    _sprintf->___lwmod
;!    ___lwmod->___lwdiv
;!    _SIM300WaitForResponse->_USARTReadData
;!    _USARTFlushBuffer->_USARTReadData
;!    _SIM300Init->_SIM300Cmd
;!    _SIM300Cmd->_USARTReadBuffer
;!    _USARTWriteString->_USARTWriteChar
;!    _USARTReadBuffer->_strlen
;!
;!Critical Paths under _ISR in BANK0
;!
;!    None.
;!
;!Critical Paths under _main in BANK1
;!
;!    _main->_SIM300SendMsg
;!
;!Critical Paths under _ISR in BANK1
;!
;!    None.

;;
;;Main: autosize = 0, tempsize = 3, incstack = 0, save=0
;;

;!
;!Call Graph Tables:
;!
;! ---------------------------------------------------------------------------------
;! (Depth) Function   	        Calls       Base Space   Used Autos Params    Refs
;! ---------------------------------------------------------------------------------
;! (0) _main                                                 8     8      0   14208
;!                                             55 BANK0      8     8      0
;!                          _SIM300Cmd
;!                         _SIM300Init
;!                      _SIM300SendMsg
;!                   _USARTFlushBuffer
;! ---------------------------------------------------------------------------------
;! (1) _SIM300SendMsg                                       34    32      2    9785
;!                                             49 BANK0      6     4      2
;!                                              0 BANK1     28    28      0
;!                          _SIM300Cmd
;!                    _SIM300DeleteMsg
;!              _SIM300WaitForResponse
;!                 _USARTDataAvailable
;!                   _USARTFlushBuffer
;!                    _USARTReadBuffer
;!                     _USARTWriteChar
;!                   _USARTWriteString
;!                               _atoi
;!                            _sprintf
;!                             _strlen
;!                           _strnicmp
;! ---------------------------------------------------------------------------------
;! (2) _atoi                                                 8     6      2     627
;!                                              6 BANK0      8     6      2
;!                             ___wmul
;!                            _isdigit
;! ---------------------------------------------------------------------------------
;! (3) _isdigit                                              2     2      0      68
;!                                              0 BANK0      2     2      0
;! ---------------------------------------------------------------------------------
;! (2) _SIM300DeleteMsg                                     21    21      0    3924
;!                                             28 BANK0     21    21      0
;!                          _SIM300Cmd
;!              _SIM300WaitForResponse
;!                   _USARTFlushBuffer
;!                            _sprintf
;!                           _strnicmp
;! ---------------------------------------------------------------------------------
;! (2) _strnicmp                                             7     4      3     446
;!                                              2 BANK0      7     4      3
;!                            _toupper
;! ---------------------------------------------------------------------------------
;! (3) _toupper                                              2     2      0      67
;!                                              0 BANK0      2     2      0
;! ---------------------------------------------------------------------------------
;! (2) _sprintf                                             14    11      3    1285
;!                                             14 BANK0     14    11      3
;!                            ___lwdiv
;!                            ___lwmod
;! ---------------------------------------------------------------------------------
;! (3) ___lwmod                                              6     2      4     265
;!                                              8 BANK0      6     2      4
;!                            ___lwdiv (ARG)
;! ---------------------------------------------------------------------------------
;! (3) ___lwdiv                                              8     4      4     268
;!                                              0 BANK0      8     4      4
;! ---------------------------------------------------------------------------------
;! (2) _SIM300WaitForResponse                                6     4      2     332
;!                                              2 BANK0      6     4      2
;!                 _USARTDataAvailable
;!                   _USARTFlushBuffer
;!                      _USARTReadData
;! ---------------------------------------------------------------------------------
;! (1) _USARTFlushBuffer                                     0     0      0      23
;!                 _USARTDataAvailable
;!                      _USARTReadData
;! ---------------------------------------------------------------------------------
;! (1) _SIM300Init                                           4     4      0    2566
;!                                             20 BANK0      4     4      0
;!                _SIM300CheckResponse
;!                          _SIM300Cmd
;!                 _USARTDataAvailable
;!                          _USARTInit
;!                    _USARTReadBuffer
;! ---------------------------------------------------------------------------------
;! (2) _USARTInit                                            3     1      2      75
;!                                              0 BANK0      3     1      2
;! ---------------------------------------------------------------------------------
;! (3) _SIM300Cmd                                            7     5      2    1714
;!                                             13 BANK0      7     5      2
;!                 _USARTDataAvailable
;!                    _USARTReadBuffer
;!                     _USARTWriteChar
;!                   _USARTWriteString
;!                             ___wmul
;!                             _strlen
;! ---------------------------------------------------------------------------------
;! (2) _strlen                                               6     4      2     302
;!                                              0 BANK0      6     4      2
;! ---------------------------------------------------------------------------------
;! (3) ___wmul                                               6     2      4     304
;!                                              0 BANK0      6     2      4
;! ---------------------------------------------------------------------------------
;! (2) _USARTWriteString                                     2     0      2     226
;!                                              1 BANK0      2     0      2
;!                     _USARTWriteChar
;! ---------------------------------------------------------------------------------
;! (3) _USARTWriteChar                                       1     1      0      22
;!                                              0 BANK0      1     1      0
;! ---------------------------------------------------------------------------------
;! (2) _USARTReadBuffer                                      7     5      2     353
;!                                              6 BANK0      7     5      2
;!                      _USARTReadData
;!                             _strlen (ARG)
;! ---------------------------------------------------------------------------------
;! (2) _USARTReadData                                        2     2      0      23
;!                                              0 BANK0      2     2      0
;! ---------------------------------------------------------------------------------
;! (2) _USARTDataAvailable                                   1     1      0       0
;!                                              0 BANK0      1     1      0
;! ---------------------------------------------------------------------------------
;! (2) _SIM300CheckResponse                                  6     4      2     400
;!                                              0 BANK0      6     4      2
;! ---------------------------------------------------------------------------------
;! Estimated maximum stack depth 3
;! ---------------------------------------------------------------------------------
;! (Depth) Function   	        Calls       Base Space   Used Autos Params    Refs
;! ---------------------------------------------------------------------------------
;! (6) _ISR                                                  4     4      0      23
;!                                              5 COMMON     4     4      0
;!                   _USARTHandleRxInt
;! ---------------------------------------------------------------------------------
;! (7) _USARTHandleRxInt                                     5     5      0      23
;!                                              0 COMMON     5     5      0
;! ---------------------------------------------------------------------------------
;! Estimated maximum stack depth 7
;! ---------------------------------------------------------------------------------
;!
;! Call Graph Graphs:
;!
;! _main (ROOT)
;!   _SIM300Cmd
;!     _USARTDataAvailable
;!     _USARTReadBuffer
;!       _USARTReadData
;!       _strlen (ARG)
;!     _USARTWriteChar
;!     _USARTWriteString
;!       _USARTWriteChar
;!     ___wmul
;!     _strlen
;!   _SIM300Init
;!     _SIM300CheckResponse
;!     _SIM300Cmd
;!       _USARTDataAvailable
;!       _USARTReadBuffer
;!         _USARTReadData
;!         _strlen (ARG)
;!       _USARTWriteChar
;!       _USARTWriteString
;!         _USARTWriteChar
;!       ___wmul
;!       _strlen
;!     _USARTDataAvailable
;!     _USARTInit
;!     _USARTReadBuffer
;!       _USARTReadData
;!       _strlen (ARG)
;!   _SIM300SendMsg
;!     _SIM300Cmd
;!       _USARTDataAvailable
;!       _USARTReadBuffer
;!         _USARTReadData
;!         _strlen (ARG)
;!       _USARTWriteChar
;!       _USARTWriteString
;!         _USARTWriteChar
;!       ___wmul
;!       _strlen
;!     _SIM300DeleteMsg
;!       _SIM300Cmd
;!         _USARTDataAvailable
;!         _USARTReadBuffer
;!           _USARTReadData
;!           _strlen (ARG)
;!         _USARTWriteChar
;!         _USARTWriteString
;!           _USARTWriteChar
;!         ___wmul
;!         _strlen
;!       _SIM300WaitForResponse
;!         _USARTDataAvailable
;!         _USARTFlushBuffer
;!           _USARTDataAvailable
;!           _USARTReadData
;!         _USARTReadData
;!       _USARTFlushBuffer
;!         _USARTDataAvailable
;!         _USARTReadData
;!       _sprintf
;!         ___lwdiv
;!         ___lwmod
;!           ___lwdiv (ARG)
;!       _strnicmp
;!         _toupper
;!     _SIM300WaitForResponse
;!       _USARTDataAvailable
;!       _USARTFlushBuffer
;!         _USARTDataAvailable
;!         _USARTReadData
;!       _USARTReadData
;!     _USARTDataAvailable
;!     _USARTFlushBuffer
;!       _USARTDataAvailable
;!       _USARTReadData
;!     _USARTReadBuffer
;!       _USARTReadData
;!       _strlen (ARG)
;!     _USARTWriteChar
;!     _USARTWriteString
;!       _USARTWriteChar
;!     _atoi
;!       ___wmul
;!       _isdigit
;!     _sprintf
;!       ___lwdiv
;!       ___lwmod
;!         ___lwdiv (ARG)
;!     _strlen
;!     _strnicmp
;!       _toupper
;!   _USARTFlushBuffer
;!     _USARTDataAvailable
;!     _USARTReadData
;!
;! _ISR (ROOT)
;!   _USARTHandleRxInt
;!

;! Address spaces:

;!Name               Size   Autos  Total    Cost      Usage
;!BITCOMMON            E      0       0       0        0.0%
;!EEDATA              40      0       0       0        0.0%
;!NULL                 0      0       0       0        0.0%
;!CODE                 0      0       0       0        0.0%
;!COMMON               E      9       B       1       78.6%
;!BITSFR0              0      0       0       1        0.0%
;!SFR0                 0      0       0       1        0.0%
;!BITSFR1              0      0       0       2        0.0%
;!SFR1                 0      0       0       2        0.0%
;!STACK                0      0       0       2        0.0%
;!ABS                  0      0      75       3        0.0%
;!BITBANK0            50      0       0       4        0.0%
;!BITSFR3              0      0       0       4        0.0%
;!SFR3                 0      0       0       4        0.0%
;!BANK0               50     3F      4E       5       97.5%
;!BITSFR2              0      0       0       5        0.0%
;!SFR2                 0      0       0       5        0.0%
;!BITBANK1            20      0       0       6        0.0%
;!BANK1               20     1C      1C       7       87.5%
;!DATA                 0      0      75       8        0.0%

	global	_main

;; *************** function _main *****************
;; Defined at:
;;		line 12 in file "E:\Study Material\XC8 PROJECTS\Security 870\Security.c"
;; Parameters:    Size  Location     Type
;;		None
;; Auto vars:     Size  Location     Type
;;  count           1   62[BANK0 ] unsigned char 
;;  SMS_Sent        1   61[BANK0 ] unsigned char 
;;  ref             1   60[BANK0 ] unsigned char 
;;  r               1   59[BANK0 ] char 
;;  result          1   58[BANK0 ] unsigned char 
;; Return value:  Size  Location     Type
;;		None               void
;; Registers used:
;;		wreg, fsr0l, fsr0h, status,2, status,0, btemp+1, pclath, cstack
;; Tracked objects:
;;		On entry : 17F/0
;;		On exit  : 0/0
;;		Unchanged: 0/0
;; Data sizes:     COMMON   BANK0   BANK1
;;      Params:         0       0       0
;;      Locals:         0       5       0
;;      Temps:          0       3       0
;;      Totals:         0       8       0
;;Total ram usage:        8 bytes
;; Hardware stack levels required when called:    7
;; This function calls:
;;		_SIM300Cmd
;;		_SIM300Init
;;		_SIM300SendMsg
;;		_USARTFlushBuffer
;; This function is called by:
;;		Startup code after reset
;; This function uses a non-reentrant model
;;
psect	maintext,global,class=CODE,delta=2,split=1
	file	"E:\Study Material\XC8 PROJECTS\Security 870\Security.c"
	line	12
global __pmaintext
__pmaintext:	;psect for function _main
psect	maintext
	file	"E:\Study Material\XC8 PROJECTS\Security 870\Security.c"
	line	12
	global	__size_of_main
	__size_of_main	equ	__end_of_main-_main
	
_main:	
;incstack = 0
	opt	stack 1
; Regs used in _main: [wreg-fsr0h+status,2+status,0+btemp+1+pclath+cstack]
	line	14
	
l2091:	
;Security.c: 14: TRISB = 0xFF;
	movlw	(0FFh)
	bsf	status, 5	;RP0=1, select bank1
	bcf	status, 6	;RP1=0, select bank1
	movwf	(134)^080h	;volatile
	line	15
	
l2093:	
;Security.c: 15: TRISC = 0x00;
	clrf	(135)^080h	;volatile
	line	16
	
l2095:	
;Security.c: 16: char count = 0;
	bcf	status, 5	;RP0=0, select bank0
	bcf	status, 6	;RP1=0, select bank0
	clrf	(main@count)
	line	17
	
l2097:	
;Security.c: 17: char SMS_Sent = 0;
	clrf	(main@SMS_Sent)
	line	20
	
l2099:	
;Security.c: 18: uint8_t ref,result;
;Security.c: 20: for(count = 0; count < 5; count ++)
	clrf	(main@count)
	movlw	(05h)
	subwf	(main@count),w
	skipc
	goto	u1761
	goto	u1760
u1761:
	goto	l39
u1760:
	goto	l2111
	
l2101:	
	goto	l2111
	line	21
	
l39:	
	line	22
;Security.c: 21: {
;Security.c: 22: RC5 = 1;
	bsf	(61/8),(61)&7	;volatile
	line	23
	
l2103:	
;Security.c: 23: _delay((unsigned long)((1000)*(4000000/4000.0)));
	opt asmopt_off
movlw  6
movwf	((??_main+0)+0+2),f
movlw	19
movwf	((??_main+0)+0+1),f
	movlw	177
movwf	((??_main+0)+0),f
u2087:
	decfsz	((??_main+0)+0),f
	goto	u2087
	decfsz	((??_main+0)+0+1),f
	goto	u2087
	decfsz	((??_main+0)+0+2),f
	goto	u2087
	nop2
opt asmopt_on

	line	24
	
l2105:	
;Security.c: 24: RC5 = 0;
	bcf	status, 5	;RP0=0, select bank0
	bcf	status, 6	;RP1=0, select bank0
	bcf	(61/8),(61)&7	;volatile
	line	25
;Security.c: 25: _delay((unsigned long)((1000)*(4000000/4000.0)));
	opt asmopt_off
movlw  6
movwf	((??_main+0)+0+2),f
movlw	19
movwf	((??_main+0)+0+1),f
	movlw	177
movwf	((??_main+0)+0),f
u2097:
	decfsz	((??_main+0)+0),f
	goto	u2097
	decfsz	((??_main+0)+0+1),f
	goto	u2097
	decfsz	((??_main+0)+0+2),f
	goto	u2097
	nop2
opt asmopt_on

	line	20
	
l2107:	
	movlw	(01h)
	bcf	status, 5	;RP0=0, select bank0
	bcf	status, 6	;RP1=0, select bank0
	movwf	(??_main+0)+0
	movf	(??_main+0)+0,w
	addwf	(main@count),f
	
l2109:	
	movlw	(05h)
	subwf	(main@count),w
	skipc
	goto	u1771
	goto	u1770
u1771:
	goto	l39
u1770:
	goto	l2111
	
l40:	
	line	28
	
l2111:	
;Security.c: 26: }
;Security.c: 28: int8_t r= SIM300Init();
	fcall	_SIM300Init
	bcf	status, 5	;RP0=0, select bank0
	bcf	status, 6	;RP1=0, select bank0
	movwf	(??_main+0)+0
	movf	(??_main+0)+0,w
	movwf	(main@r)
	line	29
	
l2113:	
;Security.c: 29: _delay(1000000);
	opt asmopt_off
movlw  6
movwf	((??_main+0)+0+2),f
movlw	19
movwf	((??_main+0)+0+1),f
	movlw	177
movwf	((??_main+0)+0),f
u2107:
	decfsz	((??_main+0)+0),f
	goto	u2107
	decfsz	((??_main+0)+0+1),f
	goto	u2107
	decfsz	((??_main+0)+0+2),f
	goto	u2107
	nop2
opt asmopt_on

	line	31
	
l2115:	
;Security.c: 31: if(r == 1)
	bcf	status, 5	;RP0=0, select bank0
	bcf	status, 6	;RP1=0, select bank0
	movf	(main@r),w
	xorlw	01h
	skipz
	goto	u1781
	goto	u1780
u1781:
	goto	l43
u1780:
	line	34
	
l2117:	
;Security.c: 32: {
;Security.c: 34: SIM300Cmd("AT+CMGF=1");
	movlw	low((STR_1)-__stringbase)
	movwf	(SIM300Cmd@cmd)
	movlw	80h
	movwf	(SIM300Cmd@cmd+1)
	fcall	_SIM300Cmd
	line	35
	
l2119:	
;Security.c: 35: _delay(1000000);
	opt asmopt_off
movlw  6
	bcf	status, 5	;RP0=0, select bank0
	bcf	status, 6	;RP1=0, select bank0
movwf	((??_main+0)+0+2),f
movlw	19
movwf	((??_main+0)+0+1),f
	movlw	177
movwf	((??_main+0)+0),f
u2117:
	decfsz	((??_main+0)+0),f
	goto	u2117
	decfsz	((??_main+0)+0+1),f
	goto	u2117
	decfsz	((??_main+0)+0+2),f
	goto	u2117
	nop2
opt asmopt_on

	line	37
	
l2121:	
;Security.c: 37: SIM300Cmd("AT+CMGD=1");
	movlw	low((STR_2)-__stringbase)
	bcf	status, 5	;RP0=0, select bank0
	bcf	status, 6	;RP1=0, select bank0
	movwf	(SIM300Cmd@cmd)
	movlw	80h
	movwf	(SIM300Cmd@cmd+1)
	fcall	_SIM300Cmd
	line	38
;Security.c: 38: _delay(1000000);
	opt asmopt_off
movlw  6
	bcf	status, 5	;RP0=0, select bank0
	bcf	status, 6	;RP1=0, select bank0
movwf	((??_main+0)+0+2),f
movlw	19
movwf	((??_main+0)+0+1),f
	movlw	177
movwf	((??_main+0)+0),f
u2127:
	decfsz	((??_main+0)+0),f
	goto	u2127
	decfsz	((??_main+0)+0+1),f
	goto	u2127
	decfsz	((??_main+0)+0+2),f
	goto	u2127
	nop2
opt asmopt_on

	line	40
	
l2123:	
;Security.c: 40: USARTFlushBuffer();
	fcall	_USARTFlushBuffer
	line	42
	
l2125:	
;Security.c: 42: RC5 = 1;
	bcf	status, 5	;RP0=0, select bank0
	bcf	status, 6	;RP1=0, select bank0
	bsf	(61/8),(61)&7	;volatile
	line	43
	
l2127:	
;Security.c: 43: _delay(1000000);
	opt asmopt_off
movlw  6
movwf	((??_main+0)+0+2),f
movlw	19
movwf	((??_main+0)+0+1),f
	movlw	177
movwf	((??_main+0)+0),f
u2137:
	decfsz	((??_main+0)+0),f
	goto	u2137
	decfsz	((??_main+0)+0+1),f
	goto	u2137
	decfsz	((??_main+0)+0+2),f
	goto	u2137
	nop2
opt asmopt_on

	line	44
;Security.c: 44: }
	goto	l2147
	line	45
	
l41:	
	line	48
;Security.c: 45: else
;Security.c: 46: {
;Security.c: 48: while(1)
	
l43:	
	line	50
;Security.c: 49: {
;Security.c: 50: RC5 = 1;
	bcf	status, 5	;RP0=0, select bank0
	bcf	status, 6	;RP1=0, select bank0
	bsf	(61/8),(61)&7	;volatile
	line	51
	
l2129:	
;Security.c: 51: _delay(100000);
	opt asmopt_off
movlw	130
movwf	((??_main+0)+0+1),f
	movlw	221
movwf	((??_main+0)+0),f
u2147:
	decfsz	((??_main+0)+0),f
	goto	u2147
	decfsz	((??_main+0)+0+1),f
	goto	u2147
	nop2
opt asmopt_on

	line	52
	
l2131:	
;Security.c: 52: RC5 = 0;
	bcf	status, 5	;RP0=0, select bank0
	bcf	status, 6	;RP1=0, select bank0
	bcf	(61/8),(61)&7	;volatile
	line	53
;Security.c: 53: _delay(100000);
	opt asmopt_off
movlw	130
movwf	((??_main+0)+0+1),f
	movlw	221
movwf	((??_main+0)+0),f
u2157:
	decfsz	((??_main+0)+0),f
	goto	u2157
	decfsz	((??_main+0)+0+1),f
	goto	u2157
	nop2
opt asmopt_on

	goto	l43
	line	54
	
l44:	
	line	48
	goto	l43
	
l45:	
	goto	l2147
	line	55
	
l42:	
	goto	l2147
	line	57
;Security.c: 54: }
;Security.c: 55: }
;Security.c: 57: while(1)
	
l46:	
	line	59
;Security.c: 58: {
;Security.c: 59: while(RB0 == 1)
	goto	l2147
	
l48:	
	line	62
	
l2133:	
;Security.c: 60: {
;Security.c: 62: SIM300Cmd("ATD9403585436;");
	movlw	low((STR_3)-__stringbase)
	bcf	status, 5	;RP0=0, select bank0
	bcf	status, 6	;RP1=0, select bank0
	movwf	(SIM300Cmd@cmd)
	movlw	80h
	movwf	(SIM300Cmd@cmd+1)
	fcall	_SIM300Cmd
	line	63
	
l2135:	
;Security.c: 63: _delay((unsigned long)((30000)*(4000000/4000.0)));
	opt asmopt_off
movlw  153
	bcf	status, 5	;RP0=0, select bank0
	bcf	status, 6	;RP1=0, select bank0
movwf	((??_main+0)+0+2),f
movlw	50
movwf	((??_main+0)+0+1),f
	movlw	56
movwf	((??_main+0)+0),f
u2167:
	decfsz	((??_main+0)+0),f
	goto	u2167
	decfsz	((??_main+0)+0+1),f
	goto	u2167
	decfsz	((??_main+0)+0+2),f
	goto	u2167
	nop2
opt asmopt_on

	line	65
	
l2137:	
;Security.c: 65: SIM300Cmd("ATH");
	movlw	low((STR_4)-__stringbase)
	bcf	status, 5	;RP0=0, select bank0
	bcf	status, 6	;RP1=0, select bank0
	movwf	(SIM300Cmd@cmd)
	movlw	80h
	movwf	(SIM300Cmd@cmd+1)
	fcall	_SIM300Cmd
	line	66
;Security.c: 66: _delay((unsigned long)((1000)*(4000000/4000.0)));
	opt asmopt_off
movlw  6
	bcf	status, 5	;RP0=0, select bank0
	bcf	status, 6	;RP1=0, select bank0
movwf	((??_main+0)+0+2),f
movlw	19
movwf	((??_main+0)+0+1),f
	movlw	177
movwf	((??_main+0)+0),f
u2177:
	decfsz	((??_main+0)+0),f
	goto	u2177
	decfsz	((??_main+0)+0+1),f
	goto	u2177
	decfsz	((??_main+0)+0+2),f
	goto	u2177
	nop2
opt asmopt_on

	line	67
	
l2139:	
;Security.c: 67: if(SMS_Sent == 0)
	bcf	status, 5	;RP0=0, select bank0
	bcf	status, 6	;RP1=0, select bank0
	movf	(main@SMS_Sent),f
	skipz
	goto	u1791
	goto	u1790
u1791:
	goto	l2147
u1790:
	line	71
	
l2141:	
;Security.c: 68: {
;Security.c: 71: result=SIM300SendMsg("9403585436","SOMEBODY HAS ENTERED INTO HOUSE!",&ref);
	movlw	((STR_6)-__stringbase)&0ffh
	movwf	(??_main+0)+0
	movf	(??_main+0)+0,w
	movwf	(SIM300SendMsg@msg)
	movlw	(main@ref)&0ffh
	movwf	(??_main+1)+0
	movf	(??_main+1)+0,w
	movwf	(SIM300SendMsg@msg_ref)
	movlw	((STR_5)-__stringbase)&0ffh
	fcall	_SIM300SendMsg
	bcf	status, 5	;RP0=0, select bank0
	bcf	status, 6	;RP1=0, select bank0
	movwf	(??_main+2)+0
	movf	(??_main+2)+0,w
	movwf	(main@result)
	line	72
	
l2143:	
;Security.c: 72: _delay((unsigned long)((5000)*(4000000/4000.0)));
	opt asmopt_off
movlw  26
movwf	((??_main+0)+0+2),f
movlw	94
movwf	((??_main+0)+0+1),f
	movlw	134
movwf	((??_main+0)+0),f
u2187:
	decfsz	((??_main+0)+0),f
	goto	u2187
	decfsz	((??_main+0)+0+1),f
	goto	u2187
	decfsz	((??_main+0)+0+2),f
	goto	u2187
	nop
opt asmopt_on

	line	73
	
l2145:	
;Security.c: 73: SMS_Sent = 1;
	bcf	status, 5	;RP0=0, select bank0
	bcf	status, 6	;RP1=0, select bank0
	clrf	(main@SMS_Sent)
	incf	(main@SMS_Sent),f
	goto	l2147
	line	74
	
l49:	
	goto	l2147
	line	75
	
l47:	
	line	59
	
l2147:	
	bcf	status, 5	;RP0=0, select bank0
	bcf	status, 6	;RP1=0, select bank0
	btfsc	(48/8),(48)&7	;volatile
	goto	u1801
	goto	u1800
u1801:
	goto	l2133
u1800:
	goto	l2149
	
l50:	
	line	76
	
l2149:	
;Security.c: 74: }
;Security.c: 75: }
;Security.c: 76: SMS_Sent = 0;
	clrf	(main@SMS_Sent)
	goto	l2147
	line	77
	
l51:	
	line	57
	goto	l2147
	
l52:	
	line	78
	
l53:	
	global	start
	ljmp	start
	opt stack 0
GLOBAL	__end_of_main
	__end_of_main:
	signat	_main,88
	global	_SIM300SendMsg

;; *************** function _SIM300SendMsg *****************
;; Defined at:
;;		line 221 in file "E:\Study Material\XC8 PROJECTS\Security 870\sim300.c"
;; Parameters:    Size  Location     Type
;;  num             1    wreg     PTR const unsigned char 
;;		 -> STR_5(11), 
;;  msg             1   49[BANK0 ] PTR const unsigned char 
;;		 -> STR_6(33), 
;;  msg_ref         1   50[BANK0 ] PTR unsigned char 
;;		 -> main@ref(1), 
;; Auto vars:     Size  Location     Type
;;  num             1   25[BANK1 ] PTR const unsigned char 
;;		 -> STR_5(11), 
;;  cmd            25    0[BANK1 ] unsigned char [25]
;;  n               1   27[BANK1 ] unsigned char 
;;  len             1   26[BANK1 ] unsigned char 
;; Return value:  Size  Location     Type
;;                  1    wreg      char 
;; Registers used:
;;		wreg, fsr0l, fsr0h, status,2, status,0, btemp+1, pclath, cstack
;; Tracked objects:
;;		On entry : 0/0
;;		On exit  : 0/0
;;		Unchanged: 0/0
;; Data sizes:     COMMON   BANK0   BANK1
;;      Params:         0       2       0
;;      Locals:         0       0      28
;;      Temps:          0       4       0
;;      Totals:         0       6      28
;;Total ram usage:       34 bytes
;; Hardware stack levels used:    1
;; Hardware stack levels required when called:    6
;; This function calls:
;;		_SIM300Cmd
;;		_SIM300DeleteMsg
;;		_SIM300WaitForResponse
;;		_USARTDataAvailable
;;		_USARTFlushBuffer
;;		_USARTReadBuffer
;;		_USARTWriteChar
;;		_USARTWriteString
;;		_atoi
;;		_sprintf
;;		_strlen
;;		_strnicmp
;; This function is called by:
;;		_main
;; This function uses a non-reentrant model
;;
psect	text1,local,class=CODE,delta=2,merge=1
	file	"E:\Study Material\XC8 PROJECTS\Security 870\sim300.c"
	line	221
global __ptext1
__ptext1:	;psect for function _SIM300SendMsg
psect	text1
	file	"E:\Study Material\XC8 PROJECTS\Security 870\sim300.c"
	line	221
	global	__size_of_SIM300SendMsg
	__size_of_SIM300SendMsg	equ	__end_of_SIM300SendMsg-_SIM300SendMsg
	
_SIM300SendMsg:	
;incstack = 0
	opt	stack 1
; Regs used in _SIM300SendMsg: [wreg-fsr0h+status,2+status,0+btemp+1+pclath+cstack]
;SIM300SendMsg@num stored from wreg
	bsf	status, 5	;RP0=1, select bank1
	bcf	status, 6	;RP1=0, select bank1
	movwf	(SIM300SendMsg@num)^080h
	line	223
	
l2025:	
;sim300.c: 223: USARTFlushBuffer();
	fcall	_USARTFlushBuffer
	line	227
	
l2027:	
;sim300.c: 225: char cmd[25];
;sim300.c: 227: sprintf(cmd,"AT+CMGS= %s",num);
	movlw	((STR_11)-__stringbase)&0ffh
	bcf	status, 5	;RP0=0, select bank0
	bcf	status, 6	;RP1=0, select bank0
	movwf	(??_SIM300SendMsg+0)+0
	movf	(??_SIM300SendMsg+0)+0,w
	movwf	(sprintf@f)
	bsf	status, 5	;RP0=1, select bank1
	bcf	status, 6	;RP1=0, select bank1
	movf	(SIM300SendMsg@num)^080h,w
	bcf	status, 5	;RP0=0, select bank0
	bcf	status, 6	;RP1=0, select bank0
	movwf	(??_SIM300SendMsg+1)+0
	movf	(??_SIM300SendMsg+1)+0,w
	movwf	(0+?_sprintf+01h)
	movlw	(SIM300SendMsg@cmd)&0ffh
	fcall	_sprintf
	line	229
	
l2029:	
;sim300.c: 229: cmd[8]=0x22;
	movlw	(022h)
	bcf	status, 5	;RP0=0, select bank0
	bcf	status, 6	;RP1=0, select bank0
	movwf	(??_SIM300SendMsg+0)+0
	movf	(??_SIM300SendMsg+0)+0,w
	bsf	status, 5	;RP0=1, select bank1
	bcf	status, 6	;RP1=0, select bank1
	movwf	0+(SIM300SendMsg@cmd)^080h+08h
	line	231
	
l2031:	
;sim300.c: 231: uint8_t n=strlen(cmd);
	movlw	(SIM300SendMsg@cmd&0ffh)
	bcf	status, 5	;RP0=0, select bank0
	bcf	status, 6	;RP1=0, select bank0
	movwf	(strlen@s)
	movlw	(0x0)
	movwf	(strlen@s+1)
	fcall	_strlen
	bcf	status, 5	;RP0=0, select bank0
	bcf	status, 6	;RP1=0, select bank0
	movf	(0+(?_strlen)),w
	movwf	(??_SIM300SendMsg+0)+0
	movf	(??_SIM300SendMsg+0)+0,w
	bsf	status, 5	;RP0=1, select bank1
	bcf	status, 6	;RP1=0, select bank1
	movwf	(SIM300SendMsg@n)^080h
	line	233
	
l2033:	
;sim300.c: 233: cmd[n]=0x22;
	movlw	(022h)
	bcf	status, 5	;RP0=0, select bank0
	bcf	status, 6	;RP1=0, select bank0
	movwf	(??_SIM300SendMsg+0)+0
	bsf	status, 5	;RP0=1, select bank1
	bcf	status, 6	;RP1=0, select bank1
	movf	(SIM300SendMsg@n)^080h,w
	addlw	SIM300SendMsg@cmd&0ffh
	movwf	fsr0
	bcf	status, 5	;RP0=0, select bank0
	bcf	status, 6	;RP1=0, select bank0
	movf	(??_SIM300SendMsg+0)+0,w
	bcf	status, 7	;select IRP bank1
	movwf	indf
	line	234
	
l2035:	
;sim300.c: 234: cmd[n+1]='\0';
	bsf	status, 5	;RP0=1, select bank1
	bcf	status, 6	;RP1=0, select bank1
	movf	(SIM300SendMsg@n)^080h,w
	addlw	01h
	addlw	SIM300SendMsg@cmd&0ffh
	movwf	fsr0
	clrf	indf
	line	237
	
l2037:	
;sim300.c: 237: SIM300Cmd(cmd);
	movlw	(SIM300SendMsg@cmd&0ffh)
	bcf	status, 5	;RP0=0, select bank0
	bcf	status, 6	;RP1=0, select bank0
	movwf	(SIM300Cmd@cmd)
	movlw	(0x0)
	movwf	(SIM300Cmd@cmd+1)
	fcall	_SIM300Cmd
	line	239
	
l2039:	
;sim300.c: 239: _delay((unsigned long)((100)*(4000000/4000.0)));
	opt asmopt_off
movlw	130
	bcf	status, 5	;RP0=0, select bank0
	bcf	status, 6	;RP1=0, select bank0
movwf	((??_SIM300SendMsg+0)+0+1),f
	movlw	221
movwf	((??_SIM300SendMsg+0)+0),f
u2197:
	decfsz	((??_SIM300SendMsg+0)+0),f
	goto	u2197
	decfsz	((??_SIM300SendMsg+0)+0+1),f
	goto	u2197
	nop2
opt asmopt_on

	line	241
	
l2041:	
;sim300.c: 241: USARTWriteString(msg);
	bcf	status, 5	;RP0=0, select bank0
	bcf	status, 6	;RP1=0, select bank0
	movf	(SIM300SendMsg@msg),w
	movwf	(USARTWriteString@str)
	movlw	80h
	movwf	(USARTWriteString@str+1)
	fcall	_USARTWriteString
	line	243
	
l2043:	
;sim300.c: 243: USARTWriteChar(0x1A);
	movlw	(01Ah)
	fcall	_USARTWriteChar
	line	245
;sim300.c: 245: while( USARTDataAvailable()<(strlen(msg)+5) );
	goto	l2045
	
l143:	
	goto	l2045
	
l142:	
	
l2045:	
	bcf	status, 5	;RP0=0, select bank0
	bcf	status, 6	;RP1=0, select bank0
	movf	(SIM300SendMsg@msg),w
	movwf	(strlen@s)
	movlw	80h
	movwf	(strlen@s+1)
	fcall	_strlen
	bcf	status, 5	;RP0=0, select bank0
	bcf	status, 6	;RP1=0, select bank0
	movf	(0+(?_strlen)),w
	addlw	low(05h)
	movwf	(??_SIM300SendMsg+0)+0
	movf	(1+(?_strlen)),w
	skipnc
	addlw	1
	addlw	high(05h)
	movwf	1+(??_SIM300SendMsg+0)+0
	fcall	_USARTDataAvailable
	bcf	status, 5	;RP0=0, select bank0
	bcf	status, 6	;RP1=0, select bank0
	movwf	(??_SIM300SendMsg+2)+0
	clrf	(??_SIM300SendMsg+2)+0+1
	movf	1+(??_SIM300SendMsg+0)+0,w
	subwf	1+(??_SIM300SendMsg+2)+0,w
	skipz
	goto	u1715
	movf	0+(??_SIM300SendMsg+0)+0,w
	subwf	0+(??_SIM300SendMsg+2)+0,w
u1715:
	skipc
	goto	u1711
	goto	u1710
u1711:
	goto	l2045
u1710:
	goto	l2047
	
l144:	
	line	248
	
l2047:	
;sim300.c: 248: USARTReadBuffer(sim300_buffer,strlen(msg)+5);
	movf	(SIM300SendMsg@msg),w
	movwf	(strlen@s)
	movlw	80h
	movwf	(strlen@s+1)
	fcall	_strlen
	bcf	status, 5	;RP0=0, select bank0
	bcf	status, 6	;RP1=0, select bank0
	movf	(0+(?_strlen)),w
	addlw	low(05h)
	movwf	(USARTReadBuffer@len)
	movf	(1+(?_strlen)),w
	skipnc
	addlw	1
	addlw	high(05h)
	movwf	1+(USARTReadBuffer@len)
	movlw	(_sim300_buffer)&0ffh
	fcall	_USARTReadBuffer
	line	250
	
l2049:	
;sim300.c: 250: uint8_t len=SIM300WaitForResponse(6000);
	movlw	low(01770h)
	bcf	status, 5	;RP0=0, select bank0
	bcf	status, 6	;RP1=0, select bank0
	movwf	(SIM300WaitForResponse@timeout)
	movlw	high(01770h)
	movwf	((SIM300WaitForResponse@timeout))+1
	fcall	_SIM300WaitForResponse
	bcf	status, 5	;RP0=0, select bank0
	bcf	status, 6	;RP1=0, select bank0
	movwf	(??_SIM300SendMsg+0)+0
	movf	(??_SIM300SendMsg+0)+0,w
	bsf	status, 5	;RP0=1, select bank1
	bcf	status, 6	;RP1=0, select bank1
	movwf	(SIM300SendMsg@len)^080h
	line	252
	
l2051:	
;sim300.c: 252: if(len==0)
	movf	(SIM300SendMsg@len)^080h,f
	skipz
	goto	u1721
	goto	u1720
u1721:
	goto	l2057
u1720:
	line	253
	
l2053:	
;sim300.c: 253: return -3;
	movlw	(-3)
	goto	l146
	
l2055:	
	goto	l146
	
l145:	
	line	255
	
l2057:	
;sim300.c: 255: sim300_buffer[len-1]='\0';
	movf	(SIM300SendMsg@len)^080h,w
	addlw	0FFh
	addlw	_sim300_buffer&0ffh
	movwf	fsr0
	bcf	status, 7	;select IRP bank0
	clrf	indf
	line	256
	
l2059:	
;sim300.c: 256: n = 1;
	clrf	(SIM300SendMsg@n)^080h
	incf	(SIM300SendMsg@n)^080h,f
	line	258
	
l2061:	
;sim300.c: 258: if(strnicmp(sim300_buffer+2,"CMGS:",5)==0)
	movlw	((STR_12)-__stringbase)&0ffh
	bcf	status, 5	;RP0=0, select bank0
	bcf	status, 6	;RP1=0, select bank0
	movwf	(??_SIM300SendMsg+0)+0
	movf	(??_SIM300SendMsg+0)+0,w
	movwf	(strnicmp@s2)
	movlw	low(05h)
	movwf	(strnicmp@len)
	movlw	high(05h)
	movwf	((strnicmp@len))+1
	movlw	(_sim300_buffer+02h)&0ffh
	fcall	_strnicmp
	bcf	status, 5	;RP0=0, select bank0
	bcf	status, 6	;RP1=0, select bank0
	movf	((1+(?_strnicmp))),w
	iorwf	((0+(?_strnicmp))),w
	skipz
	goto	u1731
	goto	u1730
u1731:
	goto	l2075
u1730:
	line	261
	
l2063:	
;sim300.c: 259: {
;sim300.c: 261: *msg_ref=atoi(sim300_buffer+8);
	movlw	(_sim300_buffer+08h)&0ffh
	fcall	_atoi
	bcf	status, 5	;RP0=0, select bank0
	bcf	status, 6	;RP1=0, select bank0
	movf	(0+(?_atoi)),w
	movwf	(??_SIM300SendMsg+0)+0
	movf	(SIM300SendMsg@msg_ref),w
	movwf	fsr0
	movf	(??_SIM300SendMsg+0)+0,w
	bcf	status, 7	;select IRP bank0
	movwf	indf
	line	263
	
l2065:	
;sim300.c: 263: len = SIM300DeleteMsg(n);
	bsf	status, 5	;RP0=1, select bank1
	bcf	status, 6	;RP1=0, select bank1
	movf	(SIM300SendMsg@n)^080h,w
	fcall	_SIM300DeleteMsg
	bcf	status, 5	;RP0=0, select bank0
	bcf	status, 6	;RP1=0, select bank0
	movwf	(??_SIM300SendMsg+0)+0
	movf	(??_SIM300SendMsg+0)+0,w
	bsf	status, 5	;RP0=1, select bank1
	bcf	status, 6	;RP1=0, select bank1
	movwf	(SIM300SendMsg@len)^080h
	line	265
	
l2067:	
;sim300.c: 265: USARTFlushBuffer();
	fcall	_USARTFlushBuffer
	line	267
	
l2069:	
;sim300.c: 267: return 1;
	movlw	(01h)
	goto	l146
	
l2071:	
	goto	l146
	line	268
	
l2073:	
;sim300.c: 268: }
	goto	l146
	line	269
	
l147:	
	line	271
	
l2075:	
;sim300.c: 269: else
;sim300.c: 270: {
;sim300.c: 271: len = SIM300DeleteMsg(n);
	bsf	status, 5	;RP0=1, select bank1
	bcf	status, 6	;RP1=0, select bank1
	movf	(SIM300SendMsg@n)^080h,w
	fcall	_SIM300DeleteMsg
	bcf	status, 5	;RP0=0, select bank0
	bcf	status, 6	;RP1=0, select bank0
	movwf	(??_SIM300SendMsg+0)+0
	movf	(??_SIM300SendMsg+0)+0,w
	bsf	status, 5	;RP0=1, select bank1
	bcf	status, 6	;RP1=0, select bank1
	movwf	(SIM300SendMsg@len)^080h
	line	272
	
l2077:	
;sim300.c: 272: USARTFlushBuffer();
	fcall	_USARTFlushBuffer
	line	273
	
l2079:	
;sim300.c: 273: return -2;
	movlw	(-2)
	goto	l146
	
l2081:	
	goto	l146
	line	274
	
l148:	
	line	275
	
l146:	
	return
	opt stack 0
GLOBAL	__end_of_SIM300SendMsg
	__end_of_SIM300SendMsg:
	signat	_SIM300SendMsg,12409
	global	_atoi

;; *************** function _atoi *****************
;; Defined at:
;;		line 5 in file "C:\Program Files (x86)\Microchip\xc8\v1.32\sources\common\atoi.c"
;; Parameters:    Size  Location     Type
;;  s               1    wreg     PTR const unsigned char 
;;		 -> sim300_buffer(5), 
;; Auto vars:     Size  Location     Type
;;  s               1   13[BANK0 ] PTR const unsigned char 
;;		 -> sim300_buffer(5), 
;;  a               2   11[BANK0 ] int 
;;  sign            1   10[BANK0 ] unsigned char 
;; Return value:  Size  Location     Type
;;                  2    6[BANK0 ] int 
;; Registers used:
;;		wreg, fsr0l, fsr0h, status,2, status,0, pclath, cstack
;; Tracked objects:
;;		On entry : 0/0
;;		On exit  : 0/0
;;		Unchanged: 0/0
;; Data sizes:     COMMON   BANK0   BANK1
;;      Params:         0       2       0
;;      Locals:         0       4       0
;;      Temps:          0       2       0
;;      Totals:         0       8       0
;;Total ram usage:        8 bytes
;; Hardware stack levels used:    1
;; Hardware stack levels required when called:    3
;; This function calls:
;;		___wmul
;;		_isdigit
;; This function is called by:
;;		_SIM300SendMsg
;; This function uses a non-reentrant model
;;
psect	text2,local,class=CODE,delta=2,merge=1
	file	"C:\Program Files (x86)\Microchip\xc8\v1.32\sources\common\atoi.c"
	line	5
global __ptext2
__ptext2:	;psect for function _atoi
psect	text2
	file	"C:\Program Files (x86)\Microchip\xc8\v1.32\sources\common\atoi.c"
	line	5
	global	__size_of_atoi
	__size_of_atoi	equ	__end_of_atoi-_atoi
	
_atoi:	
;incstack = 0
	opt	stack 3
; Regs used in _atoi: [wreg-fsr0h+status,2+status,0+pclath+cstack]
;atoi@s stored from wreg
	bcf	status, 5	;RP0=0, select bank0
	bcf	status, 6	;RP1=0, select bank0
	movwf	(atoi@s)
	line	10
	
l1941:	
	goto	l1945
	
l496:	
	line	11
	
l1943:	
	movlw	(01h)
	movwf	(??_atoi+0)+0
	movf	(??_atoi+0)+0,w
	addwf	(atoi@s),f
	goto	l1945
	
l495:	
	line	10
	
l1945:	
	movf	(atoi@s),w
	movwf	fsr0
	bcf	status, 7	;select IRP bank0
	movf	indf,w
	xorlw	020h
	skipnz
	goto	u1551
	goto	u1550
u1551:
	goto	l1943
u1550:
	
l1947:	
	movf	(atoi@s),w
	movwf	fsr0
	movf	indf,w
	xorlw	09h
	skipnz
	goto	u1561
	goto	u1560
u1561:
	goto	l1943
u1560:
	goto	l1949
	
l497:	
	line	12
	
l1949:	
	clrf	(atoi@a)
	clrf	(atoi@a+1)
	line	13
	clrf	(atoi@sign)
	line	14
	
l1951:	
	movf	(atoi@s),w
	movwf	fsr0
	movf	indf,w
	xorlw	02Dh
	skipz
	goto	u1571
	goto	u1570
u1571:
	goto	l1955
u1570:
	line	15
	
l1953:	
	movlw	(01h)
	movwf	(??_atoi+0)+0
	movf	(??_atoi+0)+0,w
	addwf	(atoi@sign),f
	line	16
	movlw	(01h)
	movwf	(??_atoi+0)+0
	movf	(??_atoi+0)+0,w
	addwf	(atoi@s),f
	line	17
	goto	l1963
	
l498:	
	
l1955:	
	movf	(atoi@s),w
	movwf	fsr0
	movf	indf,w
	xorlw	02Bh
	skipz
	goto	u1581
	goto	u1580
u1581:
	goto	l1963
u1580:
	line	18
	
l1957:	
	movlw	(01h)
	movwf	(??_atoi+0)+0
	movf	(??_atoi+0)+0,w
	addwf	(atoi@s),f
	goto	l1963
	
l500:	
	goto	l1963
	line	19
	
l499:	
	goto	l1963
	
l502:	
	line	20
	
l1959:	
	bcf	status, 5	;RP0=0, select bank0
	bcf	status, 6	;RP1=0, select bank0
	movf	(atoi@a+1),w
	clrf	(___wmul@multiplier+1)
	addwf	(___wmul@multiplier+1)
	movf	(atoi@a),w
	clrf	(___wmul@multiplier)
	addwf	(___wmul@multiplier)

	movlw	low(0Ah)
	movwf	(___wmul@multiplicand)
	movlw	high(0Ah)
	movwf	((___wmul@multiplicand))+1
	fcall	___wmul
	bcf	status, 5	;RP0=0, select bank0
	bcf	status, 6	;RP1=0, select bank0
	movf	(atoi@s),w
	movwf	fsr0
	bcf	status, 7	;select IRP bank0
	movf	indf,w
	addwf	(0+(?___wmul)),w
	movwf	(??_atoi+0)+0
	movf	(1+(?___wmul)),w
	skipnc
	incf	(1+(?___wmul)),w
	movwf	((??_atoi+0)+0)+1
	movf	0+(??_atoi+0)+0,w
	addlw	low(0FFD0h)
	movwf	(atoi@a)
	movf	1+(??_atoi+0)+0,w
	skipnc
	addlw	1
	addlw	high(0FFD0h)
	movwf	1+(atoi@a)
	
l1961:	
	movlw	(01h)
	movwf	(??_atoi+0)+0
	movf	(??_atoi+0)+0,w
	addwf	(atoi@s),f
	goto	l1963
	
l501:	
	line	19
	
l1963:	
	movf	(atoi@s),w
	movwf	fsr0
	movf	indf,w
	fcall	_isdigit
	btfsc	status,0
	goto	u1591
	goto	u1590
u1591:
	goto	l1959
u1590:
	goto	l1965
	
l503:	
	line	21
	
l1965:	
	bcf	status, 5	;RP0=0, select bank0
	bcf	status, 6	;RP1=0, select bank0
	movf	(atoi@sign),w
	skipz
	goto	u1600
	goto	l1971
u1600:
	line	22
	
l1967:	
	comf	(atoi@a),w
	movwf	(??_atoi+0)+0
	comf	(atoi@a+1),w
	movwf	((??_atoi+0)+0+1)
	incf	(??_atoi+0)+0,f
	skipnz
	incf	((??_atoi+0)+0+1),f
	movf	0+(??_atoi+0)+0,w
	movwf	(?_atoi)
	movf	1+(??_atoi+0)+0,w
	movwf	(?_atoi+1)
	goto	l505
	
l1969:	
	goto	l505
	
l504:	
	line	23
	
l1971:	
	movf	(atoi@a+1),w
	clrf	(?_atoi+1)
	addwf	(?_atoi+1)
	movf	(atoi@a),w
	clrf	(?_atoi)
	addwf	(?_atoi)

	goto	l505
	
l1973:	
	line	24
	
l505:	
	return
	opt stack 0
GLOBAL	__end_of_atoi
	__end_of_atoi:
	signat	_atoi,4218
	global	_isdigit

;; *************** function _isdigit *****************
;; Defined at:
;;		line 8 in file "C:\Program Files (x86)\Microchip\xc8\v1.32\sources\common\isdigit.c"
;; Parameters:    Size  Location     Type
;;  c               1    wreg     unsigned char 
;; Auto vars:     Size  Location     Type
;;  c               1    1[BANK0 ] unsigned char 
;; Return value:  Size  Location     Type
;;		None               void
;; Registers used:
;;		wreg, status,2, status,0
;; Tracked objects:
;;		On entry : 0/0
;;		On exit  : 0/0
;;		Unchanged: 0/0
;; Data sizes:     COMMON   BANK0   BANK1
;;      Params:         0       0       0
;;      Locals:         0       2       0
;;      Temps:          0       0       0
;;      Totals:         0       2       0
;;Total ram usage:        2 bytes
;; Hardware stack levels used:    1
;; Hardware stack levels required when called:    2
;; This function calls:
;;		Nothing
;; This function is called by:
;;		_atoi
;; This function uses a non-reentrant model
;;
psect	text3,local,class=CODE,delta=2,merge=1
	file	"C:\Program Files (x86)\Microchip\xc8\v1.32\sources\common\isdigit.c"
	line	8
global __ptext3
__ptext3:	;psect for function _isdigit
psect	text3
	file	"C:\Program Files (x86)\Microchip\xc8\v1.32\sources\common\isdigit.c"
	line	8
	global	__size_of_isdigit
	__size_of_isdigit	equ	__end_of_isdigit-_isdigit
	
_isdigit:	
;incstack = 0
	opt	stack 3
; Regs used in _isdigit: [wreg+status,2+status,0]
;isdigit@c stored from wreg
	bcf	status, 5	;RP0=0, select bank0
	bcf	status, 6	;RP1=0, select bank0
	movwf	(isdigit@c)
	line	14
	
l1835:	
	clrf	(_isdigit$559)
	
l1837:	
	movlw	(03Ah)
	subwf	(isdigit@c),w
	skipnc
	goto	u1451
	goto	u1450
u1451:
	goto	l1843
u1450:
	
l1839:	
	movlw	(030h)
	subwf	(isdigit@c),w
	skipc
	goto	u1461
	goto	u1460
u1461:
	goto	l1843
u1460:
	
l1841:	
	clrf	(_isdigit$559)
	incf	(_isdigit$559),f
	goto	l1843
	
l648:	
	
l1843:	
	rrf	(_isdigit$559),w
	
	goto	l649
	
l1845:	
	line	15
	
l649:	
	return
	opt stack 0
GLOBAL	__end_of_isdigit
	__end_of_isdigit:
	signat	_isdigit,4216
	global	_SIM300DeleteMsg

;; *************** function _SIM300DeleteMsg *****************
;; Defined at:
;;		line 189 in file "E:\Study Material\XC8 PROJECTS\Security 870\sim300.c"
;; Parameters:    Size  Location     Type
;;  i               1    wreg     unsigned char 
;; Auto vars:     Size  Location     Type
;;  i               1   47[BANK0 ] unsigned char 
;;  cmd            16   31[BANK0 ] unsigned char [16]
;;  len             1   48[BANK0 ] unsigned char 
;; Return value:  Size  Location     Type
;;                  1    wreg      char 
;; Registers used:
;;		wreg, fsr0l, fsr0h, status,2, status,0, btemp+1, pclath, cstack
;; Tracked objects:
;;		On entry : 0/0
;;		On exit  : 0/0
;;		Unchanged: 0/0
;; Data sizes:     COMMON   BANK0   BANK1
;;      Params:         0       0       0
;;      Locals:         0      18       0
;;      Temps:          0       3       0
;;      Totals:         0      21       0
;;Total ram usage:       21 bytes
;; Hardware stack levels used:    1
;; Hardware stack levels required when called:    5
;; This function calls:
;;		_SIM300Cmd
;;		_SIM300WaitForResponse
;;		_USARTFlushBuffer
;;		_sprintf
;;		_strnicmp
;; This function is called by:
;;		_SIM300SendMsg
;; This function uses a non-reentrant model
;;
psect	text4,local,class=CODE,delta=2,merge=1
	file	"E:\Study Material\XC8 PROJECTS\Security 870\sim300.c"
	line	189
global __ptext4
__ptext4:	;psect for function _SIM300DeleteMsg
psect	text4
	file	"E:\Study Material\XC8 PROJECTS\Security 870\sim300.c"
	line	189
	global	__size_of_SIM300DeleteMsg
	__size_of_SIM300DeleteMsg	equ	__end_of_SIM300DeleteMsg-_SIM300DeleteMsg
	
_SIM300DeleteMsg:	
;incstack = 0
	opt	stack 1
; Regs used in _SIM300DeleteMsg: [wreg-fsr0h+status,2+status,0+btemp+1+pclath+cstack]
;SIM300DeleteMsg@i stored from wreg
	bcf	status, 5	;RP0=0, select bank0
	bcf	status, 6	;RP1=0, select bank0
	movwf	(SIM300DeleteMsg@i)
	line	191
	
l1911:	
;sim300.c: 191: USARTFlushBuffer();
	fcall	_USARTFlushBuffer
	line	197
	
l1913:	
;sim300.c: 194: char cmd[16];
;sim300.c: 197: sprintf(cmd,"AT+CMGD=%d",i);
	movlw	((STR_9)-__stringbase)&0ffh
	bcf	status, 5	;RP0=0, select bank0
	bcf	status, 6	;RP1=0, select bank0
	movwf	(??_SIM300DeleteMsg+0)+0
	movf	(??_SIM300DeleteMsg+0)+0,w
	movwf	(sprintf@f)
	movf	(SIM300DeleteMsg@i),w
	movwf	(??_SIM300DeleteMsg+1)+0
	clrf	(??_SIM300DeleteMsg+1)+0+1
	movf	0+(??_SIM300DeleteMsg+1)+0,w
	movwf	0+(?_sprintf)+01h
	movf	1+(??_SIM300DeleteMsg+1)+0,w
	movwf	1+(?_sprintf)+01h
	movlw	(SIM300DeleteMsg@cmd)&0ffh
	fcall	_sprintf
	line	200
	
l1915:	
;sim300.c: 200: SIM300Cmd(cmd);
	movlw	(SIM300DeleteMsg@cmd&0ffh)
	bcf	status, 5	;RP0=0, select bank0
	bcf	status, 6	;RP1=0, select bank0
	movwf	(SIM300Cmd@cmd)
	movlw	(0x0)
	movwf	(SIM300Cmd@cmd+1)
	fcall	_SIM300Cmd
	line	202
;sim300.c: 202: uint8_t len=SIM300WaitForResponse(1000);
	movlw	low(03E8h)
	bcf	status, 5	;RP0=0, select bank0
	bcf	status, 6	;RP1=0, select bank0
	movwf	(SIM300WaitForResponse@timeout)
	movlw	high(03E8h)
	movwf	((SIM300WaitForResponse@timeout))+1
	fcall	_SIM300WaitForResponse
	bcf	status, 5	;RP0=0, select bank0
	bcf	status, 6	;RP1=0, select bank0
	movwf	(??_SIM300DeleteMsg+0)+0
	movf	(??_SIM300DeleteMsg+0)+0,w
	movwf	(SIM300DeleteMsg@len)
	line	204
	
l1917:	
;sim300.c: 204: if(len==0)
	movf	(SIM300DeleteMsg@len),f
	skipz
	goto	u1531
	goto	u1530
u1531:
	goto	l1923
u1530:
	line	205
	
l1919:	
;sim300.c: 205: return -3;
	movlw	(-3)
	goto	l137
	
l1921:	
	goto	l137
	
l136:	
	line	207
	
l1923:	
;sim300.c: 207: sim300_buffer[len-1]='\0';
	movf	(SIM300DeleteMsg@len),w
	addlw	0FFh
	addlw	_sim300_buffer&0ffh
	movwf	fsr0
	bcf	status, 7	;select IRP bank0
	clrf	indf
	line	210
	
l1925:	
;sim300.c: 210: if(strnicmp(sim300_buffer+2,"OK",2)==0)
	movlw	((STR_10)-__stringbase)&0ffh
	movwf	(??_SIM300DeleteMsg+0)+0
	movf	(??_SIM300DeleteMsg+0)+0,w
	movwf	(strnicmp@s2)
	movlw	low(02h)
	movwf	(strnicmp@len)
	movlw	high(02h)
	movwf	((strnicmp@len))+1
	movlw	(_sim300_buffer+02h)&0ffh
	fcall	_strnicmp
	bcf	status, 5	;RP0=0, select bank0
	bcf	status, 6	;RP1=0, select bank0
	movf	((1+(?_strnicmp))),w
	iorwf	((0+(?_strnicmp))),w
	skipz
	goto	u1541
	goto	u1540
u1541:
	goto	l1935
u1540:
	line	212
	
l1927:	
;sim300.c: 211: {
;sim300.c: 212: USARTFlushBuffer();
	fcall	_USARTFlushBuffer
	line	213
	
l1929:	
;sim300.c: 213: return 1;
	movlw	(01h)
	goto	l137
	
l1931:	
	goto	l137
	line	214
	
l1933:	
;sim300.c: 214: }
	goto	l137
	line	215
	
l138:	
	line	217
	
l1935:	
;sim300.c: 215: else
;sim300.c: 216: {
;sim300.c: 217: USARTFlushBuffer();
	fcall	_USARTFlushBuffer
	line	218
	
l1937:	
;sim300.c: 218: return -2;
	movlw	(-2)
	goto	l137
	
l1939:	
	goto	l137
	line	219
	
l139:	
	line	220
	
l137:	
	return
	opt stack 0
GLOBAL	__end_of_SIM300DeleteMsg
	__end_of_SIM300DeleteMsg:
	signat	_SIM300DeleteMsg,4217
	global	_strnicmp

;; *************** function _strnicmp *****************
;; Defined at:
;;		line 5 in file "C:\Program Files (x86)\Microchip\xc8\v1.32\sources\common\strnicmp.c"
;; Parameters:    Size  Location     Type
;;  s1              1    wreg     PTR const unsigned char 
;;		 -> sim300_buffer(5), 
;;  s2              1    2[BANK0 ] PTR const unsigned char 
;;		 -> STR_12(6), STR_10(3), 
;;  len             2    3[BANK0 ] unsigned int 
;; Auto vars:     Size  Location     Type
;;  s1              1    8[BANK0 ] PTR const unsigned char 
;;		 -> sim300_buffer(5), 
;;  r               1    7[BANK0 ] char 
;; Return value:  Size  Location     Type
;;                  2    2[BANK0 ] int 
;; Registers used:
;;		wreg, fsr0l, fsr0h, status,2, status,0, pclath, cstack
;; Tracked objects:
;;		On entry : 0/0
;;		On exit  : 0/0
;;		Unchanged: 0/0
;; Data sizes:     COMMON   BANK0   BANK1
;;      Params:         0       3       0
;;      Locals:         0       2       0
;;      Temps:          0       2       0
;;      Totals:         0       7       0
;;Total ram usage:        7 bytes
;; Hardware stack levels used:    1
;; Hardware stack levels required when called:    3
;; This function calls:
;;		_toupper
;; This function is called by:
;;		_SIM300DeleteMsg
;;		_SIM300SendMsg
;; This function uses a non-reentrant model
;;
psect	text5,local,class=CODE,delta=2,merge=1
	file	"C:\Program Files (x86)\Microchip\xc8\v1.32\sources\common\strnicmp.c"
	line	5
global __ptext5
__ptext5:	;psect for function _strnicmp
psect	text5
	file	"C:\Program Files (x86)\Microchip\xc8\v1.32\sources\common\strnicmp.c"
	line	5
	global	__size_of_strnicmp
	__size_of_strnicmp	equ	__end_of_strnicmp-_strnicmp
	
_strnicmp:	
;incstack = 0
	opt	stack 3
; Regs used in _strnicmp: [wreg-fsr0h+status,2+status,0+pclath+cstack]
;strnicmp@s1 stored from wreg
	bcf	status, 5	;RP0=0, select bank0
	bcf	status, 6	;RP1=0, select bank0
	movwf	(strnicmp@s1)
	line	9
	
l1817:	
	goto	l1829
	
l760:	
	line	10
	
l1819:	
	movf	(strnicmp@s2),w
	movwf	fsr0
	fcall	stringdir
	fcall	_toupper
	xorlw	0ffh
	addlw	1
	bcf	status, 5	;RP0=0, select bank0
	bcf	status, 6	;RP1=0, select bank0
	movwf	(??_strnicmp+0)+0
	movf	(strnicmp@s1),w
	movwf	fsr0
	bcf	status, 7	;select IRP bank0
	movf	indf,w
	fcall	_toupper
	bcf	status, 5	;RP0=0, select bank0
	bcf	status, 6	;RP1=0, select bank0
	addwf	(??_strnicmp+0)+0,w
	movwf	(??_strnicmp+1)+0
	movf	(??_strnicmp+1)+0,w
	movwf	(strnicmp@r)
	movf	((strnicmp@r)),f
	skipz
	goto	u1421
	goto	u1420
u1421:
	goto	l1823
u1420:
	
l1821:	
	movf	(strnicmp@s1),w
	movwf	fsr0
	bcf	status, 7	;select IRP bank0
	movf	indf,f
	skipz
	goto	u1431
	goto	u1430
u1431:
	goto	l1827
u1430:
	goto	l1823
	
l763:	
	line	11
	
l1823:	
	movf	(strnicmp@r),w
	movwf	(?_strnicmp)
	clrf	(?_strnicmp+1)
	btfsc	(?_strnicmp),7
	decf	(?_strnicmp+1),f
	goto	l764
	
l1825:	
	goto	l764
	
l761:	
	line	12
	
l1827:	
	movlw	(01h)
	movwf	(??_strnicmp+0)+0
	movf	(??_strnicmp+0)+0,w
	addwf	(strnicmp@s1),f
	line	13
	movlw	(01h)
	movwf	(??_strnicmp+0)+0
	movf	(??_strnicmp+0)+0,w
	addwf	(strnicmp@s2),f
	goto	l1829
	line	14
	
l759:	
	line	9
	
l1829:	
	movlw	low(01h)
	subwf	(strnicmp@len),f
	movlw	high(01h)
	skipc
	decf	(strnicmp@len+1),f
	subwf	(strnicmp@len+1),f
	movlw	high(0FFFFh)
	xorwf	((strnicmp@len+1)),w
	skipz
	goto	u1445
	movlw	low(0FFFFh)
	xorwf	((strnicmp@len)),w
u1445:

	skipz
	goto	u1441
	goto	u1440
u1441:
	goto	l1819
u1440:
	goto	l1831
	
l765:	
	line	15
	
l1831:	
	clrf	(?_strnicmp)
	clrf	(?_strnicmp+1)
	goto	l764
	
l1833:	
	line	16
	
l764:	
	return
	opt stack 0
GLOBAL	__end_of_strnicmp
	__end_of_strnicmp:
	signat	_strnicmp,12410
	global	_toupper

;; *************** function _toupper *****************
;; Defined at:
;;		line 5 in file "C:\Program Files (x86)\Microchip\xc8\v1.32\sources\common\toupper.c"
;; Parameters:    Size  Location     Type
;;  c               1    wreg     unsigned char 
;; Auto vars:     Size  Location     Type
;;  c               1    1[BANK0 ] unsigned char 
;; Return value:  Size  Location     Type
;;                  1    wreg      unsigned char 
;; Registers used:
;;		wreg, status,2, status,0
;; Tracked objects:
;;		On entry : 0/0
;;		On exit  : 0/0
;;		Unchanged: 0/0
;; Data sizes:     COMMON   BANK0   BANK1
;;      Params:         0       0       0
;;      Locals:         0       1       0
;;      Temps:          0       1       0
;;      Totals:         0       2       0
;;Total ram usage:        2 bytes
;; Hardware stack levels used:    1
;; Hardware stack levels required when called:    2
;; This function calls:
;;		Nothing
;; This function is called by:
;;		_strnicmp
;; This function uses a non-reentrant model
;;
psect	text6,local,class=CODE,delta=2,merge=1
	file	"C:\Program Files (x86)\Microchip\xc8\v1.32\sources\common\toupper.c"
	line	5
global __ptext6
__ptext6:	;psect for function _toupper
psect	text6
	file	"C:\Program Files (x86)\Microchip\xc8\v1.32\sources\common\toupper.c"
	line	5
	global	__size_of_toupper
	__size_of_toupper	equ	__end_of_toupper-_toupper
	
_toupper:	
;incstack = 0
	opt	stack 3
; Regs used in _toupper: [wreg+status,2+status,0]
;toupper@c stored from wreg
	bcf	status, 5	;RP0=0, select bank0
	bcf	status, 6	;RP1=0, select bank0
	movwf	(toupper@c)
	line	10
	
l1681:	
	movlw	(07Bh)
	subwf	(toupper@c),w
	skipnc
	goto	u1231
	goto	u1230
u1231:
	goto	l1687
u1230:
	
l1683:	
	movlw	(061h)
	subwf	(toupper@c),w
	skipc
	goto	u1241
	goto	u1240
u1241:
	goto	l1687
u1240:
	line	11
	
l1685:	
	movlw	(0DFh)
	movwf	(??_toupper+0)+0
	movf	(??_toupper+0)+0,w
	andwf	(toupper@c),f
	goto	l1687
	
l768:	
	line	12
	
l1687:	
	movf	(toupper@c),w
	goto	l769
	
l1689:	
	line	13
	
l769:	
	return
	opt stack 0
GLOBAL	__end_of_toupper
	__end_of_toupper:
	signat	_toupper,4217
	global	_sprintf

;; *************** function _sprintf *****************
;; Defined at:
;;		line 492 in file "C:\Program Files (x86)\Microchip\xc8\v1.32\sources\common\doprnt.c"
;; Parameters:    Size  Location     Type
;;  sp              1    wreg     PTR unsigned char 
;;		 -> SIM300SendMsg@cmd(25), SIM300DeleteMsg@cmd(16), 
;;  f               1   14[BANK0 ] PTR const unsigned char 
;;		 -> STR_11(12), STR_9(11), 
;; Auto vars:     Size  Location     Type
;;  sp              1   23[BANK0 ] PTR unsigned char 
;;		 -> SIM300SendMsg@cmd(25), SIM300DeleteMsg@cmd(16), 
;;  _val            3   24[BANK0 ] struct .
;;  c               1   27[BANK0 ] char 
;;  ap              1   22[BANK0 ] PTR void [1]
;;		 -> ?_sprintf(2), 
;;  prec            1   21[BANK0 ] char 
;;  flag            1   20[BANK0 ] unsigned char 
;; Return value:  Size  Location     Type
;;                  2   14[BANK0 ] int 
;; Registers used:
;;		wreg, fsr0l, fsr0h, status,2, status,0, btemp+1, pclath, cstack
;; Tracked objects:
;;		On entry : 0/0
;;		On exit  : 0/0
;;		Unchanged: 0/0
;; Data sizes:     COMMON   BANK0   BANK1
;;      Params:         0       3       0
;;      Locals:         0       8       0
;;      Temps:          0       3       0
;;      Totals:         0      14       0
;;Total ram usage:       14 bytes
;; Hardware stack levels used:    1
;; Hardware stack levels required when called:    3
;; This function calls:
;;		___lwdiv
;;		___lwmod
;; This function is called by:
;;		_SIM300DeleteMsg
;;		_SIM300SendMsg
;; This function uses a non-reentrant model
;;
psect	text7,local,class=CODE,delta=2,merge=1
	file	"C:\Program Files (x86)\Microchip\xc8\v1.32\sources\common\doprnt.c"
	line	492
global __ptext7
__ptext7:	;psect for function _sprintf
psect	text7
	file	"C:\Program Files (x86)\Microchip\xc8\v1.32\sources\common\doprnt.c"
	line	492
	global	__size_of_sprintf
	__size_of_sprintf	equ	__end_of_sprintf-_sprintf
	
_sprintf:	
;incstack = 0
	opt	stack 3
; Regs used in _sprintf: [wreg-fsr0h+status,2+status,0+btemp+1+pclath+cstack]
;sprintf@sp stored from wreg
	bcf	status, 5	;RP0=0, select bank0
	bcf	status, 6	;RP1=0, select bank0
	movwf	(sprintf@sp)
	line	542
	
l1745:	
;doprnt.c: 494: va_list ap;
;doprnt.c: 499: signed char c;
;doprnt.c: 506: signed char prec;
;doprnt.c: 508: unsigned char flag;
;doprnt.c: 527: union {
;doprnt.c: 528: unsigned int _val;
;doprnt.c: 529: struct {
;doprnt.c: 530: const char * _cp;
;doprnt.c: 531: unsigned _len;
;doprnt.c: 532: } _str;
;doprnt.c: 533: } _val;
;doprnt.c: 542: *ap = __va_start();
	movlw	(?_sprintf+01h)&0ffh
	movwf	(??_sprintf+0)+0
	movf	(??_sprintf+0)+0,w
	movwf	(sprintf@ap)
	line	545
;doprnt.c: 545: while(c = *f++) {
	goto	l1811
	
l270:	
	line	547
	
l1747:	
;doprnt.c: 547: if(c != '%')
	movf	(sprintf@c),w
	xorlw	025h
	skipnz
	goto	u1321
	goto	u1320
u1321:
	goto	l1753
u1320:
	line	550
	
l1749:	
;doprnt.c: 549: {
;doprnt.c: 550: ((*sp++ = (c)));
	movf	(sprintf@c),w
	movwf	(??_sprintf+0)+0
	movf	(sprintf@sp),w
	movwf	fsr0
	movf	(??_sprintf+0)+0,w
	bcf	status, 7	;select IRP bank0
	movwf	indf
	
l1751:	
	movlw	(01h)
	movwf	(??_sprintf+0)+0
	movf	(??_sprintf+0)+0,w
	addwf	(sprintf@sp),f
	line	551
;doprnt.c: 551: continue;
	goto	l1811
	line	552
	
l271:	
	line	557
	
l1753:	
;doprnt.c: 552: }
;doprnt.c: 557: flag = 0;
	clrf	(sprintf@flag)
	line	644
;doprnt.c: 644: switch(c = *f++) {
	goto	l1771
	line	646
;doprnt.c: 646: case 0:
	
l273:	
	line	647
;doprnt.c: 647: goto alldone;
	goto	l1813
	line	706
;doprnt.c: 706: case 'd':
	
l275:	
	goto	l1773
	line	707
	
l276:	
	line	708
;doprnt.c: 707: case 'i':
;doprnt.c: 708: break;
	goto	l1773
	line	737
;doprnt.c: 737: case 's':
	
l278:	
	line	743
	
l1755:	
;doprnt.c: 743: _val._str._cp = (*(const char * *)__va_arg((*(const char * **)ap), (const char *)0));
	movf	(sprintf@ap),w
	movwf	fsr0
	bcf	status, 7	;select IRP bank0
	movf	indf,w
	movwf	(??_sprintf+0)+0
	movf	(??_sprintf+0)+0,w
	movwf	(sprintf@_val)
	
l1757:	
	movlw	(01h)
	movwf	(??_sprintf+0)+0
	movf	(??_sprintf+0)+0,w
	addwf	(sprintf@ap),f
	line	749
	
l1759:	
;doprnt.c: 749: if(!_val._str._cp)
	movf	(sprintf@_val),f
	skipz
	goto	u1331
	goto	u1330
u1331:
	goto	l280
u1330:
	line	750
	
l1761:	
;doprnt.c: 750: _val._str._cp = "(null)";
	movlw	((STR_13)-__stringbase)&0ffh
	movwf	(??_sprintf+0)+0
	movf	(??_sprintf+0)+0,w
	movwf	(sprintf@_val)
	goto	l280
	
l279:	
	line	786
;doprnt.c: 786: while(*_val._str._cp)
	goto	l280
	
l281:	
	line	787
	
l1763:	
;doprnt.c: 787: ((*sp++ = (*_val._str._cp++)));
	movf	(sprintf@_val),w
	movwf	fsr0
	fcall	stringdir
	movwf	(??_sprintf+0)+0
	movf	(sprintf@sp),w
	movwf	fsr0
	movf	(??_sprintf+0)+0,w
	movwf	indf
	
l1765:	
	movlw	(01h)
	movwf	(??_sprintf+0)+0
	movf	(??_sprintf+0)+0,w
	addwf	(sprintf@_val),f
	
l1767:	
	movlw	(01h)
	movwf	(??_sprintf+0)+0
	movf	(??_sprintf+0)+0,w
	addwf	(sprintf@sp),f
	
l280:	
	line	786
	movf	(sprintf@_val),w
	movwf	fsr0
	fcall	stringdir
	iorlw	0
	skipz
	goto	u1341
	goto	u1340
u1341:
	goto	l1763
u1340:
	goto	l1811
	
l282:	
	line	788
;doprnt.c: 788: continue;
	goto	l1811
	line	811
;doprnt.c: 811: default:
	
l283:	
	line	822
;doprnt.c: 822: continue;
	goto	l1811
	line	831
	
l1769:	
;doprnt.c: 831: }
	goto	l1773
	line	644
	
l272:	
	
l1771:	
	movlw	01h
	addwf	(sprintf@f),f
	movlw	-01h
	addwf	(sprintf@f),w
	movwf	fsr0
	fcall	stringdir
	movwf	(sprintf@c)
	; Switch size 1, requested type "space"
; Number of cases is 4, Range of values is 0 to 115
; switch strategies available:
; Name         Instructions Cycles
; simple_byte           13     7 (average)
; direct_byte          122     6 (fixed)
; jumptable            260     6 (fixed)
;	Chosen strategy is simple_byte

	opt asmopt_off
	xorlw	0^0	; case 0
	skipnz
	goto	l1813
	xorlw	100^0	; case 100
	skipnz
	goto	l1773
	xorlw	105^100	; case 105
	skipnz
	goto	l1773
	xorlw	115^105	; case 115
	skipnz
	goto	l1755
	goto	l1811
	opt asmopt_on

	line	831
	
l277:	
	line	1268
	
l1773:	
;doprnt.c: 1262: {
;doprnt.c: 1268: _val._val = (int)(*(int *)__va_arg((*(int **)ap), (int)0));
	movf	(sprintf@ap),w
	movwf	fsr0
	bcf	status, 7	;select IRP bank0
	movf	indf,w
	movwf	(sprintf@_val)
	incf	fsr0,f
	movf	indf,w
	movwf	(sprintf@_val+1)
	
l1775:	
	movlw	(02h)
	movwf	(??_sprintf+0)+0
	movf	(??_sprintf+0)+0,w
	addwf	(sprintf@ap),f
	line	1270
	
l1777:	
;doprnt.c: 1270: if((int)_val._val < 0) {
	btfss	(sprintf@_val+1),7
	goto	u1351
	goto	u1350
u1351:
	goto	l1783
u1350:
	line	1271
	
l1779:	
;doprnt.c: 1271: flag |= 0x03;
	movlw	(03h)
	movwf	(??_sprintf+0)+0
	movf	(??_sprintf+0)+0,w
	iorwf	(sprintf@flag),f
	line	1272
	
l1781:	
;doprnt.c: 1272: _val._val = -_val._val;
	comf	(sprintf@_val),f
	comf	(sprintf@_val+1),f
	incf	(sprintf@_val),f
	skipnz
	incf	(sprintf@_val+1),f
	goto	l1783
	line	1273
	
l284:	
	line	1314
	
l1783:	
;doprnt.c: 1273: }
;doprnt.c: 1275: }
;doprnt.c: 1314: for(c = 1 ; c != sizeof dpowers/sizeof dpowers[0] ; c++)
	clrf	(sprintf@c)
	incf	(sprintf@c),f
	movf	(sprintf@c),w
	xorlw	05h
	skipz
	goto	u1361
	goto	u1360
u1361:
	goto	l1787
u1360:
	goto	l1795
	
l1785:	
	goto	l1795
	line	1315
	
l285:	
	
l1787:	
;doprnt.c: 1315: if(_val._val < dpowers[c])
	movf	(sprintf@c),w
	movwf	(??_sprintf+0)+0
	addwf	(??_sprintf+0)+0,w
	addlw	low((_dpowers)-__stringbase)
	movwf	fsr0
	fcall	stringdir
	movwf	(??_sprintf+1)+0
	fcall	stringdir
	movwf	(??_sprintf+1)+0+1
	movf	1+(??_sprintf+1)+0,w
	subwf	(sprintf@_val+1),w
	skipz
	goto	u1375
	movf	0+(??_sprintf+1)+0,w
	subwf	(sprintf@_val),w
u1375:
	skipnc
	goto	u1371
	goto	u1370
u1371:
	goto	l1791
u1370:
	goto	l1795
	line	1316
	
l1789:	
;doprnt.c: 1316: break;
	goto	l1795
	
l287:	
	line	1314
	
l1791:	
	movlw	(01h)
	movwf	(??_sprintf+0)+0
	movf	(??_sprintf+0)+0,w
	addwf	(sprintf@c),f
	
l1793:	
	movf	(sprintf@c),w
	xorlw	05h
	skipz
	goto	u1381
	goto	u1380
u1381:
	goto	l1787
u1380:
	goto	l1795
	
l286:	
	line	1447
	
l1795:	
;doprnt.c: 1431: {
;doprnt.c: 1447: if(flag & 0x03)
	movf	(sprintf@flag),w
	andlw	03h
	btfsc	status,2
	goto	u1391
	goto	u1390
u1391:
	goto	l1801
u1390:
	line	1448
	
l1797:	
;doprnt.c: 1448: ((*sp++ = ('-')));
	movlw	(02Dh)
	movwf	(??_sprintf+0)+0
	movf	(sprintf@sp),w
	movwf	fsr0
	movf	(??_sprintf+0)+0,w
	bcf	status, 7	;select IRP bank0
	movwf	indf
	
l1799:	
	movlw	(01h)
	movwf	(??_sprintf+0)+0
	movf	(??_sprintf+0)+0,w
	addwf	(sprintf@sp),f
	goto	l1801
	
l288:	
	line	1481
	
l1801:	
;doprnt.c: 1478: }
;doprnt.c: 1481: prec = c;
	movf	(sprintf@c),w
	movwf	(??_sprintf+0)+0
	movf	(??_sprintf+0)+0,w
	movwf	(sprintf@prec)
	line	1483
;doprnt.c: 1483: while(prec--) {
	goto	l1809
	
l290:	
	line	1498
	
l1803:	
;doprnt.c: 1487: {
;doprnt.c: 1498: c = (_val._val / dpowers[prec]) % 10 + '0';
	movlw	low(0Ah)
	movwf	(___lwmod@divisor)
	movlw	high(0Ah)
	movwf	((___lwmod@divisor))+1
	movf	(sprintf@prec),w
	movwf	(??_sprintf+0)+0
	addwf	(??_sprintf+0)+0,w
	addlw	low((_dpowers)-__stringbase)
	movwf	fsr0
	fcall	stringdir
	movwf	(___lwdiv@divisor)
	fcall	stringdir
	movwf	(___lwdiv@divisor+1)
	movf	(sprintf@_val+1),w
	clrf	(___lwdiv@dividend+1)
	addwf	(___lwdiv@dividend+1)
	movf	(sprintf@_val),w
	clrf	(___lwdiv@dividend)
	addwf	(___lwdiv@dividend)

	fcall	___lwdiv
	bcf	status, 5	;RP0=0, select bank0
	bcf	status, 6	;RP1=0, select bank0
	movf	(1+(?___lwdiv)),w
	clrf	(___lwmod@dividend+1)
	addwf	(___lwmod@dividend+1)
	movf	(0+(?___lwdiv)),w
	clrf	(___lwmod@dividend)
	addwf	(___lwmod@dividend)

	fcall	___lwmod
	bcf	status, 5	;RP0=0, select bank0
	bcf	status, 6	;RP1=0, select bank0
	movf	(0+(?___lwmod)),w
	addlw	030h
	movwf	(??_sprintf+1)+0
	movf	(??_sprintf+1)+0,w
	movwf	(sprintf@c)
	line	1533
	
l1805:	
;doprnt.c: 1532: }
;doprnt.c: 1533: ((*sp++ = (c)));
	movf	(sprintf@c),w
	movwf	(??_sprintf+0)+0
	movf	(sprintf@sp),w
	movwf	fsr0
	movf	(??_sprintf+0)+0,w
	bcf	status, 7	;select IRP bank0
	movwf	indf
	
l1807:	
	movlw	(01h)
	movwf	(??_sprintf+0)+0
	movf	(??_sprintf+0)+0,w
	addwf	(sprintf@sp),f
	goto	l1809
	line	1534
	
l289:	
	line	1483
	
l1809:	
	movlw	(-1)
	movwf	(??_sprintf+0)+0
	movf	(??_sprintf+0)+0,w
	addwf	(sprintf@prec),f
	movf	((sprintf@prec)),w
	xorlw	-1
	skipz
	goto	u1401
	goto	u1400
u1401:
	goto	l1803
u1400:
	goto	l1811
	
l291:	
	goto	l1811
	line	1542
	
l269:	
	line	545
	
l1811:	
	movlw	01h
	addwf	(sprintf@f),f
	movlw	-01h
	addwf	(sprintf@f),w
	movwf	fsr0
	fcall	stringdir
	movwf	(??_sprintf+0)+0
	movf	(??_sprintf+0)+0,w
	movwf	(sprintf@c)
	movf	((sprintf@c)),f
	skipz
	goto	u1411
	goto	u1410
u1411:
	goto	l1747
u1410:
	goto	l1813
	
l292:	
	goto	l1813
	line	1544
;doprnt.c: 1534: }
;doprnt.c: 1542: }
;doprnt.c: 1544: alldone:
	
l274:	
	line	1547
	
l1813:	
;doprnt.c: 1547: *sp = 0;
	movf	(sprintf@sp),w
	movwf	fsr0
	bcf	status, 7	;select IRP bank0
	clrf	indf
	goto	l293
	line	1549
	
l1815:	
	line	1550
;doprnt.c: 1549: return 0;
;	Return value of _sprintf is never used
	
l293:	
	return
	opt stack 0
GLOBAL	__end_of_sprintf
	__end_of_sprintf:
	signat	_sprintf,4698
	global	___lwmod

;; *************** function ___lwmod *****************
;; Defined at:
;;		line 6 in file "C:\Program Files (x86)\Microchip\xc8\v1.32\sources\common\lwmod.c"
;; Parameters:    Size  Location     Type
;;  divisor         2    8[BANK0 ] unsigned int 
;;  dividend        2   10[BANK0 ] unsigned int 
;; Auto vars:     Size  Location     Type
;;  counter         1   13[BANK0 ] unsigned char 
;; Return value:  Size  Location     Type
;;                  2    8[BANK0 ] unsigned int 
;; Registers used:
;;		wreg, status,2, status,0
;; Tracked objects:
;;		On entry : 0/0
;;		On exit  : 0/0
;;		Unchanged: 0/0
;; Data sizes:     COMMON   BANK0   BANK1
;;      Params:         0       4       0
;;      Locals:         0       1       0
;;      Temps:          0       1       0
;;      Totals:         0       6       0
;;Total ram usage:        6 bytes
;; Hardware stack levels used:    1
;; Hardware stack levels required when called:    2
;; This function calls:
;;		Nothing
;; This function is called by:
;;		_sprintf
;; This function uses a non-reentrant model
;;
psect	text8,local,class=CODE,delta=2,merge=1
	file	"C:\Program Files (x86)\Microchip\xc8\v1.32\sources\common\lwmod.c"
	line	6
global __ptext8
__ptext8:	;psect for function ___lwmod
psect	text8
	file	"C:\Program Files (x86)\Microchip\xc8\v1.32\sources\common\lwmod.c"
	line	6
	global	__size_of___lwmod
	__size_of___lwmod	equ	__end_of___lwmod-___lwmod
	
___lwmod:	
;incstack = 0
	opt	stack 3
; Regs used in ___lwmod: [wreg+status,2+status,0]
	line	13
	
l1659:	
	bcf	status, 5	;RP0=0, select bank0
	bcf	status, 6	;RP1=0, select bank0
	movf	(___lwmod@divisor+1),w
	iorwf	(___lwmod@divisor),w
	skipnz
	goto	u1171
	goto	u1170
u1171:
	goto	l1677
u1170:
	line	14
	
l1661:	
	clrf	(___lwmod@counter)
	incf	(___lwmod@counter),f
	line	15
	goto	l1667
	
l738:	
	line	16
	
l1663:	
	movlw	01h
	
u1185:
	clrc
	rlf	(___lwmod@divisor),f
	rlf	(___lwmod@divisor+1),f
	addlw	-1
	skipz
	goto	u1185
	line	17
	
l1665:	
	movlw	(01h)
	movwf	(??___lwmod+0)+0
	movf	(??___lwmod+0)+0,w
	addwf	(___lwmod@counter),f
	goto	l1667
	line	18
	
l737:	
	line	15
	
l1667:	
	btfss	(___lwmod@divisor+1),(15)&7
	goto	u1191
	goto	u1190
u1191:
	goto	l1663
u1190:
	goto	l1669
	
l739:	
	goto	l1669
	line	19
	
l740:	
	line	20
	
l1669:	
	movf	(___lwmod@divisor+1),w
	subwf	(___lwmod@dividend+1),w
	skipz
	goto	u1205
	movf	(___lwmod@divisor),w
	subwf	(___lwmod@dividend),w
u1205:
	skipc
	goto	u1201
	goto	u1200
u1201:
	goto	l1673
u1200:
	line	21
	
l1671:	
	movf	(___lwmod@divisor),w
	subwf	(___lwmod@dividend),f
	movf	(___lwmod@divisor+1),w
	skipc
	decf	(___lwmod@dividend+1),f
	subwf	(___lwmod@dividend+1),f
	goto	l1673
	
l741:	
	line	22
	
l1673:	
	movlw	01h
	
u1215:
	clrc
	rrf	(___lwmod@divisor+1),f
	rrf	(___lwmod@divisor),f
	addlw	-1
	skipz
	goto	u1215
	line	23
	
l1675:	
	movlw	low(01h)
	subwf	(___lwmod@counter),f
	btfss	status,2
	goto	u1221
	goto	u1220
u1221:
	goto	l1669
u1220:
	goto	l1677
	
l742:	
	goto	l1677
	line	24
	
l736:	
	line	25
	
l1677:	
	movf	(___lwmod@dividend+1),w
	clrf	(?___lwmod+1)
	addwf	(?___lwmod+1)
	movf	(___lwmod@dividend),w
	clrf	(?___lwmod)
	addwf	(?___lwmod)

	goto	l743
	
l1679:	
	line	26
	
l743:	
	return
	opt stack 0
GLOBAL	__end_of___lwmod
	__end_of___lwmod:
	signat	___lwmod,8314
	global	___lwdiv

;; *************** function ___lwdiv *****************
;; Defined at:
;;		line 6 in file "C:\Program Files (x86)\Microchip\xc8\v1.32\sources\common\lwdiv.c"
;; Parameters:    Size  Location     Type
;;  divisor         2    0[BANK0 ] unsigned int 
;;  dividend        2    2[BANK0 ] unsigned int 
;; Auto vars:     Size  Location     Type
;;  quotient        2    5[BANK0 ] unsigned int 
;;  counter         1    7[BANK0 ] unsigned char 
;; Return value:  Size  Location     Type
;;                  2    0[BANK0 ] unsigned int 
;; Registers used:
;;		wreg, status,2, status,0
;; Tracked objects:
;;		On entry : 0/0
;;		On exit  : 0/0
;;		Unchanged: 0/0
;; Data sizes:     COMMON   BANK0   BANK1
;;      Params:         0       4       0
;;      Locals:         0       3       0
;;      Temps:          0       1       0
;;      Totals:         0       8       0
;;Total ram usage:        8 bytes
;; Hardware stack levels used:    1
;; Hardware stack levels required when called:    2
;; This function calls:
;;		Nothing
;; This function is called by:
;;		_sprintf
;; This function uses a non-reentrant model
;;
psect	text9,local,class=CODE,delta=2,merge=1
	file	"C:\Program Files (x86)\Microchip\xc8\v1.32\sources\common\lwdiv.c"
	line	6
global __ptext9
__ptext9:	;psect for function ___lwdiv
psect	text9
	file	"C:\Program Files (x86)\Microchip\xc8\v1.32\sources\common\lwdiv.c"
	line	6
	global	__size_of___lwdiv
	__size_of___lwdiv	equ	__end_of___lwdiv-___lwdiv
	
___lwdiv:	
;incstack = 0
	opt	stack 3
; Regs used in ___lwdiv: [wreg+status,2+status,0]
	line	14
	
l1633:	
	bcf	status, 5	;RP0=0, select bank0
	bcf	status, 6	;RP1=0, select bank0
	clrf	(___lwdiv@quotient)
	clrf	(___lwdiv@quotient+1)
	line	15
	
l1635:	
	movf	(___lwdiv@divisor+1),w
	iorwf	(___lwdiv@divisor),w
	skipnz
	goto	u1101
	goto	u1100
u1101:
	goto	l1655
u1100:
	line	16
	
l1637:	
	clrf	(___lwdiv@counter)
	incf	(___lwdiv@counter),f
	line	17
	goto	l1643
	
l728:	
	line	18
	
l1639:	
	movlw	01h
	
u1115:
	clrc
	rlf	(___lwdiv@divisor),f
	rlf	(___lwdiv@divisor+1),f
	addlw	-1
	skipz
	goto	u1115
	line	19
	
l1641:	
	movlw	(01h)
	movwf	(??___lwdiv+0)+0
	movf	(??___lwdiv+0)+0,w
	addwf	(___lwdiv@counter),f
	goto	l1643
	line	20
	
l727:	
	line	17
	
l1643:	
	btfss	(___lwdiv@divisor+1),(15)&7
	goto	u1121
	goto	u1120
u1121:
	goto	l1639
u1120:
	goto	l1645
	
l729:	
	goto	l1645
	line	21
	
l730:	
	line	22
	
l1645:	
	movlw	01h
	
u1135:
	clrc
	rlf	(___lwdiv@quotient),f
	rlf	(___lwdiv@quotient+1),f
	addlw	-1
	skipz
	goto	u1135
	line	23
	movf	(___lwdiv@divisor+1),w
	subwf	(___lwdiv@dividend+1),w
	skipz
	goto	u1145
	movf	(___lwdiv@divisor),w
	subwf	(___lwdiv@dividend),w
u1145:
	skipc
	goto	u1141
	goto	u1140
u1141:
	goto	l1651
u1140:
	line	24
	
l1647:	
	movf	(___lwdiv@divisor),w
	subwf	(___lwdiv@dividend),f
	movf	(___lwdiv@divisor+1),w
	skipc
	decf	(___lwdiv@dividend+1),f
	subwf	(___lwdiv@dividend+1),f
	line	25
	
l1649:	
	bsf	(___lwdiv@quotient)+(0/8),(0)&7
	goto	l1651
	line	26
	
l731:	
	line	27
	
l1651:	
	movlw	01h
	
u1155:
	clrc
	rrf	(___lwdiv@divisor+1),f
	rrf	(___lwdiv@divisor),f
	addlw	-1
	skipz
	goto	u1155
	line	28
	
l1653:	
	movlw	low(01h)
	subwf	(___lwdiv@counter),f
	btfss	status,2
	goto	u1161
	goto	u1160
u1161:
	goto	l1645
u1160:
	goto	l1655
	
l732:	
	goto	l1655
	line	29
	
l726:	
	line	30
	
l1655:	
	movf	(___lwdiv@quotient+1),w
	clrf	(?___lwdiv+1)
	addwf	(?___lwdiv+1)
	movf	(___lwdiv@quotient),w
	clrf	(?___lwdiv)
	addwf	(?___lwdiv)

	goto	l733
	
l1657:	
	line	31
	
l733:	
	return
	opt stack 0
GLOBAL	__end_of___lwdiv
	__end_of___lwdiv:
	signat	___lwdiv,8314
	global	_SIM300WaitForResponse

;; *************** function _SIM300WaitForResponse *****************
;; Defined at:
;;		line 154 in file "E:\Study Material\XC8 PROJECTS\Security 870\sim300.c"
;; Parameters:    Size  Location     Type
;;  timeout         2    2[BANK0 ] unsigned int 
;; Auto vars:     Size  Location     Type
;;  n               2    5[BANK0 ] unsigned int 
;;  i               1    7[BANK0 ] unsigned char 
;; Return value:  Size  Location     Type
;;                  1    wreg      char 
;; Registers used:
;;		wreg, fsr0l, fsr0h, status,2, status,0, pclath, cstack
;; Tracked objects:
;;		On entry : 0/0
;;		On exit  : 0/0
;;		Unchanged: 0/0
;; Data sizes:     COMMON   BANK0   BANK1
;;      Params:         0       2       0
;;      Locals:         0       3       0
;;      Temps:          0       1       0
;;      Totals:         0       6       0
;;Total ram usage:        6 bytes
;; Hardware stack levels used:    1
;; Hardware stack levels required when called:    4
;; This function calls:
;;		_USARTDataAvailable
;;		_USARTFlushBuffer
;;		_USARTReadData
;; This function is called by:
;;		_SIM300DeleteMsg
;;		_SIM300SendMsg
;; This function uses a non-reentrant model
;;
psect	text10,local,class=CODE,delta=2,merge=1
	file	"E:\Study Material\XC8 PROJECTS\Security 870\sim300.c"
	line	154
global __ptext10
__ptext10:	;psect for function _SIM300WaitForResponse
psect	text10
	file	"E:\Study Material\XC8 PROJECTS\Security 870\sim300.c"
	line	154
	global	__size_of_SIM300WaitForResponse
	__size_of_SIM300WaitForResponse	equ	__end_of_SIM300WaitForResponse-_SIM300WaitForResponse
	
_SIM300WaitForResponse:	
;incstack = 0
	opt	stack 2
; Regs used in _SIM300WaitForResponse: [wreg-fsr0h+status,2+status,0+pclath+cstack]
	line	156
	
l1713:	
;sim300.c: 156: uint8_t i=0;
	bcf	status, 5	;RP0=0, select bank0
	bcf	status, 6	;RP1=0, select bank0
	clrf	(SIM300WaitForResponse@i)
	line	157
;sim300.c: 157: uint16_t n=0;
	clrf	(SIM300WaitForResponse@n)
	clrf	(SIM300WaitForResponse@n+1)
	goto	l1717
	line	159
;sim300.c: 159: while(1)
	
l121:	
	line	162
;sim300.c: 160: {
;sim300.c: 162: while (USARTDataAvailable()==0 && n<timeout)
	goto	l1717
	
l123:	
	line	164
	
l1715:	
;sim300.c: 163: {
;sim300.c: 164: n++;
	movlw	low(01h)
	addwf	(SIM300WaitForResponse@n),f
	skipnc
	incf	(SIM300WaitForResponse@n+1),f
	movlw	high(01h)
	addwf	(SIM300WaitForResponse@n+1),f
	line	165
;sim300.c: 165: _delay((unsigned long)((1)*(4000000/4000.0)));
	opt asmopt_off
movlw	249
movwf	(??_SIM300WaitForResponse+0)+0,f
u2207:
	nop
decfsz	(??_SIM300WaitForResponse+0)+0,f
	goto	u2207
	nop2	;nop
	nop
opt asmopt_on

	goto	l1717
	line	167
	
l122:	
	line	162
	
l1717:	
	fcall	_USARTDataAvailable
	iorlw	0
	skipz
	goto	u1271
	goto	u1270
u1271:
	goto	l1721
u1270:
	
l1719:	
	bcf	status, 5	;RP0=0, select bank0
	bcf	status, 6	;RP1=0, select bank0
	movf	(SIM300WaitForResponse@timeout+1),w
	subwf	(SIM300WaitForResponse@n+1),w
	skipz
	goto	u1285
	movf	(SIM300WaitForResponse@timeout),w
	subwf	(SIM300WaitForResponse@n),w
u1285:
	skipc
	goto	u1281
	goto	u1280
u1281:
	goto	l1715
u1280:
	goto	l1721
	
l125:	
	goto	l1721
	
l126:	
	line	169
	
l1721:	
;sim300.c: 167: }
;sim300.c: 169: if(n==timeout)
	bcf	status, 5	;RP0=0, select bank0
	bcf	status, 6	;RP1=0, select bank0
	movf	(SIM300WaitForResponse@timeout+1),w
	xorwf	(SIM300WaitForResponse@n+1),w
	skipz
	goto	u1295
	movf	(SIM300WaitForResponse@timeout),w
	xorwf	(SIM300WaitForResponse@n),w
u1295:

	skipz
	goto	u1291
	goto	u1290
u1291:
	goto	l1729
u1290:
	line	172
	
l1723:	
;sim300.c: 170: {
;sim300.c: 172: return 0;
	movlw	(0)
	goto	l128
	
l1725:	
	goto	l128
	line	173
	
l1727:	
;sim300.c: 173: }
	goto	l1717
	line	174
	
l127:	
	line	177
	
l1729:	
;sim300.c: 174: else
;sim300.c: 175: {
;sim300.c: 177: sim300_buffer[i]=USARTReadData();
	fcall	_USARTReadData
	bcf	status, 5	;RP0=0, select bank0
	bcf	status, 6	;RP1=0, select bank0
	movwf	(??_SIM300WaitForResponse+0)+0
	movf	(SIM300WaitForResponse@i),w
	addlw	_sim300_buffer&0ffh
	movwf	fsr0
	movf	(??_SIM300WaitForResponse+0)+0,w
	bcf	status, 7	;select IRP bank0
	movwf	indf
	line	179
	
l1731:	
;sim300.c: 179: if(sim300_buffer[i]==0x0D && i!=0)
	movf	(SIM300WaitForResponse@i),w
	addlw	_sim300_buffer&0ffh
	movwf	fsr0
	movf	indf,w
	xorlw	0Dh
	skipz
	goto	u1301
	goto	u1300
u1301:
	goto	l1743
u1300:
	
l1733:	
	movf	(SIM300WaitForResponse@i),w
	skipz
	goto	u1310
	goto	l1743
u1310:
	line	181
	
l1735:	
;sim300.c: 180: {
;sim300.c: 181: USARTFlushBuffer();
	fcall	_USARTFlushBuffer
	line	182
	
l1737:	
;sim300.c: 182: return i+1;
	bcf	status, 5	;RP0=0, select bank0
	bcf	status, 6	;RP1=0, select bank0
	movf	(SIM300WaitForResponse@i),w
	addlw	01h
	goto	l128
	
l1739:	
	goto	l128
	line	183
	
l1741:	
;sim300.c: 183: }
	goto	l1717
	line	184
	
l130:	
	line	185
	
l1743:	
;sim300.c: 184: else
;sim300.c: 185: i++;
	movlw	(01h)
	movwf	(??_SIM300WaitForResponse+0)+0
	movf	(??_SIM300WaitForResponse+0)+0,w
	addwf	(SIM300WaitForResponse@i),f
	goto	l1717
	
l131:	
	goto	l1717
	line	186
	
l129:	
	goto	l1717
	line	187
	
l132:	
	line	159
	goto	l1717
	
l133:	
	line	188
	
l128:	
	return
	opt stack 0
GLOBAL	__end_of_SIM300WaitForResponse
	__end_of_SIM300WaitForResponse:
	signat	_SIM300WaitForResponse,4217
	global	_USARTFlushBuffer

;; *************** function _USARTFlushBuffer *****************
;; Defined at:
;;		line 233 in file "E:\Study Material\XC8 PROJECTS\Security 870\usart_pic16.c"
;; Parameters:    Size  Location     Type
;;		None
;; Auto vars:     Size  Location     Type
;;		None
;; Return value:  Size  Location     Type
;;                  2   30[COMMON] int 
;; Registers used:
;;		wreg, fsr0l, fsr0h, status,2, status,0, pclath, cstack
;; Tracked objects:
;;		On entry : 0/0
;;		On exit  : 0/0
;;		Unchanged: 0/0
;; Data sizes:     COMMON   BANK0   BANK1
;;      Params:         0       0       0
;;      Locals:         0       0       0
;;      Temps:          0       0       0
;;      Totals:         0       0       0
;;Total ram usage:        0 bytes
;; Hardware stack levels used:    1
;; Hardware stack levels required when called:    3
;; This function calls:
;;		_USARTDataAvailable
;;		_USARTReadData
;; This function is called by:
;;		_main
;;		_SIM300WaitForResponse
;;		_SIM300DeleteMsg
;;		_SIM300SendMsg
;; This function uses a non-reentrant model
;;
psect	text11,local,class=CODE,delta=2,merge=1
	file	"E:\Study Material\XC8 PROJECTS\Security 870\usart_pic16.c"
	line	233
global __ptext11
__ptext11:	;psect for function _USARTFlushBuffer
psect	text11
	file	"E:\Study Material\XC8 PROJECTS\Security 870\usart_pic16.c"
	line	233
	global	__size_of_USARTFlushBuffer
	__size_of_USARTFlushBuffer	equ	__end_of_USARTFlushBuffer-_USARTFlushBuffer
	
_USARTFlushBuffer:	
;incstack = 0
	opt	stack 4
; Regs used in _USARTFlushBuffer: [wreg-fsr0h+status,2+status,0+pclath+cstack]
	line	235
	
l1591:	
;usart_pic16.c: 235: while(USARTDataAvailable()>0)
	goto	l1595
	
l258:	
	line	237
	
l1593:	
;usart_pic16.c: 236: {
;usart_pic16.c: 237: USARTReadData();
	fcall	_USARTReadData
	goto	l1595
	line	238
	
l257:	
	line	235
	
l1595:	
	fcall	_USARTDataAvailable
	iorlw	0
	skipz
	goto	u1021
	goto	u1020
u1021:
	goto	l1593
u1020:
	goto	l260
	
l259:	
	line	239
	
l260:	
	return
	opt stack 0
GLOBAL	__end_of_USARTFlushBuffer
	__end_of_USARTFlushBuffer:
	signat	_USARTFlushBuffer,90
	global	_SIM300Init

;; *************** function _SIM300Init *****************
;; Defined at:
;;		line 59 in file "E:\Study Material\XC8 PROJECTS\Security 870\sim300.c"
;; Parameters:    Size  Location     Type
;;		None
;; Auto vars:     Size  Location     Type
;;  i               2   22[BANK0 ] unsigned int 
;; Return value:  Size  Location     Type
;;                  1    wreg      char 
;; Registers used:
;;		wreg, fsr0l, fsr0h, status,2, status,0, btemp+1, pclath, cstack
;; Tracked objects:
;;		On entry : 0/0
;;		On exit  : 0/0
;;		Unchanged: 0/0
;; Data sizes:     COMMON   BANK0   BANK1
;;      Params:         0       0       0
;;      Locals:         0       2       0
;;      Temps:          0       2       0
;;      Totals:         0       4       0
;;Total ram usage:        4 bytes
;; Hardware stack levels used:    1
;; Hardware stack levels required when called:    5
;; This function calls:
;;		_SIM300CheckResponse
;;		_SIM300Cmd
;;		_USARTDataAvailable
;;		_USARTInit
;;		_USARTReadBuffer
;; This function is called by:
;;		_main
;; This function uses a non-reentrant model
;;
psect	text12,local,class=CODE,delta=2,merge=1
	file	"E:\Study Material\XC8 PROJECTS\Security 870\sim300.c"
	line	59
global __ptext12
__ptext12:	;psect for function _SIM300Init
psect	text12
	file	"E:\Study Material\XC8 PROJECTS\Security 870\sim300.c"
	line	59
	global	__size_of_SIM300Init
	__size_of_SIM300Init	equ	__end_of_SIM300Init-_SIM300Init
	
_SIM300Init:	
;incstack = 0
	opt	stack 2
; Regs used in _SIM300Init: [wreg-fsr0h+status,2+status,0+btemp+1+pclath+cstack]
	line	62
	
l2003:	
;sim300.c: 62: USARTInit(9600);
	movlw	low(02580h)
	bcf	status, 5	;RP0=0, select bank0
	bcf	status, 6	;RP1=0, select bank0
	movwf	(USARTInit@baud_rate)
	movlw	high(02580h)
	movwf	((USARTInit@baud_rate))+1
	fcall	_USARTInit
	line	65
	
l2005:	
;sim300.c: 65: SIM300Cmd("AT");
	movlw	low((STR_7)-__stringbase)
	bcf	status, 5	;RP0=0, select bank0
	bcf	status, 6	;RP1=0, select bank0
	movwf	(SIM300Cmd@cmd)
	movlw	80h
	movwf	(SIM300Cmd@cmd+1)
	fcall	_SIM300Cmd
	line	68
	
l2007:	
;sim300.c: 68: uint16_t i=0;
	bcf	status, 5	;RP0=0, select bank0
	bcf	status, 6	;RP1=0, select bank0
	clrf	(SIM300Init@i)
	clrf	(SIM300Init@i+1)
	line	74
;sim300.c: 74: while(i<10)
	goto	l2019
	
l93:	
	line	76
	
l2009:	
;sim300.c: 75: {
;sim300.c: 76: if(USARTDataAvailable()<6)
	fcall	_USARTDataAvailable
	bcf	status, 5	;RP0=0, select bank0
	bcf	status, 6	;RP1=0, select bank0
	movwf	(??_SIM300Init+0)+0
	movlw	low(06h)
	subwf	(??_SIM300Init+0)+0,w
	skipnc
	goto	u1691
	goto	u1690
u1691:
	goto	l2015
u1690:
	line	78
	
l2011:	
;sim300.c: 77: {
;sim300.c: 78: i++;
	movlw	low(01h)
	addwf	(SIM300Init@i),f
	skipnc
	incf	(SIM300Init@i+1),f
	movlw	high(01h)
	addwf	(SIM300Init@i+1),f
	line	79
;sim300.c: 79: _delay((unsigned long)((10)*(4000000/4000.0)));
	opt asmopt_off
movlw	13
movwf	((??_SIM300Init+0)+0+1),f
	movlw	251
movwf	((??_SIM300Init+0)+0),f
u2217:
	decfsz	((??_SIM300Init+0)+0),f
	goto	u2217
	decfsz	((??_SIM300Init+0)+0+1),f
	goto	u2217
	nop2
opt asmopt_on

	line	80
;sim300.c: 80: continue;
	goto	l2019
	line	81
	
l2013:	
;sim300.c: 81: }
	goto	l2019
	line	82
	
l94:	
	line	86
	
l2015:	
;sim300.c: 82: else
;sim300.c: 83: {
;sim300.c: 86: USARTReadBuffer(sim300_buffer,6);
	movlw	low(06h)
	bcf	status, 5	;RP0=0, select bank0
	bcf	status, 6	;RP1=0, select bank0
	movwf	(USARTReadBuffer@len)
	movlw	high(06h)
	movwf	((USARTReadBuffer@len))+1
	movlw	(_sim300_buffer)&0ffh
	fcall	_USARTReadBuffer
	line	88
;sim300.c: 88: return SIM300CheckResponse(sim300_buffer,"OK",6);
	movlw	((STR_8)-__stringbase)&0ffh
	bcf	status, 5	;RP0=0, select bank0
	bcf	status, 6	;RP1=0, select bank0
	movwf	(??_SIM300Init+0)+0
	movf	(??_SIM300Init+0)+0,w
	movwf	(SIM300CheckResponse@check)
	movlw	(06h)
	movwf	(??_SIM300Init+1)+0
	movf	(??_SIM300Init+1)+0,w
	movwf	(SIM300CheckResponse@len)
	movlw	(_sim300_buffer)&0ffh
	fcall	_SIM300CheckResponse
	goto	l96
	
l2017:	
	goto	l96
	line	89
	
l95:	
	goto	l2019
	line	90
	
l92:	
	line	74
	
l2019:	
	movlw	high(0Ah)
	bcf	status, 5	;RP0=0, select bank0
	bcf	status, 6	;RP1=0, select bank0
	subwf	(SIM300Init@i+1),w
	movlw	low(0Ah)
	skipnz
	subwf	(SIM300Init@i),w
	skipc
	goto	u1701
	goto	u1700
u1701:
	goto	l2009
u1700:
	goto	l2021
	
l97:	
	line	95
	
l2021:	
;sim300.c: 89: }
;sim300.c: 90: }
;sim300.c: 95: return -3;
	movlw	(-3)
	goto	l96
	
l2023:	
	line	96
	
l96:	
	return
	opt stack 0
GLOBAL	__end_of_SIM300Init
	__end_of_SIM300Init:
	signat	_SIM300Init,89
	global	_USARTInit

;; *************** function _USARTInit *****************
;; Defined at:
;;		line 31 in file "E:\Study Material\XC8 PROJECTS\Security 870\usart_pic16.c"
;; Parameters:    Size  Location     Type
;;  baud_rate       2    0[BANK0 ] unsigned int 
;; Auto vars:     Size  Location     Type
;;		None
;; Return value:  Size  Location     Type
;;		None               void
;; Registers used:
;;		wreg, fsr0l, fsr0h, status,2, status,0
;; Tracked objects:
;;		On entry : 0/0
;;		On exit  : 0/0
;;		Unchanged: 0/0
;; Data sizes:     COMMON   BANK0   BANK1
;;      Params:         0       2       0
;;      Locals:         0       0       0
;;      Temps:          0       1       0
;;      Totals:         0       3       0
;;Total ram usage:        3 bytes
;; Hardware stack levels used:    1
;; Hardware stack levels required when called:    2
;; This function calls:
;;		Nothing
;; This function is called by:
;;		_SIM300Init
;; This function uses a non-reentrant model
;;
psect	text13,local,class=CODE,delta=2,merge=1
	file	"E:\Study Material\XC8 PROJECTS\Security 870\usart_pic16.c"
	line	31
global __ptext13
__ptext13:	;psect for function _USARTInit
psect	text13
	file	"E:\Study Material\XC8 PROJECTS\Security 870\usart_pic16.c"
	line	31
	global	__size_of_USARTInit
	__size_of_USARTInit	equ	__end_of_USARTInit-_USARTInit
	
_USARTInit:	
;incstack = 0
	opt	stack 4
; Regs used in _USARTInit: [wreg-fsr0h+status,2+status,0]
	line	34
	
l1847:	
;usart_pic16.c: 34: UQFront=UQEnd=-1;
	movlw	(-1)
	movwf	(_UQEnd)	;volatile
	bcf	status, 5	;RP0=0, select bank0
	bcf	status, 6	;RP1=0, select bank0
	movwf	(??_USARTInit+0)+0
	movf	(??_USARTInit+0)+0,w
	movwf	(_UQFront)	;volatile
	line	37
;usart_pic16.c: 37: switch(baud_rate)
	goto	l1859
	line	39
;usart_pic16.c: 38: {
;usart_pic16.c: 39: case 9600:
	
l178:	
	line	40
	
l1849:	
;usart_pic16.c: 40: SPBRG=25;
	movlw	(019h)
	bsf	status, 5	;RP0=1, select bank1
	bcf	status, 6	;RP1=0, select bank1
	movwf	(153)^080h	;volatile
	line	41
;usart_pic16.c: 41: break;
	goto	l179
	line	42
;usart_pic16.c: 42: case 19200:
	
l180:	
	line	43
	
l1851:	
;usart_pic16.c: 43: SPBRG=12;
	movlw	(0Ch)
	bsf	status, 5	;RP0=1, select bank1
	bcf	status, 6	;RP1=0, select bank1
	movwf	(153)^080h	;volatile
	line	44
;usart_pic16.c: 44: break;
	goto	l179
	line	45
;usart_pic16.c: 45: case 28800:
	
l181:	
	line	46
	
l1853:	
;usart_pic16.c: 46: SPBRG=8;
	movlw	(08h)
	bsf	status, 5	;RP0=1, select bank1
	bcf	status, 6	;RP1=0, select bank1
	movwf	(153)^080h	;volatile
	line	47
;usart_pic16.c: 47: break;
	goto	l179
	line	48
;usart_pic16.c: 48: case 33600:
	
l182:	
	line	49
	
l1855:	
;usart_pic16.c: 49: SPBRG=6;
	movlw	(06h)
	bsf	status, 5	;RP0=1, select bank1
	bcf	status, 6	;RP1=0, select bank1
	movwf	(153)^080h	;volatile
	line	50
;usart_pic16.c: 50: break;
	goto	l179
	line	51
	
l1857:	
;usart_pic16.c: 51: }
	goto	l179
	line	37
	
l177:	
	
l1859:	
	; Switch on 2 bytes has been partitioned into a top level switch of size 1, and 4 sub-switches
; Switch size 1, requested type "space"
; Number of cases is 4, Range of values is 37 to 131
; switch strategies available:
; Name         Instructions Cycles
; simple_byte           13     7 (average)
; direct_byte          104     9 (fixed)
; jumptable            263     9 (fixed)
;	Chosen strategy is simple_byte

	bcf	status, 5	;RP0=0, select bank0
	movf (USARTInit@baud_rate+1),w
	opt asmopt_off
	xorlw	37^0	; case 37
	skipnz
	goto	l2369
	xorlw	75^37	; case 75
	skipnz
	goto	l2371
	xorlw	112^75	; case 112
	skipnz
	goto	l2373
	xorlw	131^112	; case 131
	skipnz
	goto	l2375
	goto	l179
	opt asmopt_on
	
l2369:	
; Switch size 1, requested type "space"
; Number of cases is 1, Range of values is 128 to 128
; switch strategies available:
; Name         Instructions Cycles
; simple_byte            4     3 (average)
; direct_byte           10     9 (fixed)
; jumptable            263     9 (fixed)
;	Chosen strategy is simple_byte

	movf (USARTInit@baud_rate),w
	opt asmopt_off
	xorlw	128^0	; case 128
	skipnz
	goto	l1849
	goto	l179
	opt asmopt_on
	
l2371:	
; Switch size 1, requested type "space"
; Number of cases is 1, Range of values is 0 to 0
; switch strategies available:
; Name         Instructions Cycles
; simple_byte            4     3 (average)
; direct_byte            7     6 (fixed)
; jumptable            260     6 (fixed)
;	Chosen strategy is simple_byte

	movf (USARTInit@baud_rate),w
	opt asmopt_off
	xorlw	0^0	; case 0
	skipnz
	goto	l1851
	goto	l179
	opt asmopt_on
	
l2373:	
; Switch size 1, requested type "space"
; Number of cases is 1, Range of values is 128 to 128
; switch strategies available:
; Name         Instructions Cycles
; simple_byte            4     3 (average)
; direct_byte           10     9 (fixed)
; jumptable            263     9 (fixed)
;	Chosen strategy is simple_byte

	movf (USARTInit@baud_rate),w
	opt asmopt_off
	xorlw	128^0	; case 128
	skipnz
	goto	l1853
	goto	l179
	opt asmopt_on
	
l2375:	
; Switch size 1, requested type "space"
; Number of cases is 1, Range of values is 64 to 64
; switch strategies available:
; Name         Instructions Cycles
; simple_byte            4     3 (average)
; direct_byte           10     9 (fixed)
; jumptable            263     9 (fixed)
;	Chosen strategy is simple_byte

	movf (USARTInit@baud_rate),w
	opt asmopt_off
	xorlw	64^0	; case 64
	skipnz
	goto	l1855
	goto	l179
	opt asmopt_on

	line	51
	
l179:	
	line	53
;usart_pic16.c: 53: TXSTAbits.TX9=0;
	bsf	status, 5	;RP0=1, select bank1
	bcf	status, 6	;RP1=0, select bank1
	bcf	(152)^080h,6	;volatile
	line	54
;usart_pic16.c: 54: TXSTAbits.TXEN=1;
	bsf	(152)^080h,5	;volatile
	line	55
;usart_pic16.c: 55: TXSTAbits.SYNC=0;
	bcf	(152)^080h,4	;volatile
	line	56
;usart_pic16.c: 56: TXSTAbits.BRGH=1;
	bsf	(152)^080h,2	;volatile
	line	59
;usart_pic16.c: 59: RCSTAbits.SPEN=1;
	bcf	status, 5	;RP0=0, select bank0
	bcf	status, 6	;RP1=0, select bank0
	bsf	(24),7	;volatile
	line	60
;usart_pic16.c: 60: RCSTAbits.RX9=0;
	bcf	(24),6	;volatile
	line	61
;usart_pic16.c: 61: RCSTAbits.CREN=1;
	bsf	(24),4	;volatile
	line	62
;usart_pic16.c: 62: RCSTAbits.ADDEN=0;
	bcf	(24),3	;volatile
	line	65
;usart_pic16.c: 65: RCIE=1;
	bsf	status, 5	;RP0=1, select bank1
	bcf	status, 6	;RP1=0, select bank1
	bsf	(1125/8)^080h,(1125)&7	;volatile
	line	66
;usart_pic16.c: 66: PEIE=1;
	bsf	(94/8),(94)&7	;volatile
	line	69
;usart_pic16.c: 69: (GIE = 1);
	bsf	(95/8),(95)&7	;volatile
	line	70
	
l183:	
	return
	opt stack 0
GLOBAL	__end_of_USARTInit
	__end_of_USARTInit:
	signat	_USARTInit,4216
	global	_SIM300Cmd

;; *************** function _SIM300Cmd *****************
;; Defined at:
;;		line 98 in file "E:\Study Material\XC8 PROJECTS\Security 870\sim300.c"
;; Parameters:    Size  Location     Type
;;  cmd             2   13[BANK0 ] PTR const unsigned char 
;;		 -> SIM300SendMsg@cmd(25), SIM300DeleteMsg@cmd(16), STR_7(3), STR_4(4), 
;;		 -> STR_3(15), STR_2(10), STR_1(10), 
;; Auto vars:     Size  Location     Type
;;  i               2   17[BANK0 ] unsigned int 
;;  len             1   19[BANK0 ] unsigned char 
;; Return value:  Size  Location     Type
;;                  1    wreg      char 
;; Registers used:
;;		wreg, fsr0l, fsr0h, status,2, status,0, btemp+1, pclath, cstack
;; Tracked objects:
;;		On entry : 0/0
;;		On exit  : 0/0
;;		Unchanged: 0/0
;; Data sizes:     COMMON   BANK0   BANK1
;;      Params:         0       2       0
;;      Locals:         0       3       0
;;      Temps:          0       2       0
;;      Totals:         0       7       0
;;Total ram usage:        7 bytes
;; Hardware stack levels used:    1
;; Hardware stack levels required when called:    4
;; This function calls:
;;		_USARTDataAvailable
;;		_USARTReadBuffer
;;		_USARTWriteChar
;;		_USARTWriteString
;;		___wmul
;;		_strlen
;; This function is called by:
;;		_main
;;		_SIM300Init
;;		_SIM300DeleteMsg
;;		_SIM300SendMsg
;; This function uses a non-reentrant model
;;
psect	text14,local,class=CODE,delta=2,merge=1
	file	"E:\Study Material\XC8 PROJECTS\Security 870\sim300.c"
	line	98
global __ptext14
__ptext14:	;psect for function _SIM300Cmd
psect	text14
	file	"E:\Study Material\XC8 PROJECTS\Security 870\sim300.c"
	line	98
	global	__size_of_SIM300Cmd
	__size_of_SIM300Cmd	equ	__end_of_SIM300Cmd-_SIM300Cmd
	
_SIM300Cmd:	
;incstack = 0
	opt	stack 1
; Regs used in _SIM300Cmd: [wreg-fsr0h+status,2+status,0+btemp+1+pclath+cstack]
	line	100
	
l1691:	
;sim300.c: 100: USARTWriteString(cmd);
	bcf	status, 5	;RP0=0, select bank0
	bcf	status, 6	;RP1=0, select bank0
	movf	(SIM300Cmd@cmd+1),w
	clrf	(USARTWriteString@str+1)
	addwf	(USARTWriteString@str+1)
	movf	(SIM300Cmd@cmd),w
	clrf	(USARTWriteString@str)
	addwf	(USARTWriteString@str)

	fcall	_USARTWriteString
	line	101
	
l1693:	
;sim300.c: 101: USARTWriteChar(0x0D);
	movlw	(0Dh)
	fcall	_USARTWriteChar
	line	103
	
l1695:	
;sim300.c: 103: uint8_t len=strlen(cmd);
	bcf	status, 5	;RP0=0, select bank0
	bcf	status, 6	;RP1=0, select bank0
	movf	(SIM300Cmd@cmd+1),w
	clrf	(strlen@s+1)
	addwf	(strlen@s+1)
	movf	(SIM300Cmd@cmd),w
	clrf	(strlen@s)
	addwf	(strlen@s)

	fcall	_strlen
	bcf	status, 5	;RP0=0, select bank0
	bcf	status, 6	;RP1=0, select bank0
	movf	(0+(?_strlen)),w
	movwf	(??_SIM300Cmd+0)+0
	movf	(??_SIM300Cmd+0)+0,w
	movwf	(SIM300Cmd@len)
	line	105
	
l1697:	
;sim300.c: 105: len++;
	movlw	(01h)
	movwf	(??_SIM300Cmd+0)+0
	movf	(??_SIM300Cmd+0)+0,w
	addwf	(SIM300Cmd@len),f
	line	107
	
l1699:	
;sim300.c: 107: uint16_t i=0;
	clrf	(SIM300Cmd@i)
	clrf	(SIM300Cmd@i+1)
	line	110
;sim300.c: 110: while(i<10*len)
	goto	l1711
	
l101:	
	line	112
	
l1701:	
;sim300.c: 111: {
;sim300.c: 112: if(USARTDataAvailable()<len)
	fcall	_USARTDataAvailable
	bcf	status, 5	;RP0=0, select bank0
	bcf	status, 6	;RP1=0, select bank0
	movwf	(??_SIM300Cmd+0)+0
	movf	(SIM300Cmd@len),w
	subwf	(??_SIM300Cmd+0)+0,w
	skipnc
	goto	u1251
	goto	u1250
u1251:
	goto	l1707
u1250:
	line	114
	
l1703:	
;sim300.c: 113: {
;sim300.c: 114: i++;
	movlw	low(01h)
	addwf	(SIM300Cmd@i),f
	skipnc
	incf	(SIM300Cmd@i+1),f
	movlw	high(01h)
	addwf	(SIM300Cmd@i+1),f
	line	115
;sim300.c: 115: _delay((unsigned long)((10)*(4000000/4000.0)));
	opt asmopt_off
movlw	13
movwf	((??_SIM300Cmd+0)+0+1),f
	movlw	251
movwf	((??_SIM300Cmd+0)+0),f
u2227:
	decfsz	((??_SIM300Cmd+0)+0),f
	goto	u2227
	decfsz	((??_SIM300Cmd+0)+0+1),f
	goto	u2227
	nop2
opt asmopt_on

	line	116
;sim300.c: 116: continue;
	goto	l1711
	line	117
	
l1705:	
;sim300.c: 117: }
	goto	l1711
	line	118
	
l102:	
	line	122
	
l1707:	
;sim300.c: 118: else
;sim300.c: 119: {
;sim300.c: 122: USARTReadBuffer(sim300_buffer,len);
	bcf	status, 5	;RP0=0, select bank0
	bcf	status, 6	;RP1=0, select bank0
	movf	(SIM300Cmd@len),w
	movwf	(??_SIM300Cmd+0)+0
	clrf	(??_SIM300Cmd+0)+0+1
	movf	0+(??_SIM300Cmd+0)+0,w
	movwf	(USARTReadBuffer@len)
	movf	1+(??_SIM300Cmd+0)+0,w
	movwf	(USARTReadBuffer@len+1)
	movlw	(_sim300_buffer)&0ffh
	fcall	_USARTReadBuffer
	goto	l104
	line	124
	
l1709:	
;sim300.c: 124: return 1;
;	Return value of _SIM300Cmd is never used
	goto	l104
	line	125
	
l103:	
	goto	l1711
	line	126
	
l100:	
	line	110
	
l1711:	
	bcf	status, 5	;RP0=0, select bank0
	bcf	status, 6	;RP1=0, select bank0
	movf	(SIM300Cmd@len),w
	movwf	(??_SIM300Cmd+0)+0
	clrf	(??_SIM300Cmd+0)+0+1
	movf	0+(??_SIM300Cmd+0)+0,w
	movwf	(___wmul@multiplier)
	movf	1+(??_SIM300Cmd+0)+0,w
	movwf	(___wmul@multiplier+1)
	movlw	low(0Ah)
	movwf	(___wmul@multiplicand)
	movlw	high(0Ah)
	movwf	((___wmul@multiplicand))+1
	fcall	___wmul
	bcf	status, 5	;RP0=0, select bank0
	bcf	status, 6	;RP1=0, select bank0
	movf	(1+(?___wmul)),w
	subwf	(SIM300Cmd@i+1),w
	skipz
	goto	u1265
	movf	(0+(?___wmul)),w
	subwf	(SIM300Cmd@i),w
u1265:
	skipc
	goto	u1261
	goto	u1260
u1261:
	goto	l1701
u1260:
	goto	l104
	
l105:	
	line	129
;sim300.c: 125: }
;sim300.c: 126: }
;sim300.c: 128: return -3;
;	Return value of _SIM300Cmd is never used
	
l104:	
	return
	opt stack 0
GLOBAL	__end_of_SIM300Cmd
	__end_of_SIM300Cmd:
	signat	_SIM300Cmd,4217
	global	_strlen

;; *************** function _strlen *****************
;; Defined at:
;;		line 4 in file "C:\Program Files (x86)\Microchip\xc8\v1.32\sources\common\strlen.c"
;; Parameters:    Size  Location     Type
;;  s               2    0[BANK0 ] PTR const unsigned char 
;;		 -> SIM300SendMsg@cmd(25), SIM300DeleteMsg@cmd(16), STR_7(3), STR_6(33), 
;;		 -> STR_4(4), STR_3(15), STR_2(10), STR_1(10), 
;; Auto vars:     Size  Location     Type
;;  cp              2    4[BANK0 ] PTR const unsigned char 
;;		 -> SIM300SendMsg@cmd(25), SIM300DeleteMsg@cmd(16), STR_7(3), STR_6(33), 
;;		 -> STR_4(4), STR_3(15), STR_2(10), STR_1(10), 
;; Return value:  Size  Location     Type
;;                  2    0[BANK0 ] unsigned int 
;; Registers used:
;;		wreg, fsr0l, fsr0h, status,2, status,0, btemp+1, pclath
;; Tracked objects:
;;		On entry : 0/0
;;		On exit  : 0/0
;;		Unchanged: 0/0
;; Data sizes:     COMMON   BANK0   BANK1
;;      Params:         0       2       0
;;      Locals:         0       2       0
;;      Temps:          0       2       0
;;      Totals:         0       6       0
;;Total ram usage:        6 bytes
;; Hardware stack levels used:    1
;; Hardware stack levels required when called:    2
;; This function calls:
;;		Nothing
;; This function is called by:
;;		_SIM300Cmd
;;		_SIM300SendMsg
;; This function uses a non-reentrant model
;;
psect	text15,local,class=CODE,delta=2,merge=1
	file	"C:\Program Files (x86)\Microchip\xc8\v1.32\sources\common\strlen.c"
	line	4
global __ptext15
__ptext15:	;psect for function _strlen
psect	text15
	file	"C:\Program Files (x86)\Microchip\xc8\v1.32\sources\common\strlen.c"
	line	4
	global	__size_of_strlen
	__size_of_strlen	equ	__end_of_strlen-_strlen
	
_strlen:	
;incstack = 0
	opt	stack 4
; Regs used in _strlen: [wreg-fsr0h+status,2+status,0+btemp+1+pclath]
	line	8
	
l1613:	
	bcf	status, 5	;RP0=0, select bank0
	bcf	status, 6	;RP1=0, select bank0
	movf	(strlen@s+1),w
	clrf	(strlen@cp+1)
	addwf	(strlen@cp+1)
	movf	(strlen@s),w
	clrf	(strlen@cp)
	addwf	(strlen@cp)

	line	9
	goto	l1615
	
l752:	
	line	10
	movlw	01h
	addwf	(strlen@cp),f
	skipnc
	incf	(strlen@cp+1),f
	goto	l1615
	line	11
	
l751:	
	line	9
	
l1615:	
	movf	(strlen@cp+1),w
	movwf	btemp+1
	movf	(strlen@cp),w
	movwf	fsr0
	fcall	stringtab
	iorlw	0
	skipz
	goto	u1051
	goto	u1050
u1051:
	goto	l752
u1050:
	goto	l1617
	
l753:	
	line	12
	
l1617:	
	comf	(strlen@s),w
	movwf	(??_strlen+0)+0
	comf	(strlen@s+1),w
	movwf	((??_strlen+0)+0+1)
	incf	(??_strlen+0)+0,f
	skipnz
	incf	((??_strlen+0)+0+1),f
	movf	(strlen@cp),w
	addwf	0+(??_strlen+0)+0,w
	movwf	(?_strlen)
	movf	(strlen@cp+1),w
	skipnc
	incf	(strlen@cp+1),w
	addwf	1+(??_strlen+0)+0,w
	movwf	1+(?_strlen)
	goto	l754
	
l1619:	
	line	13
	
l754:	
	return
	opt stack 0
GLOBAL	__end_of_strlen
	__end_of_strlen:
	signat	_strlen,4218
	global	___wmul

;; *************** function ___wmul *****************
;; Defined at:
;;		line 15 in file "C:\Program Files (x86)\Microchip\xc8\v1.32\sources\common\Umul16.c"
;; Parameters:    Size  Location     Type
;;  multiplier      2    0[BANK0 ] unsigned int 
;;  multiplicand    2    2[BANK0 ] unsigned int 
;; Auto vars:     Size  Location     Type
;;  product         2    4[BANK0 ] unsigned int 
;; Return value:  Size  Location     Type
;;                  2    0[BANK0 ] unsigned int 
;; Registers used:
;;		wreg, status,2, status,0
;; Tracked objects:
;;		On entry : 0/0
;;		On exit  : 0/0
;;		Unchanged: 0/0
;; Data sizes:     COMMON   BANK0   BANK1
;;      Params:         0       4       0
;;      Locals:         0       2       0
;;      Temps:          0       0       0
;;      Totals:         0       6       0
;;Total ram usage:        6 bytes
;; Hardware stack levels used:    1
;; Hardware stack levels required when called:    2
;; This function calls:
;;		Nothing
;; This function is called by:
;;		_SIM300Cmd
;;		_atoi
;; This function uses a non-reentrant model
;;
psect	text16,local,class=CODE,delta=2,merge=1
	file	"C:\Program Files (x86)\Microchip\xc8\v1.32\sources\common\Umul16.c"
	line	15
global __ptext16
__ptext16:	;psect for function ___wmul
psect	text16
	file	"C:\Program Files (x86)\Microchip\xc8\v1.32\sources\common\Umul16.c"
	line	15
	global	__size_of___wmul
	__size_of___wmul	equ	__end_of___wmul-___wmul
	
___wmul:	
;incstack = 0
	opt	stack 3
; Regs used in ___wmul: [wreg+status,2+status,0]
	line	43
	
l1621:	
	bcf	status, 5	;RP0=0, select bank0
	bcf	status, 6	;RP1=0, select bank0
	clrf	(___wmul@product)
	clrf	(___wmul@product+1)
	goto	l1623
	line	44
	
l376:	
	line	45
	
l1623:	
	btfss	(___wmul@multiplier),(0)&7
	goto	u1061
	goto	u1060
u1061:
	goto	l377
u1060:
	line	46
	
l1625:	
	movf	(___wmul@multiplicand),w
	addwf	(___wmul@product),f
	skipnc
	incf	(___wmul@product+1),f
	movf	(___wmul@multiplicand+1),w
	addwf	(___wmul@product+1),f
	
l377:	
	line	47
	movlw	01h
	
u1075:
	clrc
	rlf	(___wmul@multiplicand),f
	rlf	(___wmul@multiplicand+1),f
	addlw	-1
	skipz
	goto	u1075
	line	48
	
l1627:	
	movlw	01h
	
u1085:
	clrc
	rrf	(___wmul@multiplier+1),f
	rrf	(___wmul@multiplier),f
	addlw	-1
	skipz
	goto	u1085
	line	49
	movf	((___wmul@multiplier+1)),w
	iorwf	((___wmul@multiplier)),w
	skipz
	goto	u1091
	goto	u1090
u1091:
	goto	l1623
u1090:
	goto	l1629
	
l378:	
	line	52
	
l1629:	
	movf	(___wmul@product+1),w
	clrf	(?___wmul+1)
	addwf	(?___wmul+1)
	movf	(___wmul@product),w
	clrf	(?___wmul)
	addwf	(?___wmul)

	goto	l379
	
l1631:	
	line	53
	
l379:	
	return
	opt stack 0
GLOBAL	__end_of___wmul
	__end_of___wmul:
	signat	___wmul,8314
	global	_USARTWriteString

;; *************** function _USARTWriteString *****************
;; Defined at:
;;		line 80 in file "E:\Study Material\XC8 PROJECTS\Security 870\usart_pic16.c"
;; Parameters:    Size  Location     Type
;;  str             2    1[BANK0 ] PTR const unsigned char 
;;		 -> SIM300SendMsg@cmd(25), SIM300DeleteMsg@cmd(16), STR_7(3), STR_6(33), 
;;		 -> STR_4(4), STR_3(15), STR_2(10), STR_1(10), 
;; Auto vars:     Size  Location     Type
;;		None
;; Return value:  Size  Location     Type
;;		None               void
;; Registers used:
;;		wreg, fsr0l, fsr0h, status,2, status,0, btemp+1, pclath, cstack
;; Tracked objects:
;;		On entry : 0/0
;;		On exit  : 0/0
;;		Unchanged: 0/0
;; Data sizes:     COMMON   BANK0   BANK1
;;      Params:         0       2       0
;;      Locals:         0       0       0
;;      Temps:          0       0       0
;;      Totals:         0       2       0
;;Total ram usage:        2 bytes
;; Hardware stack levels used:    1
;; Hardware stack levels required when called:    3
;; This function calls:
;;		_USARTWriteChar
;; This function is called by:
;;		_SIM300Cmd
;;		_SIM300SendMsg
;;		_USARTWriteLine
;; This function uses a non-reentrant model
;;
psect	text17,local,class=CODE,delta=2,merge=1
	file	"E:\Study Material\XC8 PROJECTS\Security 870\usart_pic16.c"
	line	80
global __ptext17
__ptext17:	;psect for function _USARTWriteString
psect	text17
	file	"E:\Study Material\XC8 PROJECTS\Security 870\usart_pic16.c"
	line	80
	global	__size_of_USARTWriteString
	__size_of_USARTWriteString	equ	__end_of_USARTWriteString-_USARTWriteString
	
_USARTWriteString:	
;incstack = 0
	opt	stack 3
; Regs used in _USARTWriteString: [wreg-fsr0h+status,2+status,0+btemp+1+pclath+cstack]
	line	82
	
l1605:	
;usart_pic16.c: 82: while(*str!='\0')
	goto	l1611
	
l193:	
	line	84
	
l1607:	
;usart_pic16.c: 83: {
;usart_pic16.c: 84: USARTWriteChar(*str);
	bcf	status, 5	;RP0=0, select bank0
	bcf	status, 6	;RP1=0, select bank0
	movf	(USARTWriteString@str+1),w
	movwf	btemp+1
	movf	(USARTWriteString@str),w
	movwf	fsr0
	fcall	stringtab
	fcall	_USARTWriteChar
	line	85
	
l1609:	
;usart_pic16.c: 85: str++;
	movlw	01h
	bcf	status, 5	;RP0=0, select bank0
	bcf	status, 6	;RP1=0, select bank0
	addwf	(USARTWriteString@str),f
	skipnc
	incf	(USARTWriteString@str+1),f
	goto	l1611
	line	86
	
l192:	
	line	82
	
l1611:	
	bcf	status, 5	;RP0=0, select bank0
	bcf	status, 6	;RP1=0, select bank0
	movf	(USARTWriteString@str+1),w
	movwf	btemp+1
	movf	(USARTWriteString@str),w
	movwf	fsr0
	fcall	stringtab
	iorlw	0
	skipz
	goto	u1041
	goto	u1040
u1041:
	goto	l1607
u1040:
	goto	l195
	
l194:	
	line	87
	
l195:	
	return
	opt stack 0
GLOBAL	__end_of_USARTWriteString
	__end_of_USARTWriteString:
	signat	_USARTWriteString,4216
	global	_USARTWriteChar

;; *************** function _USARTWriteChar *****************
;; Defined at:
;;		line 73 in file "E:\Study Material\XC8 PROJECTS\Security 870\usart_pic16.c"
;; Parameters:    Size  Location     Type
;;  ch              1    wreg     unsigned char 
;; Auto vars:     Size  Location     Type
;;  ch              1    0[BANK0 ] unsigned char 
;; Return value:  Size  Location     Type
;;		None               void
;; Registers used:
;;		wreg
;; Tracked objects:
;;		On entry : 0/0
;;		On exit  : 0/0
;;		Unchanged: 0/0
;; Data sizes:     COMMON   BANK0   BANK1
;;      Params:         0       0       0
;;      Locals:         0       1       0
;;      Temps:          0       0       0
;;      Totals:         0       1       0
;;Total ram usage:        1 bytes
;; Hardware stack levels used:    1
;; Hardware stack levels required when called:    2
;; This function calls:
;;		Nothing
;; This function is called by:
;;		_SIM300Cmd
;;		_SIM300SendMsg
;;		_USARTWriteString
;;		_USARTWriteLine
;;		_USARTWriteInt
;;		_USARTGotoNewLine
;; This function uses a non-reentrant model
;;
psect	text18,local,class=CODE,delta=2,merge=1
	line	73
global __ptext18
__ptext18:	;psect for function _USARTWriteChar
psect	text18
	file	"E:\Study Material\XC8 PROJECTS\Security 870\usart_pic16.c"
	line	73
	global	__size_of_USARTWriteChar
	__size_of_USARTWriteChar	equ	__end_of_USARTWriteChar-_USARTWriteChar
	
_USARTWriteChar:	
;incstack = 0
	opt	stack 3
; Regs used in _USARTWriteChar: [wreg]
;USARTWriteChar@ch stored from wreg
	bcf	status, 5	;RP0=0, select bank0
	bcf	status, 6	;RP1=0, select bank0
	movwf	(USARTWriteChar@ch)
	line	75
	
l1565:	
;usart_pic16.c: 75: while(!PIR1bits.TXIF);
	goto	l186
	
l187:	
	
l186:	
	btfss	(12),4	;volatile
	goto	u981
	goto	u980
u981:
	goto	l186
u980:
	goto	l1567
	
l188:	
	line	76
	
l1567:	
;usart_pic16.c: 76: TXREG=ch;
	movf	(USARTWriteChar@ch),w
	movwf	(25)	;volatile
	line	77
	
l189:	
	return
	opt stack 0
GLOBAL	__end_of_USARTWriteChar
	__end_of_USARTWriteChar:
	signat	_USARTWriteChar,4216
	global	_USARTReadBuffer

;; *************** function _USARTReadBuffer *****************
;; Defined at:
;;		line 223 in file "E:\Study Material\XC8 PROJECTS\Security 870\usart_pic16.c"
;; Parameters:    Size  Location     Type
;;  buff            1    wreg     PTR unsigned char 
;;		 -> sim300_buffer(5), 
;;  len             2    6[BANK0 ] unsigned int 
;; Auto vars:     Size  Location     Type
;;  buff            1   10[BANK0 ] PTR unsigned char 
;;		 -> sim300_buffer(5), 
;;  i               2   11[BANK0 ] unsigned int 
;; Return value:  Size  Location     Type
;;		None               void
;; Registers used:
;;		wreg, fsr0l, fsr0h, status,2, status,0, pclath, cstack
;; Tracked objects:
;;		On entry : 0/0
;;		On exit  : 0/0
;;		Unchanged: 0/0
;; Data sizes:     COMMON   BANK0   BANK1
;;      Params:         0       2       0
;;      Locals:         0       3       0
;;      Temps:          0       2       0
;;      Totals:         0       7       0
;;Total ram usage:        7 bytes
;; Hardware stack levels used:    1
;; Hardware stack levels required when called:    3
;; This function calls:
;;		_USARTReadData
;; This function is called by:
;;		_SIM300Init
;;		_SIM300Cmd
;;		_SIM300SendMsg
;; This function uses a non-reentrant model
;;
psect	text19,local,class=CODE,delta=2,merge=1
	line	223
global __ptext19
__ptext19:	;psect for function _USARTReadBuffer
psect	text19
	file	"E:\Study Material\XC8 PROJECTS\Security 870\usart_pic16.c"
	line	223
	global	__size_of_USARTReadBuffer
	__size_of_USARTReadBuffer	equ	__end_of_USARTReadBuffer-_USARTReadBuffer
	
_USARTReadBuffer:	
;incstack = 0
	opt	stack 3
; Regs used in _USARTReadBuffer: [wreg-fsr0h+status,2+status,0+pclath+cstack]
;USARTReadBuffer@buff stored from wreg
	bcf	status, 5	;RP0=0, select bank0
	bcf	status, 6	;RP1=0, select bank0
	movwf	(USARTReadBuffer@buff)
	line	226
	
l1597:	
;usart_pic16.c: 225: uint16_t i;
;usart_pic16.c: 226: for(i=0;i<len;i++)
	clrf	(USARTReadBuffer@i)
	clrf	(USARTReadBuffer@i+1)
	goto	l1603
	line	227
	
l252:	
	line	228
	
l1599:	
;usart_pic16.c: 227: {
;usart_pic16.c: 228: buff[i]=USARTReadData();
	fcall	_USARTReadData
	bcf	status, 5	;RP0=0, select bank0
	bcf	status, 6	;RP1=0, select bank0
	movwf	(??_USARTReadBuffer+0)+0
	movf	(USARTReadBuffer@i),w
	addwf	(USARTReadBuffer@buff),w
	movwf	(??_USARTReadBuffer+1)+0
	movf	0+(??_USARTReadBuffer+1)+0,w
	movwf	fsr0
	movf	(??_USARTReadBuffer+0)+0,w
	bcf	status, 7	;select IRP bank0
	movwf	indf
	line	226
	
l1601:	
	movlw	low(01h)
	addwf	(USARTReadBuffer@i),f
	skipnc
	incf	(USARTReadBuffer@i+1),f
	movlw	high(01h)
	addwf	(USARTReadBuffer@i+1),f
	goto	l1603
	
l251:	
	
l1603:	
	movf	(USARTReadBuffer@len+1),w
	subwf	(USARTReadBuffer@i+1),w
	skipz
	goto	u1035
	movf	(USARTReadBuffer@len),w
	subwf	(USARTReadBuffer@i),w
u1035:
	skipc
	goto	u1031
	goto	u1030
u1031:
	goto	l1599
u1030:
	goto	l254
	
l253:	
	line	230
	
l254:	
	return
	opt stack 0
GLOBAL	__end_of_USARTReadBuffer
	__end_of_USARTReadBuffer:
	signat	_USARTReadBuffer,8312
	global	_USARTReadData

;; *************** function _USARTReadData *****************
;; Defined at:
;;		line 131 in file "E:\Study Material\XC8 PROJECTS\Security 870\usart_pic16.c"
;; Parameters:    Size  Location     Type
;;		None
;; Auto vars:     Size  Location     Type
;;  data            1    1[BANK0 ] unsigned char 
;; Return value:  Size  Location     Type
;;                  1    wreg      unsigned char 
;; Registers used:
;;		wreg, fsr0l, fsr0h, status,2, status,0
;; Tracked objects:
;;		On entry : 0/0
;;		On exit  : 0/0
;;		Unchanged: 0/0
;; Data sizes:     COMMON   BANK0   BANK1
;;      Params:         0       0       0
;;      Locals:         0       1       0
;;      Temps:          0       1       0
;;      Totals:         0       2       0
;;Total ram usage:        2 bytes
;; Hardware stack levels used:    1
;; Hardware stack levels required when called:    2
;; This function calls:
;;		Nothing
;; This function is called by:
;;		_SIM300WaitForResponse
;;		_USARTReadBuffer
;;		_USARTFlushBuffer
;; This function uses a non-reentrant model
;;
psect	text20,local,class=CODE,delta=2,merge=1
	line	131
global __ptext20
__ptext20:	;psect for function _USARTReadData
psect	text20
	file	"E:\Study Material\XC8 PROJECTS\Security 870\usart_pic16.c"
	line	131
	global	__size_of_USARTReadData
	__size_of_USARTReadData	equ	__end_of_USARTReadData-_USARTReadData
	
_USARTReadData:	
;incstack = 0
	opt	stack 4
; Regs used in _USARTReadData: [wreg-fsr0h+status,2+status,0]
	line	136
	
l1569:	
;usart_pic16.c: 133: char data;
;usart_pic16.c: 136: if(UQFront==-1)
	movf	(_UQFront),w	;volatile
	xorlw	-1
	skipz
	goto	u991
	goto	u990
u991:
	goto	l1575
u990:
	line	137
	
l1571:	
;usart_pic16.c: 137: return 0;
	movlw	(0)
	goto	l216
	
l1573:	
	goto	l216
	
l215:	
	line	139
	
l1575:	
;usart_pic16.c: 139: data=URBuff[UQFront];
	movf	(_UQFront),w
	addlw	_URBuff&0ffh
	movwf	fsr0
	bcf	status, 7	;select IRP bank0
	movf	indf,w
	bcf	status, 5	;RP0=0, select bank0
	bcf	status, 6	;RP1=0, select bank0
	movwf	(??_USARTReadData+0)+0
	movf	(??_USARTReadData+0)+0,w
	movwf	(USARTReadData@data)
	line	141
	
l1577:	
;usart_pic16.c: 141: if(UQFront==UQEnd)
	movf	(_UQFront),w	;volatile
	xorwf	(_UQEnd),w	;volatile
	skipz
	goto	u1001
	goto	u1000
u1001:
	goto	l1581
u1000:
	line	145
	
l1579:	
;usart_pic16.c: 142: {
;usart_pic16.c: 145: UQFront=UQEnd=-1;
	movlw	(-1)
	movwf	(_UQEnd)	;volatile
	movwf	(??_USARTReadData+0)+0
	movf	(??_USARTReadData+0)+0,w
	movwf	(_UQFront)	;volatile
	line	146
;usart_pic16.c: 146: }
	goto	l1587
	line	147
	
l217:	
	line	149
	
l1581:	
;usart_pic16.c: 147: else
;usart_pic16.c: 148: {
;usart_pic16.c: 149: UQFront++;
	movlw	(01h)
	movwf	(??_USARTReadData+0)+0
	movf	(??_USARTReadData+0)+0,w
	addwf	(_UQFront),f	;volatile
	line	151
	
l1583:	
;usart_pic16.c: 151: if(UQFront==5)
	movf	(_UQFront),w	;volatile
	xorlw	05h
	skipz
	goto	u1011
	goto	u1010
u1011:
	goto	l1587
u1010:
	line	152
	
l1585:	
;usart_pic16.c: 152: UQFront=0;
	clrf	(_UQFront)	;volatile
	goto	l1587
	
l219:	
	goto	l1587
	line	153
	
l218:	
	line	155
	
l1587:	
;usart_pic16.c: 153: }
;usart_pic16.c: 155: return data;
	movf	(USARTReadData@data),w
	goto	l216
	
l1589:	
	line	156
	
l216:	
	return
	opt stack 0
GLOBAL	__end_of_USARTReadData
	__end_of_USARTReadData:
	signat	_USARTReadData,89
	global	_USARTDataAvailable

;; *************** function _USARTDataAvailable *****************
;; Defined at:
;;		line 159 in file "E:\Study Material\XC8 PROJECTS\Security 870\usart_pic16.c"
;; Parameters:    Size  Location     Type
;;		None
;; Auto vars:     Size  Location     Type
;;		None
;; Return value:  Size  Location     Type
;;                  1    wreg      unsigned char 
;; Registers used:
;;		wreg, status,2, status,0
;; Tracked objects:
;;		On entry : 0/0
;;		On exit  : 0/0
;;		Unchanged: 0/0
;; Data sizes:     COMMON   BANK0   BANK1
;;      Params:         0       0       0
;;      Locals:         0       0       0
;;      Temps:          0       1       0
;;      Totals:         0       1       0
;;Total ram usage:        1 bytes
;; Hardware stack levels used:    1
;; Hardware stack levels required when called:    2
;; This function calls:
;;		Nothing
;; This function is called by:
;;		_SIM300Init
;;		_SIM300Cmd
;;		_SIM300WaitForResponse
;;		_SIM300SendMsg
;;		_USARTFlushBuffer
;; This function uses a non-reentrant model
;;
psect	text21,local,class=CODE,delta=2,merge=1
	line	159
global __ptext21
__ptext21:	;psect for function _USARTDataAvailable
psect	text21
	file	"E:\Study Material\XC8 PROJECTS\Security 870\usart_pic16.c"
	line	159
	global	__size_of_USARTDataAvailable
	__size_of_USARTDataAvailable	equ	__end_of_USARTDataAvailable-_USARTDataAvailable
	
_USARTDataAvailable:	
;incstack = 0
	opt	stack 4
; Regs used in _USARTDataAvailable: [wreg+status,2+status,0]
	line	161
	
l1539:	
;usart_pic16.c: 161: if(UQFront==-1)
	movf	(_UQFront),w	;volatile
	xorlw	-1
	skipz
	goto	u951
	goto	u950
u951:
	goto	l1545
u950:
	line	162
	
l1541:	
;usart_pic16.c: 162: return 0;
	movlw	(0)
	goto	l223
	
l1543:	
	goto	l223
	
l222:	
	line	163
	
l1545:	
;usart_pic16.c: 163: if(UQFront<UQEnd)
	movf	(_UQFront),w	;volatile
	xorlw	80h
	bcf	status, 5	;RP0=0, select bank0
	bcf	status, 6	;RP1=0, select bank0
	movwf	(??_USARTDataAvailable+0)+0
	movf	(_UQEnd),w	;volatile
	xorlw	80h
	subwf	(??_USARTDataAvailable+0)+0
	skipnc
	goto	u961
	goto	u960
u961:
	goto	l1553
u960:
	line	164
	
l1547:	
;usart_pic16.c: 164: return(UQEnd-UQFront+1);
	decf	(_UQFront),w	;volatile
	xorlw	0ffh
	addwf	(_UQEnd),w	;volatile
	addlw	01h
	goto	l223
	
l1549:	
	goto	l223
	
l1551:	
	goto	l223
	line	165
	
l224:	
	
l1553:	
;usart_pic16.c: 165: else if(UQFront>UQEnd)
	movf	(_UQEnd),w	;volatile
	xorlw	80h
	movwf	(??_USARTDataAvailable+0)+0
	movf	(_UQFront),w	;volatile
	xorlw	80h
	subwf	(??_USARTDataAvailable+0)+0
	skipnc
	goto	u971
	goto	u970
u971:
	goto	l1561
u970:
	line	166
	
l1555:	
;usart_pic16.c: 166: return (5-UQFront+UQEnd+1);
	decf	(_UQFront),w	;volatile
	xorlw	0ffh
	addwf	(_UQEnd),w	;volatile
	addlw	06h
	goto	l223
	
l1557:	
	goto	l223
	
l1559:	
	goto	l223
	line	167
	
l226:	
	line	168
	
l1561:	
;usart_pic16.c: 167: else
;usart_pic16.c: 168: return 1;
	movlw	(01h)
	goto	l223
	
l1563:	
	goto	l223
	
l227:	
	goto	l223
	
l225:	
	line	169
	
l223:	
	return
	opt stack 0
GLOBAL	__end_of_USARTDataAvailable
	__end_of_USARTDataAvailable:
	signat	_USARTDataAvailable,89
	global	_SIM300CheckResponse

;; *************** function _SIM300CheckResponse *****************
;; Defined at:
;;		line 131 in file "E:\Study Material\XC8 PROJECTS\Security 870\sim300.c"
;; Parameters:    Size  Location     Type
;;  response        1    wreg     PTR const unsigned char 
;;		 -> sim300_buffer(5), 
;;  check           1    0[BANK0 ] PTR const unsigned char 
;;		 -> STR_8(3), 
;;  len             1    1[BANK0 ] unsigned char 
;; Auto vars:     Size  Location     Type
;;  response        1    5[BANK0 ] PTR const unsigned char 
;;		 -> sim300_buffer(5), 
;;  i               1    4[BANK0 ] unsigned char 
;; Return value:  Size  Location     Type
;;                  1    wreg      char 
;; Registers used:
;;		wreg, fsr0l, fsr0h, status,2, status,0, pclath
;; Tracked objects:
;;		On entry : 0/0
;;		On exit  : 0/0
;;		Unchanged: 0/0
;; Data sizes:     COMMON   BANK0   BANK1
;;      Params:         0       2       0
;;      Locals:         0       2       0
;;      Temps:          0       2       0
;;      Totals:         0       6       0
;;Total ram usage:        6 bytes
;; Hardware stack levels used:    1
;; Hardware stack levels required when called:    2
;; This function calls:
;;		Nothing
;; This function is called by:
;;		_SIM300Init
;; This function uses a non-reentrant model
;;
psect	text22,local,class=CODE,delta=2,merge=1
	file	"E:\Study Material\XC8 PROJECTS\Security 870\sim300.c"
	line	131
global __ptext22
__ptext22:	;psect for function _SIM300CheckResponse
psect	text22
	file	"E:\Study Material\XC8 PROJECTS\Security 870\sim300.c"
	line	131
	global	__size_of_SIM300CheckResponse
	__size_of_SIM300CheckResponse	equ	__end_of_SIM300CheckResponse-_SIM300CheckResponse
	
_SIM300CheckResponse:	
;incstack = 0
	opt	stack 4
; Regs used in _SIM300CheckResponse: [wreg-fsr0h+status,2+status,0+pclath]
;SIM300CheckResponse@response stored from wreg
	bcf	status, 5	;RP0=0, select bank0
	bcf	status, 6	;RP1=0, select bank0
	movwf	(SIM300CheckResponse@response)
	line	133
	
l1877:	
;sim300.c: 133: len-=2;
	movlw	low(02h)
	subwf	(SIM300CheckResponse@len),f
	line	136
	
l1879:	
;sim300.c: 136: if(response[0]!=0x0D | response[1]!=0x0A)
	movf	(SIM300CheckResponse@response),w
	movwf	fsr0
	bcf	status, 7	;select IRP bank0
	movf	indf,w
	xorlw	0Dh
	skipz
	goto	u1471
	goto	u1470
u1471:
	goto	l1883
u1470:
	
l1881:	
	incf	(SIM300CheckResponse@response),w
	movwf	fsr0
	movf	indf,w
	xorlw	0Ah
	skipnz
	goto	u1481
	goto	u1480
u1481:
	goto	l1887
u1480:
	goto	l1883
	
l110:	
	line	137
	
l1883:	
;sim300.c: 137: return -1;
	movlw	(-1)
	goto	l111
	
l1885:	
	goto	l111
	
l108:	
	line	140
	
l1887:	
;sim300.c: 140: if(response[len]!=0x0D | response[len+1]!=0x0A)
	movf	(SIM300CheckResponse@len),w
	addwf	(SIM300CheckResponse@response),w
	movwf	(??_SIM300CheckResponse+0)+0
	movf	0+(??_SIM300CheckResponse+0)+0,w
	movwf	fsr0
	movf	indf,w
	xorlw	0Dh
	skipz
	goto	u1491
	goto	u1490
u1491:
	goto	l1891
u1490:
	
l1889:	
	movf	(SIM300CheckResponse@len),w
	addlw	01h
	addwf	(SIM300CheckResponse@response),w
	movwf	(??_SIM300CheckResponse+0)+0
	movf	0+(??_SIM300CheckResponse+0)+0,w
	movwf	fsr0
	movf	indf,w
	xorlw	0Ah
	skipnz
	goto	u1501
	goto	u1500
u1501:
	goto	l1895
u1500:
	goto	l1891
	
l114:	
	line	141
	
l1891:	
;sim300.c: 141: return -1;
	movlw	(-1)
	goto	l111
	
l1893:	
	goto	l111
	
l112:	
	line	145
	
l1895:	
;sim300.c: 145: for(uint8_t i=2;i<len;i++)
	movlw	(02h)
	movwf	(??_SIM300CheckResponse+0)+0
	movf	(??_SIM300CheckResponse+0)+0,w
	movwf	(SIM300CheckResponse@i)
	goto	l1905
	line	146
	
l116:	
	line	147
	
l1897:	
;sim300.c: 146: {
;sim300.c: 147: if(response[i]!=check[i-2])
	movf	(SIM300CheckResponse@i),w
	addlw	-2
	addwf	(SIM300CheckResponse@check),w
	movwf	fsr0
	fcall	stringdir
	movwf	(??_SIM300CheckResponse+0)+0
	movf	(SIM300CheckResponse@i),w
	addwf	(SIM300CheckResponse@response),w
	movwf	(??_SIM300CheckResponse+1)+0
	movf	0+(??_SIM300CheckResponse+1)+0,w
	movwf	fsr0
	movf	indf,w
	xorwf	(??_SIM300CheckResponse+0)+0,w
	skipnz
	goto	u1511
	goto	u1510
u1511:
	goto	l1903
u1510:
	line	148
	
l1899:	
;sim300.c: 148: return -2;
	movlw	(-2)
	goto	l111
	
l1901:	
	goto	l111
	
l117:	
	line	145
	
l1903:	
	movlw	(01h)
	movwf	(??_SIM300CheckResponse+0)+0
	movf	(??_SIM300CheckResponse+0)+0,w
	addwf	(SIM300CheckResponse@i),f
	goto	l1905
	
l115:	
	
l1905:	
	movf	(SIM300CheckResponse@len),w
	subwf	(SIM300CheckResponse@i),w
	skipc
	goto	u1521
	goto	u1520
u1521:
	goto	l1897
u1520:
	goto	l1907
	
l118:	
	line	151
	
l1907:	
;sim300.c: 149: }
;sim300.c: 151: return 1;
	movlw	(01h)
	goto	l111
	
l1909:	
	line	152
	
l111:	
	return
	opt stack 0
GLOBAL	__end_of_SIM300CheckResponse
	__end_of_SIM300CheckResponse:
	signat	_SIM300CheckResponse,12409
	global	_ISR

;; *************** function _ISR *****************
;; Defined at:
;;		line 6 in file "E:\Study Material\XC8 PROJECTS\Security 870\isr.c"
;; Parameters:    Size  Location     Type
;;		None
;; Auto vars:     Size  Location     Type
;;		None
;; Return value:  Size  Location     Type
;;		None               void
;; Registers used:
;;		wreg, fsr0l, fsr0h, status,2, status,0, pclath, cstack
;; Tracked objects:
;;		On entry : 0/0
;;		On exit  : 0/0
;;		Unchanged: 0/0
;; Data sizes:     COMMON   BANK0   BANK1
;;      Params:         0       0       0
;;      Locals:         0       0       0
;;      Temps:          4       0       0
;;      Totals:         4       0       0
;;Total ram usage:        4 bytes
;; Hardware stack levels used:    1
;; Hardware stack levels required when called:    1
;; This function calls:
;;		_USARTHandleRxInt
;; This function is called by:
;;		Interrupt level 1
;; This function uses a non-reentrant model
;;
psect	text23,local,class=CODE,delta=2,merge=1
	file	"E:\Study Material\XC8 PROJECTS\Security 870\isr.c"
	line	6
global __ptext23
__ptext23:	;psect for function _ISR
psect	text23
	file	"E:\Study Material\XC8 PROJECTS\Security 870\isr.c"
	line	6
	global	__size_of_ISR
	__size_of_ISR	equ	__end_of_ISR-_ISR
	
_ISR:	
;incstack = 0
	opt	stack 1
; Regs used in _ISR: [wreg-fsr0h+status,2+status,0+pclath+cstack]
psect	intentry,class=CODE,delta=2
global __pintentry
__pintentry:
global interrupt_function
interrupt_function:
	global saved_w
	saved_w	set	btemp+0
	movwf	saved_w
	swapf	status,w
	movwf	(??_ISR+0)
	movf	fsr0,w
	movwf	(??_ISR+1)
	movf	pclath,w
	movwf	(??_ISR+2)
	bcf	status, 5	;RP0=0, select bank0
	bcf	status, 6	;RP1=0, select bank0
	movf	btemp+1,w
	movwf	(??_ISR+3)
	ljmp	_ISR
psect	text23
	line	8
	
i1l2083:	
;isr.c: 8: if (RCIE && RCIF) {
	bsf	status, 5	;RP0=1, select bank1
	bcf	status, 6	;RP1=0, select bank1
	btfss	(1125/8)^080h,(1125)&7	;volatile
	goto	u174_21
	goto	u174_20
u174_21:
	goto	i1l16
u174_20:
	
i1l2085:	
	bcf	status, 5	;RP0=0, select bank0
	bcf	status, 6	;RP1=0, select bank0
	btfss	(101/8),(101)&7	;volatile
	goto	u175_21
	goto	u175_20
u175_21:
	goto	i1l16
u175_20:
	line	9
	
i1l2087:	
;isr.c: 9: USARTHandleRxInt();
	fcall	_USARTHandleRxInt
	goto	i1l16
	line	10
	
i1l2089:	
;isr.c: 10: return;
	goto	i1l16
	line	11
	
i1l15:	
	line	12
	
i1l16:	
	movf	(??_ISR+3),w
	bcf	status, 5	;RP0=0, select bank0
	bcf	status, 6	;RP1=0, select bank0
	movwf	btemp+1
	movf	(??_ISR+2),w
	movwf	pclath
	movf	(??_ISR+1),w
	movwf	fsr0
	swapf	(??_ISR+0)^0FFFFFF80h,w
	movwf	status
	swapf	saved_w,f
	swapf	saved_w,w
	retfie
	opt stack 0
GLOBAL	__end_of_ISR
	__end_of_ISR:
	signat	_ISR,88
	global	_USARTHandleRxInt

;; *************** function _USARTHandleRxInt *****************
;; Defined at:
;;		line 99 in file "E:\Study Material\XC8 PROJECTS\Security 870\usart_pic16.c"
;; Parameters:    Size  Location     Type
;;		None
;; Auto vars:     Size  Location     Type
;;  data            1    4[COMMON] unsigned char 
;; Return value:  Size  Location     Type
;;		None               void
;; Registers used:
;;		wreg, fsr0l, fsr0h, status,2, status,0
;; Tracked objects:
;;		On entry : 0/0
;;		On exit  : 0/0
;;		Unchanged: 0/0
;; Data sizes:     COMMON   BANK0   BANK1
;;      Params:         0       0       0
;;      Locals:         1       0       0
;;      Temps:          4       0       0
;;      Totals:         5       0       0
;;Total ram usage:        5 bytes
;; Hardware stack levels used:    1
;; This function calls:
;;		Nothing
;; This function is called by:
;;		_ISR
;; This function uses a non-reentrant model
;;
psect	text24,local,class=CODE,delta=2,merge=1
	file	"E:\Study Material\XC8 PROJECTS\Security 870\usart_pic16.c"
	line	99
global __ptext24
__ptext24:	;psect for function _USARTHandleRxInt
psect	text24
	file	"E:\Study Material\XC8 PROJECTS\Security 870\usart_pic16.c"
	line	99
	global	__size_of_USARTHandleRxInt
	__size_of_USARTHandleRxInt	equ	__end_of_USARTHandleRxInt-_USARTHandleRxInt
	
_USARTHandleRxInt:	
;incstack = 0
	opt	stack 1
; Regs used in _USARTHandleRxInt: [wreg-fsr0h+status,2+status,0]
	line	102
	
i1l1975:	
;usart_pic16.c: 102: if(RB1==1)
	bcf	status, 5	;RP0=0, select bank0
	bcf	status, 6	;RP1=0, select bank0
	btfss	(49/8),(49)&7	;volatile
	goto	u161_21
	goto	u161_20
u161_21:
	goto	i1l201
u161_20:
	line	103
	
i1l1977:	
;usart_pic16.c: 103: RB1=0;
	bcf	(49/8),(49)&7	;volatile
	goto	i1l1979
	line	104
	
i1l201:	
	line	105
;usart_pic16.c: 104: else
;usart_pic16.c: 105: RB1=1;
	bsf	(49/8),(49)&7	;volatile
	goto	i1l1979
	
i1l202:	
	line	108
	
i1l1979:	
;usart_pic16.c: 108: char data=RCREG;
	movf	(26),w	;volatile
	movwf	(??_USARTHandleRxInt+0)+0
	movf	(??_USARTHandleRxInt+0)+0,w
	movwf	(USARTHandleRxInt@data)
	line	111
;usart_pic16.c: 111: if(((UQEnd==5-1) && UQFront==0) || ((UQEnd+1)==UQFront))
	movf	(_UQEnd),w	;volatile
	xorlw	04h
	skipz
	goto	u162_21
	goto	u162_20
u162_21:
	goto	i1l1983
u162_20:
	
i1l1981:	
	movf	(_UQFront),w	;volatile
	skipz
	goto	u163_20
	goto	i1l1985
u163_20:
	goto	i1l1983
	
i1l207:	
	
i1l1983:	
	movf	(_UQFront),w	;volatile
	movwf	(??_USARTHandleRxInt+0)+0
	clrf	(??_USARTHandleRxInt+0)+0+1
	btfsc	(??_USARTHandleRxInt+0)+0,7
	decf	(??_USARTHandleRxInt+0)+0+1,f
	movlw	01h
	addwf	(_UQEnd),w	;volatile
	movwf	(??_USARTHandleRxInt+2)+0
	clrf	1+(??_USARTHandleRxInt+2)+0
	skipnc
	incf	((??_USARTHandleRxInt+2)+0)+1,f
	btfss	(_UQEnd),7	;volatile
	goto	u164_24
	decf	((??_USARTHandleRxInt+2)+0)+1,f
	u164_24:
	
	movf	1+(??_USARTHandleRxInt+0)+0,w
	xorwf	1+(??_USARTHandleRxInt+2)+0,w
	skipz
	goto	u165_25
	movf	0+(??_USARTHandleRxInt+0)+0,w
	xorwf	0+(??_USARTHandleRxInt+2)+0,w
u165_25:

	skipz
	goto	u165_21
	goto	u165_20
u165_21:
	goto	i1l1991
u165_20:
	bcf	status, 5	;RP0=0, select bank0
	bcf	status, 6	;RP1=0, select bank0
	goto	i1l1985
	
i1l205:	
	line	114
	
i1l1985:	
;usart_pic16.c: 112: {
;usart_pic16.c: 114: UQFront++;
	movlw	(01h)
	movwf	(??_USARTHandleRxInt+0)+0
	movf	(??_USARTHandleRxInt+0)+0,w
	addwf	(_UQFront),f	;volatile
	line	115
	
i1l1987:	
;usart_pic16.c: 115: if(UQFront==5)
	movf	(_UQFront),w	;volatile
	xorlw	05h
	skipz
	goto	u166_21
	goto	u166_20
u166_21:
	goto	i1l1991
u166_20:
	line	116
	
i1l1989:	
;usart_pic16.c: 116: UQFront=0;
	clrf	(_UQFront)	;volatile
	goto	i1l1991
	
i1l208:	
	goto	i1l1991
	line	117
	
i1l203:	
	line	119
	
i1l1991:	
;usart_pic16.c: 117: }
;usart_pic16.c: 119: if(UQEnd==5-1)
	movf	(_UQEnd),w	;volatile
	xorlw	04h
	skipz
	goto	u167_21
	goto	u167_20
u167_21:
	goto	i1l1995
u167_20:
	line	120
	
i1l1993:	
;usart_pic16.c: 120: UQEnd=0;
	clrf	(_UQEnd)	;volatile
	goto	i1l1997
	line	121
	
i1l209:	
	line	122
	
i1l1995:	
;usart_pic16.c: 121: else
;usart_pic16.c: 122: UQEnd++;
	movlw	(01h)
	movwf	(??_USARTHandleRxInt+0)+0
	movf	(??_USARTHandleRxInt+0)+0,w
	addwf	(_UQEnd),f	;volatile
	goto	i1l1997
	
i1l210:	
	line	124
	
i1l1997:	
;usart_pic16.c: 124: URBuff[UQEnd]=data;
	movf	(USARTHandleRxInt@data),w
	movwf	(??_USARTHandleRxInt+0)+0
	movf	(_UQEnd),w
	addlw	_URBuff&0ffh
	movwf	fsr0
	movf	(??_USARTHandleRxInt+0)+0,w
	bcf	status, 7	;select IRP bank0
	movwf	indf
	line	126
	
i1l1999:	
;usart_pic16.c: 126: if(UQFront==-1)
	movf	(_UQFront),w	;volatile
	xorlw	-1
	skipz
	goto	u168_21
	goto	u168_20
u168_21:
	goto	i1l212
u168_20:
	line	127
	
i1l2001:	
;usart_pic16.c: 127: UQFront=0;
	clrf	(_UQFront)	;volatile
	goto	i1l212
	
i1l211:	
	line	128
	
i1l212:	
	return
	opt stack 0
GLOBAL	__end_of_USARTHandleRxInt
	__end_of_USARTHandleRxInt:
	signat	_USARTHandleRxInt,88
global	___latbits
___latbits	equ	0
	global	btemp
	btemp set 07Eh

	DABS	1,126,2	;btemp
	global	wtemp
	global	wtemp0
	wtemp set btemp
	wtemp0 set btemp
	global	wtemp1
	wtemp1 set btemp+2
	global	wtemp2
	wtemp2 set btemp+4
	global	wtemp3
	wtemp3 set btemp+6
	global	wtemp4
	wtemp4 set btemp+8
	global	wtemp5
	wtemp5 set btemp+10
	global	wtemp6
	wtemp6 set btemp+1
	global	ttemp
	global	ttemp0
	ttemp set btemp
	ttemp0 set btemp
	global	ttemp1
	ttemp1 set btemp+3
	global	ttemp2
	ttemp2 set btemp+6
	global	ttemp3
	ttemp3 set btemp+9
	global	ttemp4
	ttemp4 set btemp+1
	global	ltemp
	global	ltemp0
	ltemp set btemp
	ltemp0 set btemp
	global	ltemp1
	ltemp1 set btemp+4
	global	ltemp2
	ltemp2 set btemp+8
	global	ltemp3
	ltemp3 set btemp+2
	end
